
 Start         Length     Name                   Class
 0001:00401000 0002C724H .text                   CODE
 0002:0042E000 00000508H .itext                  ICODE
 0003:0042F000 00003998H .data                   DATA
 0004:00433000 00260110H .bss                    BSS
 0005:00000000 00000000H .tls                    TLS


Detailed map of segments

 0001:00000000 0000034E C=CODE     S=.text    G=(none)   M=System   ACBP=A9
 0001:00000350 000001C3 C=CODE     S=.text    G=(none)   M=SysInit  ACBP=A9
 0001:00000514 0000018C C=CODE     S=.text    G=(none)   M=Windows  ACBP=A9
 0001:000006A0 000002EE C=CODE     S=.text    G=(none)   M=Classes  ACBP=A9
 0001:00000990 00000006 C=CODE     S=.text    G=(none)   M=ActiveX  ACBP=A9
 0001:00000998 00000006 C=CODE     S=.text    G=(none)   M=TypInfo  ACBP=A9
 0001:000009A0 000000AE C=CODE     S=.text    G=(none)   M=SysUtils ACBP=A9
 0001:00000A50 0000007E C=CODE     S=.text    G=(none)   M=Variants ACBP=A9
 0001:00000AD0 00000006 C=CODE     S=.text    G=(none)   M=VarUtils ACBP=A9
 0001:00000AD8 0000017E C=CODE     S=.text    G=(none)   M=MMSystem ACBP=A9
 0001:00000C58 0000003E C=CODE     S=.text    G=(none)   M=_MSAcm   ACBP=A9
 0001:00000C98 00000742 C=CODE     S=.text    G=(none)   M=WaveConverter ACBP=A9
 0001:000013DC 00000B32 C=CODE     S=.text    G=(none)   M=FastcodeCPUID ACBP=A9
 0001:00001F10 00000A3A C=CODE     S=.text    G=(none)   M=FastMove ACBP=A9
 0001:0000294C 00000086 C=CODE     S=.text    G=(none)   M=ACS_Types ACBP=A9
 0001:000029D4 0000002E C=CODE     S=.text    G=(none)   M=SyncObjs ACBP=A9
 0001:00002A04 0000002E C=CODE     S=.text    G=(none)   M=Math     ACBP=A9
 0001:00002A34 0000244A C=CODE     S=.text    G=(none)   M=ACS_Procs ACBP=A9
 0001:00004E80 000064F6 C=CODE     S=.text    G=(none)   M=ACS_Tags ACBP=A9
 0001:0000B378 00003F42 C=CODE     S=.text    G=(none)   M=ACS_Classes ACBP=A9
 0001:0000F2BC 0000369E C=CODE     S=.text    G=(none)   M=ACS_Wave ACBP=A9
 0001:0001295C 00000046 C=CODE     S=.text    G=(none)   M=_DXTypes ACBP=A9
 0001:000129A4 00000692 C=CODE     S=.text    G=(none)   M=_DirectSound ACBP=A9
 0001:00013038 00000999 C=CODE     S=.text    G=(none)   M=wmfintf  ACBP=A9
 0001:000139D4 00004556 C=CODE     S=.text    G=(none)   M=libwma1  ACBP=A9
 0001:00017F2C 00002EB6 C=CODE     S=.text    G=(none)   M=ACS_WinMedia ACBP=A9
 0001:0001ADE4 0000003E C=CODE     S=.text    G=(none)   M=BisCoreObjects ACBP=A9
 0001:0001AE24 00000026 C=CODE     S=.text    G=(none)   M=Contnrs  ACBP=A9
 0001:0001AE4C 0000000E C=CODE     S=.text    G=(none)   M=BisUtils ACBP=A9
 0001:0001AE5C 00000016 C=CODE     S=.text    G=(none)   M=BisObject ACBP=A9
 0001:0001AE74 00000006 C=CODE     S=.text    G=(none)   M=Graphics ACBP=A9
 0001:0001AE7C 00000006 C=CODE     S=.text    G=(none)   M=Registry ACBP=A9
 0001:0001AE84 00000006 C=CODE     S=.text    G=(none)   M=IniFiles ACBP=A9
 0001:0001AE8C 00000006 C=CODE     S=.text    G=(none)   M=Menus    ACBP=A9
 0001:0001AE94 00000006 C=CODE     S=.text    G=(none)   M=ActnList ACBP=A9
 0001:0001AE9C 00000006 C=CODE     S=.text    G=(none)   M=Themes   ACBP=A9
 0001:0001AEA4 00000006 C=CODE     S=.text    G=(none)   M=Controls ACBP=A9
 0001:0001AEAC 00000006 C=CODE     S=.text    G=(none)   M=UxTheme  ACBP=A9
 0001:0001AEB4 00000006 C=CODE     S=.text    G=(none)   M=MultiMon ACBP=A9
 0001:0001AEBC 00000006 C=CODE     S=.text    G=(none)   M=DwmApi   ACBP=A9
 0001:0001AEC4 00000006 C=CODE     S=.text    G=(none)   M=Forms    ACBP=A9
 0001:0001AECC 00000006 C=CODE     S=.text    G=(none)   M=HelpIntfs ACBP=A9
 0001:0001AED4 00000006 C=CODE     S=.text    G=(none)   M=Dialogs  ACBP=A9
 0001:0001AEDC 00000006 C=CODE     S=.text    G=(none)   M=Printers ACBP=A9
 0001:0001AEE4 00000006 C=CODE     S=.text    G=(none)   M=ExtCtrls ACBP=A9
 0001:0001AEEC 00000006 C=CODE     S=.text    G=(none)   M=GraphUtil ACBP=A9
 0001:0001AEF4 00000006 C=CODE     S=.text    G=(none)   M=Clipbrd  ACBP=A9
 0001:0001AEFC 00000006 C=CODE     S=.text    G=(none)   M=FlatSB   ACBP=A9
 0001:0001AF04 0000002E C=CODE     S=.text    G=(none)   M=DB       ACBP=A9
 0001:0001AF34 00000006 C=CODE     S=.text    G=(none)   M=WideStrings ACBP=A9
 0001:0001AF3C 00000006 C=CODE     S=.text    G=(none)   M=FMTBcd   ACBP=A9
 0001:0001AF44 00000006 C=CODE     S=.text    G=(none)   M=SqlTimSt ACBP=A9
 0001:0001AF4C 00000006 C=CODE     S=.text    G=(none)   M=ComObj   ACBP=A9
 0001:0001AF54 00000006 C=CODE     S=.text    G=(none)   M=BisFm    ACBP=A9
 0001:0001AF5C 0000003E C=CODE     S=.text    G=(none)   M=BisThreads ACBP=A9
 0001:0001AF9C 00000006 C=CODE     S=.text    G=(none)   M=BisLocks ACBP=A9
 0001:0001AFA4 00000006 C=CODE     S=.text    G=(none)   M=DECUtil  ACBP=A9
 0001:0001AFAC 00000006 C=CODE     S=.text    G=(none)   M=Hash     ACBP=A9
 0001:0001AFB4 00000006 C=CODE     S=.text    G=(none)   M=Cipher   ACBP=A9
 0001:0001AFBC 00000006 C=CODE     S=.text    G=(none)   M=Cipher1  ACBP=A9
 0001:0001AFC4 00000006 C=CODE     S=.text    G=(none)   M=BisCryptUtils ACBP=A9
 0001:0001AFCC 00000006 C=CODE     S=.text    G=(none)   M=BisParams ACBP=A9
 0001:0001AFD4 00000006 C=CODE     S=.text    G=(none)   M=DBCtrls  ACBP=A9
 0001:0001AFDC 00000006 C=CODE     S=.text    G=(none)   M=ComCtrls ACBP=A9
 0001:0001AFE4 00000006 C=CODE     S=.text    G=(none)   M=ExtActns ACBP=A9
 0001:0001AFEC 00000006 C=CODE     S=.text    G=(none)   M=ExtDlgs  ACBP=A9
 0001:0001AFF4 00000006 C=CODE     S=.text    G=(none)   M=Buttons  ACBP=A9
 0001:0001AFFC 00000006 C=CODE     S=.text    G=(none)   M=Mapi     ACBP=A9
 0001:0001B004 00000006 C=CODE     S=.text    G=(none)   M=DBPWDlg  ACBP=A9
 0001:0001B00C 00000006 C=CODE     S=.text    G=(none)   M=DBLogDlg ACBP=A9
 0001:0001B014 00000006 C=CODE     S=.text    G=(none)   M=rxToolEdit ACBP=A9
 0001:0001B01C 00000006 C=CODE     S=.text    G=(none)   M=rxDateUtil ACBP=A9
 0001:0001B024 00000006 C=CODE     S=.text    G=(none)   M=RXCtrls  ACBP=A9
 0001:0001B02C 00000006 C=CODE     S=.text    G=(none)   M=RxHook   ACBP=A9
 0001:0001B034 00000006 C=CODE     S=.text    G=(none)   M=RXConst  ACBP=A9
 0001:0001B03C 00000006 C=CODE     S=.text    G=(none)   M=rxVclutils ACBP=A9
 0001:0001B044 00000006 C=CODE     S=.text    G=(none)   M=RXProps  ACBP=A9
 0001:0001B04C 00000006 C=CODE     S=.text    G=(none)   M=rxAppUtils ACBP=A9
 0001:0001B054 00000006 C=CODE     S=.text    G=(none)   M=RxPrgrss ACBP=A9
 0001:0001B05C 00000006 C=CODE     S=.text    G=(none)   M=SynEdit  ACBP=A9
 0001:0001B064 00000006 C=CODE     S=.text    G=(none)   M=SynEditHighlighter ACBP=A9
 0001:0001B06C 00000006 C=CODE     S=.text    G=(none)   M=SynEditMiscClasses ACBP=A9
 0001:0001B074 00000006 C=CODE     S=.text    G=(none)   M=SynRegExpr ACBP=A9
 0001:0001B07C 00000006 C=CODE     S=.text    G=(none)   M=SynEditKeyCmds ACBP=A9
 0001:0001B084 00000006 C=CODE     S=.text    G=(none)   M=SynTextDrawer ACBP=A9
 0001:0001B08C 00000006 C=CODE     S=.text    G=(none)   M=rxCurrEdit ACBP=A9
 0001:0001B094 00000006 C=CODE     S=.text    G=(none)   M=ThemedDBGrid ACBP=A9
 0001:0001B09C 00000006 C=CODE     S=.text    G=(none)   M=RxRichEd ACBP=A9
 0001:0001B0A4 00000006 C=CODE     S=.text    G=(none)   M=OleCtnrs ACBP=A9
 0001:0001B0AC 00000006 C=CODE     S=.text    G=(none)   M=CheckLst ACBP=A9
 0001:0001B0B4 00000006 C=CODE     S=.text    G=(none)   M=GIFImage ACBP=A9
 0001:0001B0BC 00000006 C=CODE     S=.text    G=(none)   M=jpeg     ACBP=A9
 0001:0001B0C4 00000026 C=CODE     S=.text    G=(none)   M=BisDataSet ACBP=A9
 0001:0001B0EC 00000006 C=CODE     S=.text    G=(none)   M=BisCore  ACBP=A9
 0001:0001B0F4 00000006 C=CODE     S=.text    G=(none)   M=kbmMemTable ACBP=A9
 0001:0001B0FC 00000006 C=CODE     S=.text    G=(none)   M=BisConnectionUtils ACBP=A9
 0001:0001B104 00000006 C=CODE     S=.text    G=(none)   M=SynHighlighterXML ACBP=A9
 0001:0001B10C 00000006 C=CODE     S=.text    G=(none)   M=SynHighlighterSQL ACBP=A9
 0001:0001B114 00000006 C=CODE     S=.text    G=(none)   M=OleServer ACBP=A9
 0001:0001B11C 00000006 C=CODE     S=.text    G=(none)   M=OleCtrls ACBP=A9
 0001:0001B124 00000006 C=CODE     S=.text    G=(none)   M=AxCtrls  ACBP=A9
 0001:0001B12C 00000006 C=CODE     S=.text    G=(none)   M=BisTimedMsgFm ACBP=A9
 0001:0001B134 00000006 C=CODE     S=.text    G=(none)   M=ActnMan  ACBP=A9
 0001:0001B13C 00000006 C=CODE     S=.text    G=(none)   M=ActnMenus ACBP=A9
 0001:0001B144 00000006 C=CODE     S=.text    G=(none)   M=XPStyleActnCtrls ACBP=A9
 0001:0001B14C 00000006 C=CODE     S=.text    G=(none)   M=BisProvider ACBP=A9
 0001:0001B154 00000006 C=CODE     S=.text    G=(none)   M=GIFImg   ACBP=A9
 0001:0001B15C 00000006 C=CODE     S=.text    G=(none)   M=BisSystemUtils ACBP=A9
 0001:0001B164 00000006 C=CODE     S=.text    G=(none)   M=MiTeC_Routines ACBP=A9
 0001:0001B16C 00000006 C=CODE     S=.text    G=(none)   M=MSI_Processes ACBP=A9
 0001:0001B174 00000006 C=CODE     S=.text    G=(none)   M=MiTeC_PSAPI ACBP=A9
 0001:0001B17C 00000006 C=CODE     S=.text    G=(none)   M=MSI_Devices ACBP=A9
 0001:0001B184 00000006 C=CODE     S=.text    G=(none)   M=MSI_CPU  ACBP=A9
 0001:0001B18C 00000006 C=CODE     S=.text    G=(none)   M=BisExceptNotifier ACBP=A9
 0001:0001B194 00000006 C=CODE     S=.text    G=(none)   M=JclDebug ACBP=A9
 0001:0001B19C 00000006 C=CODE     S=.text    G=(none)   M=JclSysInfo ACBP=A9
 0001:0001B1A4 00000006 C=CODE     S=.text    G=(none)   M=JclStrings ACBP=A9
 0001:0001B1AC 00000006 C=CODE     S=.text    G=(none)   M=JclSysUtils ACBP=A9
 0001:0001B1B4 00000006 C=CODE     S=.text    G=(none)   M=JclWideStrings ACBP=A9
 0001:0001B1BC 00000006 C=CODE     S=.text    G=(none)   M=JclShell ACBP=A9
 0001:0001B1C4 00000006 C=CODE     S=.text    G=(none)   M=JclRegistry ACBP=A9
 0001:0001B1CC 00000006 C=CODE     S=.text    G=(none)   M=JclHookExcept ACBP=A9
 0001:0001B1D4 00000006 C=CODE     S=.text    G=(none)   M=BisDeadlocks ACBP=A9
 0001:0001B1DC 00000006 C=CODE     S=.text    G=(none)   M=BisServiceApplication ACBP=A9
 0001:0001B1E4 00000006 C=CODE     S=.text    G=(none)   M=BisSvcMgr ACBP=A9
 0001:0001B1EC 00000006 C=CODE     S=.text    G=(none)   M=SvcMgr   ACBP=A9
 0001:0001B1F4 00000006 C=CODE     S=.text    G=(none)   M=AsyncCalls ACBP=A9
 0001:0001B1FC 0000022A C=CODE     S=.text    G=(none)   M=BisAudioCodec ACBP=A9
 0001:0001B428 000000B6 C=CODE     S=.text    G=(none)   M=WaveACM  ACBP=A9
 0001:0001B4E0 00000B72 C=CODE     S=.text    G=(none)   M=WaveAcmDrivers ACBP=A9
 0001:0001C054 00002186 C=CODE     S=.text    G=(none)   M=WaveUtils ACBP=A9
 0001:0001E1DC 00002E2E C=CODE     S=.text    G=(none)   M=WaveStorage ACBP=A9
 0001:0002100C 00000E6A C=CODE     S=.text    G=(none)   M=WaveIO   ACBP=A9
 0001:00021E78 00000CEA C=CODE     S=.text    G=(none)   M=WaveIn   ACBP=A9
 0001:00022B64 00000DF6 C=CODE     S=.text    G=(none)   M=WaveRecorders ACBP=A9
 0001:0002395C 000013FA C=CODE     S=.text    G=(none)   M=WaveOut  ACBP=A9
 0001:00024D58 00001316 C=CODE     S=.text    G=(none)   M=WavePlayers ACBP=A9
 0001:00026070 000016AA C=CODE     S=.text    G=(none)   M=WaveMixer ACBP=A9
 0001:0002771C 00000FA2 C=CODE     S=.text    G=(none)   M=BisAudioWave ACBP=A9
 0001:000286C0 00001146 C=CODE     S=.text    G=(none)   M=BisAudioDtmf ACBP=A9
 0001:00029808 00000006 C=CODE     S=.text    G=(none)   M=IdGlobal ACBP=A9
 0001:00029810 00000006 C=CODE     S=.text    G=(none)   M=IdSysVCL ACBP=A9
 0001:00029818 00000216 C=CODE     S=.text    G=(none)   M=BisRtpAcmDrivers ACBP=A9
 0001:00029A30 0000003E C=CODE     S=.text    G=(none)   M=ALXmlDoc ACBP=A9
 0001:00029A70 00000006 C=CODE     S=.text    G=(none)   M=ALfcnString ACBP=A9
 0001:00029A78 00000006 C=CODE     S=.text    G=(none)   M=ALCPUID  ACBP=A9
 0001:00029A80 00000006 C=CODE     S=.text    G=(none)   M=ALFcnHTML ACBP=A9
 0001:00029A88 00000AA6 C=CODE     S=.text    G=(none)   M=BisAudioTextPhrases ACBP=A9
 0001:0002A530 00000596 C=CODE     S=.text    G=(none)   M=BisAudioUtils ACBP=A9
 0001:0002AAC8 000009D2 C=CODE     S=.text    G=(none)   M=FftSpec  ACBP=A9
 0001:0002B49C 000005DE C=CODE     S=.text    G=(none)   M=BisAudioSpectrum ACBP=A9
 0001:0002BA7C 00000CA7 C=CODE     S=.text    G=(none)   M=.omaudio ACBP=A9
 0002:00000000 00000006 C=ICODE    S=.itext   G=(none)   M=System   ACBP=A9
 0002:00000008 00000011 C=ICODE    S=.itext   G=(none)   M=Windows  ACBP=A9
 0002:0000001C 00000006 C=ICODE    S=.itext   G=(none)   M=Classes  ACBP=A9
 0002:00000024 00000006 C=ICODE    S=.itext   G=(none)   M=TypInfo  ACBP=A9
 0002:0000002C 00000006 C=ICODE    S=.itext   G=(none)   M=SysUtils ACBP=A9
 0002:00000034 00000006 C=ICODE    S=.itext   G=(none)   M=Variants ACBP=A9
 0002:0000003C 00000006 C=ICODE    S=.itext   G=(none)   M=VarUtils ACBP=A9
 0002:00000044 00000008 C=ICODE    S=.itext   G=(none)   M=WaveConverter ACBP=A9
 0002:0000004C 00000014 C=ICODE    S=.itext   G=(none)   M=FastcodeCPUID ACBP=A9
 0002:00000060 00000027 C=ICODE    S=.itext   G=(none)   M=FastMove ACBP=A9
 0002:00000088 00000008 C=ICODE    S=.itext   G=(none)   M=ACS_Types ACBP=A9
 0002:00000090 00000008 C=ICODE    S=.itext   G=(none)   M=ACS_Procs ACBP=A9
 0002:00000098 00000008 C=ICODE    S=.itext   G=(none)   M=ACS_Tags ACBP=A9
 0002:000000A0 00000022 C=ICODE    S=.itext   G=(none)   M=ACS_Classes ACBP=A9
 0002:000000C4 00000008 C=ICODE    S=.itext   G=(none)   M=ACS_Wave ACBP=A9
 0002:000000CC 00000008 C=ICODE    S=.itext   G=(none)   M=_DXTypes ACBP=A9
 0002:000000D4 00000008 C=ICODE    S=.itext   G=(none)   M=_DirectSound ACBP=A9
 0002:000000DC 0000000F C=ICODE    S=.itext   G=(none)   M=wmfintf  ACBP=A9
 0002:000000EC 00000008 C=ICODE    S=.itext   G=(none)   M=libwma1  ACBP=A9
 0002:000000F4 00000008 C=ICODE    S=.itext   G=(none)   M=ACS_WinMedia ACBP=A9
 0002:000000FC 00000006 C=ICODE    S=.itext   G=(none)   M=BisUtils ACBP=A9
 0002:00000104 00000006 C=ICODE    S=.itext   G=(none)   M=Graphics ACBP=A9
 0002:0000010C 00000006 C=ICODE    S=.itext   G=(none)   M=Registry ACBP=A9
 0002:00000114 00000006 C=ICODE    S=.itext   G=(none)   M=IniFiles ACBP=A9
 0002:0000011C 00000006 C=ICODE    S=.itext   G=(none)   M=Menus    ACBP=A9
 0002:00000124 00000006 C=ICODE    S=.itext   G=(none)   M=ActnList ACBP=A9
 0002:0000012C 00000006 C=ICODE    S=.itext   G=(none)   M=Themes   ACBP=A9
 0002:00000134 00000006 C=ICODE    S=.itext   G=(none)   M=Controls ACBP=A9
 0002:0000013C 00000006 C=ICODE    S=.itext   G=(none)   M=UxTheme  ACBP=A9
 0002:00000144 00000006 C=ICODE    S=.itext   G=(none)   M=MultiMon ACBP=A9
 0002:0000014C 00000006 C=ICODE    S=.itext   G=(none)   M=DwmApi   ACBP=A9
 0002:00000154 00000006 C=ICODE    S=.itext   G=(none)   M=Forms    ACBP=A9
 0002:0000015C 00000006 C=ICODE    S=.itext   G=(none)   M=HelpIntfs ACBP=A9
 0002:00000164 00000006 C=ICODE    S=.itext   G=(none)   M=Dialogs  ACBP=A9
 0002:0000016C 00000006 C=ICODE    S=.itext   G=(none)   M=Printers ACBP=A9
 0002:00000174 00000006 C=ICODE    S=.itext   G=(none)   M=ExtCtrls ACBP=A9
 0002:0000017C 00000006 C=ICODE    S=.itext   G=(none)   M=GraphUtil ACBP=A9
 0002:00000184 00000006 C=ICODE    S=.itext   G=(none)   M=Clipbrd  ACBP=A9
 0002:0000018C 00000006 C=ICODE    S=.itext   G=(none)   M=FlatSB   ACBP=A9
 0002:00000194 00000006 C=ICODE    S=.itext   G=(none)   M=DB       ACBP=A9
 0002:0000019C 00000006 C=ICODE    S=.itext   G=(none)   M=WideStrings ACBP=A9
 0002:000001A4 00000006 C=ICODE    S=.itext   G=(none)   M=FMTBcd   ACBP=A9
 0002:000001AC 00000006 C=ICODE    S=.itext   G=(none)   M=SqlTimSt ACBP=A9
 0002:000001B4 00000006 C=ICODE    S=.itext   G=(none)   M=ComObj   ACBP=A9
 0002:000001BC 00000006 C=ICODE    S=.itext   G=(none)   M=BisFm    ACBP=A9
 0002:000001C4 00000006 C=ICODE    S=.itext   G=(none)   M=BisThreads ACBP=A9
 0002:000001CC 00000006 C=ICODE    S=.itext   G=(none)   M=BisLocks ACBP=A9
 0002:000001D4 00000006 C=ICODE    S=.itext   G=(none)   M=DECUtil  ACBP=A9
 0002:000001DC 00000006 C=ICODE    S=.itext   G=(none)   M=Hash     ACBP=A9
 0002:000001E4 00000006 C=ICODE    S=.itext   G=(none)   M=Cipher   ACBP=A9
 0002:000001EC 00000006 C=ICODE    S=.itext   G=(none)   M=Cipher1  ACBP=A9
 0002:000001F4 00000006 C=ICODE    S=.itext   G=(none)   M=BisCryptUtils ACBP=A9
 0002:000001FC 00000006 C=ICODE    S=.itext   G=(none)   M=DBCtrls  ACBP=A9
 0002:00000204 00000006 C=ICODE    S=.itext   G=(none)   M=ComCtrls ACBP=A9
 0002:0000020C 00000006 C=ICODE    S=.itext   G=(none)   M=ExtActns ACBP=A9
 0002:00000214 00000006 C=ICODE    S=.itext   G=(none)   M=ExtDlgs  ACBP=A9
 0002:0000021C 00000006 C=ICODE    S=.itext   G=(none)   M=Buttons  ACBP=A9
 0002:00000224 00000006 C=ICODE    S=.itext   G=(none)   M=Mapi     ACBP=A9
 0002:0000022C 00000006 C=ICODE    S=.itext   G=(none)   M=DBPWDlg  ACBP=A9
 0002:00000234 00000006 C=ICODE    S=.itext   G=(none)   M=DBLogDlg ACBP=A9
 0002:0000023C 00000006 C=ICODE    S=.itext   G=(none)   M=rxToolEdit ACBP=A9
 0002:00000244 00000006 C=ICODE    S=.itext   G=(none)   M=rxDateUtil ACBP=A9
 0002:0000024C 00000006 C=ICODE    S=.itext   G=(none)   M=RXCtrls  ACBP=A9
 0002:00000254 00000006 C=ICODE    S=.itext   G=(none)   M=RxHook   ACBP=A9
 0002:0000025C 00000006 C=ICODE    S=.itext   G=(none)   M=RXConst  ACBP=A9
 0002:00000264 00000006 C=ICODE    S=.itext   G=(none)   M=rxVclutils ACBP=A9
 0002:0000026C 00000006 C=ICODE    S=.itext   G=(none)   M=RXProps  ACBP=A9
 0002:00000274 00000006 C=ICODE    S=.itext   G=(none)   M=rxAppUtils ACBP=A9
 0002:0000027C 00000006 C=ICODE    S=.itext   G=(none)   M=RxPrgrss ACBP=A9
 0002:00000284 00000006 C=ICODE    S=.itext   G=(none)   M=SynEdit  ACBP=A9
 0002:0000028C 00000006 C=ICODE    S=.itext   G=(none)   M=SynEditHighlighter ACBP=A9
 0002:00000294 00000006 C=ICODE    S=.itext   G=(none)   M=SynEditMiscClasses ACBP=A9
 0002:0000029C 00000006 C=ICODE    S=.itext   G=(none)   M=SynRegExpr ACBP=A9
 0002:000002A4 00000006 C=ICODE    S=.itext   G=(none)   M=SynEditKeyCmds ACBP=A9
 0002:000002AC 00000006 C=ICODE    S=.itext   G=(none)   M=SynTextDrawer ACBP=A9
 0002:000002B4 00000006 C=ICODE    S=.itext   G=(none)   M=rxCurrEdit ACBP=A9
 0002:000002BC 00000006 C=ICODE    S=.itext   G=(none)   M=ThemedDBGrid ACBP=A9
 0002:000002C4 00000006 C=ICODE    S=.itext   G=(none)   M=RxRichEd ACBP=A9
 0002:000002CC 00000006 C=ICODE    S=.itext   G=(none)   M=OleCtnrs ACBP=A9
 0002:000002D4 00000006 C=ICODE    S=.itext   G=(none)   M=CheckLst ACBP=A9
 0002:000002DC 00000006 C=ICODE    S=.itext   G=(none)   M=GIFImage ACBP=A9
 0002:000002E4 00000006 C=ICODE    S=.itext   G=(none)   M=jpeg     ACBP=A9
 0002:000002EC 00000006 C=ICODE    S=.itext   G=(none)   M=BisCore  ACBP=A9
 0002:000002F4 00000006 C=ICODE    S=.itext   G=(none)   M=kbmMemTable ACBP=A9
 0002:000002FC 00000006 C=ICODE    S=.itext   G=(none)   M=BisConnectionUtils ACBP=A9
 0002:00000304 00000006 C=ICODE    S=.itext   G=(none)   M=SynHighlighterXML ACBP=A9
 0002:0000030C 00000006 C=ICODE    S=.itext   G=(none)   M=SynHighlighterSQL ACBP=A9
 0002:00000314 00000006 C=ICODE    S=.itext   G=(none)   M=OleServer ACBP=A9
 0002:0000031C 00000006 C=ICODE    S=.itext   G=(none)   M=OleCtrls ACBP=A9
 0002:00000324 00000006 C=ICODE    S=.itext   G=(none)   M=AxCtrls  ACBP=A9
 0002:0000032C 00000006 C=ICODE    S=.itext   G=(none)   M=BisTimedMsgFm ACBP=A9
 0002:00000334 00000006 C=ICODE    S=.itext   G=(none)   M=ActnMan  ACBP=A9
 0002:0000033C 00000006 C=ICODE    S=.itext   G=(none)   M=ActnMenus ACBP=A9
 0002:00000344 00000006 C=ICODE    S=.itext   G=(none)   M=XPStyleActnCtrls ACBP=A9
 0002:0000034C 00000006 C=ICODE    S=.itext   G=(none)   M=GIFImg   ACBP=A9
 0002:00000354 00000006 C=ICODE    S=.itext   G=(none)   M=BisSystemUtils ACBP=A9
 0002:0000035C 00000006 C=ICODE    S=.itext   G=(none)   M=MiTeC_Routines ACBP=A9
 0002:00000364 00000006 C=ICODE    S=.itext   G=(none)   M=MSI_Processes ACBP=A9
 0002:0000036C 00000006 C=ICODE    S=.itext   G=(none)   M=MiTeC_PSAPI ACBP=A9
 0002:00000374 00000006 C=ICODE    S=.itext   G=(none)   M=MSI_Devices ACBP=A9
 0002:0000037C 00000006 C=ICODE    S=.itext   G=(none)   M=MSI_CPU  ACBP=A9
 0002:00000384 00000006 C=ICODE    S=.itext   G=(none)   M=BisExceptNotifier ACBP=A9
 0002:0000038C 00000006 C=ICODE    S=.itext   G=(none)   M=JclDebug ACBP=A9
 0002:00000394 00000006 C=ICODE    S=.itext   G=(none)   M=JclSysInfo ACBP=A9
 0002:0000039C 00000006 C=ICODE    S=.itext   G=(none)   M=JclStrings ACBP=A9
 0002:000003A4 00000006 C=ICODE    S=.itext   G=(none)   M=JclSysUtils ACBP=A9
 0002:000003AC 00000006 C=ICODE    S=.itext   G=(none)   M=JclWideStrings ACBP=A9
 0002:000003B4 00000006 C=ICODE    S=.itext   G=(none)   M=JclShell ACBP=A9
 0002:000003BC 00000006 C=ICODE    S=.itext   G=(none)   M=JclRegistry ACBP=A9
 0002:000003C4 00000006 C=ICODE    S=.itext   G=(none)   M=JclHookExcept ACBP=A9
 0002:000003CC 00000006 C=ICODE    S=.itext   G=(none)   M=BisDeadlocks ACBP=A9
 0002:000003D4 00000006 C=ICODE    S=.itext   G=(none)   M=BisServiceApplication ACBP=A9
 0002:000003DC 00000006 C=ICODE    S=.itext   G=(none)   M=BisSvcMgr ACBP=A9
 0002:000003E4 00000006 C=ICODE    S=.itext   G=(none)   M=SvcMgr   ACBP=A9
 0002:000003EC 00000006 C=ICODE    S=.itext   G=(none)   M=AsyncCalls ACBP=A9
 0002:000003F4 00000008 C=ICODE    S=.itext   G=(none)   M=BisAudioCodec ACBP=A9
 0002:000003FC 00000008 C=ICODE    S=.itext   G=(none)   M=WaveACM  ACBP=A9
 0002:00000404 00000008 C=ICODE    S=.itext   G=(none)   M=WaveAcmDrivers ACBP=A9
 0002:0000040C 0000001B C=ICODE    S=.itext   G=(none)   M=WaveUtils ACBP=A9
 0002:00000428 00000008 C=ICODE    S=.itext   G=(none)   M=WaveStorage ACBP=A9
 0002:00000430 00000008 C=ICODE    S=.itext   G=(none)   M=WaveIO   ACBP=A9
 0002:00000438 00000008 C=ICODE    S=.itext   G=(none)   M=WaveIn   ACBP=A9
 0002:00000440 00000008 C=ICODE    S=.itext   G=(none)   M=WaveRecorders ACBP=A9
 0002:00000448 00000008 C=ICODE    S=.itext   G=(none)   M=WaveOut  ACBP=A9
 0002:00000450 00000008 C=ICODE    S=.itext   G=(none)   M=WavePlayers ACBP=A9
 0002:00000458 00000008 C=ICODE    S=.itext   G=(none)   M=WaveMixer ACBP=A9
 0002:00000460 00000008 C=ICODE    S=.itext   G=(none)   M=BisAudioWave ACBP=A9
 0002:00000468 00000008 C=ICODE    S=.itext   G=(none)   M=BisAudioDtmf ACBP=A9
 0002:00000470 00000006 C=ICODE    S=.itext   G=(none)   M=IdGlobal ACBP=A9
 0002:00000478 00000006 C=ICODE    S=.itext   G=(none)   M=IdSysVCL ACBP=A9
 0002:00000480 00000008 C=ICODE    S=.itext   G=(none)   M=BisRtpAcmDrivers ACBP=A9
 0002:00000488 00000006 C=ICODE    S=.itext   G=(none)   M=ALfcnString ACBP=A9
 0002:00000490 00000006 C=ICODE    S=.itext   G=(none)   M=ALCPUID  ACBP=A9
 0002:00000498 00000006 C=ICODE    S=.itext   G=(none)   M=ALFcnHTML ACBP=A9
 0002:000004A0 00000008 C=ICODE    S=.itext   G=(none)   M=BisAudioTextPhrases ACBP=A9
 0002:000004A8 00000008 C=ICODE    S=.itext   G=(none)   M=BisAudioUtils ACBP=A9
 0002:000004B0 00000046 C=ICODE    S=.itext   G=(none)   M=FftSpec  ACBP=A9
 0002:000004F8 00000008 C=ICODE    S=.itext   G=(none)   M=BisAudioSpectrum ACBP=A9
 0002:00000500 00000005 C=ICODE    S=.itext   G=(none)   M=.omaudio ACBP=A9
 0003:00000000 00000030 C=DATA     S=.data    G=DGROUP   M=SysInit  ACBP=A9
 0003:00000030 0000298F C=DATA     S=.data    G=DGROUP   M=FastcodeCPUID ACBP=A9
 0003:000029C0 00000020 C=DATA     S=.data    G=DGROUP   M=ACS_Types ACBP=A9
 0003:000029E0 00000018 C=DATA     S=.data    G=DGROUP   M=ACS_Procs ACBP=A9
 0003:000029F8 000002EA C=DATA     S=.data    G=DGROUP   M=ACS_Tags ACBP=A9
 0003:00002CE4 00000020 C=DATA     S=.data    G=DGROUP   M=ACS_Classes ACBP=A9
 0003:00002D04 000001C4 C=DATA     S=.data    G=DGROUP   M=ACS_Wave ACBP=A9
 0003:00002EC8 00000778 C=DATA     S=.data    G=DGROUP   M=_DirectSound ACBP=A9
 0003:00003640 00000208 C=DATA     S=.data    G=DGROUP   M=wmfintf  ACBP=A9
 0003:00003848 0000000C C=DATA     S=.data    G=DGROUP   M=WaveUtils ACBP=A9
 0003:00003854 00000078 C=DATA     S=.data    G=DGROUP   M=WaveMixer ACBP=A9
 0003:000038CC 00000080 C=DATA     S=.data    G=DGROUP   M=BisAudioDtmf ACBP=A9
 0004:00000000 0000000C C=BSS      S=.bss     G=DGROUP   M=SysInit  ACBP=A9
 0004:0000000C 00000008 C=BSS      S=.bss     G=DGROUP   M=Windows  ACBP=A9
 0004:00000014 00000004 C=BSS      S=.bss     G=DGROUP   M=WaveConverter ACBP=A9
 0004:00000018 00000020 C=BSS      S=.bss     G=DGROUP   M=FastcodeCPUID ACBP=A9
 0004:00000038 00000008 C=BSS      S=.bss     G=DGROUP   M=FastMove ACBP=A9
 0004:00000040 00000004 C=BSS      S=.bss     G=DGROUP   M=ACS_Types ACBP=A9
 0004:00000044 0000000C C=BSS      S=.bss     G=DGROUP   M=ACS_Procs ACBP=A9
 0004:00000050 00000004 C=BSS      S=.bss     G=DGROUP   M=ACS_Tags ACBP=A9
 0004:00000054 00000010 C=BSS      S=.bss     G=DGROUP   M=ACS_Classes ACBP=A9
 0004:00000064 00000004 C=BSS      S=.bss     G=DGROUP   M=ACS_Wave ACBP=A9
 0004:00000068 00000004 C=BSS      S=.bss     G=DGROUP   M=_DXTypes ACBP=A9
 0004:0000006C 00000004 C=BSS      S=.bss     G=DGROUP   M=_DirectSound ACBP=A9
 0004:00000070 0000001C C=BSS      S=.bss     G=DGROUP   M=wmfintf  ACBP=A9
 0004:0000008C 00000004 C=BSS      S=.bss     G=DGROUP   M=libwma1  ACBP=A9
 0004:00000090 00000004 C=BSS      S=.bss     G=DGROUP   M=ACS_WinMedia ACBP=A9
 0004:00000094 00000004 C=BSS      S=.bss     G=DGROUP   M=BisAudioCodec ACBP=A9
 0004:00000098 00000004 C=BSS      S=.bss     G=DGROUP   M=WaveACM  ACBP=A9
 0004:0000009C 00000004 C=BSS      S=.bss     G=DGROUP   M=WaveAcmDrivers ACBP=A9
 0004:000000A0 00000004 C=BSS      S=.bss     G=DGROUP   M=WaveUtils ACBP=A9
 0004:000000A4 00000004 C=BSS      S=.bss     G=DGROUP   M=WaveStorage ACBP=A9
 0004:000000A8 00000004 C=BSS      S=.bss     G=DGROUP   M=WaveIO   ACBP=A9
 0004:000000AC 00000004 C=BSS      S=.bss     G=DGROUP   M=WaveIn   ACBP=A9
 0004:000000B0 00000004 C=BSS      S=.bss     G=DGROUP   M=WaveRecorders ACBP=A9
 0004:000000B4 00000004 C=BSS      S=.bss     G=DGROUP   M=WaveOut  ACBP=A9
 0004:000000B8 00000004 C=BSS      S=.bss     G=DGROUP   M=WavePlayers ACBP=A9
 0004:000000BC 00000004 C=BSS      S=.bss     G=DGROUP   M=WaveMixer ACBP=A9
 0004:000000C0 00000004 C=BSS      S=.bss     G=DGROUP   M=BisAudioWave ACBP=A9
 0004:000000C4 00000004 C=BSS      S=.bss     G=DGROUP   M=BisAudioDtmf ACBP=A9
 0004:000000C8 00000004 C=BSS      S=.bss     G=DGROUP   M=BisRtpAcmDrivers ACBP=A9
 0004:000000CC 00000004 C=BSS      S=.bss     G=DGROUP   M=BisAudioTextPhrases ACBP=A9
 0004:000000D0 00000004 C=BSS      S=.bss     G=DGROUP   M=BisAudioUtils ACBP=A9
 0004:000000D4 00260038 C=BSS      S=.bss     G=DGROUP   M=FftSpec  ACBP=A9
 0004:0026010C 00000004 C=BSS      S=.bss     G=DGROUP   M=BisAudioSpectrum ACBP=A9


  Address             Publics by Name

 0002:00000500       .omaudio..omaudio
 0001:0002C704       .omaudio.@GetPackageInfoTable
 0001:0002C70C       .omaudio.@PackageLoad
 0001:0002C718       .omaudio.@PackageUnload
 0004:0000005C       ACS_Classes..02
 0001:0000B548       ACS_Classes..EAuException
 0001:0000C4E8       ACS_Classes..TAuCachedStream
 0001:0000C0A0       ACS_Classes..TAuConverter
 0001:0000C1B4       ACS_Classes..TAudioTap
 0001:0000C590       ACS_Classes..TAuFIFOStream
 0001:0000BC4C       ACS_Classes..TAuFileIn
 0001:0000BEA4       ACS_Classes..TAuFileOut
 0001:0000B5D0       ACS_Classes..TAuFileStream
 0001:0000B6FC       ACS_Classes..TAuInput
 0001:0000B7E4       ACS_Classes..TAuOutput
 0001:0000BA6C       ACS_Classes..TAuSeekableStreamedInput
 0001:0000B96C       ACS_Classes..TAuStreamedInput
 0001:0000BB7C       ACS_Classes..TAuStreamedOutput
 0001:0000BDA0       ACS_Classes..TAuTaggedFileIn
 0001:0000BFCC       ACS_Classes..TAuTaggedFileOut
 0001:0000B674       ACS_Classes..TAuThread
 0001:0000C458       ACS_Classes..TCacheThread
 0001:0000C3CC       ACS_Classes..TCircularBuffer
 0001:0000C33C       ACS_Classes..TEventHandler
 0003:00002CE4       ACS_Classes.AccessMode
 0002:000000A0       ACS_Classes.ACS_Classes
 0001:0000C634       ACS_Classes.CreateEventHandler
 0004:00000054       ACS_Classes.EventHandler
 0001:0000F280       ACS_Classes.Finalization
 0004:00000058       ACS_Classes.LoadLibCS
 0004:00000060       ACS_Classes.RCount
 0001:0000C660       ACS_Classes.ReleaseEventHandler
 0003:00002CF0       ACS_Classes.ShareMode
 0001:0000EFC8       ACS_Classes.TAuCachedStream.Create
 0001:0000F0B4       ACS_Classes.TAuCachedStream.Create
 0001:0000F1A8       ACS_Classes.TAuCachedStream.Destroy
 0001:0000F200       ACS_Classes.TAuCachedStream.Read
 0001:0000F21C       ACS_Classes.TAuCachedStream.Seek
 0001:0000EC50       ACS_Classes.TAuConverter.GetBPS
 0001:0000EC80       ACS_Classes.TAuConverter.GetCh
 0001:0000E498       ACS_Classes.TAuConverter.GetData
 0001:0000EC94       ACS_Classes.TAuConverter.GetSR
 0001:0000DB00       ACS_Classes.TAuConverter.Notification
 0001:0000DB2C       ACS_Classes.TAuConverter.SetInput
 0001:0000ECA8       ACS_Classes.TAuConverter._Jump
 0001:0000E560       ACS_Classes.TAuConverter._Pause
 0001:0000E56C       ACS_Classes.TAuConverter._Resume
 0001:0000E76C       ACS_Classes.TAudioTap.FlushInternal
 0001:0000E5B4       ACS_Classes.TAudioTap.GetBPS
 0001:0000E5C0       ACS_Classes.TAudioTap.GetCh
 0001:0000E6EC       ACS_Classes.TAudioTap.GetDataInternal
 0001:0000E5CC       ACS_Classes.TAudioTap.GetSR
 0001:0000E59C       ACS_Classes.TAudioTap.GetStatus
 0001:0000E684       ACS_Classes.TAudioTap.InitInternal
 0001:0000E7E0       ACS_Classes.TAudioTap.PauseRecord
 0001:0000E7EC       ACS_Classes.TAudioTap.ResumeRecord
 0001:0000E5D8       ACS_Classes.TAudioTap.SetFileName
 0001:0000E630       ACS_Classes.TAudioTap.SetWideFileName
 0001:0000E7D4       ACS_Classes.TAudioTap.StartRecord
 0001:0000E7F4       ACS_Classes.TAudioTap.StopRecord
 0001:0000E79C       ACS_Classes.TAudioTap._Pause
 0001:0000E7B8       ACS_Classes.TAudioTap._Resume
 0001:0000ECBC       ACS_Classes.TAuFIFOStream.Create
 0001:0000ED28       ACS_Classes.TAuFIFOStream.Destroy
 0001:0000ED80       ACS_Classes.TAuFIFOStream.GetEOF
 0001:0000ED94       ACS_Classes.TAuFIFOStream.GetSize
 0001:0000EEA0       ACS_Classes.TAuFIFOStream.LockReadBuffer
 0001:0000EE48       ACS_Classes.TAuFIFOStream.Read
 0001:0000EEB8       ACS_Classes.TAuFIFOStream.ReleaseReadBuffer
 0001:0000EE94       ACS_Classes.TAuFIFOStream.Reset
 0001:0000EDB4       ACS_Classes.TAuFIFOStream.Seek
 0001:0000EDB8       ACS_Classes.TAuFIFOStream.Seek
 0001:0000ED78       ACS_Classes.TAuFIFOStream.SetEOF
 0001:0000ED88       ACS_Classes.TAuFIFOStream.SetSize
 0001:0000ED8C       ACS_Classes.TAuFIFOStream.SetSize
 0001:0000EDD8       ACS_Classes.TAuFIFOStream.WouldReadBlock
 0001:0000EE04       ACS_Classes.TAuFIFOStream.WouldWriteBlock
 0001:0000EE64       ACS_Classes.TAuFIFOStream.Write
 0001:0000DC30       ACS_Classes.TAuFileIn.Create
 0001:0000DC78       ACS_Classes.TAuFileIn.Destroy
 0001:0000D748       ACS_Classes.TAuFileIn.FlushInternal
 0001:0000D428       ACS_Classes.TAuFileIn.GetBPS
 0001:0000D43C       ACS_Classes.TAuFileIn.GetCh
 0001:0000D450       ACS_Classes.TAuFileIn.GetSR
 0001:0000E234       ACS_Classes.TAuFileIn.GetTotalSamples
 0001:0000D9A4       ACS_Classes.TAuFileIn.GetTotalTime
 0001:0000D464       ACS_Classes.TAuFileIn.GetValid
 0001:0000D534       ACS_Classes.TAuFileIn.InitInternal
 0001:0000DAAC       ACS_Classes.TAuFileIn.Reset
 0001:0000DBE8       ACS_Classes.TAuFileIn.SetEndTime
 0001:0000E014       ACS_Classes.TAuFileIn.SetFileName
 0001:0000DB9C       ACS_Classes.TAuFileIn.SetStartTime
 0001:0000E2A0       ACS_Classes.TAuFileIn.SetStream
 0001:0000DFEC       ACS_Classes.TAuFileIn.SetWideFileName
 0001:0000D898       ACS_Classes.TAuFileIn._Jump
 0001:0000DAC0       ACS_Classes.TAuFileOut.Create
 0001:0000DAF8       ACS_Classes.TAuFileOut.SetFileMode
 0001:0000E088       ACS_Classes.TAuFileOut.SetFileName
 0001:0000E064       ACS_Classes.TAuFileOut.SetWideFileName
 0001:0000DE30       ACS_Classes.TAuFileStream.Create
 0001:0000DE74       ACS_Classes.TAuFileStream.Create
 0001:0000DF88       ACS_Classes.TAuFileStream.Destroy
 0001:0000DCCC       ACS_Classes.TAuInput.CopyData
 0001:0000CA5C       ACS_Classes.TAuInput.Create
 0001:0000CAA0       ACS_Classes.TAuInput.Destroy
 0001:0000DD00       ACS_Classes.TAuInput.FillBuffer
 0001:0000DD70       ACS_Classes.TAuInput.FillBufferUnprotected
 0001:0000CB98       ACS_Classes.TAuInput.Flush
 0001:0000CBE4       ACS_Classes.TAuInput.GetData
 0001:0000E578       ACS_Classes.TAuInput.GetTotalSamples
 0001:0000D9A0       ACS_Classes.TAuInput.GetTotalTime
 0001:0000CAD0       ACS_Classes.TAuInput.Init
 0001:0000DA68       ACS_Classes.TAuInput.Reset
 0001:0000E594       ACS_Classes.TAuInput.SetRequestFloat
 0001:0000E598       ACS_Classes.TAuInput._Jump
 0001:0000E2BC       ACS_Classes.TAuInput._Lock
 0001:0000E2D4       ACS_Classes.TAuInput._Pause
 0001:0000E2D8       ACS_Classes.TAuInput._Resume
 0001:0000E2C8       ACS_Classes.TAuInput._Unlock
 0001:0000DCB0       ACS_Classes.TAuOutput.Abort
 0001:0000CF5C       ACS_Classes.TAuOutput.BlockingRun
 0001:0000CF88       ACS_Classes.TAuOutput.Create
 0001:0000D000       ACS_Classes.TAuOutput.Destroy
 0001:0000D980       ACS_Classes.TAuOutput.GetDelay
 0001:0000D2C0       ACS_Classes.TAuOutput.GetPriority
 0001:0000D2F4       ACS_Classes.TAuOutput.GetProgress
 0001:0000D298       ACS_Classes.TAuOutput.GetStatus
 0001:0000D92C       ACS_Classes.TAuOutput.GetTE
 0001:0000DA3C       ACS_Classes.TAuOutput.Notification
 0001:0000D338       ACS_Classes.TAuOutput.Pause
 0001:0000D394       ACS_Classes.TAuOutput.Resume
 0001:0000D090       ACS_Classes.TAuOutput.Run
 0001:0000D990       ACS_Classes.TAuOutput.SetDelay
 0001:0000D2CC       ACS_Classes.TAuOutput.SetInput
 0001:0000D2B4       ACS_Classes.TAuOutput.SetPriority
 0001:0000D19C       ACS_Classes.TAuOutput.Stop
 0001:0000D070       ACS_Classes.TAuOutput.WhenDone
 0001:0000D3C4       ACS_Classes.TAuStreamedInput.Create
 0001:0000E2DC       ACS_Classes.TAuStreamedInput.GetData
 0001:0000D774       ACS_Classes.TAuStreamedInput.Seek
 0001:0000DA14       ACS_Classes.TAuStreamedInput.SetStream
 0001:0000DA28       ACS_Classes.TAuStreamedOutput.SetStream
 0001:0000E0AC       ACS_Classes.TAuTaggedFileIn.Create
 0001:0000E12C       ACS_Classes.TAuTaggedFileIn.Destroy
 0001:0000DFD4       ACS_Classes.TAuTaggedFileIn.SetAPEv2Tags
 0001:0000DFE0       ACS_Classes.TAuTaggedFileIn.SetCommonTags
 0001:0000DFBC       ACS_Classes.TAuTaggedFileIn.SetId3v1Tags
 0001:0000DFC8       ACS_Classes.TAuTaggedFileIn.SetId3v2Tags
 0001:0000E180       ACS_Classes.TAuTaggedFileOut.Create
 0001:0000E1EC       ACS_Classes.TAuTaggedFileOut.Destroy
 0001:0000E058       ACS_Classes.TAuTaggedFileOut.SetAPEv2Tags
 0001:0000E040       ACS_Classes.TAuTaggedFileOut.SetId3v1Tags
 0001:0000E04C       ACS_Classes.TAuTaggedFileOut.SetId3v2Tags
 0001:0000CC3C       ACS_Classes.TAuThread.Create
 0001:0000CCAC       ACS_Classes.TAuThread.Destroy
 0001:0000CD48       ACS_Classes.TAuThread.Execute
 0001:0000CD14       ACS_Classes.TAuThread.SoftPause
 0001:0000CCF4       ACS_Classes.TAuThread.SoftSleep
 0001:0000CD3C       ACS_Classes.TAuThread.SoftWake
 0001:0000CCE4       ACS_Classes.TAuThread.WaitForPause
 0001:0000EED0       ACS_Classes.TCacheThread.Execute
 0001:0000E9AC       ACS_Classes.TCircularBuffer.AddBytesRead
 0001:0000E994       ACS_Classes.TCircularBuffer.AddBytesWritten
 0001:0000E800       ACS_Classes.TCircularBuffer.Create
 0001:0000E868       ACS_Classes.TCircularBuffer.Destroy
 0001:0000E92C       ACS_Classes.TCircularBuffer.ExposeSingleBufferRead
 0001:0000E8B8       ACS_Classes.TCircularBuffer.ExposeSingleBufferWrite
 0001:0000EBBC       ACS_Classes.TCircularBuffer.FreeSpace
 0001:0000E8A0       ACS_Classes.TCircularBuffer.Lock
 0001:0000E9C4       ACS_Classes.TCircularBuffer.Read
 0001:0000EBC8       ACS_Classes.TCircularBuffer.Reset
 0001:0000EC04       ACS_Classes.TCircularBuffer.Reset2
 0001:0000EC14       ACS_Classes.TCircularBuffer.Stop
 0001:0000E8AC       ACS_Classes.TCircularBuffer.Unlock
 0001:0000EBA0       ACS_Classes.TCircularBuffer.WouldReadBlock
 0001:0000EB80       ACS_Classes.TCircularBuffer.WouldWriteBlock
 0001:0000EABC       ACS_Classes.TCircularBuffer.Write
 0001:0000C7E8       ACS_Classes.TEventHandler.AddEvent
 0001:0000C7B0       ACS_Classes.TEventHandler.BlockEvents
 0001:0000C884       ACS_Classes.TEventHandler.CallHandler
 0001:0000C758       ACS_Classes.TEventHandler.ClearEvents
 0001:0000C69C       ACS_Classes.TEventHandler.Create
 0001:0000C724       ACS_Classes.TEventHandler.Destroy
 0001:0000C8C4       ACS_Classes.TEventHandler.Execute
 0001:0000C854       ACS_Classes.TEventHandler.GetEvent
 0001:0000C9F4       ACS_Classes.TEventHandler.PostGenericEvent
 0001:0000CA28       ACS_Classes.TEventHandler.PostNonGuiEvent
 0001:0000C994       ACS_Classes.TEventHandler.PostOnDone
 0001:0000C9C0       ACS_Classes.TEventHandler.PostOnProgress
 0001:0000C81C       ACS_Classes.TEventHandler.PrependEvent
 0001:0000C7CC       ACS_Classes.TEventHandler.UnblockEvents
 0004:00000044       ACS_Procs..1
 0002:00000090       ACS_Procs.ACS_Procs
 0001:00003360       ACS_Procs.BlackmanWindow
 0001:00003544       ACS_Procs.BlackmanWindowS
 0001:00004238       ACS_Procs.ByteToSingle
 0001:000048D0       ACS_Procs.CalculateChebyshev
 0001:000037AC       ACS_Procs.CalculateSincKernel
 0001:00003640       ACS_Procs.CalculateSincKernelSingle
 0001:00002CA8       ACS_Procs.ComplexFFT
 0001:0000306C       ACS_Procs.ComplexFFTSingle
 0001:00003B3C       ACS_Procs.Convert16To24
 0001:00003DFC       ACS_Procs.Convert16To32
 0001:00002B18       ACS_Procs.Convert16To8
 0001:00002AA8       ACS_Procs.Convert16ToSingle
 0001:00003B0C       ACS_Procs.Convert24To16
 0001:00003DC0       ACS_Procs.Convert24To32
 0001:00003D80       ACS_Procs.Convert32To24
 0001:00002B40       ACS_Procs.Convert8To16
 0001:00002A80       ACS_Procs.Convert8ToSingle
 0001:00003E34       ACS_Procs.ConvertIEEEFloatTo32
 0001:00002BC0       ACS_Procs.ConvertMonoToStereo16
 0001:00003BD0       ACS_Procs.ConvertMonoToStereo24
 0001:00003CF8       ACS_Procs.ConvertMonoToStereo32
 0001:00002C3C       ACS_Procs.ConvertMonoToStereo8
 0001:00003EDC       ACS_Procs.ConvertShortIEEEFloatTo32
 0001:00002AEC       ACS_Procs.ConvertSingleTo16
 0001:00002AC0       ACS_Procs.ConvertSingleTo8
 0001:00002B64       ACS_Procs.ConvertStereoToMono16
 0001:00003B64       ACS_Procs.ConvertStereoToMono24
 0001:00003CC4       ACS_Procs.ConvertStereoToMono32
 0001:00002B94       ACS_Procs.ConvertStereoToMono8
 0001:00004C38       ACS_Procs.DeinterleaveStereo16
 0001:00004BF8       ACS_Procs.DeinterleaveStereo32
 0001:00004D00       ACS_Procs.DeinterleaveSurround16
 0001:00004C7C       ACS_Procs.DeinterleaveSurround32
 0003:000029E0       ACS_Procs.f
 0003:000029E8       ACS_Procs.f
 0003:000029F4       ACS_Procs.f
 0003:000029E4       ACS_Procs.f
 0001:00004E50       ACS_Procs.Finalization
 0001:00004BD0       ACS_Procs.GCD
 0001:00003A48       ACS_Procs.GetLeftOf
 0001:00003AA0       ACS_Procs.GetRightOf
 0001:000043D4       ACS_Procs.GUIDSEqual
 0001:000032D0       ACS_Procs.HammingWindow
 0001:000034B4       ACS_Procs.HammingWindowS
 0001:00003254       ACS_Procs.HannWindow
 0001:00003438       ACS_Procs.HannWindowS
 0001:0000431C       ACS_Procs.Int24ToSingle
 0001:000042D4       ACS_Procs.Int32ToSingle
 0001:00004DCC       ACS_Procs.InterleaveStereo16
 0001:00004D90       ACS_Procs.InterleaveStereo32
 0004:00000048       ACS_Procs.lDummie
 0003:000029F0       ACS_Procs.lfDouble
 0003:000029EC       ACS_Procs.lFfsingle
 0001:000039DC       ACS_Procs.LgMagnitude
 0001:0000397C       ACS_Procs.MultAndSumSingleArrays
 0001:000039A4       ACS_Procs.MultDoubleArrays
 0001:00003960       ACS_Procs.MultSingleArrays
 0001:00002FE8       ACS_Procs.MultSingleArrays_SSE_2
 0001:00002FB8       ACS_Procs.MultSingleArrays_SSE_4
 0001:00004440       ACS_Procs.NewCascade
 0001:00004E48       ACS_Procs.RestoreCW
 0001:00004E20       ACS_Procs.SetDoubleFPUPrecision
 0001:00004E34       ACS_Procs.SetExtendedFPUPrecision
 0001:00004E0C       ACS_Procs.SetSingleFPUPrecision
 0001:00002F90       ACS_Procs.SingleArrayMultByConst_SSE_2
 0001:00002F5C       ACS_Procs.SingleArrayMultByConst_SSE_4
 0001:000043B4       ACS_Procs.SingleMonoToStereo
 0001:00004388       ACS_Procs.SingleStereoToMono
 0001:00003F7C       ACS_Procs.SingleToByte
 0001:00004170       ACS_Procs.SingleToInt24
 0001:000040B0       ACS_Procs.SingleToInt32
 0001:00003FF0       ACS_Procs.SingleToSmallInt
 0001:0000392C       ACS_Procs.SmallIntArrayToComplex
 0001:000038F8       ACS_Procs.SmallIntArrayToDouble
 0001:0000428C       ACS_Procs.SmallIntToSingle
 0001:0000303C       ACS_Procs.SumSingleArrays_SSE_2
 0001:0000300C       ACS_Procs.SumSingleArrays_SSE_4
 0001:00003060       ACS_Procs.Swap64
 0004:00000050       ACS_Tags..9
 0001:0000547C       ACS_Tags..TAPEv2Tags
 0001:00004EA4       ACS_Tags..TAuTags
 0001:00004F58       ACS_Tags..TCommonTags
 0001:000050B4       ACS_Tags..TId3v1Tags
 0001:00005254       ACS_Tags..TId3v2Tags
 0001:000065CC       ACS_Tags..TVorbisTags
 0002:00000098       ACS_Tags.ACS_Tags
 0003:00002CE0       ACS_Tags.encoding_flags
 0001:0000B2A0       ACS_Tags.Finalization
 0001:00008848       ACS_Tags.get_tags_size
 0003:000029F8       ACS_Tags.Id3v1Genres
 0001:0000AE44       ACS_Tags.ReadApe2Tags
 0001:00008C0C       ACS_Tags.read_frames_new
 0001:00008A28       ACS_Tags.read_frames_old
 0001:0000887C       ACS_Tags.set_tag_item
 0003:00002CD8       ACS_Tags.start_char_pos
 0001:00009264       ACS_Tags.TAPEv2Tags.Create
 0001:0000A2C4       ACS_Tags.TAPEv2Tags.GetAbstract
 0001:0000987C       ACS_Tags.TAPEv2Tags.GetAlbum
 0001:0000974C       ACS_Tags.TAPEv2Tags.GetArtist
 0001:00009CA8       ACS_Tags.TAPEv2Tags.GetBarCode
 0001:0000A360       ACS_Tags.TAPEv2Tags.GetBibliography
 0001:00009DC8       ACS_Tags.TAPEv2Tags.GetCatalog
 0001:0000A5C8       ACS_Tags.TAPEv2Tags.GetComment
 0001:000097E0       ACS_Tags.TAPEv2Tags.GetComposer
 0001:00009A48       ACS_Tags.TAPEv2Tags.GetConductor
 0001:00009AE4       ACS_Tags.TAPEv2Tags.GetCopyright
 0001:00009910       ACS_Tags.TAPEv2Tags.GetDebutAlbum
 0001:0000A19C       ACS_Tags.TAPEv2Tags.GetFile
 0001:00009EF8       ACS_Tags.TAPEv2Tags.GetGenre
 0001:00009B80       ACS_Tags.TAPEv2Tags.GetISBN
 0001:00009C14       ACS_Tags.TAPEv2Tags.GetISRC
 0001:00009D3C       ACS_Tags.TAPEv2Tags.GetLabelCode
 0001:00009E5C       ACS_Tags.TAPEv2Tags.GetLanguage
 0001:000099AC       ACS_Tags.TAPEv2Tags.GetPublisher
 0001:0000A05C       ACS_Tags.TAPEv2Tags.GetRecordDate
 0001:0000A0F8       ACS_Tags.TAPEv2Tags.GetRecordLocation
 0001:0000A230       ACS_Tags.TAPEv2Tags.GetRelated
 0001:0000A52C       ACS_Tags.TAPEv2Tags.GetSubTitle
 0001:0000A498       ACS_Tags.TAPEv2Tags.GetTitle
 0001:0000A404       ACS_Tags.TAPEv2Tags.GetTrack
 0001:00009F8C       ACS_Tags.TAPEv2Tags.GetYear
 0001:0000A2F0       ACS_Tags.TAPEv2Tags.SetAbstract
 0001:000098A4       ACS_Tags.TAPEv2Tags.SetAlbum
 0001:00009774       ACS_Tags.TAPEv2Tags.SetArtist
 0001:00009CD0       ACS_Tags.TAPEv2Tags.SetBarCode
 0001:0000A390       ACS_Tags.TAPEv2Tags.SetBibliography
 0001:00009DF0       ACS_Tags.TAPEv2Tags.SetCatalog
 0001:0000A5F0       ACS_Tags.TAPEv2Tags.SetComment
 0001:0000980C       ACS_Tags.TAPEv2Tags.SetComposer
 0001:00009A74       ACS_Tags.TAPEv2Tags.SetConductor
 0001:00009B10       ACS_Tags.TAPEv2Tags.SetCopyright
 0001:0000993C       ACS_Tags.TAPEv2Tags.SetDebutAlbum
 0001:0000A1C4       ACS_Tags.TAPEv2Tags.SetFile
 0001:00009F20       ACS_Tags.TAPEv2Tags.SetGenre
 0001:00009BA8       ACS_Tags.TAPEv2Tags.SetISBN
 0001:00009C3C       ACS_Tags.TAPEv2Tags.SetISRC
 0001:00009D60       ACS_Tags.TAPEv2Tags.SetLabelCode
 0001:00009E88       ACS_Tags.TAPEv2Tags.SetLanguage
 0001:000099D8       ACS_Tags.TAPEv2Tags.SetPublisher
 0001:0000A088       ACS_Tags.TAPEv2Tags.SetRecordDate
 0001:0000A128       ACS_Tags.TAPEv2Tags.SetRecordLocation
 0001:0000A258       ACS_Tags.TAPEv2Tags.SetRelated
 0001:0000A558       ACS_Tags.TAPEv2Tags.SetSubTitle
 0001:0000A4C0       ACS_Tags.TAPEv2Tags.SetTitle
 0001:0000A42C       ACS_Tags.TAPEv2Tags.SetTrack
 0001:00009FF0       ACS_Tags.TAPEv2Tags.SetYear
 0001:00006BF4       ACS_Tags.TAuTags.AddId
 0001:00006C48       ACS_Tags.TAuTags.Assign
 0001:00006CF8       ACS_Tags.TAuTags.AssignTo
 0001:00006DA8       ACS_Tags.TAuTags.Clear
 0001:00006804       ACS_Tags.TAuTags.Create
 0001:00006868       ACS_Tags.TAuTags.Destroy
 0001:00006994       ACS_Tags.TAuTags.GetAsInteger
 0001:00006A60       ACS_Tags.TAuTags.GetAsString
 0001:00006B18       ACS_Tags.TAuTags.GetAsWideString
 0001:000068D8       ACS_Tags.TAuTags.GetId
 0001:000068CC       ACS_Tags.TAuTags.GetIdCount
 0001:0000690C       ACS_Tags.TAuTags.GetValue
 0001:000068C4       ACS_Tags.TAuTags.Presents
 0001:00006E24       ACS_Tags.TAuTags.ReadFromFile
 0001:00006948       ACS_Tags.TAuTags.SetValue
 0001:00006E38       ACS_Tags.TAuTags.WriteToFile
 0001:00007CFC       ACS_Tags.TCommonTags.Create
 0001:00007F98       ACS_Tags.TCommonTags.GetAlbum
 0001:00007E70       ACS_Tags.TCommonTags.GetArtist
 0001:0000802C       ACS_Tags.TCommonTags.GetGenre
 0001:00007F04       ACS_Tags.TCommonTags.GetTitle
 0001:00008154       ACS_Tags.TCommonTags.GetTrack
 0001:000080C0       ACS_Tags.TCommonTags.GetYear
 0001:00007FC0       ACS_Tags.TCommonTags.SetAlbum
 0001:00007E98       ACS_Tags.TCommonTags.SetArtist
 0001:00008054       ACS_Tags.TCommonTags.SetGenre
 0001:00007F2C       ACS_Tags.TCommonTags.SetTitle
 0001:0000817C       ACS_Tags.TCommonTags.SetTrack
 0001:000080E8       ACS_Tags.TCommonTags.SetYear
 0001:00006E40       ACS_Tags.TId3v1Tags.Create
 0001:0000729C       ACS_Tags.TId3v1Tags.GetAlbum
 0001:000071A4       ACS_Tags.TId3v1Tags.GetArtist
 0001:000073C0       ACS_Tags.TId3v1Tags.GetComment
 0001:000074E4       ACS_Tags.TId3v1Tags.GetGenre
 0001:000075AC       ACS_Tags.TId3v1Tags.GetGenreId
 0001:00007110       ACS_Tags.TId3v1Tags.GetTitle
 0001:00007454       ACS_Tags.TId3v1Tags.GetTrack
 0001:00007330       ACS_Tags.TId3v1Tags.GetYear
 0001:00006FD8       ACS_Tags.TId3v1Tags.Presents
 0001:00007640       ACS_Tags.TId3v1Tags.ReadFromFile
 0001:00007068       ACS_Tags.TId3v1Tags.ReadTagsInfo
 0001:000072C4       ACS_Tags.TId3v1Tags.SetAlbum
 0001:00007230       ACS_Tags.TId3v1Tags.SetArtist
 0001:000073E8       ACS_Tags.TId3v1Tags.SetComment
 0001:00007508       ACS_Tags.TId3v1Tags.SetGenre
 0001:000075D4       ACS_Tags.TId3v1Tags.SetGenreId
 0001:00007138       ACS_Tags.TId3v1Tags.SetTitle
 0001:00007478       ACS_Tags.TId3v1Tags.SetTrack
 0001:00007354       ACS_Tags.TId3v1Tags.SetYear
 0001:00007844       ACS_Tags.TId3v1Tags.WriteToFile
 0001:00007AE0       ACS_Tags.TId3v2Tags.Create
 0001:00008270       ACS_Tags.TId3v2Tags.GetAlbum
 0001:000081E8       ACS_Tags.TId3v2Tags.GetArtist
 0001:00008518       ACS_Tags.TId3v2Tags.GetComment
 0001:000085A0       ACS_Tags.TId3v2Tags.GetComposer
 0001:000086B0       ACS_Tags.TId3v2Tags.GetCopyright
 0001:00008628       ACS_Tags.TId3v2Tags.GetEncoder
 0001:000082F8       ACS_Tags.TId3v2Tags.GetGenre
 0001:00008738       ACS_Tags.TId3v2Tags.GetLanguage
 0001:000087C0       ACS_Tags.TId3v2Tags.GetLink
 0001:00008490       ACS_Tags.TId3v2Tags.GetTitle
 0001:00008408       ACS_Tags.TId3v2Tags.GetTrack
 0001:00008380       ACS_Tags.TId3v2Tags.GetYear
 0001:00007BA0       ACS_Tags.TId3v2Tags.Presents
 0001:00008DF8       ACS_Tags.TId3v2Tags.ReadFromFile
 0001:00007C28       ACS_Tags.TId3v2Tags.ReadTagsInfo
 0001:00008294       ACS_Tags.TId3v2Tags.SetAlbum
 0001:0000820C       ACS_Tags.TId3v2Tags.SetArtist
 0001:0000853C       ACS_Tags.TId3v2Tags.SetComment
 0001:000085C4       ACS_Tags.TId3v2Tags.SetComposer
 0001:000086D4       ACS_Tags.TId3v2Tags.SetCopyright
 0001:0000864C       ACS_Tags.TId3v2Tags.SetEncoder
 0001:0000831C       ACS_Tags.TId3v2Tags.SetGenre
 0001:0000875C       ACS_Tags.TId3v2Tags.SetLanguage
 0001:000087E4       ACS_Tags.TId3v2Tags.SetLink
 0001:000084B4       ACS_Tags.TId3v2Tags.SetTitle
 0001:0000842C       ACS_Tags.TId3v2Tags.SetTrack
 0001:000083A4       ACS_Tags.TId3v2Tags.SetYear
 0001:00008EC4       ACS_Tags.TId3v2Tags.WriteToFile
 0001:0000A65C       ACS_Tags.TVorbisTags.Create
 0001:0000A814       ACS_Tags.TVorbisTags.GetAlbum
 0001:0000AD3C       ACS_Tags.TVorbisTags.GetAlbumGain
 0001:0000ADC0       ACS_Tags.TVorbisTags.GetAlbumPeak
 0001:0000A898       ACS_Tags.TVorbisTags.GetArtist
 0001:0000A91C       ACS_Tags.TVorbisTags.GetDate
 0001:0000AB2C       ACS_Tags.TVorbisTags.GetDisc
 0001:0000A9A0       ACS_Tags.TVorbisTags.GetGenre
 0001:0000ABB0       ACS_Tags.TVorbisTags.GetReference
 0001:0000AA24       ACS_Tags.TVorbisTags.GetTitle
 0001:0000AAA8       ACS_Tags.TVorbisTags.GetTrack
 0001:0000AC34       ACS_Tags.TVorbisTags.GetTrackGain
 0001:0000ACB8       ACS_Tags.TVorbisTags.GetTrackPeak
 0001:0000A82C       ACS_Tags.TVorbisTags.SetAlbum
 0001:0000AD54       ACS_Tags.TVorbisTags.SetAlbumGain
 0001:0000ADD8       ACS_Tags.TVorbisTags.SetAlbumPeak
 0001:0000A8B0       ACS_Tags.TVorbisTags.SetArtist
 0001:0000A934       ACS_Tags.TVorbisTags.SetDate
 0001:0000AB44       ACS_Tags.TVorbisTags.SetDisc
 0001:0000A9B8       ACS_Tags.TVorbisTags.SetGenre
 0001:0000ABC8       ACS_Tags.TVorbisTags.SetReference
 0001:0000AA3C       ACS_Tags.TVorbisTags.SetTitle
 0001:0000AAC0       ACS_Tags.TVorbisTags.SetTrack
 0001:0000AC4C       ACS_Tags.TVorbisTags.SetTrackGain
 0001:0000ACD0       ACS_Tags.TVorbisTags.SetTrackPeak
 0003:00002C48       ACS_Tags._id3v2_tags
 0001:000067FC       ACS_Tags._min
 0003:00002CA8       ACS_Tags._vorbis_Album
 0003:00002CD0       ACS_Tags._vorbis_AlbumGain
 0003:00002CD4       ACS_Tags._vorbis_AlbumPeak
 0003:00002CAC       ACS_Tags._vorbis_Artist
 0003:00002CB0       ACS_Tags._vorbis_Date
 0003:00002CC0       ACS_Tags._vorbis_Disc
 0003:00002CB4       ACS_Tags._vorbis_Genre
 0003:00002CC4       ACS_Tags._vorbis_Reference
 0003:00002CB8       ACS_Tags._vorbis_Title
 0003:00002CBC       ACS_Tags._vorbis_Track
 0003:00002CC8       ACS_Tags._vorbis_TrackGain
 0003:00002CCC       ACS_Tags._vorbis_TrackPeak
 0004:00000040       ACS_Types..1
 0002:00000088       ACS_Types.ACS_Types
 0001:000029A4       ACS_Types.Finalization
 0003:000029D0       ACS_Types.KSDATAFORMAT_SUBTYPE_IEEE_FLOAT
 0003:000029C0       ACS_Types.KSDATAFORMAT_SUBTYPE_PCM
 0004:00000064       ACS_Wave..4
 0001:0000F334       ACS_Wave..TWaveIn
 0001:0000F46C       ACS_Wave..TWaveOut
 0001:0000F5C4       ACS_Wave..TWaveTap
 0002:000000C4       ACS_Wave.ACS_Wave
 0003:00002EA8       ACS_Wave.adaptive
 0001:0000FE64       ACS_Wave.Compare4
 0001:0001292C       ACS_Wave.Finalization
 0003:00002E68       ACS_Wave.IndexTab
 0003:00002D04       ACS_Wave.StepTab
 0001:00010234       ACS_Wave.TWaveIn.CloseFile
 0001:0000FE9C       ACS_Wave.TWaveIn.Create
 0001:0000F6B8       ACS_Wave.TWaveIn.DecodeDVIADPCMMono
 0001:0000F7B4       ACS_Wave.TWaveIn.DecodeDVIADPCMStereo
 0001:0000F9EC       ACS_Wave.TWaveIn.DecodeMSADPCMMono
 0001:0000FC18       ACS_Wave.TWaveIn.DecodeMSADPCMStereo
 0001:0000FED8       ACS_Wave.TWaveIn.Destroy
 0001:00010320       ACS_Wave.TWaveIn.GetDataInternal
 0001:00011A68       ACS_Wave.TWaveIn.GetWavType
 0001:0000FF00       ACS_Wave.TWaveIn.OpenFile
 0001:00011AA8       ACS_Wave.TWaveIn.ReadDVIADPCMBlock
 0001:00011C14       ACS_Wave.TWaveIn.ReadMSADPCMBlock
 0001:00011D5C       ACS_Wave.TWaveIn.ReadRIFFHeader
 0001:00010648       ACS_Wave.TWaveIn.SeekInternal
 0001:00010F6C       ACS_Wave.TWaveOut.Create
 0001:00010FB8       ACS_Wave.TWaveOut.Destroy
 0001:000114A4       ACS_Wave.TWaveOut.Done
 0001:00011790       ACS_Wave.TWaveOut.DoOutput
 0001:00010AC0       ACS_Wave.TWaveOut.EncodeDVIADPCMMono
 0001:00010C3C       ACS_Wave.TWaveOut.EncodeDVIADPCMStereo
 0001:000108EC       ACS_Wave.TWaveOut.FillHeaderDVIADPCM
 0001:000107F0       ACS_Wave.TWaveOut.FillHeaderExtPCM
 0001:00010750       ACS_Wave.TWaveOut.FillHeaderPCM
 0001:00010FF8       ACS_Wave.TWaveOut.Prepare
 0001:0001234C       ACS_Wave.TWaveOut.ReadRIFFHeader
 0001:00012794       ACS_Wave.TWaveOut.SetBlockSize
 0001:00011A7C       ACS_Wave.TWaveOut.SetFileMode
 0001:00010FE0       ACS_Wave.TWaveOut.SetWavType
 0001:000127B4       ACS_Wave.TWaveTap.FillHeaderPCM
 0001:0001283C       ACS_Wave.TWaveTap.StartRecordInternal
 0001:000128C8       ACS_Wave.TWaveTap.StopRecordInternal
 0001:0001291C       ACS_Wave.TWaveTap.WriteDataInternal
 0004:00000090       ACS_WinMedia..7
 0001:00018978       ACS_WinMedia..TWMADualPassOut
 0001:000181A4       ACS_WinMedia..TWMAOut
 0001:0001832C       ACS_WinMedia..TWMATap
 0001:00017FC0       ACS_WinMedia..TWMIn
 0001:00018510       ACS_WinMedia..TWMStreamedIn
 0001:0001880C       ACS_WinMedia..TWMStreamedOut
 0002:000000F4       ACS_WinMedia.ACS_WinMedia
 0001:00018B88       ACS_WinMedia.CallOnATError
 0001:00018A9C       ACS_WinMedia.CallOnConnected
 0001:00018AE4       ACS_WinMedia.CallOnDisconnected
 0001:00018BCC       ACS_WinMedia.CallOnDPError
 0001:00018B2C       ACS_WinMedia.CallOnError
 0001:0001ADB4       ACS_WinMedia.Finalization
 0001:0001A764       ACS_WinMedia.TWMADualPassOut.Create
 0001:0001A7D0       ACS_WinMedia.TWMADualPassOut.Destroy
 0001:0001AD40       ACS_WinMedia.TWMADualPassOut.Done
 0001:0001ACAC       ACS_WinMedia.TWMADualPassOut.DoOutput
 0001:0001A814       ACS_WinMedia.TWMADualPassOut.GetCodecName
 0001:0001A88C       ACS_WinMedia.TWMADualPassOut.GetCodecs
 0001:0001A894       ACS_WinMedia.TWMADualPassOut.GetCodecsCount
 0001:0001AD64       ACS_WinMedia.TWMADualPassOut.GetFormatDesc
 0001:0001A848       ACS_WinMedia.TWMADualPassOut.GetFormats
 0001:0001A8A4       ACS_WinMedia.TWMADualPassOut.GetFormatsCount
 0001:0001A8BC       ACS_WinMedia.TWMADualPassOut.Prepare
 0001:0001933C       ACS_WinMedia.TWMAOut.Create
 0001:000193B0       ACS_WinMedia.TWMAOut.Destroy
 0001:000198C0       ACS_WinMedia.TWMAOut.Done
 0001:0001982C       ACS_WinMedia.TWMAOut.DoOutput
 0001:00019F6C       ACS_WinMedia.TWMAOut.GetCodecName
 0001:00019F54       ACS_WinMedia.TWMAOut.GetCodecs
 0001:00019F5C       ACS_WinMedia.TWMAOut.GetCodecsCount
 0001:0001A010       ACS_WinMedia.TWMAOut.GetFormatDesc
 0001:00019FA0       ACS_WinMedia.TWMAOut.GetFormats
 0001:00019FF8       ACS_WinMedia.TWMAOut.GetFormatsCount
 0001:000193F4       ACS_WinMedia.TWMAOut.Prepare
 0001:0001A060       ACS_WinMedia.TWMATap.Create
 0001:0001A0A4       ACS_WinMedia.TWMATap.Destroy
 0001:0001A0D4       ACS_WinMedia.TWMATap.SetId3v2Tags
 0001:0001A0E0       ACS_WinMedia.TWMATap.StartRecordInternal
 0001:0001A3D8       ACS_WinMedia.TWMATap.StopRecordInternal
 0001:0001A3E4       ACS_WinMedia.TWMATap.WriteDataInternal
 0001:00019134       ACS_WinMedia.TWMIn.CloseFile
 0001:0001A3F0       ACS_WinMedia.TWMIn.CNToShortInt
 0001:00018C28       ACS_WinMedia.TWMIn.Create
 0001:00018C64       ACS_WinMedia.TWMIn.Destroy
 0001:00019288       ACS_WinMedia.TWMIn.GetBitrate
 0001:000191C8       ACS_WinMedia.TWMIn.GetDataInternal
 0001:0001A514       ACS_WinMedia.TWMIn.GetFormatsCount
 0001:0001A558       ACS_WinMedia.TWMIn.GetFormatSpec
 0001:00019260       ACS_WinMedia.TWMIn.GetHasAudio
 0001:000192A0       ACS_WinMedia.TWMIn.GetId3v2Tags
 0001:000192B4       ACS_WinMedia.TWMIn.GetIsVBR
 0001:00019274       ACS_WinMedia.TWMIn.GetProtected
 0001:00018C8C       ACS_WinMedia.TWMIn.OpenFile
 0001:0001921C       ACS_WinMedia.TWMIn.SeekInternal
 0001:0001A420       ACS_WinMedia.TWMIn.SetFormat
 0001:000192D4       ACS_WinMedia.TWMIn.SetHighPrecision
 0001:00019308       ACS_WinMedia.TWMIn.SetOutputChannels
 0001:00019DF8       ACS_WinMedia.TWMStreamedIn.CloseFile
 0001:000198FC       ACS_WinMedia.TWMStreamedIn.Create
 0001:00019950       ACS_WinMedia.TWMStreamedIn.Destroy
 0001:00019E80       ACS_WinMedia.TWMStreamedIn.GetDataInternal
 0001:00019EC8       ACS_WinMedia.TWMStreamedIn.GetHasAudio
 0001:00019EDC       ACS_WinMedia.TWMStreamedIn.GetId3v2Tags
 0001:00019F4C       ACS_WinMedia.TWMStreamedIn.GetTimedOut
 0001:00019EE4       ACS_WinMedia.TWMStreamedIn.GetTotalTime
 0001:00019978       ACS_WinMedia.TWMStreamedIn.OpenFile
 0001:00019EEC       ACS_WinMedia.TWMStreamedIn.ResetStretch
 0001:00019EC4       ACS_WinMedia.TWMStreamedIn.SeekInternal
 0001:00019F38       ACS_WinMedia.TWMStreamedIn.SetBufferingTime
 0001:00019F0C       ACS_WinMedia.TWMStreamedIn._Pause
 0001:00019F2C       ACS_WinMedia.TWMStreamedIn._Resume
 0001:0001A5B8       ACS_WinMedia.TWMStreamedOut.Create
 0001:0001A5F4       ACS_WinMedia.TWMStreamedOut.Destroy
 0001:0001A628       ACS_WinMedia.TWMStreamedOut.GetConnectionInfo
 0001:0001A61C       ACS_WinMedia.TWMStreamedOut.GetConnectionsCount
 0001:0001A710       ACS_WinMedia.TWMStreamedOut.GetURL
 0004:00000094       BisAudioCodec..2
 0001:0001B1FC       BisAudioCodec..TBisAudioCodec
 0002:000003F4       BisAudioCodec.BisAudioCodec
 0001:0001B3F8       BisAudioCodec.Finalization
 0001:0001B2E0       BisAudioCodec.TBisAudioCodec.Create
 0001:0001B338       BisAudioCodec.TBisAudioCodec.Destroy
 0001:0001B370       BisAudioCodec.TBisAudioCodec.WavToWma
 0004:000000C4       BisAudioDtmf..2
 0001:00028704       BisAudioDtmf..TBisAudioDtmf
 0002:00000468       BisAudioDtmf.BisAudioDtmf
 0001:000295C4       BisAudioDtmf.DecodeDTMF
 0003:0000392C       BisAudioDtmf.DtmfFDH
 0003:0000390C       BisAudioDtmf.DtmfFDL
 0003:000038CC       BisAudioDtmf.EventsHz
 0001:000297D8       BisAudioDtmf.Finalization
 0001:000287C0       BisAudioDtmf.Fmod
 0001:00028A38       BisAudioDtmf.GetDtmfCodeByEvent
 0001:00028B00       BisAudioDtmf.GetDtmfEvent
 0001:0002894C       BisAudioDtmf.GetDtmfEventByCode
 0001:0002881C       BisAudioDtmf.GetDtmfString
 0001:00028B84       BisAudioDtmf.LoadSample
 0001:000291B8       BisAudioDtmf.RunG
 0001:000294D8       BisAudioDtmf.RunK
 0001:00028BA8       BisAudioDtmf.SaveSample
 0001:000287E8       BisAudioDtmf.SinFunc
 0001:00028D8C       BisAudioDtmf.TBisAudioDtmf.Create
 0001:00028DF4       BisAudioDtmf.TBisAudioDtmf.Destroy
 0001:00028E1C       BisAudioDtmf.TBisAudioDtmf.DoCode
 0001:0002910C       BisAudioDtmf.TBisAudioDtmf.LoadFromStream
 0001:00029744       BisAudioDtmf.TBisAudioDtmf.ProcessBuffer
 0001:00028F4C       BisAudioDtmf.TBisAudioDtmf.SetFormat
 0001:00028E44       BisAudioDtmf.TBisAudioDtmf.SetFormat
 0001:00028F68       BisAudioDtmf.TBisAudioDtmf.SetFormat
 0001:00028F84       BisAudioDtmf.TBisAudioDtmf.Write
 0001:00028C14       BisAudioDtmf.WaveResample
 0004:0026010C       BisAudioSpectrum..2
 0001:0002B504       BisAudioSpectrum..TBisAudioSpectrum
 0002:000004F8       BisAudioSpectrum.BisAudioSpectrum
 0001:0002BA4C       BisAudioSpectrum.Finalization
 0001:0002B6D0       BisAudioSpectrum.GetInRealSize
 0001:0002B5A0       BisAudioSpectrum.TBisAudioSpectrum.Create
 0001:0002B5E4       BisAudioSpectrum.TBisAudioSpectrum.Destroy
 0001:0002B784       BisAudioSpectrum.TBisAudioSpectrum.Detect
 0001:0002B60C       BisAudioSpectrum.TBisAudioSpectrum.DoDetect
 0001:0002B998       BisAudioSpectrum.TBisAudioSpectrum.LoadFromStream
 0001:0002B670       BisAudioSpectrum.TBisAudioSpectrum.SetFormat
 0001:0002B624       BisAudioSpectrum.TBisAudioSpectrum.SetFormat
 0001:0002B654       BisAudioSpectrum.TBisAudioSpectrum.SetFormat
 0001:0002B68C       BisAudioSpectrum.TBisAudioSpectrum.Valid
 0001:0002B97C       BisAudioSpectrum.TBisAudioSpectrum.Write
 0004:000000CC       BisAudioTextPhrases..5
 0001:00029C54       BisAudioTextPhrases..TBisAudioTextPhrase
 0001:00029D08       BisAudioTextPhrases..TBisAudioTextPhrases
 0001:00029AF0       BisAudioTextPhrases..TBisAudioTextSample
 0001:00029BA4       BisAudioTextPhrases..TBisAudioTextSamples
 0002:000004A0       BisAudioTextPhrases.BisAudioTextPhrases
 0001:0002A500       BisAudioTextPhrases.Finalization
 0001:00029FBC       BisAudioTextPhrases.TBisAudioTextPhrase.Create
 0001:0002A000       BisAudioTextPhrases.TBisAudioTextPhrase.Destroy
 0001:0002A1C4       BisAudioTextPhrases.TBisAudioTextPhrase.GetWave
 0001:0002A030       BisAudioTextPhrases.TBisAudioTextPhrase.SetAsXml
 0001:0002A28C       BisAudioTextPhrases.TBisAudioTextPhrases.Add
 0001:0002A318       BisAudioTextPhrases.TBisAudioTextPhrases.AddXml
 0001:0002A278       BisAudioTextPhrases.TBisAudioTextPhrases.GetItem
 0001:0002A38C       BisAudioTextPhrases.TBisAudioTextPhrases.Parse
 0001:00029DB8       BisAudioTextPhrases.TBisAudioTextSample.Create
 0001:00029DFC       BisAudioTextPhrases.TBisAudioTextSample.Destroy
 0001:00029E40       BisAudioTextPhrases.TBisAudioTextSamples.Add
 0001:00029E2C       BisAudioTextPhrases.TBisAudioTextSamples.GetItem
 0001:00029EC4       BisAudioTextPhrases.TBisAudioTextSamples.GetWave
 0004:000000D0       BisAudioUtils..1
 0002:000004A8       BisAudioUtils.BisAudioUtils
 0001:0002AA98       BisAudioUtils.Finalization
 0001:0002A950       BisAudioUtils.GetAudioPhrasesWave
 0001:0002A8F0       BisAudioUtils.GetAudioTextPhrases
 0001:0002AA38       BisAudioUtils.GetAudioTextWave
 0001:0002A6A4       BisAudioUtils.GetPhrases
 0001:0002A530       BisAudioUtils.SetPhraseParams
 0004:000000C0       BisAudioWave..8
 0001:00027EE8       BisAudioWave..TBisAudioACMDrivers
 0001:0002787C       BisAudioWave..TBisAudioLivePlayer
 0001:0002771C       BisAudioWave..TBisAudioLiveRecorder
 0001:00027BC8       BisAudioWave..TBisAudioMixer
 0001:00027A50       BisAudioWave..TBisAudioStockPlayer
 0001:00027C88       BisAudioWave..TBisAudioWave
 0001:00027DA8       BisAudioWave..TBisAudioWaveConverter
 0002:00000460       BisAudioWave.BisAudioWave
 0001:00028690       BisAudioWave.Finalization
 0001:000281CC       BisAudioWave.TBisAudioLivePlayer.Create
 0001:00028374       BisAudioWave.TBisAudioLivePlayer.DoActivate
 0001:00028388       BisAudioWave.TBisAudioLivePlayer.DoDeactivate
 0001:000282C8       BisAudioWave.TBisAudioLivePlayer.FillDevices
 0001:00028294       BisAudioWave.TBisAudioLivePlayer.GetDeviceNameByID
 0001:0002839C       BisAudioWave.TBisAudioLivePlayer.Start
 0001:000283D4       BisAudioWave.TBisAudioLivePlayer.Stop
 0001:00027F8C       BisAudioWave.TBisAudioLiveRecorder.Create
 0001:00028134       BisAudioWave.TBisAudioLiveRecorder.DoActivate
 0001:00028148       BisAudioWave.TBisAudioLiveRecorder.DoDeactivate
 0001:00028088       BisAudioWave.TBisAudioLiveRecorder.FillDevices
 0001:00028054       BisAudioWave.TBisAudioLiveRecorder.GetDeviceNameByID
 0001:0002815C       BisAudioWave.TBisAudioLiveRecorder.Start
 0001:00028194       BisAudioWave.TBisAudioLiveRecorder.Stop
 0001:0002840C       BisAudioWave.TBisAudioStockPlayer.Create
 0001:00028454       BisAudioWave.TBisAudioStockPlayer.Destroy
 0001:00028484       BisAudioWave.TBisAudioStockPlayer.DoActivate
 0001:000284D0       BisAudioWave.TBisAudioStockPlayer.DoDeactivate
 0001:00028530       BisAudioWave.TBisAudioStockPlayer.DoStop
 0001:00028550       BisAudioWave.TBisAudioStockPlayer.GetActive
 0001:00028558       BisAudioWave.TBisAudioStockPlayer.GetWaveData
 0001:0002859C       BisAudioWave.TBisAudioStockPlayer.GetWaveFormat
 0001:000285DC       BisAudioWave.TBisAudioStockPlayer.PlayStream
 0001:000284A0       BisAudioWave.TBisAudioStockPlayer.PlayStreamFromBegin
 0001:00028648       BisAudioWave.TBisAudioStockPlayer.SetSpeedFactor
 0001:00028658       BisAudioWave.TBisAudioStockPlayer.Stop
 0004:000000C8       BisRtpAcmDrivers..2
 0001:00029818       BisRtpAcmDrivers..TBisRtpAcmDrivers
 0002:00000480       BisRtpAcmDrivers.BisRtpAcmDrivers
 0001:00029A00       BisRtpAcmDrivers.Finalization
 0001:0002999C       BisRtpAcmDrivers.TBisRtpAcmDrivers.FindFormat
 0001:000299DC       BisRtpAcmDrivers.TBisRtpAcmDrivers.FindFormat
 0001:00029924       BisRtpAcmDrivers.TBisRtpAcmDrivers.FindFormat
 0001:000298EC       BisRtpAcmDrivers.TBisRtpAcmDrivers.FormatToPayloadType
 0001:000298BC       BisRtpAcmDrivers.TBisRtpAcmDrivers.PayloadTypeToFormatTag
 0004:00000034       FastcodeCPUID..1
 0004:00000018       FastcodeCPUID.CPU
 0002:0000004C       FastcodeCPUID.FastcodeCPUID
 0004:00000030       FastcodeCPUID.FastCodeTarget
 0003:00001B30       FastcodeCPUID.FastCodeTargetStr
 0001:00001EE0       FastcodeCPUID.Finalization
 0001:00001800       FastcodeCPUID.GetCPUExtendedFeatures
 0001:000016D4       FastcodeCPUID.GetCPUFeatures
 0001:00001634       FastcodeCPUID.GetCPUID
 0001:00001D38       FastcodeCPUID.GetCPUInfo
 0001:00001650       FastcodeCPUID.GetCPUVendor
 0001:00001C5C       FastcodeCPUID.GetExtendedProcessorCacheInfo
 0001:00001DF8       FastcodeCPUID.GetFastCodeTarget
 0001:00001860       FastcodeCPUID.GetProcessorCacheInfo
 0003:00000B30       FastcodeCPUID.InstructionSupportStr
 0001:000015E4       FastcodeCPUID.IsCPUID_Available
 0001:000015FC       FastcodeCPUID.IsFPU_Available
 0003:00002930       FastcodeCPUID.VendorIDString
 0003:00000030       FastcodeCPUID.VendorStr
 0001:00001CEC       FastcodeCPUID.VerifyOSSupportForXMMRegisters
 0004:00000038       FastMove..1
 0001:000024C8       FastMove.AlignedFwdMoveSSE_6
 0001:00002330       FastMove.Backwards_IA32_6
 0001:00002470       FastMove.Backwards_MMX_6
 0001:00002738       FastMove.Backwards_SSE_6
 0002:00000060       FastMove.FastMove
 0001:0000291C       FastMove.Finalization
 0001:000022F4       FastMove.Forwards_IA32_6
 0001:00002364       FastMove.Forwards_MMX_6
 0001:00002690       FastMove.Forwards_SSE_6
 0001:00002790       FastMove.MoveJOH_IA32_6
 0001:000027C8       FastMove.MoveJOH_MMX_6
 0001:00001F10       FastMove.MoveJOH_PAS_6
 0001:00002800       FastMove.MoveJOH_SSE_6
 0004:0000003C       FastMove.PrefetchLimit
 0001:00002838       FastMove.ReplaceMove
 0001:00002164       FastMove.SmallBackwardMove_6
 0001:00001FD0       FastMove.SmallForwardMove_6
 0004:00000108       FftSpec..1
 0004:001E010C       FftSpec.AlphaTable
 0004:0022010C       FftSpec.BetaTable
 0004:000000D4       FftSpec.BlackmanAlpha
 0004:000000D8       FftSpec.BlackmanBeta
 0004:000000DC       FftSpec.BlackmanGamma
 0001:0002B0A4       FftSpec.CalcAlphaTable
 0001:0002AB3C       FftSpec.CalcBessel
 0001:0002B108       FftSpec.CalcBetaTable
 0001:0002B054       FftSpec.CalcReversalBits
 0001:0002B154       FftSpec.CalcWindowFunctions
 0004:000000EC       FftSpec.CoherentGain
 0002:000004B0       FftSpec.FftSpec
 0001:0002B46C       FftSpec.Finalization
 0004:000000E0       FftSpec.GaussianAlpha
 0004:000000E4       FftSpec.HammingAlpha
 0004:000000E8       FftSpec.KaiserAlpha
 0004:001C010C       FftSpec.ReversalBits
 0001:0002ABB4       FftSpec.ReverseBits
 0001:0002ABD8       FftSpec.Spectrum
 0001:0002AE0C       FftSpec.Spectrum
 0004:0000010C       FftSpec.WindowingTables
 0004:0000008C       libwma1..5
 0001:00013AF8       libwma1..TAudioStream
 0001:00013E9C       libwma1..TWMErrorCallback
 0001:00013C1C       libwma1..TWMReaderCallback
 0001:00013DB4       libwma1..TWMStatusCallback
 0001:00015A78       libwma1.create_configs
 0001:00017EFC       libwma1.Finalization
 0001:000145CC       libwma1.get_async_tag
 0001:00014590       libwma1.get_async_tag_length
 0001:000155EC       libwma1.get_tag
 0001:000155B0       libwma1.get_tag_length
 0001:000149B8       libwma1.has_data_block
 0002:000000EC       libwma1.libwma1
 0001:00014450       libwma1.lwma_async_reader_add_logging_url
 0001:00014500       libwma1.lwma_async_reader_clear_logging_urls
 0001:00014AC0       libwma1.lwma_async_reader_free
 0001:00014720       libwma1.lwma_async_reader_get_album
 0001:00014624       libwma1.lwma_async_reader_get_author
 0001:00014934       libwma1.lwma_async_reader_get_copyright
 0001:00014A10       libwma1.lwma_async_reader_get_data
 0001:000147AC       libwma1.lwma_async_reader_get_genre
 0001:000146A4       libwma1.lwma_async_reader_get_title
 0001:00014830       libwma1.lwma_async_reader_get_track
 0001:000148B4       libwma1.lwma_async_reader_get_year
 0001:00013F28       libwma1.lwma_async_reader_init
 0001:00013F68       libwma1.lwma_async_reader_open
 0001:000143A4       libwma1.lwma_async_reader_pause
 0001:00014564       libwma1.lwma_async_reader_reset_stretch
 0001:000143B8       libwma1.lwma_async_reader_resume
 0001:000143C4       libwma1.lwma_async_reader_set_proxy
 0001:00017AC0       libwma1.lwma_create_preprocessor
 0001:00016070       libwma1.lwma_enumerate_codecs
 0001:000161A0       libwma1.lwma_enumerate_codec_formats
 0001:0001636C       libwma1.lwma_enumerate_codec_formats2
 0001:00015964       libwma1.lwma_get_codec_names
 0001:00017594       libwma1.lwma_network_writer_free
 0001:000179B8       libwma1.lwma_network_writer_get_connections_count
 0001:00017A34       libwma1.lwma_network_writer_get_connection_info
 0001:00015E90       libwma1.lwma_network_writer_init
 0001:00017ED0       libwma1.lwma_preprocessor_free
 0001:00015928       libwma1.lwma_reader_free
 0001:000156C0       libwma1.lwma_reader_get_album
 0001:00015818       libwma1.lwma_reader_get_audio_properties
 0001:00015644       libwma1.lwma_reader_get_author
 0001:00015504       libwma1.lwma_reader_get_bitrate
 0001:000157D4       libwma1.lwma_reader_get_copyright
 0001:00015874       libwma1.lwma_reader_get_data
 0001:000154EC       libwma1.lwma_reader_get_duration
 0001:000152A4       libwma1.lwma_reader_get_format
 0001:00015238       libwma1.lwma_reader_get_format_count
 0001:0001570C       libwma1.lwma_reader_get_genre
 0001:0001555C       libwma1.lwma_reader_get_is_vbr
 0001:00015684       libwma1.lwma_reader_get_title
 0001:00015750       libwma1.lwma_reader_get_track
 0001:00015794       libwma1.lwma_reader_get_year
 0001:00014B44       libwma1.lwma_reader_init
 0001:00014FF4       libwma1.lwma_reader_init1
 0001:00015838       libwma1.lwma_reader_seek
 0001:000153D0       libwma1.lwma_reader_set_format
 0001:00017398       libwma1.lwma_writer_begin
 0001:00017CC8       libwma1.lwma_writer_begin_preprocess
 0001:00017568       libwma1.lwma_writer_free
 0001:00015D04       libwma1.lwma_writer_init
 0001:00017D88       libwma1.lwma_writer_preprocess
 0001:000172E0       libwma1.lwma_writer_set_album
 0001:00016F1C       libwma1.lwma_writer_set_audio_properties
 0001:0001656C       libwma1.lwma_writer_set_audio_properties2
 0001:00016870       libwma1.lwma_writer_set_audio_properties3
 0001:000172A4       libwma1.lwma_writer_set_author
 0001:00017350       libwma1.lwma_writer_set_copyright
 0001:0001730C       libwma1.lwma_writer_set_genre
 0001:000172C4       libwma1.lwma_writer_set_title
 0001:00017374       libwma1.lwma_writer_set_track
 0001:00017330       libwma1.lwma_writer_set_year
 0001:00017428       libwma1.lwma_writer_write
 0001:00016034       libwma1.lwm_network_writer_get_url
 0001:00016BA8       libwma1.SeletBestConfig
 0001:00017218       libwma1.set_tag
 0001:00017630       libwma1.TAudioStream.AssignStream
 0001:00017778       libwma1.TAudioStream.Clone
 0001:00017720       libwma1.TAudioStream.Commit
 0001:000176DC       libwma1.TAudioStream.CopyTo
 0001:00017738       libwma1.TAudioStream.LockRegion
 0001:00017640       libwma1.TAudioStream.Read
 0001:0001772C       libwma1.TAudioStream.Revert
 0001:000176A0       libwma1.TAudioStream.Seek
 0001:000176C0       libwma1.TAudioStream.SetSize
 0001:00017750       libwma1.TAudioStream.Stat
 0001:00017744       libwma1.TAudioStream.UnlockRegion
 0001:00017670       libwma1.TAudioStream.Write
 0001:00017944       libwma1.TWMErrorCallback.Create
 0001:00017980       libwma1.TWMErrorCallback.OnStatus
 0001:00017790       libwma1.TWMReaderCallback.Create
 0001:000177FC       libwma1.TWMReaderCallback.OnSample
 0001:000177CC       libwma1.TWMReaderCallback.OnStatus
 0001:000178D0       libwma1.TWMStatusCallback.Create
 0001:0001790C       libwma1.TWMStatusCallback.OnStatus
 0001:00000AD8       MMSystem.mixerClose
 0001:00000AE0       MMSystem.mixerGetControlDetails
 0001:00000AE8       MMSystem.mixerGetDevCaps
 0001:00000AF0       MMSystem.mixerGetLineControls
 0001:00000AF8       MMSystem.mixerGetLineInfo
 0001:00000B00       MMSystem.mixerGetNumDevs
 0001:00000B08       MMSystem.mixerOpen
 0001:00000B10       MMSystem.mixerSetControlDetails
 0001:00000B18       MMSystem.mmioAscend
 0001:00000B20       MMSystem.mmioClose
 0001:00000B28       MMSystem.mmioCreateChunk
 0001:00000B30       MMSystem.mmioDescend
 0001:00000B38       MMSystem.mmioOpen
 0001:00000B40       MMSystem.mmioRead
 0001:00000B48       MMSystem.mmioSeek
 0001:00000B50       MMSystem.mmioStringToFOURCC
 0001:00000B58       MMSystem.mmioWrite
 0001:00000B60       MMSystem.waveInAddBuffer
 0001:00000B68       MMSystem.waveInClose
 0001:00000B70       MMSystem.waveInGetDevCaps
 0001:00000B78       MMSystem.waveInGetErrorText
 0001:00000B80       MMSystem.waveInGetNumDevs
 0001:00000B88       MMSystem.waveInGetPosition
 0001:00000B90       MMSystem.waveInOpen
 0001:00000B98       MMSystem.waveInPrepareHeader
 0001:00000BA0       MMSystem.waveInReset
 0001:00000BA8       MMSystem.waveInStart
 0001:00000BB0       MMSystem.waveInStop
 0001:00000BB8       MMSystem.waveInUnprepareHeader
 0001:00000BC0       MMSystem.waveOutBreakLoop
 0001:00000BC8       MMSystem.waveOutClose
 0001:00000BD0       MMSystem.waveOutGetDevCaps
 0001:00000BD8       MMSystem.waveOutGetErrorText
 0001:00000BE0       MMSystem.waveOutGetNumDevs
 0001:00000BE8       MMSystem.waveOutGetPitch
 0001:00000BF0       MMSystem.waveOutGetPlaybackRate
 0001:00000BF8       MMSystem.waveOutGetPosition
 0001:00000C00       MMSystem.waveOutGetVolume
 0001:00000C08       MMSystem.waveOutOpen
 0001:00000C10       MMSystem.waveOutPause
 0001:00000C18       MMSystem.waveOutPrepareHeader
 0001:00000C20       MMSystem.waveOutReset
 0001:00000C28       MMSystem.waveOutRestart
 0001:00000C30       MMSystem.waveOutSetPitch
 0001:00000C38       MMSystem.waveOutSetPlaybackRate
 0001:00000C40       MMSystem.waveOutSetVolume
 0001:00000C48       MMSystem.waveOutUnprepareHeader
 0001:00000C50       MMSystem.waveOutWrite
 0001:00000498       SysInit.@InitPkg
 0001:000004FC       SysInit.@PackageLoad
 0001:00000508       SysInit.@PackageUnload
 0001:00000388       SysInit.AllocTlsBuffer
 0001:00000444       SysInit.ExitProcessTLS
 0001:0000040C       SysInit.ExitThreadTLS
 0001:00000350       SysInit.FreeLibrary
 0001:00000394       SysInit.GetTlsSize
 0004:00000004       SysInit.HInstance
 0001:00000468       SysInit.InitializeModule
 0001:000003E0       SysInit.InitProcessTLS
 0001:0000039C       SysInit.InitThreadTLS
 0001:00000358       SysInit.LocalAlloc
 0001:00000360       SysInit.LocalFree
 0003:00000008       SysInit.Module
 0004:00000000       SysInit.ModuleIsLib
 0004:00000001       SysInit.ModuleIsPackage
 0003:00000004       SysInit.PtrToNil
 0001:00000368       SysInit.TlsAlloc
 0004:00000008       SysInit.tlsBuffer
 0001:00000370       SysInit.TlsFree
 0001:00000378       SysInit.TlsGetValue
 0003:00000000       SysInit.TlsIndex
 0005:00000000       SysInit.TlsLast
 0003:00000020       SysInit.TlsProc
 0001:00000380       SysInit.TlsSetValue
 0001:00000474       SysInit.UninitializeModule
 0004:00000098       WaveACM..1
 0001:0001B440       WaveACM.acmDriverClose
 0001:0001B460       WaveACM.acmDriverDetails
 0001:0001B448       WaveACM.ACMDRIVERDETAILS_FCCTYPE_AUDIOCODE
 0001:0001B430       WaveACM.acmDriverEnum
 0001:0001B438       WaveACM.acmDriverOpen
 0001:0001B470       WaveACM.acmFormatEnum
 0001:0001B478       WaveACM.acmFormatSuggest
 0001:0001B468       WaveACM.acmFormatTagDetails
 0001:0001B428       WaveACM.acmMetrics
 0001:0001B488       WaveACM.acmStreamClose
 0001:0001B498       WaveACM.acmStreamConvert
 0001:0001B480       WaveACM.acmStreamOpen
 0001:0001B4A0       WaveACM.acmStreamPrepareHeader
 0001:0001B490       WaveACM.acmStreamSize
 0001:0001B4A8       WaveACM.acmStreamUnprepareHeader
 0001:0001B4B0       WaveACM.Finalization
 0002:000003FC       WaveACM.WaveACM
 0004:0000009C       WaveAcmDrivers..5
 0001:0001B640       WaveAcmDrivers..TWaveAcmDriver
 0001:0001B4E0       WaveAcmDrivers..TWaveAcmDriverFormat
 0001:0001B594       WaveAcmDrivers..TWaveAcmDriverFormats
 0001:0001B700       WaveAcmDrivers..TWaveAcmDrivers
 0001:0001BC44       WaveAcmDrivers.EnumDriver
 0001:0001BA64       WaveAcmDrivers.EnumFormat
 0001:0001C024       WaveAcmDrivers.Finalization
 0001:0001B9E4       WaveAcmDrivers.TWaveAcmDriver.Create
 0001:0001BA34       WaveAcmDrivers.TWaveAcmDriver.Destroy
 0001:0001BACC       WaveAcmDrivers.TWaveAcmDriver.Refresh
 0001:0001B79C       WaveAcmDrivers.TWaveAcmDriverFormat.Create
 0001:0001B808       WaveAcmDrivers.TWaveAcmDriverFormat.Destroy
 0001:0001B83C       WaveAcmDrivers.TWaveAcmDriverFormats.Add
 0001:0001B860       WaveAcmDrivers.TWaveAcmDriverFormats.Find
 0001:0001B910       WaveAcmDrivers.TWaveAcmDriverFormats.Find
 0001:0001B980       WaveAcmDrivers.TWaveAcmDriverFormats.GetItem
 0001:0001B994       WaveAcmDrivers.TWaveAcmDriverFormats.GetName
 0001:0001BDC8       WaveAcmDrivers.TWaveAcmDrivers.Add
 0001:0001BD7C       WaveAcmDrivers.TWaveAcmDrivers.Create
 0001:0001BFF0       WaveAcmDrivers.TWaveAcmDrivers.FindFormat
 0001:0001BF28       WaveAcmDrivers.TWaveAcmDrivers.FindFormat
 0001:0001BE54       WaveAcmDrivers.TWaveAcmDrivers.FindFormat
 0001:0001BE00       WaveAcmDrivers.TWaveAcmDrivers.GetFormatName
 0001:0001BDEC       WaveAcmDrivers.TWaveAcmDrivers.GetItem
 0002:00000404       WaveAcmDrivers.WaveAcmDrivers
 0004:00000014       WaveConverter..2
 0001:00000C98       WaveConverter..TWaveConverter
 0001:000013AC       WaveConverter.Finalization
 0001:00000D44       WaveConverter.TWaveConverter.Convert
 0001:00000EA8       WaveConverter.TWaveConverter.Create
 0001:00000F08       WaveConverter.TWaveConverter.Destroy
 0001:00000F30       WaveConverter.TWaveConverter.LoadStream
 0001:00001270       WaveConverter.TWaveConverter.SaveWavToStream
 0002:00000044       WaveConverter.WaveConverter
 0004:000000AC       WaveIn..2
 0001:00021E78       WaveIn..TWaveAudioIn
 0001:00022B34       WaveIn.Finalization
 0001:00022764       WaveIn.TWaveAudioIn.AddBuffer
 0001:00022684       WaveIn.TWaveAudioIn.AddWaveHeader
 0001:00021FC4       WaveIn.TWaveAudioIn.Create
 0001:0002287C       WaveIn.TWaveAudioIn.DefineBuffers
 0001:00022978       WaveIn.TWaveAudioIn.DoWaveInDeviceClose
 0001:00022988       WaveIn.TWaveAudioIn.DoWaveInDeviceData
 0001:0002293C       WaveIn.TWaveAudioIn.DoWaveInDeviceOpen
 0001:00022048       WaveIn.TWaveAudioIn.GetDeviceFormats
 0001:00022010       WaveIn.TWaveAudioIn.GetDeviceName
 0001:00022180       WaveIn.TWaveAudioIn.GetErrorText
 0001:00022008       WaveIn.TWaveAudioIn.GetNumDevs
 0001:00022000       WaveIn.TWaveAudioIn.GetPaused
 0001:00022144       WaveIn.TWaveAudioIn.GetPosition
 0001:00022804       WaveIn.TWaveAudioIn.GetWaveFormat
 0001:00022678       WaveIn.TWaveAudioIn.HandleAllocated
 0001:00022408       WaveIn.TWaveAudioIn.InternalClose
 0001:0002224C       WaveIn.TWaveAudioIn.InternalOpen
 0001:00022540       WaveIn.TWaveAudioIn.InternalPause
 0001:000225DC       WaveIn.TWaveAudioIn.InternalResume
 0001:0002285C       WaveIn.TWaveAudioIn.Query
 0001:000221BC       WaveIn.TWaveAudioIn.SetPCMFormat
 0001:00022238       WaveIn.TWaveAudioIn.ValidateDeviceID
 0001:00022854       WaveIn.TWaveAudioIn.WaveDataReady
 0002:00000438       WaveIn.WaveIn
 0004:000000A8       WaveIO..2
 0001:0002100C       WaveIO..TWaveAudioIO
 0001:00021E48       WaveIO.Finalization
 0001:00021A20       WaveIO.TWaveAudioIO.CallbackWindowProc
 0001:0002115C       WaveIO.TWaveAudioIO.Create
 0001:00021738       WaveIO.TWaveAudioIO.CreateCallback
 0001:0002129C       WaveIO.TWaveAudioIO.Destroy
 0001:00021798       WaveIO.TWaveAudioIO.DestroyCallback
 0001:000215E0       WaveIO.TWaveAudioIO.DoActivate
 0001:000215F4       WaveIO.TWaveAudioIO.DoDeactivate
 0001:000215AC       WaveIO.TWaveAudioIO.DoDeviceClose
 0001:0002158C       WaveIO.TWaveAudioIO.DoDeviceOpen
 0001:00021638       WaveIO.TWaveAudioIO.DoError
 0001:000216E0       WaveIO.TWaveAudioIO.DoFilter
 0001:000216A0       WaveIO.TWaveAudioIO.DoLevel
 0001:00021610       WaveIO.TWaveAudioIO.DoPause
 0001:00021624       WaveIO.TWaveAudioIO.DoResume
 0001:00021E1C       WaveIO.TWaveAudioIO.DoWaveInDeviceClose
 0001:00021E28       WaveIO.TWaveAudioIO.DoWaveInDeviceData
 0001:00021E10       WaveIO.TWaveAudioIO.DoWaveInDeviceOpen
 0001:00021E38       WaveIO.TWaveAudioIO.DoWaveOutDeviceClose
 0001:00021E44       WaveIO.TWaveAudioIO.DoWaveOutDeviceDone
 0001:00021E2C       WaveIO.TWaveAudioIO.DoWaveOutDeviceOpen
 0001:000214A0       WaveIO.TWaveAudioIO.GetActive
 0001:00021524       WaveIO.TWaveAudioIO.GetActiveBufferCount
 0001:0002155C       WaveIO.TWaveAudioIO.GetLastErrorText
 0001:00021530       WaveIO.TWaveAudioIO.GetPreferredBufferSize
 0001:00021540       WaveIO.TWaveAudioIO.GetWaveThreadName
 0001:00021708       WaveIO.TWaveAudioIO.Lock
 0001:00021A68       WaveIO.TWaveAudioIO.mmTimeToMS
 0001:000217E4       WaveIO.TWaveAudioIO.PostWaveMessage
 0001:00021838       WaveIO.TWaveAudioIO.ProcessWaveMessage
 0001:00021DF0       WaveIO.TWaveAudioIO.QueryPCM
 0001:00021AE0       WaveIO.TWaveAudioIO.ReallocateBuffer
 0001:00021CB4       WaveIO.TWaveAudioIO.ResetBuffers
 0001:000214A8       WaveIO.TWaveAudioIO.SetActive
 0001:00021400       WaveIO.TWaveAudioIO.SetAsync
 0001:0002151C       WaveIO.TWaveAudioIO.SetBufferCount
 0001:00021508       WaveIO.TWaveAudioIO.SetBufferLength
 0001:0002141C       WaveIO.TWaveAudioIO.SetDeviceID
 0001:000214D0       WaveIO.TWaveAudioIO.SetPaused
 0001:000214FC       WaveIO.TWaveAudioIO.SetWaveThreadName
 0001:00021A50       WaveIO.TWaveAudioIO.Success
 0001:00021720       WaveIO.TWaveAudioIO.TryLock
 0001:00021714       WaveIO.TWaveAudioIO.Unlock
 0001:00021D00       WaveIO.TWaveAudioIO.WaitForStart
 0001:00021D78       WaveIO.TWaveAudioIO.WaitForStop
 0001:0002130C       WaveIO.TWaveAudioIO.WaveThreadError
 0001:00021380       WaveIO.TWaveAudioIO.WaveThreadWork
 0002:00000430       WaveIO.WaveIO
 0004:000000BC       WaveMixer..4
 0001:00026444       WaveMixer..TAudioMixer
 0001:000263BC       WaveMixer..TAudioMixerLine
 0001:000276EC       WaveMixer.Finalization
 0003:000038BC       WaveMixer.MixerControlTypes
 0003:0000386C       WaveMixer.MixerLineComponentTypes
 0003:00003854       WaveMixer.MixerLineTargetTypes
 0001:00027114       WaveMixer.TAudioMixer.CallbackProc
 0001:00027048       WaveMixer.TAudioMixer.Create
 0001:000275F8       WaveMixer.TAudioMixer.CreateMixerLines
 0001:00027630       WaveMixer.TAudioMixer.DeleteMixerLines
 0001:000270BC       WaveMixer.TAudioMixer.Destroy
 0001:000273E0       WaveMixer.TAudioMixer.DoControlChange
 0001:000273C8       WaveMixer.TAudioMixer.DoLineChange
 0001:000272A8       WaveMixer.TAudioMixer.FetchDestinationNames
 0001:00027224       WaveMixer.TAudioMixer.FetchMixerNames
 0001:00027358       WaveMixer.TAudioMixer.FindMixerLine
 0001:000275D4       WaveMixer.TAudioMixer.GetDestinationCount
 0001:0002750C       WaveMixer.TAudioMixer.GetDestinationName
 0001:000275DC       WaveMixer.TAudioMixer.GetLineCount
 0001:000275E4       WaveMixer.TAudioMixer.GetLines
 0001:00027400       WaveMixer.TAudioMixer.GetMixerCount
 0001:00027408       WaveMixer.TAudioMixer.GetMixerName
 0001:00027664       WaveMixer.TAudioMixer.RefreshDetails
 0001:000274FC       WaveMixer.TAudioMixer.SetDestinationID
 0001:00027520       WaveMixer.TAudioMixer.SetDestinationName
 0001:000274D4       WaveMixer.TAudioMixer.SetMixerID
 0001:00027420       WaveMixer.TAudioMixer.SetMixerName
 0001:000266D8       WaveMixer.TAudioMixerLine.AssignMixerControl
 0001:000265E0       WaveMixer.TAudioMixerLine.Create
 0001:00026958       WaveMixer.TAudioMixerLine.FindChannelIndexByLineID
 0001:00026754       WaveMixer.TAudioMixerLine.FindControlByID
 0001:00026798       WaveMixer.TAudioMixerLine.FindLineIDByChannelIndex
 0001:00026B30       WaveMixer.TAudioMixerLine.GetComponentType
 0001:00026B5C       WaveMixer.TAudioMixerLine.GetFlags
 0001:00026CD8       WaveMixer.TAudioMixerLine.GetMute
 0001:00026AEC       WaveMixer.TAudioMixerLine.GetName
 0001:00026DE4       WaveMixer.TAudioMixerLine.GetSelectedLine
 0001:00026B04       WaveMixer.TAudioMixerLine.GetTargetType
 0001:00026B9C       WaveMixer.TAudioMixerLine.GetVolume
 0001:00026620       WaveMixer.TAudioMixerLine.RefreshDetails
 0001:00026D64       WaveMixer.TAudioMixerLine.SetMute
 0001:00026F28       WaveMixer.TAudioMixerLine.SetSelectedLine
 0001:00026C38       WaveMixer.TAudioMixerLine.SetVolume
 0002:00000458       WaveMixer.WaveMixer
 0004:000000B4       WaveOut..2
 0001:0002395C       WaveOut..TWaveAudioOut
 0001:00023BA4       WaveOut.DW2Float
 0001:00023AB8       WaveOut.DW2PercentVolume
 0001:00024D28       WaveOut.Finalization
 0001:00023B24       WaveOut.Float2DW
 0001:00023AF4       WaveOut.Percent2DWVolume
 0001:0002432C       WaveOut.TWaveAudioOut.AdjustOptionItems
 0001:00023C18       WaveOut.TWaveAudioOut.Create
 0001:00024A14       WaveOut.TWaveAudioOut.DefineBuffers
 0001:00024A8C       WaveOut.TWaveAudioOut.DoWaveOutDeviceClose
 0001:00024AA4       WaveOut.TWaveAudioOut.DoWaveOutDeviceDone
 0001:00024A48       WaveOut.TWaveAudioOut.DoWaveOutDeviceOpen
 0001:00023E68       WaveOut.TWaveAudioOut.GetChannelVolumes
 0001:00023CE4       WaveOut.TWaveAudioOut.GetDeviceFormats
 0001:00023CAC       WaveOut.TWaveAudioOut.GetDeviceName
 0001:00023DE0       WaveOut.TWaveAudioOut.GetDeviceSupports
 0001:000242B8       WaveOut.TWaveAudioOut.GetErrorText
 0001:00023CA4       WaveOut.TWaveAudioOut.GetNumDevs
 0001:00023C9C       WaveOut.TWaveAudioOut.GetPaused
 0001:00024038       WaveOut.TWaveAudioOut.GetPitch
 0001:00024110       WaveOut.TWaveAudioOut.GetPlaybackRate
 0001:00024220       WaveOut.TWaveAudioOut.GetPosition
 0001:00023F4C       WaveOut.TWaveAudioOut.GetVolume
 0001:00023FA8       WaveOut.TWaveAudioOut.GetVolumeLeft
 0001:00023FF0       WaveOut.TWaveAudioOut.GetVolumeRight
 0001:000249E8       WaveOut.TWaveAudioOut.GetWaveData
 0001:000249DC       WaveOut.TWaveAudioOut.GetWaveDataPtr
 0001:00024808       WaveOut.TWaveAudioOut.HandleAllocated
 0001:00024594       WaveOut.TWaveAudioOut.InternalClose
 0001:000243D8       WaveOut.TWaveAudioOut.InternalOpen
 0001:000246D0       WaveOut.TWaveAudioOut.InternalPause
 0001:0002476C       WaveOut.TWaveAudioOut.InternalResume
 0001:000242F4       WaveOut.TWaveAudioOut.IsPitchStored
 0001:00024310       WaveOut.TWaveAudioOut.IsPlaybackRateStored
 0001:000249F4       WaveOut.TWaveAudioOut.Query
 0001:00023ED4       WaveOut.TWaveAudioOut.SetChannelVolumes
 0001:000241E8       WaveOut.TWaveAudioOut.SetOptions
 0001:000240A4       WaveOut.TWaveAudioOut.SetPitch
 0001:0002417C       WaveOut.TWaveAudioOut.SetPlaybackRate
 0001:00024260       WaveOut.TWaveAudioOut.SetPosition
 0001:00023F7C       WaveOut.TWaveAudioOut.SetVolume
 0001:00023FCC       WaveOut.TWaveAudioOut.SetVolumeLeft
 0001:00024014       WaveOut.TWaveAudioOut.SetVolumeRight
 0001:000243C4       WaveOut.TWaveAudioOut.ValidateDeviceID
 0001:00024920       WaveOut.TWaveAudioOut.WriteBuffer
 0001:00024814       WaveOut.TWaveAudioOut.WriteWaveHeader
 0002:00000448       WaveOut.WaveOut
 0004:000000B8       WavePlayers..4
 0001:00024D58       WavePlayers..TAudioPlayer
 0001:000250F0       WavePlayers..TLiveAudioPlayer
 0001:00025524       WavePlayers..TStockAudioPlayer
 0001:00026040       WavePlayers.Finalization
 0001:000258C8       WavePlayers.TAudioPlayer.Create
 0001:00025A0C       WavePlayers.TAudioPlayer.CreateWave
 0001:000259C0       WavePlayers.TAudioPlayer.DefineProperties
 0001:00025924       WavePlayers.TAudioPlayer.Destroy
 0001:00025A7C       WavePlayers.TAudioPlayer.DoWaveOutDeviceClose
 0001:00025A64       WavePlayers.TAudioPlayer.GetWaveData
 0001:00025A1C       WavePlayers.TAudioPlayer.GetWaveFormat
 0001:000259A4       WavePlayers.TAudioPlayer.ReadData
 0001:00025AC4       WavePlayers.TAudioPlayer.SetPosition
 0001:0002595C       WavePlayers.TAudioPlayer.SetWave
 0001:00025954       WavePlayers.TAudioPlayer.WaveChanged
 0001:000259B0       WavePlayers.TAudioPlayer.WriteData
 0001:00025C60       WavePlayers.TLiveAudioPlayer.BreakLoop
 0001:00025AFC       WavePlayers.TLiveAudioPlayer.Create
 0001:00025BFC       WavePlayers.TLiveAudioPlayer.GetWaveData
 0001:00025C2C       WavePlayers.TLiveAudioPlayer.GetWaveDataPtr
 0001:00025BB0       WavePlayers.TLiveAudioPlayer.GetWaveFormat
 0001:00025B38       WavePlayers.TLiveAudioPlayer.SetPCMFormat
 0001:00025C5C       WavePlayers.TLiveAudioPlayer.SetPosition
 0001:00025E00       WavePlayers.TStockAudioPlayer.DoError
 0001:00025DA0       WavePlayers.TStockAudioPlayer.DoWaveOutDeviceClose
 0001:00025D88       WavePlayers.TStockAudioPlayer.GetWaveData
 0001:00025D40       WavePlayers.TStockAudioPlayer.GetWaveFormat
 0001:00025E78       WavePlayers.TStockAudioPlayer.InternalPlay
 0001:00025C78       WavePlayers.TStockAudioPlayer.Notification
 0001:00025F34       WavePlayers.TStockAudioPlayer.PlayFile
 0001:00025F94       WavePlayers.TStockAudioPlayer.PlayResID
 0001:00025F5C       WavePlayers.TStockAudioPlayer.PlayResName
 0001:00025FCC       WavePlayers.TStockAudioPlayer.PlayStock
 0001:00025F24       WavePlayers.TStockAudioPlayer.PlayStream
 0001:00025CDC       WavePlayers.TStockAudioPlayer.SetActive
 0001:00025D08       WavePlayers.TStockAudioPlayer.SetPosition
 0001:00025CA8       WavePlayers.TStockAudioPlayer.SetStock
 0001:00026038       WavePlayers.TStockAudioPlayer.Stop
 0002:00000450       WavePlayers.WavePlayers
 0004:000000B0       WaveRecorders..4
 0001:00022B64       WaveRecorders..TAudioRecorder
 0001:00022E44       WaveRecorders..TLiveAudioRecorder
 0001:00023148       WaveRecorders..TStockAudioRecorder
 0001:0002392C       WaveRecorders.Finalization
 0001:00023450       WaveRecorders.TAudioRecorder.Create
 0001:000234C8       WaveRecorders.TAudioRecorder.CreateWave
 0001:00023498       WaveRecorders.TAudioRecorder.Destroy
 0001:00023584       WaveRecorders.TAudioRecorder.DoError
 0001:0002353C       WaveRecorders.TAudioRecorder.DoWaveInDeviceClose
 0001:000234D8       WaveRecorders.TAudioRecorder.GetWaveFormat
 0001:00023500       WaveRecorders.TAudioRecorder.WaveDataReady
 0001:000235D8       WaveRecorders.TLiveAudioRecorder.WaveDataReady
 0001:00023758       WaveRecorders.TStockAudioRecorder.DoError
 0001:000236F8       WaveRecorders.TStockAudioRecorder.DoWaveInDeviceClose
 0001:000236D0       WaveRecorders.TStockAudioRecorder.GetWaveFormat
 0001:000237D0       WaveRecorders.TStockAudioRecorder.InternalRecord
 0001:00023604       WaveRecorders.TStockAudioRecorder.Notification
 0001:0002388C       WaveRecorders.TStockAudioRecorder.RecordToFile
 0001:000238B8       WaveRecorders.TStockAudioRecorder.RecordToStock
 0001:0002387C       WaveRecorders.TStockAudioRecorder.RecordToStream
 0001:00023668       WaveRecorders.TStockAudioRecorder.SetActive
 0001:00023634       WaveRecorders.TStockAudioRecorder.SetStock
 0001:00023924       WaveRecorders.TStockAudioRecorder.Stop
 0001:00023694       WaveRecorders.TStockAudioRecorder.WaveDataReady
 0002:00000440       WaveRecorders.WaveRecorders
 0004:000000A4       WaveStorage..21
 0001:0001E8C8       WaveStorage..TCustomWaveStorage
 0001:0001E440       WaveStorage..TWave
 0001:0001EC30       WaveStorage..TWaveCollection
 0001:0001E668       WaveStorage..TWaveConverter
 0001:0001E550       WaveStorage..TWaveFile
 0001:0001E794       WaveStorage..TWaveFileConverter
 0001:0001EA70       WaveStorage..TWaveItem
 0001:0001EB7C       WaveStorage..TWaveItems
 0001:0001E990       WaveStorage..TWaveStorage
 0001:0001E1DC       WaveStorage..TWaveStreamAdapter
 0001:0001E304       WaveStorage..TWaveStreamConverter
 0001:00020FDC       WaveStorage.Finalization
 0001:000207DC       WaveStorage.TWave.Create
 0001:00020E18       WaveStorage.TWaveCollection.Create
 0001:00020E64       WaveStorage.TWaveCollection.Destroy
 0001:00020EC8       WaveStorage.TWaveCollection.Equals
 0001:00020F50       WaveStorage.TWaveCollection.ExportWaveNames
 0001:00020EAC       WaveStorage.TWaveCollection.GetWaveStream
 0001:00020F90       WaveStorage.TWaveCollection.IndexOfName
 0001:00020E94       WaveStorage.TWaveCollection.SetWaves
 0001:0002087C       WaveStorage.TWaveConverter.Create
 0001:00020824       WaveStorage.TWaveFile.Create
 0001:000208C4       WaveStorage.TWaveFileConverter.Create
 0001:00020BC0       WaveStorage.TWaveItem.Assign
 0001:00020AB0       WaveStorage.TWaveItem.Create
 0001:00020B78       WaveStorage.TWaveItem.DefineProperties
 0001:00020AF4       WaveStorage.TWaveItem.Destroy
 0001:00020C24       WaveStorage.TWaveItem.GetDisplayName
 0001:00020B5C       WaveStorage.TWaveItem.ReadData
 0001:00020B24       WaveStorage.TWaveItem.SetWave
 0001:00020B68       WaveStorage.TWaveItem.WriteData
 0001:00020DDC       WaveStorage.TWaveItems.Add
 0001:00020D90       WaveStorage.TWaveItems.Create
 0001:00020DFC       WaveStorage.TWaveItems.GetItem
 0001:00020DD8       WaveStorage.TWaveItems.GetOwner
 0001:00020DE8       WaveStorage.TWaveItems.Insert
 0001:00020E10       WaveStorage.TWaveItems.SetItem
 0001:00020A2C       WaveStorage.TWaveStorage.Assign
 0001:0002091C       WaveStorage.TWaveStorage.Create
 0001:000209E4       WaveStorage.TWaveStorage.DefineProperties
 0001:00020960       WaveStorage.TWaveStorage.Destroy
 0001:00020A84       WaveStorage.TWaveStorage.Equals
 0001:00020A7C       WaveStorage.TWaveStorage.GetWaveStream
 0001:000209C8       WaveStorage.TWaveStorage.ReadData
 0001:00020990       WaveStorage.TWaveStorage.SetWave
 0001:000209D4       WaveStorage.TWaveStorage.WriteData
 0001:0001F24C       WaveStorage.TWaveStreamAdapter.Assign
 0001:0001EEB4       WaveStorage.TWaveStreamAdapter.BeginRead
 0001:0001EDF0       WaveStorage.TWaveStreamAdapter.BeginRewrite
 0001:0001EDD0       WaveStorage.TWaveStreamAdapter.BeginRewritePCM
 0001:0001F5B0       WaveStorage.TWaveStreamAdapter.ChangeVolume
 0001:0001F3B0       WaveStorage.TWaveStreamAdapter.Clear
 0001:0001FE68       WaveStorage.TWaveStreamAdapter.Concat
 0001:0001F628       WaveStorage.TWaveStreamAdapter.ConvertTo
 0001:0001F7EC       WaveStorage.TWaveStreamAdapter.ConvertToPCM
 0001:0001F810       WaveStorage.TWaveStreamAdapter.Copy
 0001:0001ED1C       WaveStorage.TWaveStreamAdapter.Create
 0001:0001F50C       WaveStorage.TWaveStreamAdapter.Crop
 0001:0001FA3C       WaveStorage.TWaveStreamAdapter.Delete
 0001:0001ED6C       WaveStorage.TWaveStreamAdapter.Destroy
 0001:0001EF58       WaveStorage.TWaveStreamAdapter.DoChange
 0001:0001EF34       WaveStorage.TWaveStreamAdapter.DoChanging
 0001:0001EEF8       WaveStorage.TWaveStreamAdapter.EndRead
 0001:0001EE40       WaveStorage.TWaveStreamAdapter.EndRewrite
 0001:0001F3DC       WaveStorage.TWaveStreamAdapter.Equals
 0001:0001F0F0       WaveStorage.TWaveStreamAdapter.GetAudioFormat
 0001:0001F118       WaveStorage.TWaveStreamAdapter.GetBitRate
 0001:0001F1E0       WaveStorage.TWaveStreamAdapter.GetDataOffset
 0001:0001F1C8       WaveStorage.TWaveStreamAdapter.GetDataSize
 0001:0001F200       WaveStorage.TWaveStreamAdapter.GetEmpty
 0001:0001F1A8       WaveStorage.TWaveStreamAdapter.GetLength
 0001:0001F218       WaveStorage.TWaveStreamAdapter.GetPCMFormat
 0001:0001F134       WaveStorage.TWaveStreamAdapter.GetPeakLevel
 0001:0001F0B8       WaveStorage.TWaveStreamAdapter.GetPosition
 0001:0001F1F8       WaveStorage.TWaveStreamAdapter.GetValid
 0001:0001F234       WaveStorage.TWaveStreamAdapter.GetWaveFormat
 0001:0001FB68       WaveStorage.TWaveStreamAdapter.Insert
 0001:0001FCE0       WaveStorage.TWaveStreamAdapter.InsertSilence
 0001:0001F53C       WaveStorage.TWaveStreamAdapter.Invert
 0001:0001F304       WaveStorage.TWaveStreamAdapter.LoadFromFile
 0001:0001F28C       WaveStorage.TWaveStreamAdapter.LoadFromStream
 0001:0001EF78       WaveStorage.TWaveStreamAdapter.LockData
 0001:0001FFFC       WaveStorage.TWaveStreamAdapter.Mix
 0001:0001EF6C       WaveStorage.TWaveStreamAdapter.MSecToByte
 0001:0001EF1C       WaveStorage.TWaveStreamAdapter.Read
 0001:0001F3D4       WaveStorage.TWaveStreamAdapter.Refresh
 0001:0001F4AC       WaveStorage.TWaveStreamAdapter.SameFormat
 0001:0001F4C8       WaveStorage.TWaveStreamAdapter.SameWaveFormat
 0001:0001F358       WaveStorage.TWaveStreamAdapter.SaveToFile
 0001:0001F2D8       WaveStorage.TWaveStreamAdapter.SaveToStream
 0001:0001F0D8       WaveStorage.TWaveStreamAdapter.SetPosition
 0001:0001F928       WaveStorage.TWaveStreamAdapter.Sub
 0001:0001FE34       WaveStorage.TWaveStreamAdapter.TrimEnd
 0001:0001FE20       WaveStorage.TWaveStreamAdapter.TrimStart
 0001:0001EFFC       WaveStorage.TWaveStreamAdapter.UnlockData
 0001:0001F070       WaveStorage.TWaveStreamAdapter.UpdateWaveInfo
 0001:0001EE9C       WaveStorage.TWaveStreamAdapter.Write
 0001:000205EC       WaveStorage.TWaveStreamConverter.BeginRead
 0001:000202D8       WaveStorage.TWaveStreamConverter.BeginRewrite
 0001:000205AC       WaveStorage.TWaveStreamConverter.CanRead
 0001:00020284       WaveStorage.TWaveStreamConverter.CanRewrite
 0001:000202B8       WaveStorage.TWaveStreamConverter.CanRewritePCM
 0001:000201A0       WaveStorage.TWaveStreamConverter.Destroy
 0001:00020648       WaveStorage.TWaveStreamConverter.EndRead
 0001:0002032C       WaveStorage.TWaveStreamConverter.EndRewrite
 0001:0002066C       WaveStorage.TWaveStreamConverter.Read
 0001:000201EC       WaveStorage.TWaveStreamConverter.Reset
 0001:00020228       WaveStorage.TWaveStreamConverter.SetBufferFormat
 0001:00020264       WaveStorage.TWaveStreamConverter.SetBufferFormatPCM
 0001:0002040C       WaveStorage.TWaveStreamConverter.Write
 0002:00000428       WaveStorage.WaveStorage
 0004:000000A0       WaveUtils..4
 0001:0001C4A8       WaveUtils..EWaveAudioError
 0001:0001C5C0       WaveUtils..EWaveAudioInvalidOperation
 0001:0001C530       WaveUtils..EWaveAudioSysError
 0001:0001CEA0       WaveUtils.CalcWaveBufferSize
 0001:0001D394       WaveUtils.ChangeVolume16Bit
 0001:0001D340       WaveUtils.ChangeVolume8Bit
 0001:0001D3F4       WaveUtils.ChangeWaveAudioVolume
 0003:0000384C       WaveUtils.Channels
 0001:0001CD74       WaveUtils.CloseWaveAudio
 0001:0001D6C0       WaveUtils.ConvertWaveFormat
 0001:0001CE1C       WaveUtils.CreateStreamWaveAudio
 0001:0001CC80       WaveUtils.CreateWaveAudio
 0003:00003848       WaveUtils.FACMDriver
 0001:0001E184       WaveUtils.Finalization
 0001:0001CEDC       WaveUtils.GetAudioFormat
 0001:0001D1E0       WaveUtils.GetAudioPeakLevel16Bit
 0001:0001D194       WaveUtils.GetAudioPeakLevel8Bit
 0001:0001DA6C       WaveUtils.GetPCMAudioFormat
 0001:0001CD98       WaveUtils.GetStreamWaveAudioInfo
 0001:0001D178       WaveUtils.GetWaveAudioBitRate
 0001:0001CF24       WaveUtils.GetWaveAudioFormat
 0001:0001CBAC       WaveUtils.GetWaveAudioInfo
 0001:0001D160       WaveUtils.GetWaveAudioLength
 0001:0001D220       WaveUtils.GetWaveAudioPeakLevel
 0001:0001CB50       WaveUtils.GetWaveData
 0001:0001DCC4       WaveUtils.GetWaveDataPositionOffset
 0001:0001CAAC       WaveUtils.GetWaveFormat
 0001:0001D28C       WaveUtils.Invert16Bit
 0001:0001D25C       WaveUtils.Invert8Bit
 0001:0001D2C4       WaveUtils.InvertWaveAudio
 0001:0001D558       WaveUtils.Mix16Bit
 0001:0001D430       WaveUtils.Mix8Bit
 0001:0001D684       WaveUtils.MixWaveAudio
 0001:0001C918       WaveUtils.mmioStreamProc
 0001:0001DCF8       WaveUtils.MS2Str
 0001:0001CE6C       WaveUtils.OpenStreamWaveAudio
 0001:0001D85C       WaveUtils.SetPCMAudioFormat
 0001:0001D914       WaveUtils.SetPCMAudioFormatS
 0001:0001D300       WaveUtils.SilenceWaveAudio
 0001:0001E054       WaveUtils.WaitForSyncObject
 0002:0000040C       WaveUtils.WaveUtils
 0004:0000000C       Windows..3
 0001:00000514       Windows.CloseHandle
 0001:00000654       Windows.CopyMemory
 0001:00000524       Windows.CreateFileMapping
 0001:0000051C       Windows.CreateFileW
 0001:00000604       Windows.DefWindowProc
 0001:0000052C       Windows.DeleteCriticalSection
 0001:0000060C       Windows.DispatchMessage
 0001:00000534       Windows.DuplicateHandle
 0001:0000053C       Windows.EnterCriticalSection
 0001:0000065C       Windows.Finalization
 0001:00000544       Windows.FlushInstructionCache
 0001:0000054C       Windows.FlushViewOfFile
 0001:00000554       Windows.FreeLibrary
 0001:0000055C       Windows.GetCurrentProcess
 0001:00000564       Windows.GetCurrentThread
 0001:0000056C       Windows.GetCurrentThreadId
 0001:00000574       Windows.GetFileSize
 0001:0000057C       Windows.GetLastError
 0001:00000614       Windows.GetMessage
 0001:00000584       Windows.GetProcAddress
 0001:0000058C       Windows.GetTickCount
 0001:00000650       Windows.HiWord
 0004:00000010       Windows.HtmlHelpModule
 0001:00000594       Windows.InitializeCriticalSection
 0001:0000059C       Windows.LeaveCriticalSection
 0001:000005A4       Windows.LoadLibrary
 0001:00000644       Windows.MakeLong
 0001:000005AC       Windows.MapViewOfFile
 0001:0000061C       Windows.MsgWaitForMultipleObjects
 0001:000005B4       Windows.MulDiv
 0001:00000624       Windows.PeekMessage
 0001:0000062C       Windows.PostMessage
 0001:00000634       Windows.PostThreadMessage
 0001:000005BC       Windows.ReadFile
 0001:000005C4       Windows.SetEndOfFile
 0001:000005CC       Windows.SetFilePointer
 0001:000005D4       Windows.TerminateThread
 0001:0000063C       Windows.TranslateMessage
 0001:000005DC       Windows.TryEnterCriticalSection
 0001:000005E4       Windows.UnmapViewOfFile
 0001:000005EC       Windows.VirtualProtect
 0001:000005F4       Windows.WaitForSingleObject
 0002:00000008       Windows.Windows
 0001:000005FC       Windows.WriteFile
 0004:00000088       wmfintf..1
 0001:0001399C       wmfintf.Finalization
 0003:00003730       wmfintf.IID_IWMClientConnections
 0003:00003760       wmfintf.IID_IWMClientConnections2
 0003:000036F0       wmfintf.IID_IWMCodecInfo
 0003:00003700       wmfintf.IID_IWMCodecInfo2
 0003:00003710       wmfintf.IID_IWMCodecInfo3
 0003:00003670       wmfintf.IID_IWMHeaderInfo
 0003:000036E0       wmfintf.IID_IWMInputMediaProps
 0003:00003660       wmfintf.IID_IWMOutputMediaProps
 0003:000036C0       wmfintf.IID_IWMProfile
 0003:000036D0       wmfintf.IID_IWMProfileManager
 0003:00003640       wmfintf.IID_IWMReader
 0003:00003750       wmfintf.IID_IWMRegisterCallback
 0003:00003740       wmfintf.IID_IWMStatusCallback
 0003:00003650       wmfintf.IID_IWMSyncReader
 0003:00003690       wmfintf.IID_IWMWriter
 0003:000036B0       wmfintf.IID_IWMWriterAdvanced
 0003:00003680       wmfintf.IID_IWMWriterFileSink
 0003:00003720       wmfintf.IID_IWMWriterNetworkSink
 0003:00003770       wmfintf.IID_IWMWriterPreprocess
 0003:000036A0       wmfintf.IID_IWMWriterSink
 0001:00013838       wmfintf.LoadWMVCore
 0001:00013974       wmfintf.UnloadWMVCore
 0004:0000007C       wmfintf.WMCreateProfileManager
 0004:00000080       wmfintf.WMCreateReader
 0004:00000070       wmfintf.WMCreateSyncReader
 0004:00000074       wmfintf.WMCreateWriter
 0004:00000078       wmfintf.WMCreateWriterFileSink
 0004:00000084       wmfintf.WMCreateWriterNetworkSink
 0002:000000DC       wmfintf.wmfintf
 0003:00003830       wmfintf.WMFORMAT_WaveFormatEx
 0003:000037D0       wmfintf.WMMEDIASUBTYPE_WMAudioV2
 0003:000037C0       wmfintf.WMMEDIASUBTYPE_WMAudioV7
 0003:000037B0       wmfintf.WMMEDIASUBTYPE_WMAudioV8
 0003:00003780       wmfintf.WMMEDIASUBTYPE_WMAudioV9
 0003:00003790       wmfintf.WMMEDIASUBTYPE_WMAudio_Lossless
 0003:000037A0       wmfintf.WMMEDIASUBTYPE_WMSP1
 0003:00003820       wmfintf.WMMEDIATYPE_Audio
 0003:00003810       wmfintf.WMProfile_V70_128Audio
 0003:000037F0       wmfintf.WMProfile_V70_64Audio
 0003:000037E0       wmfintf.WMProfile_V70_6VoiceAudio
 0003:00003800       wmfintf.WMProfile_V70_96Audio
 0003:00003840       wmfintf.WMVCoreLoaded
 0003:00003844       wmfintf.WMVHandle
 0004:0000006C       _DirectSound..1
 0003:00002EC8       _DirectSound.CLSID_DirectSound
 0003:00002ED8       _DirectSound.CLSID_DirectSound8
 0003:00002EE8       _DirectSound.CLSID_DirectSoundCapture
 0003:00002EF8       _DirectSound.CLSID_DirectSoundCapture8
 0003:00002F08       _DirectSound.CLSID_DirectSoundFullDuplex
 0001:00012FFC       _DirectSound.DirectSoundLoaded
 0003:00003510       _DirectSound.DS3DALG_DEFAULT
 0003:00003530       _DirectSound.DS3DALG_HRTF_FULL
 0003:00003540       _DirectSound.DS3DALG_HRTF_LIGHT
 0003:00003520       _DirectSound.DS3DALG_NO_VIRTUALIZATION
 0003:00002F6C       _DirectSound.DS3D_MAXDISTANCEFACTOR
 0003:00002F68       _DirectSound.DS3D_MINDISTANCEFACTOR
 0003:00002F28       _DirectSound.DSDEVID_DefaultCapture
 0003:00002F18       _DirectSound.DSDEVID_DefaultPlayback
 0003:00002F48       _DirectSound.DSDEVID_DefaultVoiceCapture
 0003:00002F38       _DirectSound.DSDEVID_DefaultVoicePlayback
 0001:00012FE4       _DirectSound.DSSPEAKER_COMBINED
 0001:00012FF0       _DirectSound.DSSPEAKER_CONFIG
 0001:00012FF4       _DirectSound.DSSPEAKER_GEOMETRY
 0001:00013008       _DirectSound.Finalization
 0003:00002F58       _DirectSound.GUID_All_Objects
 0003:000035E0       _DirectSound.GUID_DSCFX_CLASS_AEC
 0003:00003610       _DirectSound.GUID_DSCFX_CLASS_NS
 0003:000035F0       _DirectSound.GUID_DSCFX_MS_AEC
 0003:00003620       _DirectSound.GUID_DSCFX_MS_NS
 0003:00003600       _DirectSound.GUID_DSCFX_SYSTEM_AEC
 0003:00003630       _DirectSound.GUID_DSCFX_SYSTEM_NS
 0003:00003560       _DirectSound.GUID_DSFX_STANDARD_CHORUS
 0003:000035A0       _DirectSound.GUID_DSFX_STANDARD_COMPRESSOR
 0003:00003590       _DirectSound.GUID_DSFX_STANDARD_DISTORTION
 0003:00003580       _DirectSound.GUID_DSFX_STANDARD_ECHO
 0003:00003570       _DirectSound.GUID_DSFX_STANDARD_FLANGER
 0003:00003550       _DirectSound.GUID_DSFX_STANDARD_GARGLE
 0003:000035C0       _DirectSound.GUID_DSFX_STANDARD_I3DL2REVERB
 0003:000035B0       _DirectSound.GUID_DSFX_STANDARD_PARAMEQ
 0003:000035D0       _DirectSound.GUID_DSFX_WAVES_REVERB
 0003:00003240       _DirectSound.I3DL2_ENVIRONMENT_PRESET_ALLEY
 0003:00003150       _DirectSound.I3DL2_ENVIRONMENT_PRESET_ARENA
 0003:000030C0       _DirectSound.I3DL2_ENVIRONMENT_PRESET_AUDITORIUM
 0003:00003030       _DirectSound.I3DL2_ENVIRONMENT_PRESET_BATHROOM
 0003:000031B0       _DirectSound.I3DL2_ENVIRONMENT_PRESET_CARPETEDHALLWAY
 0003:00003120       _DirectSound.I3DL2_ENVIRONMENT_PRESET_CAVE
 0003:000032A0       _DirectSound.I3DL2_ENVIRONMENT_PRESET_CITY
 0003:000030F0       _DirectSound.I3DL2_ENVIRONMENT_PRESET_CONCERTHALL
 0003:00002F70       _DirectSound.I3DL2_ENVIRONMENT_PRESET_DEFAULT
 0003:00003270       _DirectSound.I3DL2_ENVIRONMENT_PRESET_FOREST
 0003:00002FA0       _DirectSound.I3DL2_ENVIRONMENT_PRESET_GENERIC
 0003:000031E0       _DirectSound.I3DL2_ENVIRONMENT_PRESET_HALLWAY
 0003:00003180       _DirectSound.I3DL2_ENVIRONMENT_PRESET_HANGAR
 0003:000034B0       _DirectSound.I3DL2_ENVIRONMENT_PRESET_LARGEHALL
 0003:00003450       _DirectSound.I3DL2_ENVIRONMENT_PRESET_LARGEROOM
 0003:00003060       _DirectSound.I3DL2_ENVIRONMENT_PRESET_LIVINGROOM
 0003:00003480       _DirectSound.I3DL2_ENVIRONMENT_PRESET_MEDIUMHALL
 0003:00003420       _DirectSound.I3DL2_ENVIRONMENT_PRESET_MEDIUMROOM
 0003:000032D0       _DirectSound.I3DL2_ENVIRONMENT_PRESET_MOUNTAINS
 0003:00002FD0       _DirectSound.I3DL2_ENVIRONMENT_PRESET_PADDEDCELL
 0003:00003360       _DirectSound.I3DL2_ENVIRONMENT_PRESET_PARKINGLOT
 0003:00003330       _DirectSound.I3DL2_ENVIRONMENT_PRESET_PLAIN
 0003:000034E0       _DirectSound.I3DL2_ENVIRONMENT_PRESET_PLATE
 0003:00003300       _DirectSound.I3DL2_ENVIRONMENT_PRESET_QUARRY
 0003:00003000       _DirectSound.I3DL2_ENVIRONMENT_PRESET_ROOM
 0003:00003390       _DirectSound.I3DL2_ENVIRONMENT_PRESET_SEWERPIPE
 0003:000033F0       _DirectSound.I3DL2_ENVIRONMENT_PRESET_SMALLROOM
 0003:00003210       _DirectSound.I3DL2_ENVIRONMENT_PRESET_STONECORRIDOR
 0003:00003090       _DirectSound.I3DL2_ENVIRONMENT_PRESET_STONEROOM
 0003:000033C0       _DirectSound.I3DL2_ENVIRONMENT_PRESET_UNDERWATER
 0001:00013004       _DirectSound.LoadDirectSound
 0001:00012FDC       _DirectSound.MAKE_DSHRESULT
 0001:00013000       _DirectSound.UnLoadDirectSound
 0002:000000D4       _DirectSound._DirectSound
 0004:00000068       _DXTypes..1
 0001:00012974       _DXTypes.Finalization
 0002:000000CC       _DXTypes._DXTypes
 0001:00000C60       _MSAcm.acmFormatSuggest
 0001:00000C58       _MSAcm.acmMetrics
 0001:00000C70       _MSAcm.acmStreamClose
 0001:00000C80       _MSAcm.acmStreamConvert
 0001:00000C68       _MSAcm.acmStreamOpen
 0001:00000C88       _MSAcm.acmStreamPrepareHeader
 0001:00000C78       _MSAcm.acmStreamSize
 0001:00000C90       _MSAcm.acmStreamUnprepareHeader


  Address             Publics by Value

 0001:00000350       SysInit.FreeLibrary
 0001:00000358       SysInit.LocalAlloc
 0001:00000360       SysInit.LocalFree
 0001:00000368       SysInit.TlsAlloc
 0001:00000370       SysInit.TlsFree
 0001:00000378       SysInit.TlsGetValue
 0001:00000380       SysInit.TlsSetValue
 0001:00000388       SysInit.AllocTlsBuffer
 0001:00000394       SysInit.GetTlsSize
 0001:0000039C       SysInit.InitThreadTLS
 0001:000003E0       SysInit.InitProcessTLS
 0001:0000040C       SysInit.ExitThreadTLS
 0001:00000444       SysInit.ExitProcessTLS
 0001:00000468       SysInit.InitializeModule
 0001:00000474       SysInit.UninitializeModule
 0001:00000498       SysInit.@InitPkg
 0001:000004FC       SysInit.@PackageLoad
 0001:00000508       SysInit.@PackageUnload
 0001:00000514       Windows.CloseHandle
 0001:0000051C       Windows.CreateFileW
 0001:00000524       Windows.CreateFileMapping
 0001:0000052C       Windows.DeleteCriticalSection
 0001:00000534       Windows.DuplicateHandle
 0001:0000053C       Windows.EnterCriticalSection
 0001:00000544       Windows.FlushInstructionCache
 0001:0000054C       Windows.FlushViewOfFile
 0001:00000554       Windows.FreeLibrary
 0001:0000055C       Windows.GetCurrentProcess
 0001:00000564       Windows.GetCurrentThread
 0001:0000056C       Windows.GetCurrentThreadId
 0001:00000574       Windows.GetFileSize
 0001:0000057C       Windows.GetLastError
 0001:00000584       Windows.GetProcAddress
 0001:0000058C       Windows.GetTickCount
 0001:00000594       Windows.InitializeCriticalSection
 0001:0000059C       Windows.LeaveCriticalSection
 0001:000005A4       Windows.LoadLibrary
 0001:000005AC       Windows.MapViewOfFile
 0001:000005B4       Windows.MulDiv
 0001:000005BC       Windows.ReadFile
 0001:000005C4       Windows.SetEndOfFile
 0001:000005CC       Windows.SetFilePointer
 0001:000005D4       Windows.TerminateThread
 0001:000005DC       Windows.TryEnterCriticalSection
 0001:000005E4       Windows.UnmapViewOfFile
 0001:000005EC       Windows.VirtualProtect
 0001:000005F4       Windows.WaitForSingleObject
 0001:000005FC       Windows.WriteFile
 0001:00000604       Windows.DefWindowProc
 0001:0000060C       Windows.DispatchMessage
 0001:00000614       Windows.GetMessage
 0001:0000061C       Windows.MsgWaitForMultipleObjects
 0001:00000624       Windows.PeekMessage
 0001:0000062C       Windows.PostMessage
 0001:00000634       Windows.PostThreadMessage
 0001:0000063C       Windows.TranslateMessage
 0001:00000644       Windows.MakeLong
 0001:00000650       Windows.HiWord
 0001:00000654       Windows.CopyMemory
 0001:0000065C       Windows.Finalization
 0001:00000AD8       MMSystem.mixerClose
 0001:00000AE0       MMSystem.mixerGetControlDetails
 0001:00000AE8       MMSystem.mixerGetDevCaps
 0001:00000AF0       MMSystem.mixerGetLineControls
 0001:00000AF8       MMSystem.mixerGetLineInfo
 0001:00000B00       MMSystem.mixerGetNumDevs
 0001:00000B08       MMSystem.mixerOpen
 0001:00000B10       MMSystem.mixerSetControlDetails
 0001:00000B18       MMSystem.mmioAscend
 0001:00000B20       MMSystem.mmioClose
 0001:00000B28       MMSystem.mmioCreateChunk
 0001:00000B30       MMSystem.mmioDescend
 0001:00000B38       MMSystem.mmioOpen
 0001:00000B40       MMSystem.mmioRead
 0001:00000B48       MMSystem.mmioSeek
 0001:00000B50       MMSystem.mmioStringToFOURCC
 0001:00000B58       MMSystem.mmioWrite
 0001:00000B60       MMSystem.waveInAddBuffer
 0001:00000B68       MMSystem.waveInClose
 0001:00000B70       MMSystem.waveInGetDevCaps
 0001:00000B78       MMSystem.waveInGetErrorText
 0001:00000B80       MMSystem.waveInGetNumDevs
 0001:00000B88       MMSystem.waveInGetPosition
 0001:00000B90       MMSystem.waveInOpen
 0001:00000B98       MMSystem.waveInPrepareHeader
 0001:00000BA0       MMSystem.waveInReset
 0001:00000BA8       MMSystem.waveInStart
 0001:00000BB0       MMSystem.waveInStop
 0001:00000BB8       MMSystem.waveInUnprepareHeader
 0001:00000BC0       MMSystem.waveOutBreakLoop
 0001:00000BC8       MMSystem.waveOutClose
 0001:00000BD0       MMSystem.waveOutGetDevCaps
 0001:00000BD8       MMSystem.waveOutGetErrorText
 0001:00000BE0       MMSystem.waveOutGetNumDevs
 0001:00000BE8       MMSystem.waveOutGetPitch
 0001:00000BF0       MMSystem.waveOutGetPlaybackRate
 0001:00000BF8       MMSystem.waveOutGetPosition
 0001:00000C00       MMSystem.waveOutGetVolume
 0001:00000C08       MMSystem.waveOutOpen
 0001:00000C10       MMSystem.waveOutPause
 0001:00000C18       MMSystem.waveOutPrepareHeader
 0001:00000C20       MMSystem.waveOutReset
 0001:00000C28       MMSystem.waveOutRestart
 0001:00000C30       MMSystem.waveOutSetPitch
 0001:00000C38       MMSystem.waveOutSetPlaybackRate
 0001:00000C40       MMSystem.waveOutSetVolume
 0001:00000C48       MMSystem.waveOutUnprepareHeader
 0001:00000C50       MMSystem.waveOutWrite
 0001:00000C58       _MSAcm.acmMetrics
 0001:00000C60       _MSAcm.acmFormatSuggest
 0001:00000C68       _MSAcm.acmStreamOpen
 0001:00000C70       _MSAcm.acmStreamClose
 0001:00000C78       _MSAcm.acmStreamSize
 0001:00000C80       _MSAcm.acmStreamConvert
 0001:00000C88       _MSAcm.acmStreamPrepareHeader
 0001:00000C90       _MSAcm.acmStreamUnprepareHeader
 0001:00000C98       WaveConverter..TWaveConverter
 0001:00000D44       WaveConverter.TWaveConverter.Convert
 0001:00000EA8       WaveConverter.TWaveConverter.Create
 0001:00000F08       WaveConverter.TWaveConverter.Destroy
 0001:00000F30       WaveConverter.TWaveConverter.LoadStream
 0001:00001270       WaveConverter.TWaveConverter.SaveWavToStream
 0001:000013AC       WaveConverter.Finalization
 0001:000015E4       FastcodeCPUID.IsCPUID_Available
 0001:000015FC       FastcodeCPUID.IsFPU_Available
 0001:00001634       FastcodeCPUID.GetCPUID
 0001:00001650       FastcodeCPUID.GetCPUVendor
 0001:000016D4       FastcodeCPUID.GetCPUFeatures
 0001:00001800       FastcodeCPUID.GetCPUExtendedFeatures
 0001:00001860       FastcodeCPUID.GetProcessorCacheInfo
 0001:00001C5C       FastcodeCPUID.GetExtendedProcessorCacheInfo
 0001:00001CEC       FastcodeCPUID.VerifyOSSupportForXMMRegisters
 0001:00001D38       FastcodeCPUID.GetCPUInfo
 0001:00001DF8       FastcodeCPUID.GetFastCodeTarget
 0001:00001EE0       FastcodeCPUID.Finalization
 0001:00001F10       FastMove.MoveJOH_PAS_6
 0001:00001FD0       FastMove.SmallForwardMove_6
 0001:00002164       FastMove.SmallBackwardMove_6
 0001:000022F4       FastMove.Forwards_IA32_6
 0001:00002330       FastMove.Backwards_IA32_6
 0001:00002364       FastMove.Forwards_MMX_6
 0001:00002470       FastMove.Backwards_MMX_6
 0001:000024C8       FastMove.AlignedFwdMoveSSE_6
 0001:00002690       FastMove.Forwards_SSE_6
 0001:00002738       FastMove.Backwards_SSE_6
 0001:00002790       FastMove.MoveJOH_IA32_6
 0001:000027C8       FastMove.MoveJOH_MMX_6
 0001:00002800       FastMove.MoveJOH_SSE_6
 0001:00002838       FastMove.ReplaceMove
 0001:0000291C       FastMove.Finalization
 0001:000029A4       ACS_Types.Finalization
 0001:00002A80       ACS_Procs.Convert8ToSingle
 0001:00002AA8       ACS_Procs.Convert16ToSingle
 0001:00002AC0       ACS_Procs.ConvertSingleTo8
 0001:00002AEC       ACS_Procs.ConvertSingleTo16
 0001:00002B18       ACS_Procs.Convert16To8
 0001:00002B40       ACS_Procs.Convert8To16
 0001:00002B64       ACS_Procs.ConvertStereoToMono16
 0001:00002B94       ACS_Procs.ConvertStereoToMono8
 0001:00002BC0       ACS_Procs.ConvertMonoToStereo16
 0001:00002C3C       ACS_Procs.ConvertMonoToStereo8
 0001:00002CA8       ACS_Procs.ComplexFFT
 0001:00002F5C       ACS_Procs.SingleArrayMultByConst_SSE_4
 0001:00002F90       ACS_Procs.SingleArrayMultByConst_SSE_2
 0001:00002FB8       ACS_Procs.MultSingleArrays_SSE_4
 0001:00002FE8       ACS_Procs.MultSingleArrays_SSE_2
 0001:0000300C       ACS_Procs.SumSingleArrays_SSE_4
 0001:0000303C       ACS_Procs.SumSingleArrays_SSE_2
 0001:00003060       ACS_Procs.Swap64
 0001:0000306C       ACS_Procs.ComplexFFTSingle
 0001:00003254       ACS_Procs.HannWindow
 0001:000032D0       ACS_Procs.HammingWindow
 0001:00003360       ACS_Procs.BlackmanWindow
 0001:00003438       ACS_Procs.HannWindowS
 0001:000034B4       ACS_Procs.HammingWindowS
 0001:00003544       ACS_Procs.BlackmanWindowS
 0001:00003640       ACS_Procs.CalculateSincKernelSingle
 0001:000037AC       ACS_Procs.CalculateSincKernel
 0001:000038F8       ACS_Procs.SmallIntArrayToDouble
 0001:0000392C       ACS_Procs.SmallIntArrayToComplex
 0001:00003960       ACS_Procs.MultSingleArrays
 0001:0000397C       ACS_Procs.MultAndSumSingleArrays
 0001:000039A4       ACS_Procs.MultDoubleArrays
 0001:000039DC       ACS_Procs.LgMagnitude
 0001:00003A48       ACS_Procs.GetLeftOf
 0001:00003AA0       ACS_Procs.GetRightOf
 0001:00003B0C       ACS_Procs.Convert24To16
 0001:00003B3C       ACS_Procs.Convert16To24
 0001:00003B64       ACS_Procs.ConvertStereoToMono24
 0001:00003BD0       ACS_Procs.ConvertMonoToStereo24
 0001:00003CC4       ACS_Procs.ConvertStereoToMono32
 0001:00003CF8       ACS_Procs.ConvertMonoToStereo32
 0001:00003D80       ACS_Procs.Convert32To24
 0001:00003DC0       ACS_Procs.Convert24To32
 0001:00003DFC       ACS_Procs.Convert16To32
 0001:00003E34       ACS_Procs.ConvertIEEEFloatTo32
 0001:00003EDC       ACS_Procs.ConvertShortIEEEFloatTo32
 0001:00003F7C       ACS_Procs.SingleToByte
 0001:00003FF0       ACS_Procs.SingleToSmallInt
 0001:000040B0       ACS_Procs.SingleToInt32
 0001:00004170       ACS_Procs.SingleToInt24
 0001:00004238       ACS_Procs.ByteToSingle
 0001:0000428C       ACS_Procs.SmallIntToSingle
 0001:000042D4       ACS_Procs.Int32ToSingle
 0001:0000431C       ACS_Procs.Int24ToSingle
 0001:00004388       ACS_Procs.SingleStereoToMono
 0001:000043B4       ACS_Procs.SingleMonoToStereo
 0001:000043D4       ACS_Procs.GUIDSEqual
 0001:00004440       ACS_Procs.NewCascade
 0001:000048D0       ACS_Procs.CalculateChebyshev
 0001:00004BD0       ACS_Procs.GCD
 0001:00004BF8       ACS_Procs.DeinterleaveStereo32
 0001:00004C38       ACS_Procs.DeinterleaveStereo16
 0001:00004C7C       ACS_Procs.DeinterleaveSurround32
 0001:00004D00       ACS_Procs.DeinterleaveSurround16
 0001:00004D90       ACS_Procs.InterleaveStereo32
 0001:00004DCC       ACS_Procs.InterleaveStereo16
 0001:00004E0C       ACS_Procs.SetSingleFPUPrecision
 0001:00004E20       ACS_Procs.SetDoubleFPUPrecision
 0001:00004E34       ACS_Procs.SetExtendedFPUPrecision
 0001:00004E48       ACS_Procs.RestoreCW
 0001:00004E50       ACS_Procs.Finalization
 0001:00004EA4       ACS_Tags..TAuTags
 0001:00004F58       ACS_Tags..TCommonTags
 0001:000050B4       ACS_Tags..TId3v1Tags
 0001:00005254       ACS_Tags..TId3v2Tags
 0001:0000547C       ACS_Tags..TAPEv2Tags
 0001:000065CC       ACS_Tags..TVorbisTags
 0001:000067FC       ACS_Tags._min
 0001:00006804       ACS_Tags.TAuTags.Create
 0001:00006868       ACS_Tags.TAuTags.Destroy
 0001:000068C4       ACS_Tags.TAuTags.Presents
 0001:000068CC       ACS_Tags.TAuTags.GetIdCount
 0001:000068D8       ACS_Tags.TAuTags.GetId
 0001:0000690C       ACS_Tags.TAuTags.GetValue
 0001:00006948       ACS_Tags.TAuTags.SetValue
 0001:00006994       ACS_Tags.TAuTags.GetAsInteger
 0001:00006A60       ACS_Tags.TAuTags.GetAsString
 0001:00006B18       ACS_Tags.TAuTags.GetAsWideString
 0001:00006BF4       ACS_Tags.TAuTags.AddId
 0001:00006C48       ACS_Tags.TAuTags.Assign
 0001:00006CF8       ACS_Tags.TAuTags.AssignTo
 0001:00006DA8       ACS_Tags.TAuTags.Clear
 0001:00006E24       ACS_Tags.TAuTags.ReadFromFile
 0001:00006E38       ACS_Tags.TAuTags.WriteToFile
 0001:00006E40       ACS_Tags.TId3v1Tags.Create
 0001:00006FD8       ACS_Tags.TId3v1Tags.Presents
 0001:00007068       ACS_Tags.TId3v1Tags.ReadTagsInfo
 0001:00007110       ACS_Tags.TId3v1Tags.GetTitle
 0001:00007138       ACS_Tags.TId3v1Tags.SetTitle
 0001:000071A4       ACS_Tags.TId3v1Tags.GetArtist
 0001:00007230       ACS_Tags.TId3v1Tags.SetArtist
 0001:0000729C       ACS_Tags.TId3v1Tags.GetAlbum
 0001:000072C4       ACS_Tags.TId3v1Tags.SetAlbum
 0001:00007330       ACS_Tags.TId3v1Tags.GetYear
 0001:00007354       ACS_Tags.TId3v1Tags.SetYear
 0001:000073C0       ACS_Tags.TId3v1Tags.GetComment
 0001:000073E8       ACS_Tags.TId3v1Tags.SetComment
 0001:00007454       ACS_Tags.TId3v1Tags.GetTrack
 0001:00007478       ACS_Tags.TId3v1Tags.SetTrack
 0001:000074E4       ACS_Tags.TId3v1Tags.GetGenre
 0001:00007508       ACS_Tags.TId3v1Tags.SetGenre
 0001:000075AC       ACS_Tags.TId3v1Tags.GetGenreId
 0001:000075D4       ACS_Tags.TId3v1Tags.SetGenreId
 0001:00007640       ACS_Tags.TId3v1Tags.ReadFromFile
 0001:00007844       ACS_Tags.TId3v1Tags.WriteToFile
 0001:00007AE0       ACS_Tags.TId3v2Tags.Create
 0001:00007BA0       ACS_Tags.TId3v2Tags.Presents
 0001:00007C28       ACS_Tags.TId3v2Tags.ReadTagsInfo
 0001:00007CFC       ACS_Tags.TCommonTags.Create
 0001:00007E70       ACS_Tags.TCommonTags.GetArtist
 0001:00007E98       ACS_Tags.TCommonTags.SetArtist
 0001:00007F04       ACS_Tags.TCommonTags.GetTitle
 0001:00007F2C       ACS_Tags.TCommonTags.SetTitle
 0001:00007F98       ACS_Tags.TCommonTags.GetAlbum
 0001:00007FC0       ACS_Tags.TCommonTags.SetAlbum
 0001:0000802C       ACS_Tags.TCommonTags.GetGenre
 0001:00008054       ACS_Tags.TCommonTags.SetGenre
 0001:000080C0       ACS_Tags.TCommonTags.GetYear
 0001:000080E8       ACS_Tags.TCommonTags.SetYear
 0001:00008154       ACS_Tags.TCommonTags.GetTrack
 0001:0000817C       ACS_Tags.TCommonTags.SetTrack
 0001:000081E8       ACS_Tags.TId3v2Tags.GetArtist
 0001:0000820C       ACS_Tags.TId3v2Tags.SetArtist
 0001:00008270       ACS_Tags.TId3v2Tags.GetAlbum
 0001:00008294       ACS_Tags.TId3v2Tags.SetAlbum
 0001:000082F8       ACS_Tags.TId3v2Tags.GetGenre
 0001:0000831C       ACS_Tags.TId3v2Tags.SetGenre
 0001:00008380       ACS_Tags.TId3v2Tags.GetYear
 0001:000083A4       ACS_Tags.TId3v2Tags.SetYear
 0001:00008408       ACS_Tags.TId3v2Tags.GetTrack
 0001:0000842C       ACS_Tags.TId3v2Tags.SetTrack
 0001:00008490       ACS_Tags.TId3v2Tags.GetTitle
 0001:000084B4       ACS_Tags.TId3v2Tags.SetTitle
 0001:00008518       ACS_Tags.TId3v2Tags.GetComment
 0001:0000853C       ACS_Tags.TId3v2Tags.SetComment
 0001:000085A0       ACS_Tags.TId3v2Tags.GetComposer
 0001:000085C4       ACS_Tags.TId3v2Tags.SetComposer
 0001:00008628       ACS_Tags.TId3v2Tags.GetEncoder
 0001:0000864C       ACS_Tags.TId3v2Tags.SetEncoder
 0001:000086B0       ACS_Tags.TId3v2Tags.GetCopyright
 0001:000086D4       ACS_Tags.TId3v2Tags.SetCopyright
 0001:00008738       ACS_Tags.TId3v2Tags.GetLanguage
 0001:0000875C       ACS_Tags.TId3v2Tags.SetLanguage
 0001:000087C0       ACS_Tags.TId3v2Tags.GetLink
 0001:000087E4       ACS_Tags.TId3v2Tags.SetLink
 0001:00008848       ACS_Tags.get_tags_size
 0001:0000887C       ACS_Tags.set_tag_item
 0001:00008A28       ACS_Tags.read_frames_old
 0001:00008C0C       ACS_Tags.read_frames_new
 0001:00008DF8       ACS_Tags.TId3v2Tags.ReadFromFile
 0001:00008EC4       ACS_Tags.TId3v2Tags.WriteToFile
 0001:00009264       ACS_Tags.TAPEv2Tags.Create
 0001:0000974C       ACS_Tags.TAPEv2Tags.GetArtist
 0001:00009774       ACS_Tags.TAPEv2Tags.SetArtist
 0001:000097E0       ACS_Tags.TAPEv2Tags.GetComposer
 0001:0000980C       ACS_Tags.TAPEv2Tags.SetComposer
 0001:0000987C       ACS_Tags.TAPEv2Tags.GetAlbum
 0001:000098A4       ACS_Tags.TAPEv2Tags.SetAlbum
 0001:00009910       ACS_Tags.TAPEv2Tags.GetDebutAlbum
 0001:0000993C       ACS_Tags.TAPEv2Tags.SetDebutAlbum
 0001:000099AC       ACS_Tags.TAPEv2Tags.GetPublisher
 0001:000099D8       ACS_Tags.TAPEv2Tags.SetPublisher
 0001:00009A48       ACS_Tags.TAPEv2Tags.GetConductor
 0001:00009A74       ACS_Tags.TAPEv2Tags.SetConductor
 0001:00009AE4       ACS_Tags.TAPEv2Tags.GetCopyright
 0001:00009B10       ACS_Tags.TAPEv2Tags.SetCopyright
 0001:00009B80       ACS_Tags.TAPEv2Tags.GetISBN
 0001:00009BA8       ACS_Tags.TAPEv2Tags.SetISBN
 0001:00009C14       ACS_Tags.TAPEv2Tags.GetISRC
 0001:00009C3C       ACS_Tags.TAPEv2Tags.SetISRC
 0001:00009CA8       ACS_Tags.TAPEv2Tags.GetBarCode
 0001:00009CD0       ACS_Tags.TAPEv2Tags.SetBarCode
 0001:00009D3C       ACS_Tags.TAPEv2Tags.GetLabelCode
 0001:00009D60       ACS_Tags.TAPEv2Tags.SetLabelCode
 0001:00009DC8       ACS_Tags.TAPEv2Tags.GetCatalog
 0001:00009DF0       ACS_Tags.TAPEv2Tags.SetCatalog
 0001:00009E5C       ACS_Tags.TAPEv2Tags.GetLanguage
 0001:00009E88       ACS_Tags.TAPEv2Tags.SetLanguage
 0001:00009EF8       ACS_Tags.TAPEv2Tags.GetGenre
 0001:00009F20       ACS_Tags.TAPEv2Tags.SetGenre
 0001:00009F8C       ACS_Tags.TAPEv2Tags.GetYear
 0001:00009FF0       ACS_Tags.TAPEv2Tags.SetYear
 0001:0000A05C       ACS_Tags.TAPEv2Tags.GetRecordDate
 0001:0000A088       ACS_Tags.TAPEv2Tags.SetRecordDate
 0001:0000A0F8       ACS_Tags.TAPEv2Tags.GetRecordLocation
 0001:0000A128       ACS_Tags.TAPEv2Tags.SetRecordLocation
 0001:0000A19C       ACS_Tags.TAPEv2Tags.GetFile
 0001:0000A1C4       ACS_Tags.TAPEv2Tags.SetFile
 0001:0000A230       ACS_Tags.TAPEv2Tags.GetRelated
 0001:0000A258       ACS_Tags.TAPEv2Tags.SetRelated
 0001:0000A2C4       ACS_Tags.TAPEv2Tags.GetAbstract
 0001:0000A2F0       ACS_Tags.TAPEv2Tags.SetAbstract
 0001:0000A360       ACS_Tags.TAPEv2Tags.GetBibliography
 0001:0000A390       ACS_Tags.TAPEv2Tags.SetBibliography
 0001:0000A404       ACS_Tags.TAPEv2Tags.GetTrack
 0001:0000A42C       ACS_Tags.TAPEv2Tags.SetTrack
 0001:0000A498       ACS_Tags.TAPEv2Tags.GetTitle
 0001:0000A4C0       ACS_Tags.TAPEv2Tags.SetTitle
 0001:0000A52C       ACS_Tags.TAPEv2Tags.GetSubTitle
 0001:0000A558       ACS_Tags.TAPEv2Tags.SetSubTitle
 0001:0000A5C8       ACS_Tags.TAPEv2Tags.GetComment
 0001:0000A5F0       ACS_Tags.TAPEv2Tags.SetComment
 0001:0000A65C       ACS_Tags.TVorbisTags.Create
 0001:0000A814       ACS_Tags.TVorbisTags.GetAlbum
 0001:0000A82C       ACS_Tags.TVorbisTags.SetAlbum
 0001:0000A898       ACS_Tags.TVorbisTags.GetArtist
 0001:0000A8B0       ACS_Tags.TVorbisTags.SetArtist
 0001:0000A91C       ACS_Tags.TVorbisTags.GetDate
 0001:0000A934       ACS_Tags.TVorbisTags.SetDate
 0001:0000A9A0       ACS_Tags.TVorbisTags.GetGenre
 0001:0000A9B8       ACS_Tags.TVorbisTags.SetGenre
 0001:0000AA24       ACS_Tags.TVorbisTags.GetTitle
 0001:0000AA3C       ACS_Tags.TVorbisTags.SetTitle
 0001:0000AAA8       ACS_Tags.TVorbisTags.GetTrack
 0001:0000AAC0       ACS_Tags.TVorbisTags.SetTrack
 0001:0000AB2C       ACS_Tags.TVorbisTags.GetDisc
 0001:0000AB44       ACS_Tags.TVorbisTags.SetDisc
 0001:0000ABB0       ACS_Tags.TVorbisTags.GetReference
 0001:0000ABC8       ACS_Tags.TVorbisTags.SetReference
 0001:0000AC34       ACS_Tags.TVorbisTags.GetTrackGain
 0001:0000AC4C       ACS_Tags.TVorbisTags.SetTrackGain
 0001:0000ACB8       ACS_Tags.TVorbisTags.GetTrackPeak
 0001:0000ACD0       ACS_Tags.TVorbisTags.SetTrackPeak
 0001:0000AD3C       ACS_Tags.TVorbisTags.GetAlbumGain
 0001:0000AD54       ACS_Tags.TVorbisTags.SetAlbumGain
 0001:0000ADC0       ACS_Tags.TVorbisTags.GetAlbumPeak
 0001:0000ADD8       ACS_Tags.TVorbisTags.SetAlbumPeak
 0001:0000AE44       ACS_Tags.ReadApe2Tags
 0001:0000B2A0       ACS_Tags.Finalization
 0001:0000B548       ACS_Classes..EAuException
 0001:0000B5D0       ACS_Classes..TAuFileStream
 0001:0000B674       ACS_Classes..TAuThread
 0001:0000B6FC       ACS_Classes..TAuInput
 0001:0000B7E4       ACS_Classes..TAuOutput
 0001:0000B96C       ACS_Classes..TAuStreamedInput
 0001:0000BA6C       ACS_Classes..TAuSeekableStreamedInput
 0001:0000BB7C       ACS_Classes..TAuStreamedOutput
 0001:0000BC4C       ACS_Classes..TAuFileIn
 0001:0000BDA0       ACS_Classes..TAuTaggedFileIn
 0001:0000BEA4       ACS_Classes..TAuFileOut
 0001:0000BFCC       ACS_Classes..TAuTaggedFileOut
 0001:0000C0A0       ACS_Classes..TAuConverter
 0001:0000C1B4       ACS_Classes..TAudioTap
 0001:0000C33C       ACS_Classes..TEventHandler
 0001:0000C3CC       ACS_Classes..TCircularBuffer
 0001:0000C458       ACS_Classes..TCacheThread
 0001:0000C4E8       ACS_Classes..TAuCachedStream
 0001:0000C590       ACS_Classes..TAuFIFOStream
 0001:0000C634       ACS_Classes.CreateEventHandler
 0001:0000C660       ACS_Classes.ReleaseEventHandler
 0001:0000C69C       ACS_Classes.TEventHandler.Create
 0001:0000C724       ACS_Classes.TEventHandler.Destroy
 0001:0000C758       ACS_Classes.TEventHandler.ClearEvents
 0001:0000C7B0       ACS_Classes.TEventHandler.BlockEvents
 0001:0000C7CC       ACS_Classes.TEventHandler.UnblockEvents
 0001:0000C7E8       ACS_Classes.TEventHandler.AddEvent
 0001:0000C81C       ACS_Classes.TEventHandler.PrependEvent
 0001:0000C854       ACS_Classes.TEventHandler.GetEvent
 0001:0000C884       ACS_Classes.TEventHandler.CallHandler
 0001:0000C8C4       ACS_Classes.TEventHandler.Execute
 0001:0000C994       ACS_Classes.TEventHandler.PostOnDone
 0001:0000C9C0       ACS_Classes.TEventHandler.PostOnProgress
 0001:0000C9F4       ACS_Classes.TEventHandler.PostGenericEvent
 0001:0000CA28       ACS_Classes.TEventHandler.PostNonGuiEvent
 0001:0000CA5C       ACS_Classes.TAuInput.Create
 0001:0000CAA0       ACS_Classes.TAuInput.Destroy
 0001:0000CAD0       ACS_Classes.TAuInput.Init
 0001:0000CB98       ACS_Classes.TAuInput.Flush
 0001:0000CBE4       ACS_Classes.TAuInput.GetData
 0001:0000CC3C       ACS_Classes.TAuThread.Create
 0001:0000CCAC       ACS_Classes.TAuThread.Destroy
 0001:0000CCE4       ACS_Classes.TAuThread.WaitForPause
 0001:0000CCF4       ACS_Classes.TAuThread.SoftSleep
 0001:0000CD14       ACS_Classes.TAuThread.SoftPause
 0001:0000CD3C       ACS_Classes.TAuThread.SoftWake
 0001:0000CD48       ACS_Classes.TAuThread.Execute
 0001:0000CF5C       ACS_Classes.TAuOutput.BlockingRun
 0001:0000CF88       ACS_Classes.TAuOutput.Create
 0001:0000D000       ACS_Classes.TAuOutput.Destroy
 0001:0000D070       ACS_Classes.TAuOutput.WhenDone
 0001:0000D090       ACS_Classes.TAuOutput.Run
 0001:0000D19C       ACS_Classes.TAuOutput.Stop
 0001:0000D298       ACS_Classes.TAuOutput.GetStatus
 0001:0000D2B4       ACS_Classes.TAuOutput.SetPriority
 0001:0000D2C0       ACS_Classes.TAuOutput.GetPriority
 0001:0000D2CC       ACS_Classes.TAuOutput.SetInput
 0001:0000D2F4       ACS_Classes.TAuOutput.GetProgress
 0001:0000D338       ACS_Classes.TAuOutput.Pause
 0001:0000D394       ACS_Classes.TAuOutput.Resume
 0001:0000D3C4       ACS_Classes.TAuStreamedInput.Create
 0001:0000D428       ACS_Classes.TAuFileIn.GetBPS
 0001:0000D43C       ACS_Classes.TAuFileIn.GetCh
 0001:0000D450       ACS_Classes.TAuFileIn.GetSR
 0001:0000D464       ACS_Classes.TAuFileIn.GetValid
 0001:0000D534       ACS_Classes.TAuFileIn.InitInternal
 0001:0000D748       ACS_Classes.TAuFileIn.FlushInternal
 0001:0000D774       ACS_Classes.TAuStreamedInput.Seek
 0001:0000D898       ACS_Classes.TAuFileIn._Jump
 0001:0000D92C       ACS_Classes.TAuOutput.GetTE
 0001:0000D980       ACS_Classes.TAuOutput.GetDelay
 0001:0000D990       ACS_Classes.TAuOutput.SetDelay
 0001:0000D9A0       ACS_Classes.TAuInput.GetTotalTime
 0001:0000D9A4       ACS_Classes.TAuFileIn.GetTotalTime
 0001:0000DA14       ACS_Classes.TAuStreamedInput.SetStream
 0001:0000DA28       ACS_Classes.TAuStreamedOutput.SetStream
 0001:0000DA3C       ACS_Classes.TAuOutput.Notification
 0001:0000DA68       ACS_Classes.TAuInput.Reset
 0001:0000DAAC       ACS_Classes.TAuFileIn.Reset
 0001:0000DAC0       ACS_Classes.TAuFileOut.Create
 0001:0000DAF8       ACS_Classes.TAuFileOut.SetFileMode
 0001:0000DB00       ACS_Classes.TAuConverter.Notification
 0001:0000DB2C       ACS_Classes.TAuConverter.SetInput
 0001:0000DB9C       ACS_Classes.TAuFileIn.SetStartTime
 0001:0000DBE8       ACS_Classes.TAuFileIn.SetEndTime
 0001:0000DC30       ACS_Classes.TAuFileIn.Create
 0001:0000DC78       ACS_Classes.TAuFileIn.Destroy
 0001:0000DCB0       ACS_Classes.TAuOutput.Abort
 0001:0000DCCC       ACS_Classes.TAuInput.CopyData
 0001:0000DD00       ACS_Classes.TAuInput.FillBuffer
 0001:0000DD70       ACS_Classes.TAuInput.FillBufferUnprotected
 0001:0000DE30       ACS_Classes.TAuFileStream.Create
 0001:0000DE74       ACS_Classes.TAuFileStream.Create
 0001:0000DF88       ACS_Classes.TAuFileStream.Destroy
 0001:0000DFBC       ACS_Classes.TAuTaggedFileIn.SetId3v1Tags
 0001:0000DFC8       ACS_Classes.TAuTaggedFileIn.SetId3v2Tags
 0001:0000DFD4       ACS_Classes.TAuTaggedFileIn.SetAPEv2Tags
 0001:0000DFE0       ACS_Classes.TAuTaggedFileIn.SetCommonTags
 0001:0000DFEC       ACS_Classes.TAuFileIn.SetWideFileName
 0001:0000E014       ACS_Classes.TAuFileIn.SetFileName
 0001:0000E040       ACS_Classes.TAuTaggedFileOut.SetId3v1Tags
 0001:0000E04C       ACS_Classes.TAuTaggedFileOut.SetId3v2Tags
 0001:0000E058       ACS_Classes.TAuTaggedFileOut.SetAPEv2Tags
 0001:0000E064       ACS_Classes.TAuFileOut.SetWideFileName
 0001:0000E088       ACS_Classes.TAuFileOut.SetFileName
 0001:0000E0AC       ACS_Classes.TAuTaggedFileIn.Create
 0001:0000E12C       ACS_Classes.TAuTaggedFileIn.Destroy
 0001:0000E180       ACS_Classes.TAuTaggedFileOut.Create
 0001:0000E1EC       ACS_Classes.TAuTaggedFileOut.Destroy
 0001:0000E234       ACS_Classes.TAuFileIn.GetTotalSamples
 0001:0000E2A0       ACS_Classes.TAuFileIn.SetStream
 0001:0000E2BC       ACS_Classes.TAuInput._Lock
 0001:0000E2C8       ACS_Classes.TAuInput._Unlock
 0001:0000E2D4       ACS_Classes.TAuInput._Pause
 0001:0000E2D8       ACS_Classes.TAuInput._Resume
 0001:0000E2DC       ACS_Classes.TAuStreamedInput.GetData
 0001:0000E498       ACS_Classes.TAuConverter.GetData
 0001:0000E560       ACS_Classes.TAuConverter._Pause
 0001:0000E56C       ACS_Classes.TAuConverter._Resume
 0001:0000E578       ACS_Classes.TAuInput.GetTotalSamples
 0001:0000E594       ACS_Classes.TAuInput.SetRequestFloat
 0001:0000E598       ACS_Classes.TAuInput._Jump
 0001:0000E59C       ACS_Classes.TAudioTap.GetStatus
 0001:0000E5B4       ACS_Classes.TAudioTap.GetBPS
 0001:0000E5C0       ACS_Classes.TAudioTap.GetCh
 0001:0000E5CC       ACS_Classes.TAudioTap.GetSR
 0001:0000E5D8       ACS_Classes.TAudioTap.SetFileName
 0001:0000E630       ACS_Classes.TAudioTap.SetWideFileName
 0001:0000E684       ACS_Classes.TAudioTap.InitInternal
 0001:0000E6EC       ACS_Classes.TAudioTap.GetDataInternal
 0001:0000E76C       ACS_Classes.TAudioTap.FlushInternal
 0001:0000E79C       ACS_Classes.TAudioTap._Pause
 0001:0000E7B8       ACS_Classes.TAudioTap._Resume
 0001:0000E7D4       ACS_Classes.TAudioTap.StartRecord
 0001:0000E7E0       ACS_Classes.TAudioTap.PauseRecord
 0001:0000E7EC       ACS_Classes.TAudioTap.ResumeRecord
 0001:0000E7F4       ACS_Classes.TAudioTap.StopRecord
 0001:0000E800       ACS_Classes.TCircularBuffer.Create
 0001:0000E868       ACS_Classes.TCircularBuffer.Destroy
 0001:0000E8A0       ACS_Classes.TCircularBuffer.Lock
 0001:0000E8AC       ACS_Classes.TCircularBuffer.Unlock
 0001:0000E8B8       ACS_Classes.TCircularBuffer.ExposeSingleBufferWrite
 0001:0000E92C       ACS_Classes.TCircularBuffer.ExposeSingleBufferRead
 0001:0000E994       ACS_Classes.TCircularBuffer.AddBytesWritten
 0001:0000E9AC       ACS_Classes.TCircularBuffer.AddBytesRead
 0001:0000E9C4       ACS_Classes.TCircularBuffer.Read
 0001:0000EABC       ACS_Classes.TCircularBuffer.Write
 0001:0000EB80       ACS_Classes.TCircularBuffer.WouldWriteBlock
 0001:0000EBA0       ACS_Classes.TCircularBuffer.WouldReadBlock
 0001:0000EBBC       ACS_Classes.TCircularBuffer.FreeSpace
 0001:0000EBC8       ACS_Classes.TCircularBuffer.Reset
 0001:0000EC04       ACS_Classes.TCircularBuffer.Reset2
 0001:0000EC14       ACS_Classes.TCircularBuffer.Stop
 0001:0000EC50       ACS_Classes.TAuConverter.GetBPS
 0001:0000EC80       ACS_Classes.TAuConverter.GetCh
 0001:0000EC94       ACS_Classes.TAuConverter.GetSR
 0001:0000ECA8       ACS_Classes.TAuConverter._Jump
 0001:0000ECBC       ACS_Classes.TAuFIFOStream.Create
 0001:0000ED28       ACS_Classes.TAuFIFOStream.Destroy
 0001:0000ED78       ACS_Classes.TAuFIFOStream.SetEOF
 0001:0000ED80       ACS_Classes.TAuFIFOStream.GetEOF
 0001:0000ED88       ACS_Classes.TAuFIFOStream.SetSize
 0001:0000ED8C       ACS_Classes.TAuFIFOStream.SetSize
 0001:0000ED94       ACS_Classes.TAuFIFOStream.GetSize
 0001:0000EDB4       ACS_Classes.TAuFIFOStream.Seek
 0001:0000EDB8       ACS_Classes.TAuFIFOStream.Seek
 0001:0000EDD8       ACS_Classes.TAuFIFOStream.WouldReadBlock
 0001:0000EE04       ACS_Classes.TAuFIFOStream.WouldWriteBlock
 0001:0000EE48       ACS_Classes.TAuFIFOStream.Read
 0001:0000EE64       ACS_Classes.TAuFIFOStream.Write
 0001:0000EE94       ACS_Classes.TAuFIFOStream.Reset
 0001:0000EEA0       ACS_Classes.TAuFIFOStream.LockReadBuffer
 0001:0000EEB8       ACS_Classes.TAuFIFOStream.ReleaseReadBuffer
 0001:0000EED0       ACS_Classes.TCacheThread.Execute
 0001:0000EFC8       ACS_Classes.TAuCachedStream.Create
 0001:0000F0B4       ACS_Classes.TAuCachedStream.Create
 0001:0000F1A8       ACS_Classes.TAuCachedStream.Destroy
 0001:0000F200       ACS_Classes.TAuCachedStream.Read
 0001:0000F21C       ACS_Classes.TAuCachedStream.Seek
 0001:0000F280       ACS_Classes.Finalization
 0001:0000F334       ACS_Wave..TWaveIn
 0001:0000F46C       ACS_Wave..TWaveOut
 0001:0000F5C4       ACS_Wave..TWaveTap
 0001:0000F6B8       ACS_Wave.TWaveIn.DecodeDVIADPCMMono
 0001:0000F7B4       ACS_Wave.TWaveIn.DecodeDVIADPCMStereo
 0001:0000F9EC       ACS_Wave.TWaveIn.DecodeMSADPCMMono
 0001:0000FC18       ACS_Wave.TWaveIn.DecodeMSADPCMStereo
 0001:0000FE64       ACS_Wave.Compare4
 0001:0000FE9C       ACS_Wave.TWaveIn.Create
 0001:0000FED8       ACS_Wave.TWaveIn.Destroy
 0001:0000FF00       ACS_Wave.TWaveIn.OpenFile
 0001:00010234       ACS_Wave.TWaveIn.CloseFile
 0001:00010320       ACS_Wave.TWaveIn.GetDataInternal
 0001:00010648       ACS_Wave.TWaveIn.SeekInternal
 0001:00010750       ACS_Wave.TWaveOut.FillHeaderPCM
 0001:000107F0       ACS_Wave.TWaveOut.FillHeaderExtPCM
 0001:000108EC       ACS_Wave.TWaveOut.FillHeaderDVIADPCM
 0001:00010AC0       ACS_Wave.TWaveOut.EncodeDVIADPCMMono
 0001:00010C3C       ACS_Wave.TWaveOut.EncodeDVIADPCMStereo
 0001:00010F6C       ACS_Wave.TWaveOut.Create
 0001:00010FB8       ACS_Wave.TWaveOut.Destroy
 0001:00010FE0       ACS_Wave.TWaveOut.SetWavType
 0001:00010FF8       ACS_Wave.TWaveOut.Prepare
 0001:000114A4       ACS_Wave.TWaveOut.Done
 0001:00011790       ACS_Wave.TWaveOut.DoOutput
 0001:00011A68       ACS_Wave.TWaveIn.GetWavType
 0001:00011A7C       ACS_Wave.TWaveOut.SetFileMode
 0001:00011AA8       ACS_Wave.TWaveIn.ReadDVIADPCMBlock
 0001:00011C14       ACS_Wave.TWaveIn.ReadMSADPCMBlock
 0001:00011D5C       ACS_Wave.TWaveIn.ReadRIFFHeader
 0001:0001234C       ACS_Wave.TWaveOut.ReadRIFFHeader
 0001:00012794       ACS_Wave.TWaveOut.SetBlockSize
 0001:000127B4       ACS_Wave.TWaveTap.FillHeaderPCM
 0001:0001283C       ACS_Wave.TWaveTap.StartRecordInternal
 0001:000128C8       ACS_Wave.TWaveTap.StopRecordInternal
 0001:0001291C       ACS_Wave.TWaveTap.WriteDataInternal
 0001:0001292C       ACS_Wave.Finalization
 0001:00012974       _DXTypes.Finalization
 0001:00012FDC       _DirectSound.MAKE_DSHRESULT
 0001:00012FE4       _DirectSound.DSSPEAKER_COMBINED
 0001:00012FF0       _DirectSound.DSSPEAKER_CONFIG
 0001:00012FF4       _DirectSound.DSSPEAKER_GEOMETRY
 0001:00012FFC       _DirectSound.DirectSoundLoaded
 0001:00013000       _DirectSound.UnLoadDirectSound
 0001:00013004       _DirectSound.LoadDirectSound
 0001:00013008       _DirectSound.Finalization
 0001:00013838       wmfintf.LoadWMVCore
 0001:00013974       wmfintf.UnloadWMVCore
 0001:0001399C       wmfintf.Finalization
 0001:00013AF8       libwma1..TAudioStream
 0001:00013C1C       libwma1..TWMReaderCallback
 0001:00013DB4       libwma1..TWMStatusCallback
 0001:00013E9C       libwma1..TWMErrorCallback
 0001:00013F28       libwma1.lwma_async_reader_init
 0001:00013F68       libwma1.lwma_async_reader_open
 0001:000143A4       libwma1.lwma_async_reader_pause
 0001:000143B8       libwma1.lwma_async_reader_resume
 0001:000143C4       libwma1.lwma_async_reader_set_proxy
 0001:00014450       libwma1.lwma_async_reader_add_logging_url
 0001:00014500       libwma1.lwma_async_reader_clear_logging_urls
 0001:00014564       libwma1.lwma_async_reader_reset_stretch
 0001:00014590       libwma1.get_async_tag_length
 0001:000145CC       libwma1.get_async_tag
 0001:00014624       libwma1.lwma_async_reader_get_author
 0001:000146A4       libwma1.lwma_async_reader_get_title
 0001:00014720       libwma1.lwma_async_reader_get_album
 0001:000147AC       libwma1.lwma_async_reader_get_genre
 0001:00014830       libwma1.lwma_async_reader_get_track
 0001:000148B4       libwma1.lwma_async_reader_get_year
 0001:00014934       libwma1.lwma_async_reader_get_copyright
 0001:000149B8       libwma1.has_data_block
 0001:00014A10       libwma1.lwma_async_reader_get_data
 0001:00014AC0       libwma1.lwma_async_reader_free
 0001:00014B44       libwma1.lwma_reader_init
 0001:00014FF4       libwma1.lwma_reader_init1
 0001:00015238       libwma1.lwma_reader_get_format_count
 0001:000152A4       libwma1.lwma_reader_get_format
 0001:000153D0       libwma1.lwma_reader_set_format
 0001:000154EC       libwma1.lwma_reader_get_duration
 0001:00015504       libwma1.lwma_reader_get_bitrate
 0001:0001555C       libwma1.lwma_reader_get_is_vbr
 0001:000155B0       libwma1.get_tag_length
 0001:000155EC       libwma1.get_tag
 0001:00015644       libwma1.lwma_reader_get_author
 0001:00015684       libwma1.lwma_reader_get_title
 0001:000156C0       libwma1.lwma_reader_get_album
 0001:0001570C       libwma1.lwma_reader_get_genre
 0001:00015750       libwma1.lwma_reader_get_track
 0001:00015794       libwma1.lwma_reader_get_year
 0001:000157D4       libwma1.lwma_reader_get_copyright
 0001:00015818       libwma1.lwma_reader_get_audio_properties
 0001:00015838       libwma1.lwma_reader_seek
 0001:00015874       libwma1.lwma_reader_get_data
 0001:00015928       libwma1.lwma_reader_free
 0001:00015964       libwma1.lwma_get_codec_names
 0001:00015A78       libwma1.create_configs
 0001:00015D04       libwma1.lwma_writer_init
 0001:00015E90       libwma1.lwma_network_writer_init
 0001:00016034       libwma1.lwm_network_writer_get_url
 0001:00016070       libwma1.lwma_enumerate_codecs
 0001:000161A0       libwma1.lwma_enumerate_codec_formats
 0001:0001636C       libwma1.lwma_enumerate_codec_formats2
 0001:0001656C       libwma1.lwma_writer_set_audio_properties2
 0001:00016870       libwma1.lwma_writer_set_audio_properties3
 0001:00016BA8       libwma1.SeletBestConfig
 0001:00016F1C       libwma1.lwma_writer_set_audio_properties
 0001:00017218       libwma1.set_tag
 0001:000172A4       libwma1.lwma_writer_set_author
 0001:000172C4       libwma1.lwma_writer_set_title
 0001:000172E0       libwma1.lwma_writer_set_album
 0001:0001730C       libwma1.lwma_writer_set_genre
 0001:00017330       libwma1.lwma_writer_set_year
 0001:00017350       libwma1.lwma_writer_set_copyright
 0001:00017374       libwma1.lwma_writer_set_track
 0001:00017398       libwma1.lwma_writer_begin
 0001:00017428       libwma1.lwma_writer_write
 0001:00017568       libwma1.lwma_writer_free
 0001:00017594       libwma1.lwma_network_writer_free
 0001:00017630       libwma1.TAudioStream.AssignStream
 0001:00017640       libwma1.TAudioStream.Read
 0001:00017670       libwma1.TAudioStream.Write
 0001:000176A0       libwma1.TAudioStream.Seek
 0001:000176C0       libwma1.TAudioStream.SetSize
 0001:000176DC       libwma1.TAudioStream.CopyTo
 0001:00017720       libwma1.TAudioStream.Commit
 0001:0001772C       libwma1.TAudioStream.Revert
 0001:00017738       libwma1.TAudioStream.LockRegion
 0001:00017744       libwma1.TAudioStream.UnlockRegion
 0001:00017750       libwma1.TAudioStream.Stat
 0001:00017778       libwma1.TAudioStream.Clone
 0001:00017790       libwma1.TWMReaderCallback.Create
 0001:000177CC       libwma1.TWMReaderCallback.OnStatus
 0001:000177FC       libwma1.TWMReaderCallback.OnSample
 0001:000178D0       libwma1.TWMStatusCallback.Create
 0001:0001790C       libwma1.TWMStatusCallback.OnStatus
 0001:00017944       libwma1.TWMErrorCallback.Create
 0001:00017980       libwma1.TWMErrorCallback.OnStatus
 0001:000179B8       libwma1.lwma_network_writer_get_connections_count
 0001:00017A34       libwma1.lwma_network_writer_get_connection_info
 0001:00017AC0       libwma1.lwma_create_preprocessor
 0001:00017CC8       libwma1.lwma_writer_begin_preprocess
 0001:00017D88       libwma1.lwma_writer_preprocess
 0001:00017ED0       libwma1.lwma_preprocessor_free
 0001:00017EFC       libwma1.Finalization
 0001:00017FC0       ACS_WinMedia..TWMIn
 0001:000181A4       ACS_WinMedia..TWMAOut
 0001:0001832C       ACS_WinMedia..TWMATap
 0001:00018510       ACS_WinMedia..TWMStreamedIn
 0001:0001880C       ACS_WinMedia..TWMStreamedOut
 0001:00018978       ACS_WinMedia..TWMADualPassOut
 0001:00018A9C       ACS_WinMedia.CallOnConnected
 0001:00018AE4       ACS_WinMedia.CallOnDisconnected
 0001:00018B2C       ACS_WinMedia.CallOnError
 0001:00018B88       ACS_WinMedia.CallOnATError
 0001:00018BCC       ACS_WinMedia.CallOnDPError
 0001:00018C28       ACS_WinMedia.TWMIn.Create
 0001:00018C64       ACS_WinMedia.TWMIn.Destroy
 0001:00018C8C       ACS_WinMedia.TWMIn.OpenFile
 0001:00019134       ACS_WinMedia.TWMIn.CloseFile
 0001:000191C8       ACS_WinMedia.TWMIn.GetDataInternal
 0001:0001921C       ACS_WinMedia.TWMIn.SeekInternal
 0001:00019260       ACS_WinMedia.TWMIn.GetHasAudio
 0001:00019274       ACS_WinMedia.TWMIn.GetProtected
 0001:00019288       ACS_WinMedia.TWMIn.GetBitrate
 0001:000192A0       ACS_WinMedia.TWMIn.GetId3v2Tags
 0001:000192B4       ACS_WinMedia.TWMIn.GetIsVBR
 0001:000192D4       ACS_WinMedia.TWMIn.SetHighPrecision
 0001:00019308       ACS_WinMedia.TWMIn.SetOutputChannels
 0001:0001933C       ACS_WinMedia.TWMAOut.Create
 0001:000193B0       ACS_WinMedia.TWMAOut.Destroy
 0001:000193F4       ACS_WinMedia.TWMAOut.Prepare
 0001:0001982C       ACS_WinMedia.TWMAOut.DoOutput
 0001:000198C0       ACS_WinMedia.TWMAOut.Done
 0001:000198FC       ACS_WinMedia.TWMStreamedIn.Create
 0001:00019950       ACS_WinMedia.TWMStreamedIn.Destroy
 0001:00019978       ACS_WinMedia.TWMStreamedIn.OpenFile
 0001:00019DF8       ACS_WinMedia.TWMStreamedIn.CloseFile
 0001:00019E80       ACS_WinMedia.TWMStreamedIn.GetDataInternal
 0001:00019EC4       ACS_WinMedia.TWMStreamedIn.SeekInternal
 0001:00019EC8       ACS_WinMedia.TWMStreamedIn.GetHasAudio
 0001:00019EDC       ACS_WinMedia.TWMStreamedIn.GetId3v2Tags
 0001:00019EE4       ACS_WinMedia.TWMStreamedIn.GetTotalTime
 0001:00019EEC       ACS_WinMedia.TWMStreamedIn.ResetStretch
 0001:00019F0C       ACS_WinMedia.TWMStreamedIn._Pause
 0001:00019F2C       ACS_WinMedia.TWMStreamedIn._Resume
 0001:00019F38       ACS_WinMedia.TWMStreamedIn.SetBufferingTime
 0001:00019F4C       ACS_WinMedia.TWMStreamedIn.GetTimedOut
 0001:00019F54       ACS_WinMedia.TWMAOut.GetCodecs
 0001:00019F5C       ACS_WinMedia.TWMAOut.GetCodecsCount
 0001:00019F6C       ACS_WinMedia.TWMAOut.GetCodecName
 0001:00019FA0       ACS_WinMedia.TWMAOut.GetFormats
 0001:00019FF8       ACS_WinMedia.TWMAOut.GetFormatsCount
 0001:0001A010       ACS_WinMedia.TWMAOut.GetFormatDesc
 0001:0001A060       ACS_WinMedia.TWMATap.Create
 0001:0001A0A4       ACS_WinMedia.TWMATap.Destroy
 0001:0001A0D4       ACS_WinMedia.TWMATap.SetId3v2Tags
 0001:0001A0E0       ACS_WinMedia.TWMATap.StartRecordInternal
 0001:0001A3D8       ACS_WinMedia.TWMATap.StopRecordInternal
 0001:0001A3E4       ACS_WinMedia.TWMATap.WriteDataInternal
 0001:0001A3F0       ACS_WinMedia.TWMIn.CNToShortInt
 0001:0001A420       ACS_WinMedia.TWMIn.SetFormat
 0001:0001A514       ACS_WinMedia.TWMIn.GetFormatsCount
 0001:0001A558       ACS_WinMedia.TWMIn.GetFormatSpec
 0001:0001A5B8       ACS_WinMedia.TWMStreamedOut.Create
 0001:0001A5F4       ACS_WinMedia.TWMStreamedOut.Destroy
 0001:0001A61C       ACS_WinMedia.TWMStreamedOut.GetConnectionsCount
 0001:0001A628       ACS_WinMedia.TWMStreamedOut.GetConnectionInfo
 0001:0001A710       ACS_WinMedia.TWMStreamedOut.GetURL
 0001:0001A764       ACS_WinMedia.TWMADualPassOut.Create
 0001:0001A7D0       ACS_WinMedia.TWMADualPassOut.Destroy
 0001:0001A814       ACS_WinMedia.TWMADualPassOut.GetCodecName
 0001:0001A848       ACS_WinMedia.TWMADualPassOut.GetFormats
 0001:0001A88C       ACS_WinMedia.TWMADualPassOut.GetCodecs
 0001:0001A894       ACS_WinMedia.TWMADualPassOut.GetCodecsCount
 0001:0001A8A4       ACS_WinMedia.TWMADualPassOut.GetFormatsCount
 0001:0001A8BC       ACS_WinMedia.TWMADualPassOut.Prepare
 0001:0001ACAC       ACS_WinMedia.TWMADualPassOut.DoOutput
 0001:0001AD40       ACS_WinMedia.TWMADualPassOut.Done
 0001:0001AD64       ACS_WinMedia.TWMADualPassOut.GetFormatDesc
 0001:0001ADB4       ACS_WinMedia.Finalization
 0001:0001B1FC       BisAudioCodec..TBisAudioCodec
 0001:0001B2E0       BisAudioCodec.TBisAudioCodec.Create
 0001:0001B338       BisAudioCodec.TBisAudioCodec.Destroy
 0001:0001B370       BisAudioCodec.TBisAudioCodec.WavToWma
 0001:0001B3F8       BisAudioCodec.Finalization
 0001:0001B428       WaveACM.acmMetrics
 0001:0001B430       WaveACM.acmDriverEnum
 0001:0001B438       WaveACM.acmDriverOpen
 0001:0001B440       WaveACM.acmDriverClose
 0001:0001B448       WaveACM.ACMDRIVERDETAILS_FCCTYPE_AUDIOCODE
 0001:0001B460       WaveACM.acmDriverDetails
 0001:0001B468       WaveACM.acmFormatTagDetails
 0001:0001B470       WaveACM.acmFormatEnum
 0001:0001B478       WaveACM.acmFormatSuggest
 0001:0001B480       WaveACM.acmStreamOpen
 0001:0001B488       WaveACM.acmStreamClose
 0001:0001B490       WaveACM.acmStreamSize
 0001:0001B498       WaveACM.acmStreamConvert
 0001:0001B4A0       WaveACM.acmStreamPrepareHeader
 0001:0001B4A8       WaveACM.acmStreamUnprepareHeader
 0001:0001B4B0       WaveACM.Finalization
 0001:0001B4E0       WaveAcmDrivers..TWaveAcmDriverFormat
 0001:0001B594       WaveAcmDrivers..TWaveAcmDriverFormats
 0001:0001B640       WaveAcmDrivers..TWaveAcmDriver
 0001:0001B700       WaveAcmDrivers..TWaveAcmDrivers
 0001:0001B79C       WaveAcmDrivers.TWaveAcmDriverFormat.Create
 0001:0001B808       WaveAcmDrivers.TWaveAcmDriverFormat.Destroy
 0001:0001B83C       WaveAcmDrivers.TWaveAcmDriverFormats.Add
 0001:0001B860       WaveAcmDrivers.TWaveAcmDriverFormats.Find
 0001:0001B910       WaveAcmDrivers.TWaveAcmDriverFormats.Find
 0001:0001B980       WaveAcmDrivers.TWaveAcmDriverFormats.GetItem
 0001:0001B994       WaveAcmDrivers.TWaveAcmDriverFormats.GetName
 0001:0001B9E4       WaveAcmDrivers.TWaveAcmDriver.Create
 0001:0001BA34       WaveAcmDrivers.TWaveAcmDriver.Destroy
 0001:0001BA64       WaveAcmDrivers.EnumFormat
 0001:0001BACC       WaveAcmDrivers.TWaveAcmDriver.Refresh
 0001:0001BC44       WaveAcmDrivers.EnumDriver
 0001:0001BD7C       WaveAcmDrivers.TWaveAcmDrivers.Create
 0001:0001BDC8       WaveAcmDrivers.TWaveAcmDrivers.Add
 0001:0001BDEC       WaveAcmDrivers.TWaveAcmDrivers.GetItem
 0001:0001BE00       WaveAcmDrivers.TWaveAcmDrivers.GetFormatName
 0001:0001BE54       WaveAcmDrivers.TWaveAcmDrivers.FindFormat
 0001:0001BF28       WaveAcmDrivers.TWaveAcmDrivers.FindFormat
 0001:0001BFF0       WaveAcmDrivers.TWaveAcmDrivers.FindFormat
 0001:0001C024       WaveAcmDrivers.Finalization
 0001:0001C4A8       WaveUtils..EWaveAudioError
 0001:0001C530       WaveUtils..EWaveAudioSysError
 0001:0001C5C0       WaveUtils..EWaveAudioInvalidOperation
 0001:0001C918       WaveUtils.mmioStreamProc
 0001:0001CAAC       WaveUtils.GetWaveFormat
 0001:0001CB50       WaveUtils.GetWaveData
 0001:0001CBAC       WaveUtils.GetWaveAudioInfo
 0001:0001CC80       WaveUtils.CreateWaveAudio
 0001:0001CD74       WaveUtils.CloseWaveAudio
 0001:0001CD98       WaveUtils.GetStreamWaveAudioInfo
 0001:0001CE1C       WaveUtils.CreateStreamWaveAudio
 0001:0001CE6C       WaveUtils.OpenStreamWaveAudio
 0001:0001CEA0       WaveUtils.CalcWaveBufferSize
 0001:0001CEDC       WaveUtils.GetAudioFormat
 0001:0001CF24       WaveUtils.GetWaveAudioFormat
 0001:0001D160       WaveUtils.GetWaveAudioLength
 0001:0001D178       WaveUtils.GetWaveAudioBitRate
 0001:0001D194       WaveUtils.GetAudioPeakLevel8Bit
 0001:0001D1E0       WaveUtils.GetAudioPeakLevel16Bit
 0001:0001D220       WaveUtils.GetWaveAudioPeakLevel
 0001:0001D25C       WaveUtils.Invert8Bit
 0001:0001D28C       WaveUtils.Invert16Bit
 0001:0001D2C4       WaveUtils.InvertWaveAudio
 0001:0001D300       WaveUtils.SilenceWaveAudio
 0001:0001D340       WaveUtils.ChangeVolume8Bit
 0001:0001D394       WaveUtils.ChangeVolume16Bit
 0001:0001D3F4       WaveUtils.ChangeWaveAudioVolume
 0001:0001D430       WaveUtils.Mix8Bit
 0001:0001D558       WaveUtils.Mix16Bit
 0001:0001D684       WaveUtils.MixWaveAudio
 0001:0001D6C0       WaveUtils.ConvertWaveFormat
 0001:0001D85C       WaveUtils.SetPCMAudioFormat
 0001:0001D914       WaveUtils.SetPCMAudioFormatS
 0001:0001DA6C       WaveUtils.GetPCMAudioFormat
 0001:0001DCC4       WaveUtils.GetWaveDataPositionOffset
 0001:0001DCF8       WaveUtils.MS2Str
 0001:0001E054       WaveUtils.WaitForSyncObject
 0001:0001E184       WaveUtils.Finalization
 0001:0001E1DC       WaveStorage..TWaveStreamAdapter
 0001:0001E304       WaveStorage..TWaveStreamConverter
 0001:0001E440       WaveStorage..TWave
 0001:0001E550       WaveStorage..TWaveFile
 0001:0001E668       WaveStorage..TWaveConverter
 0001:0001E794       WaveStorage..TWaveFileConverter
 0001:0001E8C8       WaveStorage..TCustomWaveStorage
 0001:0001E990       WaveStorage..TWaveStorage
 0001:0001EA70       WaveStorage..TWaveItem
 0001:0001EB7C       WaveStorage..TWaveItems
 0001:0001EC30       WaveStorage..TWaveCollection
 0001:0001ED1C       WaveStorage.TWaveStreamAdapter.Create
 0001:0001ED6C       WaveStorage.TWaveStreamAdapter.Destroy
 0001:0001EDD0       WaveStorage.TWaveStreamAdapter.BeginRewritePCM
 0001:0001EDF0       WaveStorage.TWaveStreamAdapter.BeginRewrite
 0001:0001EE40       WaveStorage.TWaveStreamAdapter.EndRewrite
 0001:0001EE9C       WaveStorage.TWaveStreamAdapter.Write
 0001:0001EEB4       WaveStorage.TWaveStreamAdapter.BeginRead
 0001:0001EEF8       WaveStorage.TWaveStreamAdapter.EndRead
 0001:0001EF1C       WaveStorage.TWaveStreamAdapter.Read
 0001:0001EF34       WaveStorage.TWaveStreamAdapter.DoChanging
 0001:0001EF58       WaveStorage.TWaveStreamAdapter.DoChange
 0001:0001EF6C       WaveStorage.TWaveStreamAdapter.MSecToByte
 0001:0001EF78       WaveStorage.TWaveStreamAdapter.LockData
 0001:0001EFFC       WaveStorage.TWaveStreamAdapter.UnlockData
 0001:0001F070       WaveStorage.TWaveStreamAdapter.UpdateWaveInfo
 0001:0001F0B8       WaveStorage.TWaveStreamAdapter.GetPosition
 0001:0001F0D8       WaveStorage.TWaveStreamAdapter.SetPosition
 0001:0001F0F0       WaveStorage.TWaveStreamAdapter.GetAudioFormat
 0001:0001F118       WaveStorage.TWaveStreamAdapter.GetBitRate
 0001:0001F134       WaveStorage.TWaveStreamAdapter.GetPeakLevel
 0001:0001F1A8       WaveStorage.TWaveStreamAdapter.GetLength
 0001:0001F1C8       WaveStorage.TWaveStreamAdapter.GetDataSize
 0001:0001F1E0       WaveStorage.TWaveStreamAdapter.GetDataOffset
 0001:0001F1F8       WaveStorage.TWaveStreamAdapter.GetValid
 0001:0001F200       WaveStorage.TWaveStreamAdapter.GetEmpty
 0001:0001F218       WaveStorage.TWaveStreamAdapter.GetPCMFormat
 0001:0001F234       WaveStorage.TWaveStreamAdapter.GetWaveFormat
 0001:0001F24C       WaveStorage.TWaveStreamAdapter.Assign
 0001:0001F28C       WaveStorage.TWaveStreamAdapter.LoadFromStream
 0001:0001F2D8       WaveStorage.TWaveStreamAdapter.SaveToStream
 0001:0001F304       WaveStorage.TWaveStreamAdapter.LoadFromFile
 0001:0001F358       WaveStorage.TWaveStreamAdapter.SaveToFile
 0001:0001F3B0       WaveStorage.TWaveStreamAdapter.Clear
 0001:0001F3D4       WaveStorage.TWaveStreamAdapter.Refresh
 0001:0001F3DC       WaveStorage.TWaveStreamAdapter.Equals
 0001:0001F4AC       WaveStorage.TWaveStreamAdapter.SameFormat
 0001:0001F4C8       WaveStorage.TWaveStreamAdapter.SameWaveFormat
 0001:0001F50C       WaveStorage.TWaveStreamAdapter.Crop
 0001:0001F53C       WaveStorage.TWaveStreamAdapter.Invert
 0001:0001F5B0       WaveStorage.TWaveStreamAdapter.ChangeVolume
 0001:0001F628       WaveStorage.TWaveStreamAdapter.ConvertTo
 0001:0001F7EC       WaveStorage.TWaveStreamAdapter.ConvertToPCM
 0001:0001F810       WaveStorage.TWaveStreamAdapter.Copy
 0001:0001F928       WaveStorage.TWaveStreamAdapter.Sub
 0001:0001FA3C       WaveStorage.TWaveStreamAdapter.Delete
 0001:0001FB68       WaveStorage.TWaveStreamAdapter.Insert
 0001:0001FCE0       WaveStorage.TWaveStreamAdapter.InsertSilence
 0001:0001FE20       WaveStorage.TWaveStreamAdapter.TrimStart
 0001:0001FE34       WaveStorage.TWaveStreamAdapter.TrimEnd
 0001:0001FE68       WaveStorage.TWaveStreamAdapter.Concat
 0001:0001FFFC       WaveStorage.TWaveStreamAdapter.Mix
 0001:000201A0       WaveStorage.TWaveStreamConverter.Destroy
 0001:000201EC       WaveStorage.TWaveStreamConverter.Reset
 0001:00020228       WaveStorage.TWaveStreamConverter.SetBufferFormat
 0001:00020264       WaveStorage.TWaveStreamConverter.SetBufferFormatPCM
 0001:00020284       WaveStorage.TWaveStreamConverter.CanRewrite
 0001:000202B8       WaveStorage.TWaveStreamConverter.CanRewritePCM
 0001:000202D8       WaveStorage.TWaveStreamConverter.BeginRewrite
 0001:0002032C       WaveStorage.TWaveStreamConverter.EndRewrite
 0001:0002040C       WaveStorage.TWaveStreamConverter.Write
 0001:000205AC       WaveStorage.TWaveStreamConverter.CanRead
 0001:000205EC       WaveStorage.TWaveStreamConverter.BeginRead
 0001:00020648       WaveStorage.TWaveStreamConverter.EndRead
 0001:0002066C       WaveStorage.TWaveStreamConverter.Read
 0001:000207DC       WaveStorage.TWave.Create
 0001:00020824       WaveStorage.TWaveFile.Create
 0001:0002087C       WaveStorage.TWaveConverter.Create
 0001:000208C4       WaveStorage.TWaveFileConverter.Create
 0001:0002091C       WaveStorage.TWaveStorage.Create
 0001:00020960       WaveStorage.TWaveStorage.Destroy
 0001:00020990       WaveStorage.TWaveStorage.SetWave
 0001:000209C8       WaveStorage.TWaveStorage.ReadData
 0001:000209D4       WaveStorage.TWaveStorage.WriteData
 0001:000209E4       WaveStorage.TWaveStorage.DefineProperties
 0001:00020A2C       WaveStorage.TWaveStorage.Assign
 0001:00020A7C       WaveStorage.TWaveStorage.GetWaveStream
 0001:00020A84       WaveStorage.TWaveStorage.Equals
 0001:00020AB0       WaveStorage.TWaveItem.Create
 0001:00020AF4       WaveStorage.TWaveItem.Destroy
 0001:00020B24       WaveStorage.TWaveItem.SetWave
 0001:00020B5C       WaveStorage.TWaveItem.ReadData
 0001:00020B68       WaveStorage.TWaveItem.WriteData
 0001:00020B78       WaveStorage.TWaveItem.DefineProperties
 0001:00020BC0       WaveStorage.TWaveItem.Assign
 0001:00020C24       WaveStorage.TWaveItem.GetDisplayName
 0001:00020D90       WaveStorage.TWaveItems.Create
 0001:00020DD8       WaveStorage.TWaveItems.GetOwner
 0001:00020DDC       WaveStorage.TWaveItems.Add
 0001:00020DE8       WaveStorage.TWaveItems.Insert
 0001:00020DFC       WaveStorage.TWaveItems.GetItem
 0001:00020E10       WaveStorage.TWaveItems.SetItem
 0001:00020E18       WaveStorage.TWaveCollection.Create
 0001:00020E64       WaveStorage.TWaveCollection.Destroy
 0001:00020E94       WaveStorage.TWaveCollection.SetWaves
 0001:00020EAC       WaveStorage.TWaveCollection.GetWaveStream
 0001:00020EC8       WaveStorage.TWaveCollection.Equals
 0001:00020F50       WaveStorage.TWaveCollection.ExportWaveNames
 0001:00020F90       WaveStorage.TWaveCollection.IndexOfName
 0001:00020FDC       WaveStorage.Finalization
 0001:0002100C       WaveIO..TWaveAudioIO
 0001:0002115C       WaveIO.TWaveAudioIO.Create
 0001:0002129C       WaveIO.TWaveAudioIO.Destroy
 0001:0002130C       WaveIO.TWaveAudioIO.WaveThreadError
 0001:00021380       WaveIO.TWaveAudioIO.WaveThreadWork
 0001:00021400       WaveIO.TWaveAudioIO.SetAsync
 0001:0002141C       WaveIO.TWaveAudioIO.SetDeviceID
 0001:000214A0       WaveIO.TWaveAudioIO.GetActive
 0001:000214A8       WaveIO.TWaveAudioIO.SetActive
 0001:000214D0       WaveIO.TWaveAudioIO.SetPaused
 0001:000214FC       WaveIO.TWaveAudioIO.SetWaveThreadName
 0001:00021508       WaveIO.TWaveAudioIO.SetBufferLength
 0001:0002151C       WaveIO.TWaveAudioIO.SetBufferCount
 0001:00021524       WaveIO.TWaveAudioIO.GetActiveBufferCount
 0001:00021530       WaveIO.TWaveAudioIO.GetPreferredBufferSize
 0001:00021540       WaveIO.TWaveAudioIO.GetWaveThreadName
 0001:0002155C       WaveIO.TWaveAudioIO.GetLastErrorText
 0001:0002158C       WaveIO.TWaveAudioIO.DoDeviceOpen
 0001:000215AC       WaveIO.TWaveAudioIO.DoDeviceClose
 0001:000215E0       WaveIO.TWaveAudioIO.DoActivate
 0001:000215F4       WaveIO.TWaveAudioIO.DoDeactivate
 0001:00021610       WaveIO.TWaveAudioIO.DoPause
 0001:00021624       WaveIO.TWaveAudioIO.DoResume
 0001:00021638       WaveIO.TWaveAudioIO.DoError
 0001:000216A0       WaveIO.TWaveAudioIO.DoLevel
 0001:000216E0       WaveIO.TWaveAudioIO.DoFilter
 0001:00021708       WaveIO.TWaveAudioIO.Lock
 0001:00021714       WaveIO.TWaveAudioIO.Unlock
 0001:00021720       WaveIO.TWaveAudioIO.TryLock
 0001:00021738       WaveIO.TWaveAudioIO.CreateCallback
 0001:00021798       WaveIO.TWaveAudioIO.DestroyCallback
 0001:000217E4       WaveIO.TWaveAudioIO.PostWaveMessage
 0001:00021838       WaveIO.TWaveAudioIO.ProcessWaveMessage
 0001:00021A20       WaveIO.TWaveAudioIO.CallbackWindowProc
 0001:00021A50       WaveIO.TWaveAudioIO.Success
 0001:00021A68       WaveIO.TWaveAudioIO.mmTimeToMS
 0001:00021AE0       WaveIO.TWaveAudioIO.ReallocateBuffer
 0001:00021CB4       WaveIO.TWaveAudioIO.ResetBuffers
 0001:00021D00       WaveIO.TWaveAudioIO.WaitForStart
 0001:00021D78       WaveIO.TWaveAudioIO.WaitForStop
 0001:00021DF0       WaveIO.TWaveAudioIO.QueryPCM
 0001:00021E10       WaveIO.TWaveAudioIO.DoWaveInDeviceOpen
 0001:00021E1C       WaveIO.TWaveAudioIO.DoWaveInDeviceClose
 0001:00021E28       WaveIO.TWaveAudioIO.DoWaveInDeviceData
 0001:00021E2C       WaveIO.TWaveAudioIO.DoWaveOutDeviceOpen
 0001:00021E38       WaveIO.TWaveAudioIO.DoWaveOutDeviceClose
 0001:00021E44       WaveIO.TWaveAudioIO.DoWaveOutDeviceDone
 0001:00021E48       WaveIO.Finalization
 0001:00021E78       WaveIn..TWaveAudioIn
 0001:00021FC4       WaveIn.TWaveAudioIn.Create
 0001:00022000       WaveIn.TWaveAudioIn.GetPaused
 0001:00022008       WaveIn.TWaveAudioIn.GetNumDevs
 0001:00022010       WaveIn.TWaveAudioIn.GetDeviceName
 0001:00022048       WaveIn.TWaveAudioIn.GetDeviceFormats
 0001:00022144       WaveIn.TWaveAudioIn.GetPosition
 0001:00022180       WaveIn.TWaveAudioIn.GetErrorText
 0001:000221BC       WaveIn.TWaveAudioIn.SetPCMFormat
 0001:00022238       WaveIn.TWaveAudioIn.ValidateDeviceID
 0001:0002224C       WaveIn.TWaveAudioIn.InternalOpen
 0001:00022408       WaveIn.TWaveAudioIn.InternalClose
 0001:00022540       WaveIn.TWaveAudioIn.InternalPause
 0001:000225DC       WaveIn.TWaveAudioIn.InternalResume
 0001:00022678       WaveIn.TWaveAudioIn.HandleAllocated
 0001:00022684       WaveIn.TWaveAudioIn.AddWaveHeader
 0001:00022764       WaveIn.TWaveAudioIn.AddBuffer
 0001:00022804       WaveIn.TWaveAudioIn.GetWaveFormat
 0001:00022854       WaveIn.TWaveAudioIn.WaveDataReady
 0001:0002285C       WaveIn.TWaveAudioIn.Query
 0001:0002287C       WaveIn.TWaveAudioIn.DefineBuffers
 0001:0002293C       WaveIn.TWaveAudioIn.DoWaveInDeviceOpen
 0001:00022978       WaveIn.TWaveAudioIn.DoWaveInDeviceClose
 0001:00022988       WaveIn.TWaveAudioIn.DoWaveInDeviceData
 0001:00022B34       WaveIn.Finalization
 0001:00022B64       WaveRecorders..TAudioRecorder
 0001:00022E44       WaveRecorders..TLiveAudioRecorder
 0001:00023148       WaveRecorders..TStockAudioRecorder
 0001:00023450       WaveRecorders.TAudioRecorder.Create
 0001:00023498       WaveRecorders.TAudioRecorder.Destroy
 0001:000234C8       WaveRecorders.TAudioRecorder.CreateWave
 0001:000234D8       WaveRecorders.TAudioRecorder.GetWaveFormat
 0001:00023500       WaveRecorders.TAudioRecorder.WaveDataReady
 0001:0002353C       WaveRecorders.TAudioRecorder.DoWaveInDeviceClose
 0001:00023584       WaveRecorders.TAudioRecorder.DoError
 0001:000235D8       WaveRecorders.TLiveAudioRecorder.WaveDataReady
 0001:00023604       WaveRecorders.TStockAudioRecorder.Notification
 0001:00023634       WaveRecorders.TStockAudioRecorder.SetStock
 0001:00023668       WaveRecorders.TStockAudioRecorder.SetActive
 0001:00023694       WaveRecorders.TStockAudioRecorder.WaveDataReady
 0001:000236D0       WaveRecorders.TStockAudioRecorder.GetWaveFormat
 0001:000236F8       WaveRecorders.TStockAudioRecorder.DoWaveInDeviceClose
 0001:00023758       WaveRecorders.TStockAudioRecorder.DoError
 0001:000237D0       WaveRecorders.TStockAudioRecorder.InternalRecord
 0001:0002387C       WaveRecorders.TStockAudioRecorder.RecordToStream
 0001:0002388C       WaveRecorders.TStockAudioRecorder.RecordToFile
 0001:000238B8       WaveRecorders.TStockAudioRecorder.RecordToStock
 0001:00023924       WaveRecorders.TStockAudioRecorder.Stop
 0001:0002392C       WaveRecorders.Finalization
 0001:0002395C       WaveOut..TWaveAudioOut
 0001:00023AB8       WaveOut.DW2PercentVolume
 0001:00023AF4       WaveOut.Percent2DWVolume
 0001:00023B24       WaveOut.Float2DW
 0001:00023BA4       WaveOut.DW2Float
 0001:00023C18       WaveOut.TWaveAudioOut.Create
 0001:00023C9C       WaveOut.TWaveAudioOut.GetPaused
 0001:00023CA4       WaveOut.TWaveAudioOut.GetNumDevs
 0001:00023CAC       WaveOut.TWaveAudioOut.GetDeviceName
 0001:00023CE4       WaveOut.TWaveAudioOut.GetDeviceFormats
 0001:00023DE0       WaveOut.TWaveAudioOut.GetDeviceSupports
 0001:00023E68       WaveOut.TWaveAudioOut.GetChannelVolumes
 0001:00023ED4       WaveOut.TWaveAudioOut.SetChannelVolumes
 0001:00023F4C       WaveOut.TWaveAudioOut.GetVolume
 0001:00023F7C       WaveOut.TWaveAudioOut.SetVolume
 0001:00023FA8       WaveOut.TWaveAudioOut.GetVolumeLeft
 0001:00023FCC       WaveOut.TWaveAudioOut.SetVolumeLeft
 0001:00023FF0       WaveOut.TWaveAudioOut.GetVolumeRight
 0001:00024014       WaveOut.TWaveAudioOut.SetVolumeRight
 0001:00024038       WaveOut.TWaveAudioOut.GetPitch
 0001:000240A4       WaveOut.TWaveAudioOut.SetPitch
 0001:00024110       WaveOut.TWaveAudioOut.GetPlaybackRate
 0001:0002417C       WaveOut.TWaveAudioOut.SetPlaybackRate
 0001:000241E8       WaveOut.TWaveAudioOut.SetOptions
 0001:00024220       WaveOut.TWaveAudioOut.GetPosition
 0001:00024260       WaveOut.TWaveAudioOut.SetPosition
 0001:000242B8       WaveOut.TWaveAudioOut.GetErrorText
 0001:000242F4       WaveOut.TWaveAudioOut.IsPitchStored
 0001:00024310       WaveOut.TWaveAudioOut.IsPlaybackRateStored
 0001:0002432C       WaveOut.TWaveAudioOut.AdjustOptionItems
 0001:000243C4       WaveOut.TWaveAudioOut.ValidateDeviceID
 0001:000243D8       WaveOut.TWaveAudioOut.InternalOpen
 0001:00024594       WaveOut.TWaveAudioOut.InternalClose
 0001:000246D0       WaveOut.TWaveAudioOut.InternalPause
 0001:0002476C       WaveOut.TWaveAudioOut.InternalResume
 0001:00024808       WaveOut.TWaveAudioOut.HandleAllocated
 0001:00024814       WaveOut.TWaveAudioOut.WriteWaveHeader
 0001:00024920       WaveOut.TWaveAudioOut.WriteBuffer
 0001:000249DC       WaveOut.TWaveAudioOut.GetWaveDataPtr
 0001:000249E8       WaveOut.TWaveAudioOut.GetWaveData
 0001:000249F4       WaveOut.TWaveAudioOut.Query
 0001:00024A14       WaveOut.TWaveAudioOut.DefineBuffers
 0001:00024A48       WaveOut.TWaveAudioOut.DoWaveOutDeviceOpen
 0001:00024A8C       WaveOut.TWaveAudioOut.DoWaveOutDeviceClose
 0001:00024AA4       WaveOut.TWaveAudioOut.DoWaveOutDeviceDone
 0001:00024D28       WaveOut.Finalization
 0001:00024D58       WavePlayers..TAudioPlayer
 0001:000250F0       WavePlayers..TLiveAudioPlayer
 0001:00025524       WavePlayers..TStockAudioPlayer
 0001:000258C8       WavePlayers.TAudioPlayer.Create
 0001:00025924       WavePlayers.TAudioPlayer.Destroy
 0001:00025954       WavePlayers.TAudioPlayer.WaveChanged
 0001:0002595C       WavePlayers.TAudioPlayer.SetWave
 0001:000259A4       WavePlayers.TAudioPlayer.ReadData
 0001:000259B0       WavePlayers.TAudioPlayer.WriteData
 0001:000259C0       WavePlayers.TAudioPlayer.DefineProperties
 0001:00025A0C       WavePlayers.TAudioPlayer.CreateWave
 0001:00025A1C       WavePlayers.TAudioPlayer.GetWaveFormat
 0001:00025A64       WavePlayers.TAudioPlayer.GetWaveData
 0001:00025A7C       WavePlayers.TAudioPlayer.DoWaveOutDeviceClose
 0001:00025AC4       WavePlayers.TAudioPlayer.SetPosition
 0001:00025AFC       WavePlayers.TLiveAudioPlayer.Create
 0001:00025B38       WavePlayers.TLiveAudioPlayer.SetPCMFormat
 0001:00025BB0       WavePlayers.TLiveAudioPlayer.GetWaveFormat
 0001:00025BFC       WavePlayers.TLiveAudioPlayer.GetWaveData
 0001:00025C2C       WavePlayers.TLiveAudioPlayer.GetWaveDataPtr
 0001:00025C5C       WavePlayers.TLiveAudioPlayer.SetPosition
 0001:00025C60       WavePlayers.TLiveAudioPlayer.BreakLoop
 0001:00025C78       WavePlayers.TStockAudioPlayer.Notification
 0001:00025CA8       WavePlayers.TStockAudioPlayer.SetStock
 0001:00025CDC       WavePlayers.TStockAudioPlayer.SetActive
 0001:00025D08       WavePlayers.TStockAudioPlayer.SetPosition
 0001:00025D40       WavePlayers.TStockAudioPlayer.GetWaveFormat
 0001:00025D88       WavePlayers.TStockAudioPlayer.GetWaveData
 0001:00025DA0       WavePlayers.TStockAudioPlayer.DoWaveOutDeviceClose
 0001:00025E00       WavePlayers.TStockAudioPlayer.DoError
 0001:00025E78       WavePlayers.TStockAudioPlayer.InternalPlay
 0001:00025F24       WavePlayers.TStockAudioPlayer.PlayStream
 0001:00025F34       WavePlayers.TStockAudioPlayer.PlayFile
 0001:00025F5C       WavePlayers.TStockAudioPlayer.PlayResName
 0001:00025F94       WavePlayers.TStockAudioPlayer.PlayResID
 0001:00025FCC       WavePlayers.TStockAudioPlayer.PlayStock
 0001:00026038       WavePlayers.TStockAudioPlayer.Stop
 0001:00026040       WavePlayers.Finalization
 0001:000263BC       WaveMixer..TAudioMixerLine
 0001:00026444       WaveMixer..TAudioMixer
 0001:000265E0       WaveMixer.TAudioMixerLine.Create
 0001:00026620       WaveMixer.TAudioMixerLine.RefreshDetails
 0001:000266D8       WaveMixer.TAudioMixerLine.AssignMixerControl
 0001:00026754       WaveMixer.TAudioMixerLine.FindControlByID
 0001:00026798       WaveMixer.TAudioMixerLine.FindLineIDByChannelIndex
 0001:00026958       WaveMixer.TAudioMixerLine.FindChannelIndexByLineID
 0001:00026AEC       WaveMixer.TAudioMixerLine.GetName
 0001:00026B04       WaveMixer.TAudioMixerLine.GetTargetType
 0001:00026B30       WaveMixer.TAudioMixerLine.GetComponentType
 0001:00026B5C       WaveMixer.TAudioMixerLine.GetFlags
 0001:00026B9C       WaveMixer.TAudioMixerLine.GetVolume
 0001:00026C38       WaveMixer.TAudioMixerLine.SetVolume
 0001:00026CD8       WaveMixer.TAudioMixerLine.GetMute
 0001:00026D64       WaveMixer.TAudioMixerLine.SetMute
 0001:00026DE4       WaveMixer.TAudioMixerLine.GetSelectedLine
 0001:00026F28       WaveMixer.TAudioMixerLine.SetSelectedLine
 0001:00027048       WaveMixer.TAudioMixer.Create
 0001:000270BC       WaveMixer.TAudioMixer.Destroy
 0001:00027114       WaveMixer.TAudioMixer.CallbackProc
 0001:00027224       WaveMixer.TAudioMixer.FetchMixerNames
 0001:000272A8       WaveMixer.TAudioMixer.FetchDestinationNames
 0001:00027358       WaveMixer.TAudioMixer.FindMixerLine
 0001:000273C8       WaveMixer.TAudioMixer.DoLineChange
 0001:000273E0       WaveMixer.TAudioMixer.DoControlChange
 0001:00027400       WaveMixer.TAudioMixer.GetMixerCount
 0001:00027408       WaveMixer.TAudioMixer.GetMixerName
 0001:00027420       WaveMixer.TAudioMixer.SetMixerName
 0001:000274D4       WaveMixer.TAudioMixer.SetMixerID
 0001:000274FC       WaveMixer.TAudioMixer.SetDestinationID
 0001:0002750C       WaveMixer.TAudioMixer.GetDestinationName
 0001:00027520       WaveMixer.TAudioMixer.SetDestinationName
 0001:000275D4       WaveMixer.TAudioMixer.GetDestinationCount
 0001:000275DC       WaveMixer.TAudioMixer.GetLineCount
 0001:000275E4       WaveMixer.TAudioMixer.GetLines
 0001:000275F8       WaveMixer.TAudioMixer.CreateMixerLines
 0001:00027630       WaveMixer.TAudioMixer.DeleteMixerLines
 0001:00027664       WaveMixer.TAudioMixer.RefreshDetails
 0001:000276EC       WaveMixer.Finalization
 0001:0002771C       BisAudioWave..TBisAudioLiveRecorder
 0001:0002787C       BisAudioWave..TBisAudioLivePlayer
 0001:00027A50       BisAudioWave..TBisAudioStockPlayer
 0001:00027BC8       BisAudioWave..TBisAudioMixer
 0001:00027C88       BisAudioWave..TBisAudioWave
 0001:00027DA8       BisAudioWave..TBisAudioWaveConverter
 0001:00027EE8       BisAudioWave..TBisAudioACMDrivers
 0001:00027F8C       BisAudioWave.TBisAudioLiveRecorder.Create
 0001:00028054       BisAudioWave.TBisAudioLiveRecorder.GetDeviceNameByID
 0001:00028088       BisAudioWave.TBisAudioLiveRecorder.FillDevices
 0001:00028134       BisAudioWave.TBisAudioLiveRecorder.DoActivate
 0001:00028148       BisAudioWave.TBisAudioLiveRecorder.DoDeactivate
 0001:0002815C       BisAudioWave.TBisAudioLiveRecorder.Start
 0001:00028194       BisAudioWave.TBisAudioLiveRecorder.Stop
 0001:000281CC       BisAudioWave.TBisAudioLivePlayer.Create
 0001:00028294       BisAudioWave.TBisAudioLivePlayer.GetDeviceNameByID
 0001:000282C8       BisAudioWave.TBisAudioLivePlayer.FillDevices
 0001:00028374       BisAudioWave.TBisAudioLivePlayer.DoActivate
 0001:00028388       BisAudioWave.TBisAudioLivePlayer.DoDeactivate
 0001:0002839C       BisAudioWave.TBisAudioLivePlayer.Start
 0001:000283D4       BisAudioWave.TBisAudioLivePlayer.Stop
 0001:0002840C       BisAudioWave.TBisAudioStockPlayer.Create
 0001:00028454       BisAudioWave.TBisAudioStockPlayer.Destroy
 0001:00028484       BisAudioWave.TBisAudioStockPlayer.DoActivate
 0001:000284A0       BisAudioWave.TBisAudioStockPlayer.PlayStreamFromBegin
 0001:000284D0       BisAudioWave.TBisAudioStockPlayer.DoDeactivate
 0001:00028530       BisAudioWave.TBisAudioStockPlayer.DoStop
 0001:00028550       BisAudioWave.TBisAudioStockPlayer.GetActive
 0001:00028558       BisAudioWave.TBisAudioStockPlayer.GetWaveData
 0001:0002859C       BisAudioWave.TBisAudioStockPlayer.GetWaveFormat
 0001:000285DC       BisAudioWave.TBisAudioStockPlayer.PlayStream
 0001:00028648       BisAudioWave.TBisAudioStockPlayer.SetSpeedFactor
 0001:00028658       BisAudioWave.TBisAudioStockPlayer.Stop
 0001:00028690       BisAudioWave.Finalization
 0001:00028704       BisAudioDtmf..TBisAudioDtmf
 0001:000287C0       BisAudioDtmf.Fmod
 0001:000287E8       BisAudioDtmf.SinFunc
 0001:0002881C       BisAudioDtmf.GetDtmfString
 0001:0002894C       BisAudioDtmf.GetDtmfEventByCode
 0001:00028A38       BisAudioDtmf.GetDtmfCodeByEvent
 0001:00028B00       BisAudioDtmf.GetDtmfEvent
 0001:00028B84       BisAudioDtmf.LoadSample
 0001:00028BA8       BisAudioDtmf.SaveSample
 0001:00028C14       BisAudioDtmf.WaveResample
 0001:00028D8C       BisAudioDtmf.TBisAudioDtmf.Create
 0001:00028DF4       BisAudioDtmf.TBisAudioDtmf.Destroy
 0001:00028E1C       BisAudioDtmf.TBisAudioDtmf.DoCode
 0001:00028E44       BisAudioDtmf.TBisAudioDtmf.SetFormat
 0001:00028F4C       BisAudioDtmf.TBisAudioDtmf.SetFormat
 0001:00028F68       BisAudioDtmf.TBisAudioDtmf.SetFormat
 0001:00028F84       BisAudioDtmf.TBisAudioDtmf.Write
 0001:0002910C       BisAudioDtmf.TBisAudioDtmf.LoadFromStream
 0001:000291B8       BisAudioDtmf.RunG
 0001:000294D8       BisAudioDtmf.RunK
 0001:000295C4       BisAudioDtmf.DecodeDTMF
 0001:00029744       BisAudioDtmf.TBisAudioDtmf.ProcessBuffer
 0001:000297D8       BisAudioDtmf.Finalization
 0001:00029818       BisRtpAcmDrivers..TBisRtpAcmDrivers
 0001:000298BC       BisRtpAcmDrivers.TBisRtpAcmDrivers.PayloadTypeToFormatTag
 0001:000298EC       BisRtpAcmDrivers.TBisRtpAcmDrivers.FormatToPayloadType
 0001:00029924       BisRtpAcmDrivers.TBisRtpAcmDrivers.FindFormat
 0001:0002999C       BisRtpAcmDrivers.TBisRtpAcmDrivers.FindFormat
 0001:000299DC       BisRtpAcmDrivers.TBisRtpAcmDrivers.FindFormat
 0001:00029A00       BisRtpAcmDrivers.Finalization
 0001:00029AF0       BisAudioTextPhrases..TBisAudioTextSample
 0001:00029BA4       BisAudioTextPhrases..TBisAudioTextSamples
 0001:00029C54       BisAudioTextPhrases..TBisAudioTextPhrase
 0001:00029D08       BisAudioTextPhrases..TBisAudioTextPhrases
 0001:00029DB8       BisAudioTextPhrases.TBisAudioTextSample.Create
 0001:00029DFC       BisAudioTextPhrases.TBisAudioTextSample.Destroy
 0001:00029E2C       BisAudioTextPhrases.TBisAudioTextSamples.GetItem
 0001:00029E40       BisAudioTextPhrases.TBisAudioTextSamples.Add
 0001:00029EC4       BisAudioTextPhrases.TBisAudioTextSamples.GetWave
 0001:00029FBC       BisAudioTextPhrases.TBisAudioTextPhrase.Create
 0001:0002A000       BisAudioTextPhrases.TBisAudioTextPhrase.Destroy
 0001:0002A030       BisAudioTextPhrases.TBisAudioTextPhrase.SetAsXml
 0001:0002A1C4       BisAudioTextPhrases.TBisAudioTextPhrase.GetWave
 0001:0002A278       BisAudioTextPhrases.TBisAudioTextPhrases.GetItem
 0001:0002A28C       BisAudioTextPhrases.TBisAudioTextPhrases.Add
 0001:0002A318       BisAudioTextPhrases.TBisAudioTextPhrases.AddXml
 0001:0002A38C       BisAudioTextPhrases.TBisAudioTextPhrases.Parse
 0001:0002A500       BisAudioTextPhrases.Finalization
 0001:0002A530       BisAudioUtils.SetPhraseParams
 0001:0002A6A4       BisAudioUtils.GetPhrases
 0001:0002A8F0       BisAudioUtils.GetAudioTextPhrases
 0001:0002A950       BisAudioUtils.GetAudioPhrasesWave
 0001:0002AA38       BisAudioUtils.GetAudioTextWave
 0001:0002AA98       BisAudioUtils.Finalization
 0001:0002AB3C       FftSpec.CalcBessel
 0001:0002ABB4       FftSpec.ReverseBits
 0001:0002ABD8       FftSpec.Spectrum
 0001:0002AE0C       FftSpec.Spectrum
 0001:0002B054       FftSpec.CalcReversalBits
 0001:0002B0A4       FftSpec.CalcAlphaTable
 0001:0002B108       FftSpec.CalcBetaTable
 0001:0002B154       FftSpec.CalcWindowFunctions
 0001:0002B46C       FftSpec.Finalization
 0001:0002B504       BisAudioSpectrum..TBisAudioSpectrum
 0001:0002B5A0       BisAudioSpectrum.TBisAudioSpectrum.Create
 0001:0002B5E4       BisAudioSpectrum.TBisAudioSpectrum.Destroy
 0001:0002B60C       BisAudioSpectrum.TBisAudioSpectrum.DoDetect
 0001:0002B624       BisAudioSpectrum.TBisAudioSpectrum.SetFormat
 0001:0002B654       BisAudioSpectrum.TBisAudioSpectrum.SetFormat
 0001:0002B670       BisAudioSpectrum.TBisAudioSpectrum.SetFormat
 0001:0002B68C       BisAudioSpectrum.TBisAudioSpectrum.Valid
 0001:0002B6D0       BisAudioSpectrum.GetInRealSize
 0001:0002B784       BisAudioSpectrum.TBisAudioSpectrum.Detect
 0001:0002B97C       BisAudioSpectrum.TBisAudioSpectrum.Write
 0001:0002B998       BisAudioSpectrum.TBisAudioSpectrum.LoadFromStream
 0001:0002BA4C       BisAudioSpectrum.Finalization
 0001:0002C704       .omaudio.@GetPackageInfoTable
 0001:0002C70C       .omaudio.@PackageLoad
 0001:0002C718       .omaudio.@PackageUnload
 0002:00000008       Windows.Windows
 0002:00000044       WaveConverter.WaveConverter
 0002:0000004C       FastcodeCPUID.FastcodeCPUID
 0002:00000060       FastMove.FastMove
 0002:00000088       ACS_Types.ACS_Types
 0002:00000090       ACS_Procs.ACS_Procs
 0002:00000098       ACS_Tags.ACS_Tags
 0002:000000A0       ACS_Classes.ACS_Classes
 0002:000000C4       ACS_Wave.ACS_Wave
 0002:000000CC       _DXTypes._DXTypes
 0002:000000D4       _DirectSound._DirectSound
 0002:000000DC       wmfintf.wmfintf
 0002:000000EC       libwma1.libwma1
 0002:000000F4       ACS_WinMedia.ACS_WinMedia
 0002:000003F4       BisAudioCodec.BisAudioCodec
 0002:000003FC       WaveACM.WaveACM
 0002:00000404       WaveAcmDrivers.WaveAcmDrivers
 0002:0000040C       WaveUtils.WaveUtils
 0002:00000428       WaveStorage.WaveStorage
 0002:00000430       WaveIO.WaveIO
 0002:00000438       WaveIn.WaveIn
 0002:00000440       WaveRecorders.WaveRecorders
 0002:00000448       WaveOut.WaveOut
 0002:00000450       WavePlayers.WavePlayers
 0002:00000458       WaveMixer.WaveMixer
 0002:00000460       BisAudioWave.BisAudioWave
 0002:00000468       BisAudioDtmf.BisAudioDtmf
 0002:00000480       BisRtpAcmDrivers.BisRtpAcmDrivers
 0002:000004A0       BisAudioTextPhrases.BisAudioTextPhrases
 0002:000004A8       BisAudioUtils.BisAudioUtils
 0002:000004B0       FftSpec.FftSpec
 0002:000004F8       BisAudioSpectrum.BisAudioSpectrum
 0002:00000500       .omaudio..omaudio
 0003:00000000       SysInit.TlsIndex
 0003:00000004       SysInit.PtrToNil
 0003:00000008       SysInit.Module
 0003:00000020       SysInit.TlsProc
 0003:00000030       FastcodeCPUID.VendorStr
 0003:00000B30       FastcodeCPUID.InstructionSupportStr
 0003:00001B30       FastcodeCPUID.FastCodeTargetStr
 0003:00002930       FastcodeCPUID.VendorIDString
 0003:000029C0       ACS_Types.KSDATAFORMAT_SUBTYPE_PCM
 0003:000029D0       ACS_Types.KSDATAFORMAT_SUBTYPE_IEEE_FLOAT
 0003:000029E0       ACS_Procs.f
 0003:000029E4       ACS_Procs.f
 0003:000029E8       ACS_Procs.f
 0003:000029EC       ACS_Procs.lFfsingle
 0003:000029F0       ACS_Procs.lfDouble
 0003:000029F4       ACS_Procs.f
 0003:000029F8       ACS_Tags.Id3v1Genres
 0003:00002C48       ACS_Tags._id3v2_tags
 0003:00002CA8       ACS_Tags._vorbis_Album
 0003:00002CAC       ACS_Tags._vorbis_Artist
 0003:00002CB0       ACS_Tags._vorbis_Date
 0003:00002CB4       ACS_Tags._vorbis_Genre
 0003:00002CB8       ACS_Tags._vorbis_Title
 0003:00002CBC       ACS_Tags._vorbis_Track
 0003:00002CC0       ACS_Tags._vorbis_Disc
 0003:00002CC4       ACS_Tags._vorbis_Reference
 0003:00002CC8       ACS_Tags._vorbis_TrackGain
 0003:00002CCC       ACS_Tags._vorbis_TrackPeak
 0003:00002CD0       ACS_Tags._vorbis_AlbumGain
 0003:00002CD4       ACS_Tags._vorbis_AlbumPeak
 0003:00002CD8       ACS_Tags.start_char_pos
 0003:00002CE0       ACS_Tags.encoding_flags
 0003:00002CE4       ACS_Classes.AccessMode
 0003:00002CF0       ACS_Classes.ShareMode
 0003:00002D04       ACS_Wave.StepTab
 0003:00002E68       ACS_Wave.IndexTab
 0003:00002EA8       ACS_Wave.adaptive
 0003:00002EC8       _DirectSound.CLSID_DirectSound
 0003:00002ED8       _DirectSound.CLSID_DirectSound8
 0003:00002EE8       _DirectSound.CLSID_DirectSoundCapture
 0003:00002EF8       _DirectSound.CLSID_DirectSoundCapture8
 0003:00002F08       _DirectSound.CLSID_DirectSoundFullDuplex
 0003:00002F18       _DirectSound.DSDEVID_DefaultPlayback
 0003:00002F28       _DirectSound.DSDEVID_DefaultCapture
 0003:00002F38       _DirectSound.DSDEVID_DefaultVoicePlayback
 0003:00002F48       _DirectSound.DSDEVID_DefaultVoiceCapture
 0003:00002F58       _DirectSound.GUID_All_Objects
 0003:00002F68       _DirectSound.DS3D_MINDISTANCEFACTOR
 0003:00002F6C       _DirectSound.DS3D_MAXDISTANCEFACTOR
 0003:00002F70       _DirectSound.I3DL2_ENVIRONMENT_PRESET_DEFAULT
 0003:00002FA0       _DirectSound.I3DL2_ENVIRONMENT_PRESET_GENERIC
 0003:00002FD0       _DirectSound.I3DL2_ENVIRONMENT_PRESET_PADDEDCELL
 0003:00003000       _DirectSound.I3DL2_ENVIRONMENT_PRESET_ROOM
 0003:00003030       _DirectSound.I3DL2_ENVIRONMENT_PRESET_BATHROOM
 0003:00003060       _DirectSound.I3DL2_ENVIRONMENT_PRESET_LIVINGROOM
 0003:00003090       _DirectSound.I3DL2_ENVIRONMENT_PRESET_STONEROOM
 0003:000030C0       _DirectSound.I3DL2_ENVIRONMENT_PRESET_AUDITORIUM
 0003:000030F0       _DirectSound.I3DL2_ENVIRONMENT_PRESET_CONCERTHALL
 0003:00003120       _DirectSound.I3DL2_ENVIRONMENT_PRESET_CAVE
 0003:00003150       _DirectSound.I3DL2_ENVIRONMENT_PRESET_ARENA
 0003:00003180       _DirectSound.I3DL2_ENVIRONMENT_PRESET_HANGAR
 0003:000031B0       _DirectSound.I3DL2_ENVIRONMENT_PRESET_CARPETEDHALLWAY
 0003:000031E0       _DirectSound.I3DL2_ENVIRONMENT_PRESET_HALLWAY
 0003:00003210       _DirectSound.I3DL2_ENVIRONMENT_PRESET_STONECORRIDOR
 0003:00003240       _DirectSound.I3DL2_ENVIRONMENT_PRESET_ALLEY
 0003:00003270       _DirectSound.I3DL2_ENVIRONMENT_PRESET_FOREST
 0003:000032A0       _DirectSound.I3DL2_ENVIRONMENT_PRESET_CITY
 0003:000032D0       _DirectSound.I3DL2_ENVIRONMENT_PRESET_MOUNTAINS
 0003:00003300       _DirectSound.I3DL2_ENVIRONMENT_PRESET_QUARRY
 0003:00003330       _DirectSound.I3DL2_ENVIRONMENT_PRESET_PLAIN
 0003:00003360       _DirectSound.I3DL2_ENVIRONMENT_PRESET_PARKINGLOT
 0003:00003390       _DirectSound.I3DL2_ENVIRONMENT_PRESET_SEWERPIPE
 0003:000033C0       _DirectSound.I3DL2_ENVIRONMENT_PRESET_UNDERWATER
 0003:000033F0       _DirectSound.I3DL2_ENVIRONMENT_PRESET_SMALLROOM
 0003:00003420       _DirectSound.I3DL2_ENVIRONMENT_PRESET_MEDIUMROOM
 0003:00003450       _DirectSound.I3DL2_ENVIRONMENT_PRESET_LARGEROOM
 0003:00003480       _DirectSound.I3DL2_ENVIRONMENT_PRESET_MEDIUMHALL
 0003:000034B0       _DirectSound.I3DL2_ENVIRONMENT_PRESET_LARGEHALL
 0003:000034E0       _DirectSound.I3DL2_ENVIRONMENT_PRESET_PLATE
 0003:00003510       _DirectSound.DS3DALG_DEFAULT
 0003:00003520       _DirectSound.DS3DALG_NO_VIRTUALIZATION
 0003:00003530       _DirectSound.DS3DALG_HRTF_FULL
 0003:00003540       _DirectSound.DS3DALG_HRTF_LIGHT
 0003:00003550       _DirectSound.GUID_DSFX_STANDARD_GARGLE
 0003:00003560       _DirectSound.GUID_DSFX_STANDARD_CHORUS
 0003:00003570       _DirectSound.GUID_DSFX_STANDARD_FLANGER
 0003:00003580       _DirectSound.GUID_DSFX_STANDARD_ECHO
 0003:00003590       _DirectSound.GUID_DSFX_STANDARD_DISTORTION
 0003:000035A0       _DirectSound.GUID_DSFX_STANDARD_COMPRESSOR
 0003:000035B0       _DirectSound.GUID_DSFX_STANDARD_PARAMEQ
 0003:000035C0       _DirectSound.GUID_DSFX_STANDARD_I3DL2REVERB
 0003:000035D0       _DirectSound.GUID_DSFX_WAVES_REVERB
 0003:000035E0       _DirectSound.GUID_DSCFX_CLASS_AEC
 0003:000035F0       _DirectSound.GUID_DSCFX_MS_AEC
 0003:00003600       _DirectSound.GUID_DSCFX_SYSTEM_AEC
 0003:00003610       _DirectSound.GUID_DSCFX_CLASS_NS
 0003:00003620       _DirectSound.GUID_DSCFX_MS_NS
 0003:00003630       _DirectSound.GUID_DSCFX_SYSTEM_NS
 0003:00003640       wmfintf.IID_IWMReader
 0003:00003650       wmfintf.IID_IWMSyncReader
 0003:00003660       wmfintf.IID_IWMOutputMediaProps
 0003:00003670       wmfintf.IID_IWMHeaderInfo
 0003:00003680       wmfintf.IID_IWMWriterFileSink
 0003:00003690       wmfintf.IID_IWMWriter
 0003:000036A0       wmfintf.IID_IWMWriterSink
 0003:000036B0       wmfintf.IID_IWMWriterAdvanced
 0003:000036C0       wmfintf.IID_IWMProfile
 0003:000036D0       wmfintf.IID_IWMProfileManager
 0003:000036E0       wmfintf.IID_IWMInputMediaProps
 0003:000036F0       wmfintf.IID_IWMCodecInfo
 0003:00003700       wmfintf.IID_IWMCodecInfo2
 0003:00003710       wmfintf.IID_IWMCodecInfo3
 0003:00003720       wmfintf.IID_IWMWriterNetworkSink
 0003:00003730       wmfintf.IID_IWMClientConnections
 0003:00003740       wmfintf.IID_IWMStatusCallback
 0003:00003750       wmfintf.IID_IWMRegisterCallback
 0003:00003760       wmfintf.IID_IWMClientConnections2
 0003:00003770       wmfintf.IID_IWMWriterPreprocess
 0003:00003780       wmfintf.WMMEDIASUBTYPE_WMAudioV9
 0003:00003790       wmfintf.WMMEDIASUBTYPE_WMAudio_Lossless
 0003:000037A0       wmfintf.WMMEDIASUBTYPE_WMSP1
 0003:000037B0       wmfintf.WMMEDIASUBTYPE_WMAudioV8
 0003:000037C0       wmfintf.WMMEDIASUBTYPE_WMAudioV7
 0003:000037D0       wmfintf.WMMEDIASUBTYPE_WMAudioV2
 0003:000037E0       wmfintf.WMProfile_V70_6VoiceAudio
 0003:000037F0       wmfintf.WMProfile_V70_64Audio
 0003:00003800       wmfintf.WMProfile_V70_96Audio
 0003:00003810       wmfintf.WMProfile_V70_128Audio
 0003:00003820       wmfintf.WMMEDIATYPE_Audio
 0003:00003830       wmfintf.WMFORMAT_WaveFormatEx
 0003:00003840       wmfintf.WMVCoreLoaded
 0003:00003844       wmfintf.WMVHandle
 0003:00003848       WaveUtils.FACMDriver
 0003:0000384C       WaveUtils.Channels
 0003:00003854       WaveMixer.MixerLineTargetTypes
 0003:0000386C       WaveMixer.MixerLineComponentTypes
 0003:000038BC       WaveMixer.MixerControlTypes
 0003:000038CC       BisAudioDtmf.EventsHz
 0003:0000390C       BisAudioDtmf.DtmfFDL
 0003:0000392C       BisAudioDtmf.DtmfFDH
 0004:00000000       SysInit.ModuleIsLib
 0004:00000001       SysInit.ModuleIsPackage
 0004:00000004       SysInit.HInstance
 0004:00000008       SysInit.tlsBuffer
 0004:0000000C       Windows..3
 0004:00000010       Windows.HtmlHelpModule
 0004:00000014       WaveConverter..2
 0004:00000018       FastcodeCPUID.CPU
 0004:00000030       FastcodeCPUID.FastCodeTarget
 0004:00000034       FastcodeCPUID..1
 0004:00000038       FastMove..1
 0004:0000003C       FastMove.PrefetchLimit
 0004:00000040       ACS_Types..1
 0004:00000044       ACS_Procs..1
 0004:00000048       ACS_Procs.lDummie
 0004:00000050       ACS_Tags..9
 0004:00000054       ACS_Classes.EventHandler
 0004:00000058       ACS_Classes.LoadLibCS
 0004:0000005C       ACS_Classes..02
 0004:00000060       ACS_Classes.RCount
 0004:00000064       ACS_Wave..4
 0004:00000068       _DXTypes..1
 0004:0000006C       _DirectSound..1
 0004:00000070       wmfintf.WMCreateSyncReader
 0004:00000074       wmfintf.WMCreateWriter
 0004:00000078       wmfintf.WMCreateWriterFileSink
 0004:0000007C       wmfintf.WMCreateProfileManager
 0004:00000080       wmfintf.WMCreateReader
 0004:00000084       wmfintf.WMCreateWriterNetworkSink
 0004:00000088       wmfintf..1
 0004:0000008C       libwma1..5
 0004:00000090       ACS_WinMedia..7
 0004:00000094       BisAudioCodec..2
 0004:00000098       WaveACM..1
 0004:0000009C       WaveAcmDrivers..5
 0004:000000A0       WaveUtils..4
 0004:000000A4       WaveStorage..21
 0004:000000A8       WaveIO..2
 0004:000000AC       WaveIn..2
 0004:000000B0       WaveRecorders..4
 0004:000000B4       WaveOut..2
 0004:000000B8       WavePlayers..4
 0004:000000BC       WaveMixer..4
 0004:000000C0       BisAudioWave..8
 0004:000000C4       BisAudioDtmf..2
 0004:000000C8       BisRtpAcmDrivers..2
 0004:000000CC       BisAudioTextPhrases..5
 0004:000000D0       BisAudioUtils..1
 0004:000000D4       FftSpec.BlackmanAlpha
 0004:000000D8       FftSpec.BlackmanBeta
 0004:000000DC       FftSpec.BlackmanGamma
 0004:000000E0       FftSpec.GaussianAlpha
 0004:000000E4       FftSpec.HammingAlpha
 0004:000000E8       FftSpec.KaiserAlpha
 0004:000000EC       FftSpec.CoherentGain
 0004:00000108       FftSpec..1
 0004:0000010C       FftSpec.WindowingTables
 0004:001C010C       FftSpec.ReversalBits
 0004:001E010C       FftSpec.AlphaTable
 0004:0022010C       FftSpec.BetaTable
 0004:0026010C       BisAudioSpectrum..2
 0005:00000000       SysInit.TlsLast


Line numbers for _MSAcm(_MSAcm.pas) segment .text

  1357 0001:00000C58  1386 0001:00000C60  1402 0001:00000C68  1403 0001:00000C70
  1404 0001:00000C78  1407 0001:00000C80  1408 0001:00000C88  1409 0001:00000C90
  1411 0001:00000CC4

Line numbers for WaveConverter(waveconverter.pas) segment .text

    60 0001:00000D44    61 0001:00000D4C    67 0001:00000D51    69 0001:00000D72
    78 0001:00000D7A    81 0001:00000D94    90 0001:00000D9C    91 0001:00000DA7
    93 0001:00000DB4   100 0001:00000DBF   101 0001:00000DC7   102 0001:00000DCD
   103 0001:00000DD3   104 0001:00000DDA   105 0001:00000DE4   106 0001:00000DEA
   107 0001:00000DF0   108 0001:00000DF4   109 0001:00000DFC   110 0001:00000E02
   112 0001:00000E08   113 0001:00000E1B   122 0001:00000E1F   124 0001:00000E32
   134 0001:00000E36   135 0001:00000E47   136 0001:00000E56   137 0001:00000E61
   142 0001:00000E6E   143 0001:00000E81   152 0001:00000E85   153 0001:00000E93
   159 0001:00000E97   160 0001:00000E9E   163 0001:00000EA8   164 0001:00000EBA
   166 0001:00000EC3   168 0001:00000ED0   169 0001:00000EDD   170 0001:00000EED
   173 0001:00000F08   174 0001:00000F13   175 0001:00000F1F   188 0001:00000F30
   189 0001:00000F5D   190 0001:00000F62   192 0001:00000F70   193 0001:00000F82
   195 0001:00000F85   196 0001:00000F97   198 0001:00000F9A   200 0001:00000FDC
   205 0001:00000FE6   206 0001:00000FEA   208 0001:00000FF7   209 0001:00001009
   212 0001:0000100C   214 0001:0000102B   215 0001:00001036   216 0001:00001044
   217 0001:00001056   219 0001:00001059   220 0001:0000105F   222 0001:00001073
   224 0001:00001090   228 0001:000010A0   230 0001:000010BF   231 0001:000010CA
   232 0001:000010D8   233 0001:000010E8   235 0001:000010F8   239 0001:00001108
   241 0001:00001127   243 0001:0000112D   244 0001:00001138   245 0001:00001146
   246 0001:00001156   248 0001:00001159   249 0001:00001168   250 0001:00001174
   252 0001:00001195   203 0001:000011A5   258 0001:000011D3   261 0001:000011EC
   262 0001:000011F4   270 0001:00001270   271 0001:0000127D   272 0001:00001282
   273 0001:00001290   275 0001:0000129A   276 0001:000012A2   277 0001:000012A7
   279 0001:000012B6   280 0001:000012BE   282 0001:000012CD   283 0001:000012D5
   284 0001:000012DC   285 0001:000012EB   287 0001:000012FA   288 0001:00001302
   289 0001:0000130B   290 0001:0000131A   293 0001:00001325   296 0001:0000132E
   297 0001:00001339   298 0001:00001341   299 0001:0000134E   301 0001:0000135D
   306 0001:00001385   310 0001:00001391

Line numbers for WaveConverter(waveconverter.pas) segment .itext

   312 0002:00000044

Line numbers for FastcodeCPUID(FastcodeCPUID.pas) segment .text

   183 0001:000015E4   184 0001:000015E5   185 0001:000015E6   186 0001:000015E8
   187 0001:000015ED   188 0001:000015EE   189 0001:000015EF   190 0001:000015F0
   191 0001:000015F1   192 0001:000015F3   193 0001:000015F5   195 0001:000015FA
   200 0001:000015FC   201 0001:00001600   202 0001:00001605   203 0001:0000160B
   204 0001:0000160D   205 0001:00001610   206 0001:00001615   207 0001:00001617
   208 0001:0000161A   209 0001:0000161E   210 0001:00001623   211 0001:00001627
   212 0001:00001629   214 0001:0000162E   218 0001:00001634   219 0001:00001635
   220 0001:00001636   221 0001:00001638   222 0001:0000163A   223 0001:0000163C
   224 0001:0000163E   225 0001:00001640   226 0001:00001642   227 0001:00001645
   228 0001:00001648   229 0001:0000164B   230 0001:0000164C   231 0001:0000164D
   237 0001:00001650   239 0001:0000165A   242 0001:00001665   243 0001:00001671
   244 0001:00001683   245 0001:00001695   248 0001:000016A7   251 0001:000016AC
   249 0001:000016AE   252 0001:000016CE   265 0001:000016D4   267 0001:000016E4
   270 0001:000016F1   273 0001:000016F7   274 0001:00001702   275 0001:00001710
   276 0001:00001713   278 0001:00001719   279 0001:00001727   283 0001:00001735
   284 0001:00001744   287 0001:00001754   288 0001:00001759   289 0001:0000175E
   290 0001:00001763   291 0001:00001768   292 0001:0000176E   293 0001:00001773
   295 0001:00001779   299 0001:0000177E   301 0001:00001792   303 0001:00001797
   304 0001:0000179D   305 0001:000017A2   306 0001:000017A8   307 0001:000017AD
   308 0001:000017B3   309 0001:000017B8   310 0001:000017BE   311 0001:000017C4
   312 0001:000017CA   313 0001:000017D0   314 0001:000017D6   315 0001:000017DC
   316 0001:000017E7   317 0001:000017ED   318 0001:000017F3   319 0001:000017F9
   326 0001:00001800   328 0001:00001804   331 0001:00001810   334 0001:00001814
   335 0001:0000181C   336 0001:00001825   337 0001:0000182D   338 0001:00001836
   339 0001:0000183E   340 0001:00001847   341 0001:0000184F   342 0001:00001858
   353 0001:00001860   355 0001:00001868   356 0001:00001875   357 0001:0000187E
   359 0001:0000188F   362 0001:00001897   363 0001:000019DD   364 0001:000019EB
   365 0001:000019F9   366 0001:00001A07   367 0001:00001A15   368 0001:00001A23
   369 0001:00001A31   370 0001:00001A3F   371 0001:00001A4D   372 0001:00001A5B
   373 0001:00001A69   374 0001:00001A77   375 0001:00001A85   378 0001:00001A93
   379 0001:00001AA1   380 0001:00001AAF   381 0001:00001ABD   382 0001:00001ACB
   383 0001:00001AD9   384 0001:00001AE7   385 0001:00001AF5   386 0001:00001B03
   387 0001:00001B11   388 0001:00001B1F   389 0001:00001B2D   390 0001:00001B46
   391 0001:00001B54   392 0001:00001B62   393 0001:00001B70   394 0001:00001B7E
   395 0001:00001B8C   396 0001:00001B9A   397 0001:00001BA8   398 0001:00001BB3
   399 0001:00001BBE   400 0001:00001BC9   402 0001:00001BDA   403 0001:00001BE3
   405 0001:00001BEE   406 0001:00001BF9   407 0001:00001C04   408 0001:00001C0F
   409 0001:00001C1A   410 0001:00001C25   411 0001:00001C2E   359 0001:00001C2F
   412 0001:00001C36   413 0001:00001C3E   414 0001:00001C4B   357 0001:00001C4C
   415 0001:00001C53   422 0001:00001C5C   424 0001:00001C65   429 0001:00001C71
   431 0001:00001C7A   432 0001:00001C85   436 0001:00001C90   439 0001:00001C9C
   442 0001:00001CB0   443 0001:00001CB8   446 0001:00001CCD   448 0001:00001CDA
   449 0001:00001CE5   452 0001:00001CEC   454 0001:00001CF2   456 0001:00001D00
   461 0001:00001D12   462 0001:00001D1B   463 0001:00001D24   466 0001:00001D32
   473 0001:00001D38   475 0001:00001D41   477 0001:00001D52   478 0001:00001D60
   480 0001:00001D69   481 0001:00001D72   486 0001:00001D7C   487 0001:00001D86
   490 0001:00001D89   493 0001:00001D8E   494 0001:00001D93   497 0001:00001D98
   498 0001:00001D9D   501 0001:00001DA2   502 0001:00001DAF   505 0001:00001DB2
   506 0001:00001DBA   509 0001:00001DBF   510 0001:00001DC8   515 0001:00001DCD
   516 0001:00001DD5   520 0001:00001DE9   521 0001:00001DEE   529 0001:00001DF8
   532 0001:00001DFF   533 0001:00001E08   534 0001:00001E11   538 0001:00001E1A
   541 0001:00001E23   542 0001:00001E35   544 0001:00001E3C   546 0001:00001E4F
   548 0001:00001E60   549 0001:00001E71   550 0001:00001E7A   553 0001:00001E83
   554 0001:00001E94   555 0001:00001E9D   559 0001:00001EA5   561 0001:00001EB0
   562 0001:00001EC8   564 0001:00001ED1   575 0001:00001ED8

Line numbers for FastcodeCPUID(FastcodeCPUID.pas) segment .itext

   577 0002:0000004C   578 0002:00000055   579 0002:0000005A   580 0002:0000005F

Line numbers for FastMove(FastMove.pas) segment .text

    73 0001:00001F10    75 0001:00001F13    76 0001:00001F17    78 0001:00001F1F
    79 0001:00001F24    80 0001:00001F35    81 0001:00001F3F    82 0001:00001F4A
    84 0001:00001F4E    85 0001:00001F5B    89 0001:00001F63    90 0001:00001F69
    92 0001:00001F76    93 0001:00001F7A    96 0001:00001F7C    98 0001:00001F80
    99 0001:00001F82   100 0001:00001F84   101 0001:00001F89   102 0001:00001F8B
   104 0001:00001F8D   105 0001:00001F91   107 0001:00001F96   108 0001:00001F99
   109 0001:00001F9C   110 0001:00001F9F   111 0001:00001FA1   115 0001:00001FA5
   116 0001:00001FAA   117 0001:00001FB0   120 0001:00001FB4   121 0001:00001FB8
   123 0001:00001FBD   124 0001:00001FC0   125 0001:00001FC3   126 0001:00001FC6
   127 0001:00001FC8   129 0001:00001FCA   139 0001:00001FD0   140 0001:00001FD7
   142 0001:00001FD8   143 0001:00001FDC   144 0001:00001FFC   145 0001:0000201C
   146 0001:0000203C   147 0001:0000205C   149 0001:0000206C   150 0001:0000206F
   152 0001:00002072   153 0001:00002075   155 0001:00002078   156 0001:0000207B
   158 0001:0000207E   159 0001:00002081   161 0001:00002084   162 0001:00002087
   164 0001:0000208A   165 0001:0000208D   167 0001:00002090   168 0001:00002093
   170 0001:00002096   171 0001:00002099   173 0001:0000209C   174 0001:0000209F
   175 0001:000020A2   176 0001:000020A3   178 0001:000020A4   179 0001:000020A7
   181 0001:000020AA   182 0001:000020AD   184 0001:000020B0   185 0001:000020B3
   187 0001:000020B6   188 0001:000020B9   190 0001:000020BC   191 0001:000020BF
   193 0001:000020C2   194 0001:000020C5   196 0001:000020C8   197 0001:000020CB
   199 0001:000020CE   200 0001:000020D1   201 0001:000020D4   202 0001:000020D7
   203 0001:000020DA   204 0001:000020DB   206 0001:000020DC   207 0001:000020E0
   208 0001:000020E4   209 0001:000020E8   210 0001:000020EB   212 0001:000020EC
   213 0001:000020EF   215 0001:000020F2   216 0001:000020F5   218 0001:000020F8
   219 0001:000020FB   221 0001:000020FE   222 0001:00002101   224 0001:00002104
   225 0001:00002107   227 0001:0000210A   228 0001:0000210D   230 0001:00002110
   231 0001:00002113   233 0001:00002116   234 0001:00002119   236 0001:0000211C
   237 0001:00002120   238 0001:00002124   239 0001:00002125   240 0001:00002126
   241 0001:00002127   243 0001:00002128   244 0001:0000212B   246 0001:0000212E
   247 0001:00002131   249 0001:00002134   250 0001:00002137   252 0001:0000213A
   253 0001:0000213D   255 0001:00002140   256 0001:00002143   258 0001:00002146
   259 0001:00002149   261 0001:0000214C   262 0001:0000214F   264 0001:00002152
   265 0001:00002155   267 0001:00002158   268 0001:0000215C   269 0001:0000215F
   271 0001:00002160   278 0001:00002164   279 0001:0000216B   281 0001:0000216C
   282 0001:00002170   283 0001:00002190   284 0001:000021B0   285 0001:000021D0
   286 0001:000021F0   288 0001:00002200   289 0001:00002203   291 0001:00002206
   292 0001:00002209   294 0001:0000220C   295 0001:0000220F   297 0001:00002212
   298 0001:00002215   300 0001:00002218   301 0001:0000221B   303 0001:0000221E
   304 0001:00002221   306 0001:00002224   307 0001:00002227   309 0001:0000222A
   310 0001:0000222D   312 0001:00002230   313 0001:00002232   314 0001:00002234
   315 0001:00002235   316 0001:00002236   317 0001:00002237   319 0001:00002238
   320 0001:0000223B   322 0001:0000223E   323 0001:00002241   325 0001:00002244
   326 0001:00002247   328 0001:0000224A   329 0001:0000224D   331 0001:00002250
   332 0001:00002253   334 0001:00002256   335 0001:00002259   337 0001:0000225C
   338 0001:0000225F   340 0001:00002262   341 0001:00002265   342 0001:00002268
   343 0001:0000226A   344 0001:0000226C   345 0001:0000226D   346 0001:0000226E
   347 0001:0000226F   349 0001:00002270   350 0001:00002274   351 0001:00002278
   352 0001:0000227B   353 0001:0000227D   354 0001:0000227E   355 0001:0000227F
   357 0001:00002280   358 0001:00002283   360 0001:00002286   361 0001:00002289
   363 0001:0000228C   364 0001:0000228F   366 0001:00002292   367 0001:00002295
   369 0001:00002298   370 0001:0000229B   372 0001:0000229E   373 0001:000022A1
   375 0001:000022A4   376 0001:000022A7   378 0001:000022AA   379 0001:000022AD
   381 0001:000022B0   382 0001:000022B3   383 0001:000022B6   384 0001:000022B7
   386 0001:000022B8   387 0001:000022BB   389 0001:000022BE   390 0001:000022C1
   392 0001:000022C4   393 0001:000022C7   395 0001:000022CA   396 0001:000022CD
   398 0001:000022D0   399 0001:000022D3   401 0001:000022D6   402 0001:000022D9
   404 0001:000022DC   405 0001:000022DF   407 0001:000022E2   408 0001:000022E5
   410 0001:000022E8   411 0001:000022EB   412 0001:000022ED   413 0001:000022EE
   414 0001:000022EF   416 0001:000022F0   422 0001:000022F4   423 0001:000022F5
   424 0001:000022F7   425 0001:000022F9   426 0001:000022FB   427 0001:000022FD
   428 0001:00002300   429 0001:00002303   430 0001:00002305   431 0001:00002307
   432 0001:0000230A   434 0001:0000230C   435 0001:00002310   436 0001:00002314
   437 0001:00002318   438 0001:0000231C   439 0001:0000231F   440 0001:00002321
   441 0001:00002323   442 0001:00002325   443 0001:00002328   444 0001:00002329
   445 0001:0000232E   451 0001:00002330   452 0001:00002331   453 0001:00002335
   454 0001:00002338   455 0001:0000233B   456 0001:0000233D   457 0001:0000233F
   459 0001:00002342   460 0001:00002345   461 0001:00002349   462 0001:0000234D
   463 0001:00002350   464 0001:00002353   465 0001:00002355   466 0001:00002359
   467 0001:0000235C   468 0001:0000235D   469 0001:00002362   477 0001:00002364
   478 0001:0000236A   479 0001:0000236C   480 0001:0000236F   481 0001:00002375
   482 0001:00002376   483 0001:00002378   485 0001:0000237B   486 0001:0000237D
   487 0001:0000237F   488 0001:00002382   489 0001:00002385   490 0001:00002387
   492 0001:00002389   493 0001:0000238C   495 0001:0000238E   496 0001:00002393
   497 0001:00002398   498 0001:0000239D   499 0001:000023A2   500 0001:000023A7
   501 0001:000023AC   502 0001:000023B1   503 0001:000023B6   504 0001:000023B9
   505 0001:000023BB   506 0001:000023BE   507 0001:000023C0   508 0001:000023C1
   509 0001:000023C3   510 0001:000023C6   512 0001:000023CB   513 0001:000023CC
   514 0001:000023CE   515 0001:000023D4   517 0001:000023D6   518 0001:000023D8
   519 0001:000023DB   520 0001:000023DE   521 0001:000023E0   522 0001:000023E2
   523 0001:000023E4   525 0001:000023E6   527 0001:000023EB   528 0001:000023ED
   529 0001:000023F0   530 0001:000023F2   531 0001:000023F3   532 0001:000023F4
   533 0001:000023F6   534 0001:000023F8   535 0001:000023FA   536 0001:000023FD
   537 0001:00002400   538 0001:00002402   539 0001:00002404   540 0001:00002407
   542 0001:00002409   543 0001:0000240D   544 0001:00002412   545 0001:00002417
   546 0001:0000241C   547 0001:00002421   548 0001:00002426   549 0001:0000242B
   550 0001:00002430   551 0001:00002434   552 0001:00002439   553 0001:0000243E
   554 0001:00002443   555 0001:00002448   556 0001:0000244D   557 0001:00002452
   558 0001:00002457   559 0001:0000245A   560 0001:0000245C   561 0001:0000245E
   562 0001:00002460   563 0001:00002463   564 0001:00002465   565 0001:00002467
   566 0001:0000246A   567 0001:0000246C   568 0001:0000246D   569 0001:0000246E
   570 0001:0000246F   576 0001:00002470   577 0001:00002473   578 0001:00002479
   579 0001:0000247A   581 0001:0000247F   582 0001:00002482   583 0001:00002485
   584 0001:00002487   586 0001:00002489   588 0001:0000248C   589 0001:00002490
   590 0001:00002495   591 0001:0000249A   592 0001:0000249F   593 0001:000024A4
   594 0001:000024A9   595 0001:000024AE   596 0001:000024B2   597 0001:000024B5
   598 0001:000024B7   599 0001:000024BC   600 0001:000024BE   601 0001:000024C1
   602 0001:000024C2   603 0001:000024C7   611 0001:000024C8   612 0001:000024C9
   613 0001:000024CB   614 0001:000024CD   615 0001:000024D0   616 0001:000024D2
   617 0001:000024D4   618 0001:000024D7   619 0001:000024D9   620 0001:000024DF
   622 0001:000024E5   623 0001:000024EB   626 0001:000024ED   627 0001:000024EE
   628 0001:000024EF   631 0001:000024F0   632 0001:000024F4   633 0001:000024F9
   634 0001:000024FE   635 0001:00002503   636 0001:00002507   637 0001:0000250C
   638 0001:00002511   639 0001:00002516   640 0001:0000251B   641 0001:00002520
   642 0001:00002525   643 0001:0000252A   644 0001:0000252F   645 0001:00002534
   646 0001:00002539   647 0001:0000253E   648 0001:00002541   649 0001:00002543
   653 0001:00002548   654 0001:0000254C   655 0001:00002551   656 0001:00002556
   657 0001:0000255B   658 0001:0000255F   659 0001:00002564   660 0001:00002569
   661 0001:0000256E   662 0001:00002573   663 0001:00002578   664 0001:0000257D
   665 0001:00002582   666 0001:00002587   667 0001:0000258C   668 0001:00002591
   669 0001:00002596   670 0001:00002599   671 0001:0000259B   674 0001:000025A0
   675 0001:000025A6   678 0001:000025A8   679 0001:000025B0   680 0001:000025B8
   681 0001:000025BC   682 0001:000025C1   683 0001:000025C6   684 0001:000025CB
   685 0001:000025CF   686 0001:000025D4   687 0001:000025D9   688 0001:000025DE
   689 0001:000025E3   690 0001:000025E8   691 0001:000025ED   692 0001:000025F2
   693 0001:000025F7   694 0001:000025FC   695 0001:00002601   696 0001:00002606
   697 0001:00002609   698 0001:0000260B   699 0001:0000260E   703 0001:00002610
   704 0001:00002618   705 0001:00002620   706 0001:00002624   707 0001:00002629
   708 0001:0000262E   709 0001:00002633   710 0001:00002637   711 0001:0000263C
   712 0001:00002641   713 0001:00002646   714 0001:0000264B   715 0001:00002650
   716 0001:00002655   717 0001:0000265A   718 0001:0000265F   719 0001:00002664
   720 0001:00002669   721 0001:0000266E   722 0001:00002671   723 0001:00002673
   726 0001:00002676   727 0001:00002679   728 0001:0000267B   729 0001:0000267D
   730 0001:0000267F   732 0001:00002681   733 0001:00002685   734 0001:00002689
   735 0001:0000268C   737 0001:0000268E   738 0001:0000268F   746 0001:00002690
   747 0001:00002696   748 0001:00002698   749 0001:0000269B   750 0001:0000269E
   751 0001:000026A0   752 0001:000026A4   753 0001:000026A7   754 0001:000026AB
   755 0001:000026AD   756 0001:000026AF   757 0001:000026B2   759 0001:000026B7
   760 0001:000026B8   762 0001:000026BA   763 0001:000026BC   764 0001:000026BE
   765 0001:000026C1   766 0001:000026C4   767 0001:000026C6   769 0001:000026C8
   770 0001:000026CB   772 0001:000026CD   773 0001:000026D2   774 0001:000026D7
   775 0001:000026DC   776 0001:000026E1   777 0001:000026E4   778 0001:000026E6
   779 0001:000026E9   780 0001:000026EB   781 0001:000026EE   782 0001:000026EF
   784 0001:000026F4   785 0001:000026F5   786 0001:000026F7   787 0001:000026FD
   789 0001:000026FF   790 0001:00002701   791 0001:00002704   792 0001:00002707
   793 0001:00002709   794 0001:0000270B   795 0001:0000270D   797 0001:0000270F
   798 0001:00002714   800 0001:00002716   801 0001:00002719   802 0001:0000271B
   803 0001:0000271C   804 0001:0000271D   805 0001:0000271E   806 0001:00002723
   807 0001:00002724   808 0001:00002725   809 0001:00002726   810 0001:00002728
   811 0001:0000272A   812 0001:0000272C   813 0001:0000272E   814 0001:0000272F
   815 0001:00002734   821 0001:00002738   822 0001:0000273B   823 0001:0000273D
   824 0001:00002740   825 0001:00002744   826 0001:00002749   827 0001:0000274D
   828 0001:00002752   830 0001:00002757   831 0001:00002758   833 0001:0000275D
   834 0001:00002760   835 0001:00002763   836 0001:00002765   838 0001:00002767
   840 0001:0000276A   841 0001:0000276E   842 0001:00002773   843 0001:00002777
   844 0001:0000277C   845 0001:0000277F   846 0001:00002781   847 0001:00002786
   848 0001:00002789   849 0001:0000278A   850 0001:0000278F   859 0001:00002790
   860 0001:00002793   861 0001:00002795   862 0001:00002797   863 0001:00002799
   864 0001:0000279B   865 0001:0000279D   867 0001:000027A2   868 0001:000027A8
   870 0001:000027A9   871 0001:000027AB   872 0001:000027AD   873 0001:000027B3
   874 0001:000027B5   875 0001:000027B7   876 0001:000027B9   877 0001:000027BC
   878 0001:000027C2   880 0001:000027C7   886 0001:000027C8   887 0001:000027CB
   888 0001:000027CD   889 0001:000027CF   890 0001:000027D1   891 0001:000027D3
   892 0001:000027D5   894 0001:000027DA   895 0001:000027E0   897 0001:000027E1
   898 0001:000027E3   899 0001:000027E5   900 0001:000027EB   901 0001:000027ED
   902 0001:000027EF   903 0001:000027F1   904 0001:000027F4   905 0001:000027FA
   907 0001:000027FF   913 0001:00002800   914 0001:00002803   915 0001:00002805
   916 0001:00002807   917 0001:00002809   918 0001:0000280B   919 0001:0000280D
   921 0001:00002812   922 0001:00002818   924 0001:00002819   925 0001:0000281B
   926 0001:0000281D   927 0001:00002823   928 0001:00002825   929 0001:00002827
   930 0001:00002829   931 0001:0000282C   932 0001:00002832   934 0001:00002837
   983 0001:00002838   984 0001:0000283D   985 0001:00002850   986 0001:0000285B
   988 0001:00002862   989 0001:0000286D   991 0001:00002874   992 0001:00002879
   993 0001:0000288B   994 0001:00002892   996 0001:00002899   997 0001:0000289C
  1002 0001:000028A8  1004 0001:000028B8  1005 0001:000028BC  1006 0001:000028C0
  1007 0001:000028C4  1008 0001:000028C8  1009 0001:000028CC  1010 0001:000028D0
  1011 0001:000028D4  1012 0001:000028D9  1013 0001:000028DB  1012 0001:000028E3
  1015 0001:000028E8  1016 0001:00002901  1017 0001:00002913

Line numbers for FastMove(FastMove.pas) segment .itext

  1021 0002:00000060  1022 0002:00000069  1024 0002:00000081  1026 0002:00000086

Line numbers for ACS_Types(ACS_Types.pas) segment .itext

   147 0002:00000088

Line numbers for ACS_Procs(ACS_Procs.pas) segment .text

   237 0001:00002A80   238 0001:00002A83   239 0001:00002AA1   244 0001:00002AA8
   245 0001:00002AA9   246 0001:00002ABE   251 0001:00002AC0   252 0001:00002AC8
   253 0001:00002AE4   258 0001:00002AEC   259 0001:00002AF4   260 0001:00002B11
   266 0001:00002B18   267 0001:00002B1A   268 0001:00002B1C   269 0001:00002B28
   268 0001:00002B3A   270 0001:00002B3D   276 0001:00002B40   277 0001:00002B41
   278 0001:00002B43   279 0001:00002B5F   284 0001:00002B64   285 0001:00002B66
   287 0001:00002B73   288 0001:00002B8D   285 0001:00002B8E   289 0001:00002B91
   294 0001:00002B94   295 0001:00002B96   297 0001:00002BA2   298 0001:00002BB6
   295 0001:00002BB7   299 0001:00002BBA   304 0001:00002BC0   305 0001:00002BC1
   307 0001:00002BCE   309 0001:00002BD6   310 0001:00002BE2   311 0001:00002BEB
   307 0001:00002BEC   313 0001:00002BF3   315 0001:00002BFB   316 0001:00002C05
   317 0001:00002C0E   313 0001:00002C0F   319 0001:00002C16   321 0001:00002C1E
   322 0001:00002C2A   323 0001:00002C31   319 0001:00002C32   325 0001:00002C37
   330 0001:00002C3C   331 0001:00002C3D   333 0001:00002C4A   335 0001:00002C50
   336 0001:00002C5B   337 0001:00002C63   333 0001:00002C64   339 0001:00002C6B
   341 0001:00002C71   342 0001:00002C79   343 0001:00002C81   339 0001:00002C82
   345 0001:00002C89   347 0001:00002C8F   348 0001:00002C9A   349 0001:00002C9F
   345 0001:00002CA0   351 0001:00002CA5   359 0001:00002CA8   360 0001:00002CB7
   362 0001:00002CCF   363 0001:00002CD8   364 0001:00002CDA   366 0001:00002CEF
   368 0001:00002CF3   369 0001:00002D06   370 0001:00002D16   371 0001:00002D28
   372 0001:00002D3C   373 0001:00002D4F   375 0001:00002D63   376 0001:00002D67
   378 0001:00002D6B   379 0001:00002D6D   376 0001:00002D6F   381 0001:00002D73
   382 0001:00002D75   364 0001:00002D76   384 0001:00002D80   385 0001:00002D8E
   386 0001:00002D98   387 0001:00002DA0   389 0001:00002DB2   390 0001:00002DBA
   391 0001:00002DBE   392 0001:00002DCC   393 0001:00002DD6   395 0001:00002DEA
   396 0001:00002DEC   398 0001:00002DF1   399 0001:00002DF7   400 0001:00002E11
   401 0001:00002E2F   402 0001:00002E3E   403 0001:00002E4B   404 0001:00002E56
   405 0001:00002E63   396 0001:00002E67   407 0001:00002E6C   408 0001:00002E83
   409 0001:00002E9A   410 0001:00002EAA   393 0001:00002EAB   411 0001:00002EB5
   412 0001:00002ED6   413 0001:00002EE8   387 0001:00002F09   417 0001:00002F13
   418 0001:00002F1A   420 0001:00002F29   421 0001:00002F37   422 0001:00002F43
   418 0001:00002F44   423 0001:00002F4A   426 0001:00002F5C   427 0001:00002F5F
   428 0001:00002F60   429 0001:00002F61   430 0001:00002F63   431 0001:00002F65
   432 0001:00002F69   434 0001:00002F6C   435 0001:00002F6F   436 0001:00002F73
   437 0001:00002F76   438 0001:00002F79   439 0001:00002F7C   440 0001:00002F7F
   441 0001:00002F82   442 0001:00002F85   443 0001:00002F87   444 0001:00002F88
   445 0001:00002F89   448 0001:00002F90   449 0001:00002F93   450 0001:00002F94
   451 0001:00002F95   452 0001:00002F97   453 0001:00002F99   454 0001:00002F9D
   456 0001:00002FA0   457 0001:00002FA3   458 0001:00002FA6   459 0001:00002FA9
   460 0001:00002FAC   461 0001:00002FAF   462 0001:00002FB1   463 0001:00002FB2
   464 0001:00002FB3   468 0001:00002FB8   469 0001:00002FB9   470 0001:00002FBA
   471 0001:00002FBC   472 0001:00002FBE   473 0001:00002FC0   475 0001:00002FC2
   476 0001:00002FC5   477 0001:00002FC9   478 0001:00002FCD   479 0001:00002FD2
   480 0001:00002FD5   481 0001:00002FD8   482 0001:00002FDC   483 0001:00002FDF
   484 0001:00002FE2   485 0001:00002FE4   486 0001:00002FE5   487 0001:00002FE6
   491 0001:00002FE8   492 0001:00002FE9   493 0001:00002FEA   494 0001:00002FEC
   495 0001:00002FEE   496 0001:00002FF0   498 0001:00002FF2   499 0001:00002FF5
   500 0001:00002FF9   501 0001:00002FFC   502 0001:00002FFF   503 0001:00003002
   504 0001:00003005   505 0001:00003007   506 0001:00003008   507 0001:00003009
   511 0001:0000300C   512 0001:0000300D   513 0001:0000300E   514 0001:00003010
   515 0001:00003012   516 0001:00003014   518 0001:00003016   519 0001:00003019
   520 0001:0000301D   521 0001:00003021   522 0001:00003026   523 0001:00003029
   524 0001:0000302C   525 0001:00003030   526 0001:00003033   527 0001:00003036
   528 0001:00003038   529 0001:00003039   530 0001:0000303A   534 0001:0000303C
   535 0001:0000303D   536 0001:0000303E   537 0001:00003040   538 0001:00003042
   539 0001:00003044   541 0001:00003046   542 0001:00003049   543 0001:0000304D
   544 0001:00003050   545 0001:00003053   546 0001:00003056   547 0001:00003059
   548 0001:0000305B   549 0001:0000305C   550 0001:0000305D   554 0001:00003060
   555 0001:00003062   556 0001:00003064   557 0001:00003066   558 0001:00003068
   567 0001:0000306C   568 0001:0000307C   569 0001:00003085   570 0001:0000308C
   572 0001:000030A4   573 0001:000030A9   574 0001:000030AB   576 0001:000030BC
   578 0001:000030C0   580 0001:000030CB   581 0001:000030CD   583 0001:000030D1
   584 0001:000030D3   581 0001:000030D5   586 0001:000030D9   587 0001:000030DB
   574 0001:000030DC   589 0001:000030E2   590 0001:000030EA   591 0001:000030F0
   592 0001:000030F5   594 0001:00003107   595 0001:0000310B   596 0001:0000310D
   597 0001:00003115   598 0001:0000311B   600 0001:0000312B   601 0001:0000312D
   603 0001:00003132   604 0001:00003138   605 0001:0000314E   606 0001:00003164
   607 0001:0000316F   608 0001:0000317C   609 0001:00003187   610 0001:00003194
   601 0001:00003196   612 0001:0000319B   613 0001:000031B2   614 0001:000031C9
   615 0001:000031D1   598 0001:000031D2   616 0001:000031D9   617 0001:000031FA
   618 0001:0000320C   592 0001:0000322D   628 0001:00003237   629 0001:00003241
   635 0001:00003254   636 0001:00003260   637 0001:0000326B   638 0001:0000326D
   639 0001:000032B2   644 0001:000032D0   645 0001:000032DC   646 0001:000032E7
   647 0001:000032E9   648 0001:00003332   653 0001:00003360   654 0001:0000336C
   655 0001:00003377   656 0001:00003379   657 0001:000033F9   662 0001:00003438
   663 0001:00003444   664 0001:0000344F   665 0001:00003451   666 0001:00003496
   671 0001:000034B4   672 0001:000034C0   673 0001:000034CB   674 0001:000034CD
   675 0001:00003516   680 0001:00003544   681 0001:00003550   682 0001:0000355B
   683 0001:0000355D   684 0001:000035DD   691 0001:00003640   693 0001:00003663
   694 0001:0000367D   695 0001:0000368A   696 0001:00003699   697 0001:000036A8
   699 0001:000036B5   700 0001:000036BA   702 0001:000036C5   703 0001:000036D2
   704 0001:00003715   705 0001:00003728   706 0001:00003732   700 0001:00003733
   707 0001:00003736   708 0001:0000374F   717 0001:000037AC   719 0001:000037CF
   720 0001:000037E9   721 0001:000037F6   722 0001:00003805   723 0001:00003814
   725 0001:00003821   726 0001:00003829   728 0001:00003834   729 0001:00003841
   730 0001:00003884   731 0001:00003897   732 0001:000038A1   726 0001:000038A2
   733 0001:000038A5   734 0001:000038BE   737 0001:000038F8   739 0001:00003907
   740 0001:0000390A   741 0001:0000390D   742 0001:00003910   743 0001:00003912
   744 0001:00003915   745 0001:00003917   746 0001:00003919   747 0001:0000391B
   748 0001:0000391E   749 0001:00003920   750 0001:00003923   753 0001:00003925
   756 0001:0000392C   758 0001:0000393B   759 0001:0000393E   760 0001:00003941
   761 0001:00003944   762 0001:00003946   763 0001:00003949   764 0001:0000394B
   765 0001:0000394D   766 0001:0000394F   767 0001:00003952   768 0001:00003954
   769 0001:00003957   772 0001:00003959   776 0001:00003960   777 0001:00003961
   778 0001:00003962   779 0001:00003964   780 0001:00003966   781 0001:00003968
   782 0001:0000396A   783 0001:0000396C   784 0001:0000396F   785 0001:00003971
   786 0001:00003974   787 0001:00003976   788 0001:00003977   789 0001:00003978
   792 0001:0000397C   793 0001:0000397F   794 0001:00003980   795 0001:00003981
   796 0001:00003983   797 0001:00003985   798 0001:00003987   799 0001:0000398A
   800 0001:0000398C   801 0001:0000398E   802 0001:00003990   803 0001:00003993
   804 0001:00003995   805 0001:00003998   806 0001:0000399A   807 0001:0000399C
   808 0001:0000399D   809 0001:0000399E   829 0001:000039A4   831 0001:000039B3
   832 0001:000039B6   833 0001:000039B9   834 0001:000039BC   835 0001:000039BE
   836 0001:000039C1   837 0001:000039C3   838 0001:000039C5   839 0001:000039C7
   840 0001:000039C9   841 0001:000039CB   842 0001:000039CD   843 0001:000039D0
   844 0001:000039D3   847 0001:000039D5   852 0001:000039DC   854 0001:000039EB
   855 0001:000039ED   856 0001:000039EF   857 0001:000039F1   858 0001:000039F4
   859 0001:000039F7   860 0001:000039FA   861 0001:000039FD   862 0001:000039FF
   863 0001:00003A02   864 0001:00003A04   865 0001:00003A06   866 0001:00003A08
   867 0001:00003A0A   868 0001:00003A0D   869 0001:00003A0F   870 0001:00003A11
   871 0001:00003A13   872 0001:00003A15   873 0001:00003A17   874 0001:00003A18
   875 0001:00003A1B   876 0001:00003A1C   877 0001:00003A1E   878 0001:00003A21
   879 0001:00003A23   880 0001:00003A25   881 0001:00003A28   882 0001:00003A2A
   883 0001:00003A2D   884 0001:00003A2E   885 0001:00003A30   886 0001:00003A32
   887 0001:00003A34   888 0001:00003A35   889 0001:00003A38   890 0001:00003A3A
   891 0001:00003A3D   894 0001:00003A3F   908 0001:00003A48   909 0001:00003A53
   910 0001:00003A55   911 0001:00003A67   913 0001:00003A6D   914 0001:00003A70
   915 0001:00003A72   910 0001:00003A73   916 0001:00003A76   917 0001:00003A80
   918 0001:00003A98   923 0001:00003AA0   924 0001:00003AAB   925 0001:00003AB4
   926 0001:00003AC6   928 0001:00003ACC   929 0001:00003ACE   930 0001:00003AD0
   925 0001:00003AD1   931 0001:00003AD4   932 0001:00003AE7   933 0001:00003B05
   938 0001:00003B0C   939 0001:00003B11   940 0001:00003B25   939 0001:00003B34
   941 0001:00003B37   947 0001:00003B3C   948 0001:00003B3E   949 0001:00003B40
   951 0001:00003B48   952 0001:00003B4F   953 0001:00003B5A   949 0001:00003B5B
   954 0001:00003B60   959 0001:00003B64   960 0001:00003B6C   962 0001:00003B80
   963 0001:00003B9A   964 0001:00003BAD   965 0001:00003BB5   966 0001:00003BC7
   960 0001:00003BC8   967 0001:00003BCB   972 0001:00003BD0   973 0001:00003BD8
   975 0001:00003BEC   977 0001:00003C02   978 0001:00003C1D   979 0001:00003C2E
   975 0001:00003C2F   981 0001:00003C39   983 0001:00003C4B   984 0001:00003C61
   985 0001:00003C75   981 0001:00003C76   987 0001:00003C7D   989 0001:00003C8F
   990 0001:00003CA6   991 0001:00003CB9   987 0001:00003CBA   993 0001:00003CBF
   998 0001:00003CC4   999 0001:00003CC6  1001 0001:00003CDA  1002 0001:00003CEF
   999 0001:00003CF0  1003 0001:00003CF3  1008 0001:00003CF8  1009 0001:00003CF9
  1011 0001:00003D06  1013 0001:00003D16  1014 0001:00003D20  1015 0001:00003D27
  1011 0001:00003D28  1017 0001:00003D2F  1019 0001:00003D3F  1020 0001:00003D48
  1021 0001:00003D4F  1017 0001:00003D50  1023 0001:00003D57  1025 0001:00003D67
  1026 0001:00003D71  1027 0001:00003D77  1023 0001:00003D78  1029 0001:00003D7D
  1034 0001:00003D80  1035 0001:00003D83  1037 0001:00003D97  1038 0001:00003DA8
  1039 0001:00003DB6  1035 0001:00003DB7  1040 0001:00003DBA  1063 0001:00003DC0
  1064 0001:00003DC1  1065 0001:00003DC2  1066 0001:00003DC3  1067 0001:00003DC5
  1068 0001:00003DC7  1069 0001:00003DCA  1070 0001:00003DCC  1071 0001:00003DCE
  1072 0001:00003DD0  1073 0001:00003DD5  1074 0001:00003DDA  1075 0001:00003DDC
  1076 0001:00003DDF  1077 0001:00003DE1  1078 0001:00003DE3  1079 0001:00003DE5
  1080 0001:00003DE8  1081 0001:00003DEB  1082 0001:00003DED  1083 0001:00003DF0
  1084 0001:00003DF2  1085 0001:00003DF4  1087 0001:00003DF6  1088 0001:00003DF7
  1089 0001:00003DF8  1090 0001:00003DF9  1094 0001:00003DFC  1095 0001:00003DFD
  1096 0001:00003DFE  1097 0001:00003DFF  1098 0001:00003E01  1099 0001:00003E03
  1100 0001:00003E06  1101 0001:00003E08  1102 0001:00003E0A  1103 0001:00003E0C
  1104 0001:00003E0E  1105 0001:00003E10  1106 0001:00003E12  1107 0001:00003E14
  1109 0001:00003E16  1110 0001:00003E19  1111 0001:00003E1C  1112 0001:00003E1F
  1113 0001:00003E22  1114 0001:00003E25  1115 0001:00003E28  1116 0001:00003E2A
  1117 0001:00003E2C  1119 0001:00003E2E  1120 0001:00003E2F  1121 0001:00003E30
  1122 0001:00003E31  1128 0001:00003E34  1129 0001:00003E3A  1131 0001:00003E4E
  1133 0001:00003E6C  1135 0001:00003E86  1137 0001:00003E9E  1138 0001:00003EB8
  1129 0001:00003EB9  1139 0001:00003EBC  1144 0001:00003EDC  1145 0001:00003EE1
  1147 0001:00003EF5  1149 0001:00003F0F  1151 0001:00003F29  1153 0001:00003F41
  1154 0001:00003F5B  1145 0001:00003F5C  1155 0001:00003F5F  1163 0001:00003F7C
  1164 0001:00003F84  1166 0001:00003F8E  1167 0001:00003F9D  1169 0001:00003FA4
  1170 0001:00003FB3  1172 0001:00003FBA  1173 0001:00003FD9  1164 0001:00003FDA
  1174 0001:00003FDD  1183 0001:00003FF0  1184 0001:00004001  1185 0001:00004004
  1187 0001:0000400F  1189 0001:0000401F  1190 0001:00004031  1192 0001:0000403D
  1193 0001:0000404F  1195 0001:00004059  1185 0001:0000405A  1196 0001:0000405D
  1197 0001:00004062  1199 0001:0000406A  1200 0001:0000406B  1201 0001:0000406C
  1202 0001:0000406F  1203 0001:00004072  1204 0001:00004074  1205 0001:00004077
  1206 0001:0000407A  1208 0001:00004080  1209 0001:00004082  1210 0001:00004085
  1211 0001:00004087  1212 0001:00004088  1213 0001:0000408A  1214 0001:0000408D
  1215 0001:00004090  1216 0001:00004092  1218 0001:00004098  1219 0001:00004099
  1223 0001:0000409A  1224 0001:000040A2  1233 0001:000040B0  1234 0001:000040C1
  1235 0001:000040C4  1237 0001:000040CF  1239 0001:000040DF  1240 0001:000040F1
  1242 0001:000040FD  1243 0001:0000410F  1245 0001:00004119  1235 0001:0000411A
  1246 0001:0000411D  1247 0001:00004124  1249 0001:0000412B  1250 0001:0000412C
  1251 0001:0000412D  1252 0001:00004130  1253 0001:00004133  1254 0001:00004135
  1255 0001:00004138  1256 0001:0000413B  1257 0001:0000413D  1259 0001:00004143
  1260 0001:00004145  1261 0001:00004147  1262 0001:00004148  1263 0001:0000414B
  1264 0001:0000414E  1265 0001:00004151  1266 0001:00004153  1268 0001:00004159
  1269 0001:0000415A  1271 0001:0000415B  1275 0001:00004162  1282 0001:00004170
  1283 0001:0000417E  1284 0001:00004180  1286 0001:0000418B  1288 0001:0000419B
  1289 0001:000041AA  1291 0001:000041B3  1292 0001:000041C2  1294 0001:000041C9
  1284 0001:000041CA  1295 0001:000041CD  1296 0001:000041D6  1297 0001:000041DD
  1299 0001:000041E8  1300 0001:000041FD  1301 0001:00004209  1302 0001:00004216
  1297 0001:00004217  1303 0001:0000421A  1304 0001:00004224  1312 0001:00004238
  1313 0001:00004243  1314 0001:0000424A  1315 0001:00004251  1316 0001:0000425B
  1315 0001:00004276  1317 0001:00004279  1318 0001:00004280  1326 0001:0000428C
  1327 0001:0000428D  1328 0001:0000428E  1329 0001:00004290  1330 0001:00004293
  1331 0001:00004295  1332 0001:00004297  1333 0001:00004299  1334 0001:0000429B
  1335 0001:0000429E  1336 0001:0000429F  1337 0001:000042A0  1338 0001:000042A5
  1339 0001:000042A6  1340 0001:000042A8  1341 0001:000042AB  1342 0001:000042AC
  1343 0001:000042B2  1345 0001:000042B4  1346 0001:000042B7  1347 0001:000042B9
  1348 0001:000042BA  1349 0001:000042BD  1350 0001:000042BE  1351 0001:000042C1
  1352 0001:000042C3  1353 0001:000042C9  1354 0001:000042CB  1355 0001:000042CE
  1357 0001:000042CF  1358 0001:000042D0  1359 0001:000042D1  1385 0001:000042D4
  1386 0001:000042D5  1387 0001:000042D6  1388 0001:000042D8  1389 0001:000042DB
  1390 0001:000042DD  1391 0001:000042DF  1392 0001:000042E1  1393 0001:000042E3
  1394 0001:000042E6  1395 0001:000042E7  1396 0001:000042E8  1397 0001:000042ED
  1398 0001:000042EE  1399 0001:000042F0  1400 0001:000042F3  1401 0001:000042F4
  1402 0001:000042FA  1404 0001:000042FC  1405 0001:000042FE  1406 0001:00004300
  1407 0001:00004301  1408 0001:00004304  1409 0001:00004307  1410 0001:0000430A
  1411 0001:0000430C  1412 0001:00004312  1413 0001:00004314  1414 0001:00004317
  1416 0001:00004318  1417 0001:00004319  1418 0001:0000431A  1441 0001:0000431C
  1442 0001:00004328  1443 0001:0000432F  1444 0001:00004338  1445 0001:0000433F
  1446 0001:00004349  1445 0001:00004372  1447 0001:00004375  1448 0001:0000437F
  1453 0001:00004388  1454 0001:00004389  1455 0001:00004393  1454 0001:000043A9
  1456 0001:000043AC  1461 0001:000043B4  1462 0001:000043B5  1464 0001:000043BB
  1465 0001:000043C6  1466 0001:000043CC  1462 0001:000043CD  1467 0001:000043D2
  1471 0001:000043D4  1472 0001:000043D5  1473 0001:000043D7  1474 0001:000043DD
  1475 0001:000043E7  1476 0001:000043F1  1477 0001:000043FA  1478 0001:00004403
  1479 0001:0000440C  1480 0001:00004415  1481 0001:0000441E  1482 0001:00004427
  1483 0001:00004430  1484 0001:00004439  1485 0001:0000443B  1490 0001:00004440
  1491 0001:00004457  1492 0001:00004497  1493 0001:000044D5  1495 0001:000044E8
  1496 0001:0000450F  1497 0001:00004555  1498 0001:0000459B  1499 0001:000045CE
  1500 0001:00004607  1502 0001:00004640  1503 0001:0000465B  1504 0001:00004668
  1505 0001:0000467F  1506 0001:0000469F  1507 0001:000046AB  1508 0001:000046BD
  1509 0001:000046C3  1510 0001:000046E0  1511 0001:00004703  1512 0001:00004709
  1514 0001:00004750  1515 0001:00004793  1516 0001:000047AD  1517 0001:000047C6
  1518 0001:000047F4  1519 0001:0000480E  1520 0001:00004838  1521 0001:00004851
  1523 0001:00004857  1524 0001:00004860  1526 0001:00004867  1535 0001:000048D0
  1536 0001:000048F7  1537 0001:00004914  1538 0001:0000492B  1540 0001:0000493F
  1541 0001:00004943  1542 0001:00004947  1538 0001:0000494D  1543 0001:00004952
  1544 0001:0000495C  1545 0001:00004966  1547 0001:00004982  1548 0001:000049A3
  1550 0001:000049B9  1551 0001:000049C1  1552 0001:000049CC  1548 0001:000049D4
  1553 0001:000049D7  1555 0001:000049F4  1556 0001:00004A18  1557 0001:00004A37
  1553 0001:00004A3E  1558 0001:00004A41  1545 0001:00004A44  1559 0001:00004A4D
  1560 0001:00004A55  1562 0001:00004A6C  1563 0001:00004A71  1564 0001:00004A7D
  1560 0001:00004A83  1565 0001:00004A88  1566 0001:00004A8D  1567 0001:00004A92
  1569 0001:00004A9C  1570 0001:00004AAC  1569 0001:00004AD7  1571 0001:00004ADC
  1572 0001:00004AED  1571 0001:00004B18  1573 0001:00004B1D  1576 0001:00004B2C
  1577 0001:00004B3A  1576 0001:00004B46  1578 0001:00004B4B  1579 0001:00004B59
  1578 0001:00004B65  1581 0001:00004B6A  1582 0001:00004B7A  1583 0001:00004B88
  1582 0001:00004B93  1584 0001:00004B98  1589 0001:00004BD0  1590 0001:00004BD2
  1591 0001:00004BD4  1592 0001:00004BD6  1593 0001:00004BDD  1595 0001:00004BE1
  1596 0001:00004BE3  1597 0001:00004BE5  1593 0001:00004BEC  1599 0001:00004BF0
  1600 0001:00004BF2  1606 0001:00004BF8  1607 0001:00004C01  1608 0001:00004C03
  1609 0001:00004C06  1610 0001:00004C09  1612 0001:00004C14  1613 0001:00004C21
  1614 0001:00004C2B  1610 0001:00004C2C  1615 0001:00004C2F  1621 0001:00004C38
  1622 0001:00004C41  1623 0001:00004C43  1624 0001:00004C46  1625 0001:00004C49
  1627 0001:00004C54  1628 0001:00004C63  1629 0001:00004C6F  1625 0001:00004C70
  1630 0001:00004C73  1636 0001:00004C7C  1637 0001:00004C85  1638 0001:00004C87
  1639 0001:00004C8A  1640 0001:00004C8D  1641 0001:00004C93  1642 0001:00004C99
  1643 0001:00004C9F  1644 0001:00004CA5  1646 0001:00004CB0  1647 0001:00004CC0
  1648 0001:00004CCA  1649 0001:00004CD4  1650 0001:00004CDE  1651 0001:00004CE8
  1652 0001:00004CF2  1644 0001:00004CF3  1653 0001:00004CF6  1659 0001:00004D00
  1660 0001:00004D09  1661 0001:00004D0B  1662 0001:00004D0E  1663 0001:00004D11
  1664 0001:00004D17  1665 0001:00004D1D  1666 0001:00004D23  1667 0001:00004D29
  1669 0001:00004D34  1670 0001:00004D46  1671 0001:00004D52  1672 0001:00004D5E
  1673 0001:00004D6A  1674 0001:00004D76  1675 0001:00004D82  1667 0001:00004D83
  1676 0001:00004D86  1683 0001:00004D90  1684 0001:00004D98  1685 0001:00004D9B
  1687 0001:00004D9E  1689 0001:00004DA9  1690 0001:00004DB6  1691 0001:00004DC0
  1687 0001:00004DC1  1692 0001:00004DC4  1698 0001:00004DCC  1699 0001:00004DD4
  1700 0001:00004DD7  1702 0001:00004DDA  1704 0001:00004DE5  1705 0001:00004DF4
  1706 0001:00004E00  1702 0001:00004E01  1707 0001:00004E04  1805 0001:00004E0C
  1806 0001:00004E0E  1807 0001:00004E10  1808 0001:00004E15  1809 0001:00004E16
  1810 0001:00004E18  1811 0001:00004E1B  1812 0001:00004E1C  1816 0001:00004E20
  1817 0001:00004E22  1818 0001:00004E24  1819 0001:00004E29  1820 0001:00004E2A
  1821 0001:00004E2C  1822 0001:00004E2F  1823 0001:00004E30  1827 0001:00004E34
  1828 0001:00004E36  1829 0001:00004E38  1830 0001:00004E3D  1831 0001:00004E3E
  1832 0001:00004E40  1833 0001:00004E43  1834 0001:00004E44  1838 0001:00004E48
  1839 0001:00004E4A  1840 0001:00004E4C

Line numbers for ACS_Procs(ACS_Procs.pas) segment .itext

  1842 0002:00000090  1851 0002:00000097

Line numbers for ACS_Tags(ACS_Tags.pas) segment .text

   657 0001:000067FC   660 0001:00006800   661 0001:00006802   668 0001:00006804
   669 0001:00006817   671 0001:00006820   672 0001:00006831   673 0001:0000683A
   674 0001:00006841   676 0001:00006848   677 0001:0000684C   682 0001:00006868
   683 0001:00006875   684 0001:00006887   683 0001:0000689D   685 0001:000068A0
   687 0001:000068A8   688 0001:000068B4   692 0001:000068C4   693 0001:000068CA
   697 0001:000068CC   698 0001:000068D4   701 0001:000068D8   702 0001:000068E1
   703 0001:000068F1   705 0001:000068FF   706 0001:00006906   711 0001:0000690C
   712 0001:00006916   713 0001:00006922   714 0001:00006926   716 0001:0000693B
   717 0001:00006942   723 0001:00006948   724 0001:00006952   725 0001:0000695E
   726 0001:00006962   727 0001:0000696E   728 0001:0000697B   730 0001:00006984
   731 0001:00006988   734 0001:0000698C   740 0001:00006994   741 0001:000069B4
   743 0001:000069B6   744 0001:000069C3   745 0001:000069C9   746 0001:000069DE
   753 0001:00006A06   756 0001:00006A12   757 0001:00006A2C   760 0001:00006A2F
   766 0001:00006A60   767 0001:00006A85   769 0001:00006A8C   770 0001:00006A99
   771 0001:00006A9D   772 0001:00006AB1   779 0001:00006AD9   782 0001:00006AEA
   785 0001:00006AF4   791 0001:00006B18   792 0001:00006B3F   794 0001:00006B46
   795 0001:00006B53   796 0001:00006B57   797 0001:00006B6B   804 0001:00006BA0
   808 0001:00006BBC   811 0001:00006BC6   816 0001:00006BF4   817 0001:00006C00
   818 0001:00006C05   819 0001:00006C17   820 0001:00006C29   821 0001:00006C33
   823 0001:00006C3F   829 0001:00006C48   830 0001:00006C69   831 0001:00006C7A
   833 0001:00006C82   834 0001:00006C93   835 0001:00006C9F   836 0001:00006CBA
   833 0001:00006CBB   839 0001:00006CC0   840 0001:00006CCA   846 0001:00006CF8
   847 0001:00006D19   848 0001:00006D2B   850 0001:00006D33   851 0001:00006D44
   852 0001:00006D50   853 0001:00006D6B   850 0001:00006D6C   856 0001:00006D71
   857 0001:00006D7B   862 0001:00006DA8   863 0001:00006DC4   864 0001:00006DD6
   863 0001:00006DF3   866 0001:00006DF6   867 0001:00006DFA   868 0001:00006DFE
   871 0001:00006E24   872 0001:00006E25   873 0001:00006E2B   874 0001:00006E2F
   875 0001:00006E34   879 0001:00006E38   880 0001:00006E3E   886 0001:00006E40
   887 0001:00006E6F   889 0001:00006E78   890 0001:00006E8F   891 0001:00006EA6
   892 0001:00006EC4   893 0001:00006EDB   894 0001:00006EF2   895 0001:00006F09
   896 0001:00006F20   902 0001:00006FD8   903 0001:00006FE7   904 0001:00006FEF
   905 0001:00006FF5   906 0001:00007007   907 0001:0000700F   908 0001:00007015
   909 0001:00007023   911 0001:00007043   914 0001:0000705C   922 0001:00007068
   923 0001:00007087   928 0001:000070DD   931 0001:00007110   932 0001:00007116
   933 0001:00007124   936 0001:00007138   937 0001:00007155   938 0001:0000716E
   943 0001:000071A4   944 0001:000071C2   945 0001:000071D1   946 0001:000071F1
   947 0001:000071FB   950 0001:00007230   951 0001:0000724D   952 0001:00007266
   955 0001:0000729C   956 0001:000072A2   957 0001:000072B0   960 0001:000072C4
   961 0001:000072E1   962 0001:000072FA   965 0001:00007330   966 0001:00007333
   967 0001:0000733F   970 0001:00007354   971 0001:00007371   972 0001:0000738D
   975 0001:000073C0   976 0001:000073C6   977 0001:000073D4   980 0001:000073E8
   981 0001:00007405   982 0001:0000741E   985 0001:00007454   986 0001:00007457
   987 0001:00007463   990 0001:00007478   991 0001:00007495   992 0001:000074B1
   995 0001:000074E4   996 0001:000074EA   997 0001:00007502  1003 0001:00007508
  1004 0001:00007527  1005 0001:00007531  1006 0001:00007538  1007 0001:00007546
  1009 0001:00007562  1010 0001:00007564  1005 0001:00007568  1011 0001:0000756D
  1017 0001:000075AC  1018 0001:000075B6  1021 0001:000075C0  1022 0001:000075C2
  1025 0001:000075D4  1026 0001:000075F1  1027 0001:0000760D  1032 0001:00007640
  1033 0001:00007665  1036 0001:00007688  1037 0001:00007690  1038 0001:000076C1
  1039 0001:000076F2  1040 0001:00007723  1042 0001:0000775D  1047 0001:00007775
  1049 0001:000077C2  1052 0001:000077CF  1053 0001:00007800  1055 0001:00007809
  1057 0001:00007814  1064 0001:00007844  1065 0001:0000786D  1068 0001:00007893
  1069 0001:0000789B  1071 0001:000078AD  1072 0001:000078C7  1074 0001:0000790E
  1076 0001:00007952  1078 0001:00007996  1079 0001:000079A8  1082 0001:000079CC
  1083 0001:000079D7  1085 0001:00007A1B  1086 0001:00007A1F  1089 0001:00007A2B
  1092 0001:00007A6F  1094 0001:00007A79  1098 0001:00007AA4  1106 0001:00007AE0
  1107 0001:00007B12  1109 0001:00007B1B  1111 0001:00007B1F  1112 0001:00007B29
  1113 0001:00007B3D  1114 0001:00007B52  1111 0001:00007B55  1115 0001:00007B58
  1128 0001:00007BA0  1129 0001:00007BAC  1130 0001:00007BB4  1131 0001:00007BBA
  1132 0001:00007BCC  1133 0001:00007BD4  1134 0001:00007BDA  1135 0001:00007BE8
  1137 0001:00007C05  1140 0001:00007C1E  1145 0001:00007C28  1146 0001:00007C47
  1160 0001:00007CC8  1163 0001:00007CFC  1164 0001:00007D2B  1165 0001:00007D34
  1166 0001:00007D4D  1167 0001:00007D66  1168 0001:00007D7F  1169 0001:00007D98
  1170 0001:00007DB1  1171 0001:00007DCA  1174 0001:00007E70  1175 0001:00007E76
  1176 0001:00007E84  1179 0001:00007E98  1180 0001:00007EB5  1181 0001:00007ECE
  1184 0001:00007F04  1185 0001:00007F0A  1186 0001:00007F18  1189 0001:00007F2C
  1190 0001:00007F49  1191 0001:00007F62  1194 0001:00007F98  1195 0001:00007F9E
  1196 0001:00007FAC  1199 0001:00007FC0  1200 0001:00007FDD  1201 0001:00007FF6
  1204 0001:0000802C  1205 0001:00008032  1206 0001:00008040  1209 0001:00008054
  1210 0001:00008071  1211 0001:0000808A  1214 0001:000080C0  1215 0001:000080C6
  1216 0001:000080D4  1219 0001:000080E8  1220 0001:00008105  1221 0001:0000811E
  1224 0001:00008154  1225 0001:0000815A  1226 0001:00008168  1229 0001:0000817C
  1230 0001:00008199  1231 0001:000081B2  1234 0001:000081E8  1235 0001:000081EE
  1236 0001:00008207  1239 0001:0000820C  1240 0001:00008229  1241 0001:0000824D
  1244 0001:00008270  1245 0001:00008276  1246 0001:0000828F  1249 0001:00008294
  1250 0001:000082B1  1251 0001:000082D5  1254 0001:000082F8  1255 0001:000082FE
  1256 0001:00008317  1259 0001:0000831C  1260 0001:00008339  1261 0001:0000835D
  1264 0001:00008380  1265 0001:00008386  1266 0001:0000839F  1269 0001:000083A4
  1270 0001:000083C1  1271 0001:000083E5  1274 0001:00008408  1275 0001:0000840E
  1276 0001:00008427  1279 0001:0000842C  1280 0001:00008449  1281 0001:0000846D
  1284 0001:00008490  1285 0001:00008496  1286 0001:000084AF  1289 0001:000084B4
  1290 0001:000084D1  1291 0001:000084F5  1294 0001:00008518  1295 0001:0000851E
  1296 0001:00008537  1299 0001:0000853C  1300 0001:00008559  1301 0001:0000857D
  1304 0001:000085A0  1305 0001:000085A6  1306 0001:000085BF  1309 0001:000085C4
  1310 0001:000085E1  1311 0001:00008605  1314 0001:00008628  1315 0001:0000862E
  1316 0001:00008647  1319 0001:0000864C  1320 0001:00008669  1321 0001:0000868D
  1324 0001:000086B0  1325 0001:000086B6  1326 0001:000086CF  1329 0001:000086D4
  1330 0001:000086F1  1331 0001:00008715  1334 0001:00008738  1335 0001:0000873E
  1336 0001:00008757  1339 0001:0000875C  1340 0001:00008779  1341 0001:0000879D
  1344 0001:000087C0  1345 0001:000087C6  1346 0001:000087DF  1349 0001:000087E4
  1350 0001:00008801  1351 0001:00008825  1448 0001:00008848  1455 0001:0000886A
  1456 0001:00008874  1457 0001:00008877  1467 0001:0000887C  1468 0001:000088A6
  1469 0001:000088AD  1470 0001:000088CA  1471 0001:000088D2  1475 0001:000088DB
  1477 0001:000088F4  1478 0001:00008909  1481 0001:0000892A  1483 0001:00008968
  1486 0001:00008986  1487 0001:000089A6  1490 0001:000089C4  1493 0001:000089C6
  1495 0001:000089C8  1468 0001:000089CC  1496 0001:000089D5  1504 0001:00008A28
  1505 0001:00008A4A  1506 0001:00008A5F  1507 0001:00008A67  1508 0001:00008A71
  1509 0001:00008A81  1510 0001:00008A8F  1511 0001:00008A95  1512 0001:00008A9F
  1513 0001:00008AAD  1515 0001:00008AB0  1519 0001:00008AE5  1520 0001:00008AE8
  1522 0001:00008AF3  1525 0001:00008AFD  1529 0001:00008B13  1530 0001:00008B1B
  1531 0001:00008B26  1533 0001:00008B3F  1536 0001:00008B6D  1537 0001:00008B70
  1539 0001:00008B7B  1542 0001:00008B81  1544 0001:00008BA4  1546 0001:00008BB9
  1547 0001:00008BBF  1550 0001:00008BDB  1558 0001:00008C0C  1559 0001:00008C2E
  1560 0001:00008C43  1561 0001:00008C4B  1562 0001:00008C55  1563 0001:00008C65
  1564 0001:00008C73  1565 0001:00008C79  1566 0001:00008C83  1567 0001:00008C91
  1569 0001:00008C94  1573 0001:00008CC9  1574 0001:00008CCC  1576 0001:00008CD7
  1579 0001:00008CE1  1584 0001:00008D00  1585 0001:00008D08  1586 0001:00008D13
  1588 0001:00008D2C  1591 0001:00008D5A  1592 0001:00008D5D  1594 0001:00008D68
  1598 0001:00008D6E  1600 0001:00008D91  1602 0001:00008DA6  1603 0001:00008DAC
  1606 0001:00008DC8  1611 0001:00008DF8  1612 0001:00008E04  1613 0001:00008E12
  1614 0001:00008E1C  1615 0001:00008E2E  1618 0001:00008E51  1619 0001:00008E57
  1620 0001:00008E65  1622 0001:00008E72  1623 0001:00008E76  1625 0001:00008E82
  1627 0001:00008E99  1630 0001:00008EBA  1655 0001:00008EC4  1656 0001:00008EFB
  1657 0001:00008F0B  1658 0001:00008F15  1659 0001:00008F24  1660 0001:00008F32
  1661 0001:00008F39  1665 0001:00008F42  1667 0001:00008F6E  1668 0001:00008F74
  1669 0001:00008F81  1673 0001:00008F91  1681 0001:00008F9E  1682 0001:00008FAB
  1685 0001:00008FB5  1687 0001:00008FD6  1689 0001:00008FE0  1690 0001:00008FEE
  1691 0001:00008FF6  1692 0001:00008FFE  1693 0001:00009006  1694 0001:0000900B
  1696 0001:00009011  1697 0001:00009021  1698 0001:0000903D  1660 0001:00009041
  1700 0001:0000904A  1701 0001:00009053  1702 0001:00009063  1704 0001:00009068
  1705 0001:0000907C  1712 0001:00009080  1713 0001:00009084  1714 0001:00009088
  1715 0001:00009093  1716 0001:0000909E  1717 0001:000090A9  1719 0001:000090B1
  1721 0001:000090B4  1722 0001:000090C4  1725 0001:000090DF  1726 0001:000090E9
  1732 0001:000090FE  1733 0001:00009106  1734 0001:00009110  1735 0001:0000911E
  1736 0001:00009132  1737 0001:0000913A  1738 0001:00009144  1739 0001:00009152
  1740 0001:00009164  1741 0001:00009174  1742 0001:00009187  1745 0001:000091A6
  1746 0001:000091B4  1748 0001:000091CC  1752 0001:000091F2  1756 0001:00009210
  1759 0001:00009220  1765 0001:00009264  1766 0001:00009293  1768 0001:0000929C
  1769 0001:000092B3  1770 0001:000092CA  1771 0001:000092E1  1772 0001:000092F8
  1773 0001:0000930F  1774 0001:00009326  1775 0001:0000933D  1776 0001:00009354
  1777 0001:00009371  1778 0001:0000938E  1779 0001:000093AB  1780 0001:000093C8
  1781 0001:000093E5  1782 0001:00009402  1783 0001:0000941F  1784 0001:0000943C
  1785 0001:00009459  1786 0001:00009476  1787 0001:00009493  1788 0001:000094B0
  1789 0001:000094CD  1790 0001:000094EA  1791 0001:00009507  1792 0001:00009524
  1793 0001:00009541  1796 0001:0000974C  1797 0001:00009752  1798 0001:00009760
  1801 0001:00009774  1802 0001:00009791  1803 0001:000097AA  1806 0001:000097E0
  1807 0001:000097E6  1808 0001:000097F4  1811 0001:0000980C  1812 0001:00009829
  1813 0001:00009842  1816 0001:0000987C  1817 0001:00009882  1818 0001:00009890
  1821 0001:000098A4  1822 0001:000098C1  1823 0001:000098DA  1826 0001:00009910
  1827 0001:00009916  1828 0001:00009924  1831 0001:0000993C  1832 0001:00009959
  1833 0001:00009972  1836 0001:000099AC  1837 0001:000099B2  1838 0001:000099C0
  1841 0001:000099D8  1842 0001:000099F5  1843 0001:00009A0E  1846 0001:00009A48
  1847 0001:00009A4E  1848 0001:00009A5C  1851 0001:00009A74  1852 0001:00009A91
  1853 0001:00009AAA  1856 0001:00009AE4  1857 0001:00009AEA  1858 0001:00009AF8
  1861 0001:00009B10  1862 0001:00009B2D  1863 0001:00009B46  1866 0001:00009B80
  1867 0001:00009B86  1868 0001:00009B94  1871 0001:00009BA8  1872 0001:00009BC5
  1873 0001:00009BDE  1876 0001:00009C14  1877 0001:00009C1A  1878 0001:00009C28
  1881 0001:00009C3C  1882 0001:00009C59  1883 0001:00009C72  1886 0001:00009CA8
  1887 0001:00009CAE  1888 0001:00009CBC  1891 0001:00009CD0  1892 0001:00009CED
  1893 0001:00009D06  1896 0001:00009D3C  1897 0001:00009D42  1898 0001:00009D50
  1901 0001:00009D60  1902 0001:00009D7D  1903 0001:00009D96  1906 0001:00009DC8
  1907 0001:00009DCE  1908 0001:00009DDC  1911 0001:00009DF0  1912 0001:00009E0D
  1913 0001:00009E26  1916 0001:00009E5C  1917 0001:00009E62  1918 0001:00009E70
  1921 0001:00009E88  1922 0001:00009EA5  1923 0001:00009EBE  1926 0001:00009EF8
  1927 0001:00009EFE  1928 0001:00009F0C  1931 0001:00009F20  1932 0001:00009F3D
  1933 0001:00009F56  1936 0001:00009F8C  1937 0001:00009FA5  1938 0001:00009FBE
  1941 0001:00009FF0  1942 0001:0000A00D  1943 0001:0000A026  1946 0001:0000A05C
  1947 0001:0000A062  1948 0001:0000A070  1951 0001:0000A088  1952 0001:0000A0A5
  1953 0001:0000A0BE  1956 0001:0000A0F8  1957 0001:0000A0FE  1958 0001:0000A10C
  1961 0001:0000A128  1962 0001:0000A145  1963 0001:0000A15E  1966 0001:0000A19C
  1967 0001:0000A1A2  1968 0001:0000A1B0  1971 0001:0000A1C4  1972 0001:0000A1E1
  1973 0001:0000A1FA  1976 0001:0000A230  1977 0001:0000A236  1978 0001:0000A244
  1981 0001:0000A258  1982 0001:0000A275  1983 0001:0000A28E  1986 0001:0000A2C4
  1987 0001:0000A2CA  1988 0001:0000A2D8  1991 0001:0000A2F0  1992 0001:0000A30D
  1993 0001:0000A326  1996 0001:0000A360  1997 0001:0000A366  1998 0001:0000A374
  2001 0001:0000A390  2002 0001:0000A3AD  2003 0001:0000A3C6  2006 0001:0000A404
  2007 0001:0000A40A  2008 0001:0000A418  2011 0001:0000A42C  2012 0001:0000A449
  2013 0001:0000A462  2016 0001:0000A498  2017 0001:0000A49E  2018 0001:0000A4AC
  2021 0001:0000A4C0  2022 0001:0000A4DD  2023 0001:0000A4F6  2026 0001:0000A52C
  2027 0001:0000A532  2028 0001:0000A540  2031 0001:0000A558  2032 0001:0000A575
  2033 0001:0000A58E  2036 0001:0000A5C8  2037 0001:0000A5CE  2038 0001:0000A5DC
  2041 0001:0000A5F0  2042 0001:0000A60D  2043 0001:0000A626  2049 0001:0000A65C
  2050 0001:0000A68B  2051 0001:0000A694  2052 0001:0000A6AC  2053 0001:0000A6C4
  2054 0001:0000A6DC  2055 0001:0000A6F4  2056 0001:0000A70C  2057 0001:0000A724
  2058 0001:0000A73C  2059 0001:0000A754  2060 0001:0000A772  2061 0001:0000A790
  2062 0001:0000A7AE  2063 0001:0000A7CC  2066 0001:0000A814  2067 0001:0000A81A
  2068 0001:0000A829  2071 0001:0000A82C  2072 0001:0000A852  2073 0001:0000A86D
  2076 0001:0000A898  2077 0001:0000A89E  2078 0001:0000A8AD  2081 0001:0000A8B0
  2082 0001:0000A8D6  2083 0001:0000A8F1  2086 0001:0000A91C  2087 0001:0000A922
  2088 0001:0000A931  2091 0001:0000A934  2092 0001:0000A95A  2093 0001:0000A975
  2096 0001:0000A9A0  2097 0001:0000A9A6  2098 0001:0000A9B5  2101 0001:0000A9B8
  2102 0001:0000A9DE  2103 0001:0000A9F9  2106 0001:0000AA24  2107 0001:0000AA2A
  2108 0001:0000AA39  2111 0001:0000AA3C  2112 0001:0000AA62  2113 0001:0000AA7D
  2116 0001:0000AAA8  2117 0001:0000AAAE  2118 0001:0000AABD  2121 0001:0000AAC0
  2122 0001:0000AAE6  2123 0001:0000AB01  2126 0001:0000AB2C  2127 0001:0000AB32
  2128 0001:0000AB41  2131 0001:0000AB44  2132 0001:0000AB6A  2133 0001:0000AB85
  2136 0001:0000ABB0  2137 0001:0000ABB6  2138 0001:0000ABC5  2141 0001:0000ABC8
  2142 0001:0000ABEE  2143 0001:0000AC09  2146 0001:0000AC34  2147 0001:0000AC3A
  2148 0001:0000AC49  2151 0001:0000AC4C  2152 0001:0000AC72  2153 0001:0000AC8D
  2156 0001:0000ACB8  2157 0001:0000ACBE  2158 0001:0000ACCD  2161 0001:0000ACD0
  2162 0001:0000ACF6  2163 0001:0000AD11  2166 0001:0000AD3C  2167 0001:0000AD42
  2168 0001:0000AD51  2171 0001:0000AD54  2172 0001:0000AD7A  2173 0001:0000AD95
  2176 0001:0000ADC0  2177 0001:0000ADC6  2178 0001:0000ADD5  2181 0001:0000ADD8
  2182 0001:0000ADFE  2183 0001:0000AE19  2194 0001:0000AE44  2195 0001:0000AE69
  2196 0001:0000AE79  2197 0001:0000AE88  2199 0001:0000AEBE  2200 0001:0000AECE
  2202 0001:0000AEDE  2203 0001:0000AEED  2204 0001:0000AEFC  2206 0001:0000AEFF
  2207 0001:0000AF00  2208 0001:0000AF13  2209 0001:0000AF1D  2210 0001:0000AF28
  2211 0001:0000AF3C  2213 0001:0000AF46  2214 0001:0000AF69  2216 0001:0000AF8A
  2217 0001:0000AFAD  2219 0001:0000AFCE  2220 0001:0000AFF1  2222 0001:0000B012
  2223 0001:0000B035  2225 0001:0000B056  2226 0001:0000B079  2228 0001:0000B0AB
  2229 0001:0000B0CE  2231 0001:0000B0FD  2232 0001:0000B120  2200 0001:0000B13C
  2234 0001:0000B145

Line numbers for ACS_Tags(ACS_Tags.pas) segment .itext

  2238 0002:00000098

Line numbers for ACS_Classes(ACS_Classes.pas) segment .text

   963 0001:0000C634   965 0001:0000C63D   966 0001:0000C64E   968 0001:0000C657
   969 0001:0000C65D   973 0001:0000C660   974 0001:0000C666   976 0001:0000C66F
   977 0001:0000C679   978 0001:0000C686   979 0001:0000C690   981 0001:0000C69A
   984 0001:0000C69C   985 0001:0000C6AE   986 0001:0000C6B9   987 0001:0000C6C8
   988 0001:0000C6D7   989 0001:0000C6F3   992 0001:0000C724   993 0001:0000C72F
   994 0001:0000C737   995 0001:0000C73F   996 0001:0000C747  1002 0001:0000C758
  1003 0001:0000C762  1004 0001:0000C76A  1007 0001:0000C76E  1008 0001:0000C779
  1010 0001:0000C781  1011 0001:0000C78B  1014 0001:0000C799  1005 0001:0000C79A
  1016 0001:0000C7A2  1017 0001:0000C7AA  1020 0001:0000C7B0  1021 0001:0000C7B6
  1022 0001:0000C7BE  1023 0001:0000C7C1  1024 0001:0000C7C9  1027 0001:0000C7CC
  1028 0001:0000C7CF  1029 0001:0000C7D7  1030 0001:0000C7DC  1031 0001:0000C7E4
  1035 0001:0000C7E8  1036 0001:0000C7EE  1037 0001:0000C7F6  1038 0001:0000C7FE
  1039 0001:0000C808  1040 0001:0000C810  1041 0001:0000C818  1044 0001:0000C81C
  1045 0001:0000C822  1046 0001:0000C82A  1047 0001:0000C832  1048 0001:0000C83E
  1049 0001:0000C846  1050 0001:0000C84E  1054 0001:0000C854  1055 0001:0000C858
  1056 0001:0000C860  1057 0001:0000C86A  1058 0001:0000C874  1059 0001:0000C87C
  1062 0001:0000C884  1063 0001:0000C885  1064 0001:0000C890  1066 0001:0000C89F
  1067 0001:0000C8A3  1069 0001:0000C8B2  1070 0001:0000C8BF  1073 0001:0000C8C4
  1078 0001:0000C8D4  1079 0001:0000C8E0  1082 0001:0000C8E7  1081 0001:0000C8EE
  1083 0001:0000C8FA  1084 0001:0000C904  1085 0001:0000C90D  1087 0001:0000C923
  1088 0001:0000C932  1091 0001:0000C941  1092 0001:0000C949  1094 0001:0000C952
  1095 0001:0000C95F  1076 0001:0000C96C  1097 0001:0000C979  1074 0001:0000C986
  1099 0001:0000C98C  1104 0001:0000C994  1105 0001:0000C99D  1106 0001:0000C9A7
  1107 0001:0000C9AA  1108 0001:0000C9AD  1109 0001:0000C9B0  1110 0001:0000C9B9
  1115 0001:0000C9C0  1116 0001:0000C9C9  1117 0001:0000C9D3  1118 0001:0000C9D6
  1119 0001:0000C9D9  1120 0001:0000C9E5  1121 0001:0000C9EE  1126 0001:0000C9F4
  1127 0001:0000C9FD  1128 0001:0000CA07  1129 0001:0000CA0A  1130 0001:0000CA0D
  1131 0001:0000CA19  1132 0001:0000CA22  1137 0001:0000CA28  1138 0001:0000CA31
  1139 0001:0000CA3B  1140 0001:0000CA3E  1141 0001:0000CA41  1142 0001:0000CA4D
  1143 0001:0000CA56  1147 0001:0000CA5C  1148 0001:0000CA6E  1149 0001:0000CA77
  1150 0001:0000CA86  1153 0001:0000CAA0  1154 0001:0000CAAB  1155 0001:0000CAB3
  1156 0001:0000CABF  1162 0001:0000CAD0  1163 0001:0000CAEF  1164 0001:0000CAF1
  1165 0001:0000CAFC  1166 0001:0000CB0A  1167 0001:0000CB11  1169 0001:0000CB34
  1171 0001:0000CB36  1172 0001:0000CB3D  1173 0001:0000CB3F  1176 0001:0000CB4F
  1177 0001:0000CB5A  1178 0001:0000CB72  1181 0001:0000CB98  1182 0001:0000CB9F
  1183 0001:0000CBAA  1184 0001:0000CBB8  1186 0001:0000CBCD  1188 0001:0000CBE0
  1191 0001:0000CBE4  1192 0001:0000CBF1  1193 0001:0000CBFC  1194 0001:0000CC0A
  1196 0001:0000CC23  1198 0001:0000CC36  1201 0001:0000CC3C  1202 0001:0000CC4E
  1203 0001:0000CC59  1204 0001:0000CC72  1205 0001:0000CC8B  1206 0001:0000CC8F
  1209 0001:0000CCAC  1210 0001:0000CCB7  1211 0001:0000CCBF  1212 0001:0000CCC7
  1213 0001:0000CCD3  1217 0001:0000CCE4  1218 0001:0000CCF1  1221 0001:0000CCF4
  1222 0001:0000CCF7  1223 0001:0000CCFF  1224 0001:0000CD03  1225 0001:0000CD0E
  1226 0001:0000CD12  1229 0001:0000CD14  1230 0001:0000CD17  1231 0001:0000CD1F
  1232 0001:0000CD23  1233 0001:0000CD2B  1234 0001:0000CD36  1235 0001:0000CD3A
  1239 0001:0000CD3C  1240 0001:0000CD44  1246 0001:0000CD48  1247 0001:0000CD54
  1248 0001:0000CD5B  1249 0001:0000CD64  1250 0001:0000CD6C  1253 0001:0000CD78
  1254 0001:0000CD86  1255 0001:0000CD8E  1256 0001:0000CD90  1257 0001:0000CD97
  1258 0001:0000CD9E  1259 0001:0000CDA5  1262 0001:0000CDB2  1263 0001:0000CDC3
  1265 0001:0000CDD3  1266 0001:0000CDE1  1267 0001:0000CDEB  1269 0001:0000CE01
  1271 0001:0000CE0A  1272 0001:0000CE11  1274 0001:0000CE19  1260 0001:0000CE2A
  1276 0001:0000CE3B  1278 0001:0000CE5D  1280 0001:0000CE60  1281 0001:0000CE7F
  1282 0001:0000CE97  1283 0001:0000CEBE  1286 0001:0000CECA  1287 0001:0000CED8
  1289 0001:0000CEEF  1291 0001:0000CEFB  1292 0001:0000CF05  1294 0001:0000CF11
  1295 0001:0000CF24  1297 0001:0000CF2D  1298 0001:0000CF34  1251 0001:0000CF45
  1301 0001:0000CF52  1306 0001:0000CF5C  1307 0001:0000CF60  1308 0001:0000CF64
  1309 0001:0000CF6B  1310 0001:0000CF6D  1311 0001:0000CF71  1312 0001:0000CF7E
  1313 0001:0000CF85  1316 0001:0000CF88  1317 0001:0000CF9F  1318 0001:0000CFA8
  1320 0001:0000CFAE  1321 0001:0000CFB2  1322 0001:0000CFC1  1323 0001:0000CFD2
  1324 0001:0000CFD5  1325 0001:0000CFD9  1326 0001:0000CFDD  1328 0001:0000CFE2
  1331 0001:0000D000  1332 0001:0000D00C  1334 0001:0000D012  1335 0001:0000D01B
  1337 0001:0000D025  1336 0001:0000D02C  1338 0001:0000D035  1339 0001:0000D03D
  1340 0001:0000D045  1341 0001:0000D04A  1343 0001:0000D052  1344 0001:0000D05E
  1347 0001:0000D070  1348 0001:0000D073  1349 0001:0000D079  1350 0001:0000D07D
  1351 0001:0000D084  1352 0001:0000D088  1353 0001:0000D08C  1356 0001:0000D090
  1357 0001:0000D098  1358 0001:0000D0A3  1359 0001:0000D0AE  1361 0001:0000D0B7
  1362 0001:0000D0C2  1364 0001:0000D0D8  1365 0001:0000D0DF  1367 0001:0000D0E8
  1368 0001:0000D0F3  1370 0001:0000D109  1371 0001:0000D117  1374 0001:0000D123
  1375 0001:0000D127  1372 0001:0000D12E  1378 0001:0000D147  1380 0001:0000D15A
  1385 0001:0000D19C  1386 0001:0000D1A3  1387 0001:0000D1B0  1388 0001:0000D1C6
  1389 0001:0000D1CA  1391 0001:0000D1D1  1396 0001:0000D1D3  1398 0001:0000D1D6
  1401 0001:0000D1DC  1402 0001:0000D1E3  1399 0001:0000D1EA  1404 0001:0000D1F3
  1406 0001:0000D1F7  1407 0001:0000D203  1410 0001:0000D211  1411 0001:0000D218
  1412 0001:0000D227  1408 0001:0000D22E  1414 0001:0000D23D  1415 0001:0000D249
  1418 0001:0000D250  1422 0001:0000D298  1424 0001:0000D29E  1425 0001:0000D2AB
  1426 0001:0000D2AE  1427 0001:0000D2B0  1431 0001:0000D2B4  1432 0001:0000D2BC
  1436 0001:0000D2C0  1437 0001:0000D2C8  1440 0001:0000D2CC  1441 0001:0000D2D2
  1443 0001:0000D2D8  1444 0001:0000D2E1  1445 0001:0000D2E4  1447 0001:0000D2EE
  1448 0001:0000D2F1  1451 0001:0000D2F4  1452 0001:0000D2F8  1454 0001:0000D2FF
  1455 0001:0000D301  1457 0001:0000D304  1458 0001:0000D30F  1459 0001:0000D313
  1460 0001:0000D318  1462 0001:0000D32E  1465 0001:0000D338  1466 0001:0000D33B
  1467 0001:0000D341  1468 0001:0000D357  1470 0001:0000D35D  1471 0001:0000D364
  1472 0001:0000D369  1474 0001:0000D371  1477 0001:0000D394  1478 0001:0000D398
  1480 0001:0000D3A7  1482 0001:0000D3B1  1481 0001:0000D3B8  1484 0001:0000D3C1
  1488 0001:0000D3C4  1489 0001:0000D3D6  1490 0001:0000D3DF  1491 0001:0000D3ED
  1492 0001:0000D3FB  1493 0001:0000D3FF  1494 0001:0000D40D  1497 0001:0000D428
  1498 0001:0000D42B  1499 0001:0000D432  1500 0001:0000D438  1503 0001:0000D43C
  1504 0001:0000D43F  1505 0001:0000D446  1506 0001:0000D44C  1509 0001:0000D450
  1510 0001:0000D453  1511 0001:0000D45A  1512 0001:0000D460  1524 0001:0000D464
  1529 0001:0000D46E  1536 0001:0000D48D  1537 0001:0000D49B  1539 0001:0000D4B2
  1541 0001:0000D4C1  1543 0001:0000D4CD  1545 0001:0000D4D9  1548 0001:0000D4F8
  1549 0001:0000D506  1550 0001:0000D51D  1555 0001:0000D522  1556 0001:0000D52C
  1559 0001:0000D534  1560 0001:0000D538  1561 0001:0000D554  1562 0001:0000D55A
  1563 0001:0000D57F  1565 0001:0000D583  1568 0001:0000D591  1570 0001:0000D598
  1572 0001:0000D5A1  1573 0001:0000D5A7  1574 0001:0000D5B1  1575 0001:0000D5BB
  1576 0001:0000D5C5  1577 0001:0000D5D3  1578 0001:0000D5E1  1579 0001:0000D5E9
  1582 0001:0000D5EC  1583 0001:0000D600  1584 0001:0000D618  1586 0001:0000D633
  1588 0001:0000D643  1589 0001:0000D64E  1591 0001:0000D65C  1593 0001:0000D678
  1594 0001:0000D69A  1595 0001:0000D6A6  1597 0001:0000D6C0  1598 0001:0000D6D8
  1601 0001:0000D6F1  1602 0001:0000D6F8  1603 0001:0000D6FD  1606 0001:0000D748
  1607 0001:0000D74B  1608 0001:0000D752  1609 0001:0000D760  1610 0001:0000D76E
  1611 0001:0000D772  1614 0001:0000D774  1615 0001:0000D780  1616 0001:0000D784
  1620 0001:0000D791  1622 0001:0000D7B7  1623 0001:0000D7BB  1625 0001:0000D7C0
  1626 0001:0000D7CB  1628 0001:0000D7D4  1629 0001:0000D7E3  1630 0001:0000D802
  1631 0001:0000D813  1634 0001:0000D819  1635 0001:0000D827  1636 0001:0000D836
  1637 0001:0000D844  1639 0001:0000D87B  1641 0001:0000D880  1642 0001:0000D88B
  1648 0001:0000D898  1649 0001:0000D8A0  1650 0001:0000D8B2  1651 0001:0000D8CE
  1652 0001:0000D8E6  1653 0001:0000D902  1654 0001:0000D90F  1655 0001:0000D91B
  1658 0001:0000D92C  1659 0001:0000D934  1660 0001:0000D93B  1662 0001:0000D93F
  1663 0001:0000D977  1667 0001:0000D980  1668 0001:0000D98B  1669 0001:0000D98D
  1673 0001:0000D990  1674 0001:0000D997  1675 0001:0000D99F  1679 0001:0000D9A0
  1680 0001:0000D9A2  1683 0001:0000D9A4  1684 0001:0000D9AB  1685 0001:0000D9AD
  1686 0001:0000D9B4  1687 0001:0000D9D5  1688 0001:0000DA0D  1692 0001:0000DA14
  1693 0001:0000DA19  1694 0001:0000DA22  1695 0001:0000DA26  1699 0001:0000DA28
  1700 0001:0000DA2D  1701 0001:0000DA36  1702 0001:0000DA3A  1705 0001:0000DA3C
  1707 0001:0000DA45  1708 0001:0000DA4F  1709 0001:0000DA58  1710 0001:0000DA63
  1714 0001:0000DA68  1715 0001:0000DA72  1716 0001:0000DA80  1718 0001:0000DA97
  1719 0001:0000DA9C  1720 0001:0000DAA3  1723 0001:0000DAAC  1724 0001:0000DAAF
  1725 0001:0000DAB6  1726 0001:0000DABE  1730 0001:0000DAC0  1731 0001:0000DAD2
  1735 0001:0000DADB  1739 0001:0000DAF8  1740 0001:0000DAFF  1743 0001:0000DB00
  1745 0001:0000DB09  1746 0001:0000DB13  1747 0001:0000DB1C  1748 0001:0000DB27
  1751 0001:0000DB2C  1752 0001:0000DB36  1753 0001:0000DB3B  1754 0001:0000DB43
  1755 0001:0000DB51  1757 0001:0000DB5A  1758 0001:0000DB65  1759 0001:0000DB6C
  1761 0001:0000DB74  1763 0001:0000DB87  1765 0001:0000DB97  1770 0001:0000DB9C
  1771 0001:0000DBA6  1772 0001:0000DBA8  1773 0001:0000DBAE  1774 0001:0000DBB5
  1775 0001:0000DBC1  1776 0001:0000DBD3  1777 0001:0000DBDD  1778 0001:0000DBDF
  1783 0001:0000DBE8  1784 0001:0000DBF2  1785 0001:0000DBF4  1786 0001:0000DBFA
  1787 0001:0000DC01  1788 0001:0000DC0D  1789 0001:0000DC1E  1790 0001:0000DC27
  1791 0001:0000DC29  1794 0001:0000DC30  1795 0001:0000DC42  1796 0001:0000DC4B
  1797 0001:0000DC5D  1800 0001:0000DC78  1801 0001:0000DC83  1802 0001:0000DC8A
  1803 0001:0000DC95  1804 0001:0000DCA1  1814 0001:0000DCB0  1815 0001:0000DCB3
  1816 0001:0000DCC1  1817 0001:0000DCC8  1823 0001:0000DCCC  1824 0001:0000DCD3
  1825 0001:0000DCD6  1826 0001:0000DCE1  1827 0001:0000DCE8  1828 0001:0000DCF6
  1835 0001:0000DD00  1836 0001:0000DD11  1837 0001:0000DD17  1838 0001:0000DD1A
  1841 0001:0000DD1E  1842 0001:0000DD25  1843 0001:0000DD33  1844 0001:0000DD39
  1845 0001:0000DD4A  1839 0001:0000DD4D  1847 0001:0000DD5B  1848 0001:0000DD65
  1855 0001:0000DD70  1856 0001:0000DD7F  1858 0001:0000DD83  1859 0001:0000DD88
  1861 0001:0000DD8D  1862 0001:0000DD9B  1863 0001:0000DDA6  1864 0001:0000DDA9
  1865 0001:0000DDAC  1868 0001:0000DDB3  1869 0001:0000DDB6  1870 0001:0000DDC4
  1871 0001:0000DDD8  1866 0001:0000DDDE  1873 0001:0000DDED  1875 0001:0000DE08
  1877 0001:0000DE1B  1878 0001:0000DE25  1882 0001:0000DE30  1883 0001:0000DE45
  1884 0001:0000DE55  1898 0001:0000DE74  1899 0001:0000DEA6  1900 0001:0000DEAD
  1904 0001:0000DED9  1911 0001:0000DF1F  1913 0001:0000DF25  1914 0001:0000DF46
  1917 0001:0000DF88  1922 0001:0000DF93  1924 0001:0000DF9F  1925 0001:0000DFAB
  1930 0001:0000DFBC  1931 0001:0000DFC7  1935 0001:0000DFC8  1936 0001:0000DFD3
  1940 0001:0000DFD4  1941 0001:0000DFDF  1945 0001:0000DFE0  1946 0001:0000DFEB
  1950 0001:0000DFEC  1951 0001:0000DFF2  1954 0001:0000DFF9  1955 0001:0000E006
  1956 0001:0000E011  1959 0001:0000E014  1960 0001:0000E01A  1963 0001:0000E021
  1964 0001:0000E02E  1965 0001:0000E03B  1970 0001:0000E040  1971 0001:0000E04B
  1975 0001:0000E04C  1976 0001:0000E057  1980 0001:0000E058  1981 0001:0000E063
  1985 0001:0000E064  1986 0001:0000E06A  1987 0001:0000E077  1988 0001:0000E082
  1991 0001:0000E088  1992 0001:0000E08E  1993 0001:0000E09B  1994 0001:0000E0A8
  1997 0001:0000E0AC  1998 0001:0000E0BE  2000 0001:0000E0C7  2001 0001:0000E0D9
  2002 0001:0000E0EB  2004 0001:0000E0FD  2005 0001:0000E10F  2008 0001:0000E12C
  2010 0001:0000E137  2011 0001:0000E142  2012 0001:0000E14D  2014 0001:0000E158
  2015 0001:0000E163  2016 0001:0000E16F  2019 0001:0000E180  2020 0001:0000E192
  2022 0001:0000E19B  2023 0001:0000E1AD  2024 0001:0000E1BF  2026 0001:0000E1D1
  2029 0001:0000E1EC  2030 0001:0000E1F7  2031 0001:0000E202  2032 0001:0000E20D
  2033 0001:0000E218  2034 0001:0000E224  2037 0001:0000E234  2038 0001:0000E23A
  2039 0001:0000E241  2040 0001:0000E251  2041 0001:0000E277  2042 0001:0000E285
  2043 0001:0000E292  2046 0001:0000E2A0  2047 0001:0000E2A6  2048 0001:0000E2AD
  2049 0001:0000E2B6  2053 0001:0000E2BC  2054 0001:0000E2C4  2058 0001:0000E2C8
  2059 0001:0000E2D0  2064 0001:0000E2D4  2069 0001:0000E2D8  2075 0001:0000E2DC
  2076 0001:0000E2EC  2077 0001:0000E2F7  2078 0001:0000E2FC  2079 0001:0000E30A
  2081 0001:0000E313  2082 0001:0000E317  2085 0001:0000E320  2086 0001:0000E32C
  2087 0001:0000E331  2090 0001:0000E33A  2091 0001:0000E347  2093 0001:0000E374
  2094 0001:0000E37B  2096 0001:0000E395  2097 0001:0000E3A3  2101 0001:0000E3B5
  2103 0001:0000E3CF  2104 0001:0000E3D6  2105 0001:0000E3DF  2108 0001:0000E3EF
  2109 0001:0000E3F7  2111 0001:0000E3FF  2112 0001:0000E410  2113 0001:0000E415
  2114 0001:0000E421  2115 0001:0000E426  2118 0001:0000E42F  2119 0001:0000E43C
  2120 0001:0000E469  2125 0001:0000E47D  2127 0001:0000E490  2130 0001:0000E498
  2131 0001:0000E4A5  2132 0001:0000E4B0  2133 0001:0000E4BE  2135 0001:0000E4C7
  2136 0001:0000E4CB  2139 0001:0000E4D1  2140 0001:0000E4DD  2141 0001:0000E4EA
  2143 0001:0000E517  2144 0001:0000E525  2146 0001:0000E52C  2147 0001:0000E531
  2150 0001:0000E545  2152 0001:0000E558  2156 0001:0000E560  2157 0001:0000E568
  2161 0001:0000E56C  2162 0001:0000E574  2166 0001:0000E578  2167 0001:0000E57B
  2168 0001:0000E58A  2172 0001:0000E594  2173 0001:0000E597  2177 0001:0000E598
  2182 0001:0000E59C  2184 0001:0000E5A2  2185 0001:0000E5A8  2187 0001:0000E5AC
  2189 0001:0000E5AF  2190 0001:0000E5B1  2194 0001:0000E5B4  2195 0001:0000E5BC
  2199 0001:0000E5C0  2200 0001:0000E5C8  2204 0001:0000E5CC  2205 0001:0000E5D4
  2208 0001:0000E5D8  2209 0001:0000E5F8  2210 0001:0000E603  2211 0001:0000E60E
  2214 0001:0000E630  2215 0001:0000E650  2216 0001:0000E658  2217 0001:0000E663
  2220 0001:0000E684  2221 0001:0000E687  2222 0001:0000E68D  2223 0001:0000E6A3
  2224 0001:0000E6AB  2225 0001:0000E6AF  2226 0001:0000E6BE  2227 0001:0000E6CC
  2230 0001:0000E6EC  2231 0001:0000E6F6  2232 0001:0000E702  2234 0001:0000E708
  2236 0001:0000E713  2237 0001:0000E717  2238 0001:0000E71B  2239 0001:0000E71F
  2240 0001:0000E723  2243 0001:0000E72C  2245 0001:0000E732  2250 0001:0000E73F
  2252 0001:0000E74A  2253 0001:0000E74E  2254 0001:0000E752  2255 0001:0000E759
  2258 0001:0000E764  2261 0001:0000E76C  2262 0001:0000E76F  2263 0001:0000E777
  2265 0001:0000E77D  2266 0001:0000E781  2267 0001:0000E785  2268 0001:0000E789
  2269 0001:0000E78D  2271 0001:0000E794  2272 0001:0000E798  2275 0001:0000E79C
  2276 0001:0000E79F  2277 0001:0000E7AC  2278 0001:0000E7B4  2281 0001:0000E7B8
  2282 0001:0000E7BB  2283 0001:0000E7C3  2284 0001:0000E7D0  2288 0001:0000E7D4
  2289 0001:0000E7DE  2293 0001:0000E7E0  2294 0001:0000E7EA  2298 0001:0000E7EC
  2299 0001:0000E7F0  2303 0001:0000E7F4  2304 0001:0000E7FE  2307 0001:0000E800
  2308 0001:0000E818  2309 0001:0000E821  2310 0001:0000E824  2312 0001:0000E82F
  2313 0001:0000E832  2314 0001:0000E838  2315 0001:0000E847  2318 0001:0000E868
  2319 0001:0000E873  2320 0001:0000E87B  2321 0001:0000E883  2322 0001:0000E88F
  2326 0001:0000E8A0  2327 0001:0000E8A8  2331 0001:0000E8AC  2332 0001:0000E8B4
  2337 0001:0000E8B8  2338 0001:0000E8C4  2339 0001:0000E8DA  2340 0001:0000E8EC
  2341 0001:0000E8F6  2343 0001:0000E8FA  2345 0001:0000E901  2347 0001:0000E905
  2348 0001:0000E910  2349 0001:0000E919  2352 0001:0000E91E  2354 0001:0000E923
  2359 0001:0000E92C  2360 0001:0000E936  2361 0001:0000E94A  2362 0001:0000E95C
  2363 0001:0000E964  2365 0001:0000E968  2367 0001:0000E96E  2369 0001:0000E972
  2370 0001:0000E97A  2371 0001:0000E983  2374 0001:0000E987  2376 0001:0000E98E
  2379 0001:0000E994  2380 0001:0000E999  2381 0001:0000E9A9  2385 0001:0000E9AC
  2386 0001:0000E9B1  2387 0001:0000E9C1  2394 0001:0000E9C4  2395 0001:0000E9D2
  2396 0001:0000E9E0  2398 0001:0000E9E4  2400 0001:0000E9F0  2401 0001:0000E9FC
  2402 0001:0000E9FE  2405 0001:0000EA03  2407 0001:0000EA07  2409 0001:0000EA0D
  2410 0001:0000EA1B  2411 0001:0000EA29  2412 0001:0000EA2B  2414 0001:0000EA30
  2415 0001:0000EA37  2417 0001:0000EA3D  2418 0001:0000EA3F  2420 0001:0000EA41
  2405 0001:0000EA4F  2424 0001:0000EA53  2426 0001:0000EA56  2428 0001:0000EA65
  2430 0001:0000EA6B  2431 0001:0000EA78  2432 0001:0000EA7A  2435 0001:0000EA8C
  2436 0001:0000EA9B  2437 0001:0000EA9F  2439 0001:0000EAB1  2446 0001:0000EABC
  2447 0001:0000EACA  2448 0001:0000EAD1  2450 0001:0000EAD7  2451 0001:0000EAD9
  2453 0001:0000EADE  2454 0001:0000EAE7  2456 0001:0000EAEB  2458 0001:0000EAEF
  2459 0001:0000EAF6  2461 0001:0000EAFC  2462 0001:0000EAFE  2464 0001:0000EB00
  2456 0001:0000EB13  2468 0001:0000EB17  2470 0001:0000EB26  2472 0001:0000EB2C
  2473 0001:0000EB3B  2474 0001:0000EB3D  2477 0001:0000EB4F  2478 0001:0000EB60
  2479 0001:0000EB64  2481 0001:0000EB76  2484 0001:0000EB80  2485 0001:0000EB82
  2486 0001:0000EB9E  2489 0001:0000EBA0  2490 0001:0000EBA2  2491 0001:0000EBB9
  2495 0001:0000EBBC  2496 0001:0000EBC7  2499 0001:0000EBC8  2500 0001:0000EBCB
  2501 0001:0000EBD3  2502 0001:0000EBE1  2503 0001:0000EBEF  2504 0001:0000EBF3
  2505 0001:0000EBF7  2506 0001:0000EBFF  2510 0001:0000EC04  2511 0001:0000EC10
  2515 0001:0000EC14  2516 0001:0000EC17  2517 0001:0000EC1F  2518 0001:0000EC2D
  2519 0001:0000EC3B  2520 0001:0000EC3F  2521 0001:0000EC43  2522 0001:0000EC4B
  2525 0001:0000EC50  2526 0001:0000EC54  2528 0001:0000EC5B  2529 0001:0000EC62
  2530 0001:0000EC68  2532 0001:0000EC77  2533 0001:0000EC79  2537 0001:0000EC80
  2538 0001:0000EC87  2540 0001:0000EC8F  2541 0001:0000EC91  2545 0001:0000EC94
  2546 0001:0000EC9B  2548 0001:0000ECA3  2549 0001:0000ECA5  2553 0001:0000ECA8
  2554 0001:0000ECA9  2555 0001:0000ECB0  2556 0001:0000ECB7  2561 0001:0000ECBC
  2562 0001:0000ECD6  2563 0001:0000ECDF  2564 0001:0000ECE3  2565 0001:0000ECED
  2566 0001:0000ECFF  2567 0001:0000ED04  2570 0001:0000ED28  2571 0001:0000ED33
  2572 0001:0000ED3A  2573 0001:0000ED42  2574 0001:0000ED49  2575 0001:0000ED54
  2576 0001:0000ED5C  2577 0001:0000ED68  2581 0001:0000ED78  2582 0001:0000ED7E
  2586 0001:0000ED80  2587 0001:0000ED87  2592 0001:0000ED88  2595 0001:0000ED8C
  2597 0001:0000ED8F  2600 0001:0000ED94  2601 0001:0000ED97  2602 0001:0000EDA7
  2606 0001:0000EDB4  2607 0001:0000EDB6  2610 0001:0000EDB8  2611 0001:0000EDBE
  2612 0001:0000EDCC  2615 0001:0000EDD8  2616 0001:0000EDDB  2617 0001:0000EE00
  2620 0001:0000EE04  2621 0001:0000EE0A  2622 0001:0000EE43  2625 0001:0000EE48
  2626 0001:0000EE51  2627 0001:0000EE5D  2633 0001:0000EE64  2634 0001:0000EE6C
  2635 0001:0000EE6E  2636 0001:0000EE70  2637 0001:0000EE74  2636 0001:0000EE86
  2638 0001:0000EE8A  2639 0001:0000EE8C  2643 0001:0000EE94  2644 0001:0000EE9C
  2647 0001:0000EEA0  2648 0001:0000EEA6  2649 0001:0000EEB0  2650 0001:0000EEB5
  2653 0001:0000EEB8  2654 0001:0000EEBB  2655 0001:0000EEC6  2656 0001:0000EECB
  2662 0001:0000EED0  2663 0001:0000EED7  2666 0001:0000EEE3  2667 0001:0000EEF0
  2669 0001:0000EF06  2671 0001:0000EF0C  2674 0001:0000EF13  2675 0001:0000EF15
  2676 0001:0000EF1D  2678 0001:0000EF39  2679 0001:0000EF54  2680 0001:0000EF59
  2679 0001:0000EF6F  2683 0001:0000EF76  2684 0001:0000EF7E  2686 0001:0000EF80
  2688 0001:0000EF88  2664 0001:0000EF8F  2690 0001:0000EF99  2691 0001:0000EFA3
  2692 0001:0000EFAA  2695 0001:0000EFC8  2696 0001:0000EFF6  2697 0001:0000F011
  2698 0001:0000F027  2699 0001:0000F038  2700 0001:0000F04A  2701 0001:0000F04E
  2702 0001:0000F05C  2703 0001:0000F068  2704 0001:0000F071  2705 0001:0000F076
  2708 0001:0000F0B4  2709 0001:0000F0E2  2710 0001:0000F101  2711 0001:0000F113
  2712 0001:0000F129  2713 0001:0000F13C  2714 0001:0000F140  2715 0001:0000F14E
  2716 0001:0000F15A  2717 0001:0000F163  2718 0001:0000F168  2721 0001:0000F1A8
  2722 0001:0000F1B3  2724 0001:0000F1BD  2723 0001:0000F1C4  2725 0001:0000F1D0
  2726 0001:0000F1D8  2727 0001:0000F1E3  2728 0001:0000F1EF  2731 0001:0000F200
  2733 0001:0000F203  2734 0001:0000F20D  2736 0001:0000F216  2739 0001:0000F21C
  2746 0001:0000F228  2747 0001:0000F233  2748 0001:0000F242  2749 0001:0000F259
  2750 0001:0000F265  2751 0001:0000F270  2761 0001:0000F280  2765 0001:0000F2A3

Line numbers for ACS_Classes(ACS_Classes.pas) segment .itext

  2754 0002:000000A0  2756 0002:000000A9  2757 0002:000000B0  2760 0002:000000C1

Line numbers for ACS_Wave(ACS_Wave.pas) segment .text

   410 0001:0000F6B8   411 0001:0000F6C7   412 0001:0000F6D4   413 0001:0000F6D9
   414 0001:0000F6E0   415 0001:0000F6E7   417 0001:0000F6FD   418 0001:0000F701
   419 0001:0000F708   420 0001:0000F70D   421 0001:0000F711   422 0001:0000F717
   423 0001:0000F721   424 0001:0000F725   425 0001:0000F72C   426 0001:0000F730
   427 0001:0000F73B   428 0001:0000F73F   429 0001:0000F74B   430 0001:0000F751
   431 0001:0000F753   432 0001:0000F760   433 0001:0000F76D   434 0001:0000F770
   435 0001:0000F77C   436 0001:0000F786   437 0001:0000F790   438 0001:0000F796
   415 0001:0000F797   439 0001:0000F7A0   440 0001:0000F7A9   448 0001:0000F7B4
   449 0001:0000F7C6   450 0001:0000F7D6   451 0001:0000F7DB   452 0001:0000F7E5
   453 0001:0000F7EF   455 0001:0000F803   456 0001:0000F807   457 0001:0000F82E
   458 0001:0000F833   459 0001:0000F837   460 0001:0000F83D   461 0001:0000F847
   462 0001:0000F84B   463 0001:0000F852   464 0001:0000F856   465 0001:0000F861
   466 0001:0000F865   467 0001:0000F871   468 0001:0000F877   469 0001:0000F879
   470 0001:0000F886   471 0001:0000F893   472 0001:0000F897   473 0001:0000F8A3
   474 0001:0000F8AD   475 0001:0000F8B7   476 0001:0000F8BD   453 0001:0000F8BE
   477 0001:0000F8C7   478 0001:0000F8CC   479 0001:0000F8DD   480 0001:0000F8E4
   481 0001:0000F8EE   482 0001:0000F8F8   484 0001:0000F90C   485 0001:0000F910
   486 0001:0000F938   487 0001:0000F93D   488 0001:0000F941   489 0001:0000F947
   490 0001:0000F951   491 0001:0000F955   492 0001:0000F95C   493 0001:0000F960
   494 0001:0000F96B   495 0001:0000F96F   496 0001:0000F97B   497 0001:0000F981
   498 0001:0000F983   499 0001:0000F990   500 0001:0000F99D   501 0001:0000F9A1
   502 0001:0000F9AD   503 0001:0000F9B7   504 0001:0000F9C1   505 0001:0000F9C7
   482 0001:0000F9C8   506 0001:0000F9D1   507 0001:0000F9E1   512 0001:0000F9EC
   513 0001:0000F9F8   514 0001:0000F9FD   515 0001:0000FA0B   516 0001:0000FA0E
   517 0001:0000FA1C   518 0001:0000FA1F   520 0001:0000FA3A   522 0001:0000FA74
   523 0001:0000FA81   524 0001:0000FA86   526 0001:0000FA99   527 0001:0000FAA5
   528 0001:0000FAB2   529 0001:0000FABF   530 0001:0000FAC6   531 0001:0000FAC9
   532 0001:0000FAEF   533 0001:0000FB02   534 0001:0000FB10   536 0001:0000FB17
   538 0001:0000FB51   539 0001:0000FB61   540 0001:0000FB66   542 0001:0000FB79
   543 0001:0000FB85   544 0001:0000FB92   545 0001:0000FB9F   546 0001:0000FBA6
   547 0001:0000FBA9   548 0001:0000FBCF   549 0001:0000FBE2   550 0001:0000FBF0
   551 0001:0000FBF7   518 0001:0000FBFA   552 0001:0000FC03   553 0001:0000FC0D
   558 0001:0000FC18   559 0001:0000FC24   560 0001:0000FC29   561 0001:0000FC37
   562 0001:0000FC3A   563 0001:0000FC48   564 0001:0000FC4B   565 0001:0000FC59
   566 0001:0000FC5C   567 0001:0000FC6A   568 0001:0000FC6D   570 0001:0000FC86
   572 0001:0000FCC0   573 0001:0000FCCD   574 0001:0000FCD2   576 0001:0000FCE5
   577 0001:0000FCF1   578 0001:0000FCFE   579 0001:0000FD0B   580 0001:0000FD12
   581 0001:0000FD15   582 0001:0000FD3B   583 0001:0000FD4E   584 0001:0000FD5C
   586 0001:0000FD63   588 0001:0000FD9D   589 0001:0000FDAD   590 0001:0000FDB2
   592 0001:0000FDC5   593 0001:0000FDD1   594 0001:0000FDDE   595 0001:0000FDEB
   596 0001:0000FDF2   597 0001:0000FDF5   598 0001:0000FE1B   599 0001:0000FE2E
   600 0001:0000FE3C   601 0001:0000FE43   568 0001:0000FE46   602 0001:0000FE4F
   603 0001:0000FE59   608 0001:0000FE64   609 0001:0000FE6B   610 0001:0000FE6F
   612 0001:0000FE71   613 0001:0000FE7D   614 0001:0000FE89   610 0001:0000FE8A
   615 0001:0000FE8F   616 0001:0000FE93   723 0001:0000FE9C   724 0001:0000FEAE
   725 0001:0000FEB7   726 0001:0000FEBE   729 0001:0000FED8   730 0001:0000FEE3
   731 0001:0000FEEF   743 0001:0000FF00   744 0001:0000FF0A   745 0001:0000FF18
   746 0001:0000FF26   748 0001:0000FF36   749 0001:0000FF40   750 0001:0000FF4A
   751 0001:0000FF54   752 0001:0000FF5D   753 0001:0000FF7A   754 0001:0000FF82
   757 0001:0000FFBC   761 0001:0000FFCB   762 0001:0000FFD7   763 0001:0000FFE1
   764 0001:0000FFEE   768 0001:00010012   769 0001:0001001F   773 0001:00010043
   774 0001:0001004F   776 0001:0001005B   777 0001:00010076   787 0001:00010088
   788 0001:00010097   790 0001:000100A5   791 0001:000100B4   792 0001:000100C2
   794 0001:000100CA   795 0001:000100CF   796 0001:000100D4   799 0001:000100F1
   801 0001:000100F5   802 0001:000100FF   803 0001:00010107   805 0001:00010116
   807 0001:00010122   808 0001:0001012C   809 0001:00010134   812 0001:00010143
   813 0001:00010158   814 0001:00010167   815 0001:00010177   816 0001:00010186
   817 0001:00010198   818 0001:000101A9   819 0001:000101BF   820 0001:000101D1
   822 0001:000101D9   825 0001:000101F0   850 0001:00010200   853 0001:00010216
   855 0001:0001022C   858 0001:00010234   859 0001:0001023C   860 0001:0001024A
   861 0001:00010258   863 0001:00010268   864 0001:0001027E   865 0001:00010296
   867 0001:000102A2   869 0001:000102AE   870 0001:000102BA   873 0001:000102CB
   874 0001:000102D3   877 0001:000102E1   880 0001:000102EC   883 0001:00010304
   885 0001:0001031A   891 0001:00010320   892 0001:0001032D   893 0001:00010349
   895 0001:00010355   898 0001:0001038C   899 0001:00010393   900 0001:000103AA
   901 0001:000103B5   903 0001:000103C2   905 0001:000103CB   906 0001:000103DF
   909 0001:000103EF   910 0001:00010403   911 0001:0001040C   915 0001:00010418
   916 0001:0001041F   918 0001:00010425   919 0001:00010429   920 0001:00010430
   922 0001:00010435   927 0001:0001043F   928 0001:00010446   930 0001:0001044F
   931 0001:0001045D   932 0001:00010468   934 0001:00010475   935 0001:00010483
   936 0001:00010497   937 0001:0001049E   938 0001:000104AA   941 0001:000104B4
   942 0001:000104C2   943 0001:000104CD   945 0001:000104DA   946 0001:000104E8
   947 0001:000104FC   948 0001:00010503   949 0001:0001050F   954 0001:00010519
   955 0001:00010520   956 0001:00010543   957 0001:00010555   961 0001:0001055D
   962 0001:00010564   963 0001:00010584   964 0001:00010596   966 0001:0001059F
   967 0001:000105AC   970 0001:000105B1   971 0001:000105BE   976 0001:000105CA
   977 0001:000105D1   981 0001:000105E4   982 0001:000105FE   983 0001:0001060B
   984 0001:0001060D   985 0001:00010619   986 0001:0001061E   991 0001:00010648
   992 0001:00010652   993 0001:00010654   994 0001:0001065B   995 0001:00010660
   998 0001:0001067C   999 0001:000106A9  1003 0001:000106C2  1004 0001:000106EE
  1008 0001:00010704  1009 0001:00010730  1013 0001:00010746  1016 0001:00010748
  1019 0001:00010750  1020 0001:00010757  1021 0001:0001075E  1022 0001:0001076D
  1023 0001:00010775  1024 0001:0001077D  1025 0001:00010784  1026 0001:0001078A
  1027 0001:00010796  1028 0001:000107A1  1029 0001:000107AF  1030 0001:000107BF
  1031 0001:000107CB  1032 0001:000107D3  1033 0001:000107DC  1036 0001:000107F0
  1037 0001:000107F7  1038 0001:000107FE  1039 0001:0001080D  1040 0001:00010815
  1041 0001:0001081D  1042 0001:00010824  1043 0001:0001082A  1044 0001:00010836
  1045 0001:00010841  1046 0001:0001084F  1047 0001:0001085F  1048 0001:0001086B
  1049 0001:00010873  1050 0001:0001087D  1052 0001:00010886  1053 0001:0001088C
  1055 0001:00010895  1056 0001:0001089B  1058 0001:000108A4  1059 0001:000108AA
  1060 0001:000108B1  1061 0001:000108C1  1062 0001:000108C7  1063 0001:000108CF
  1064 0001:000108D8  1070 0001:000108EC  1071 0001:000108F6  1072 0001:00010909
  1073 0001:00010917  1074 0001:0001092A  1075 0001:00010939  1076 0001:0001094C
  1077 0001:0001095B  1078 0001:00010962  1079 0001:00010968  1080 0001:00010974
  1081 0001:0001097F  1082 0001:00010985  1083 0001:00010990  1084 0001:000109C3
  1085 0001:000109C9  1086 0001:000109E4  1087 0001:00010A13  1088 0001:00010A3A
  1089 0001:00010A40  1090 0001:00010A53  1091 0001:00010A62  1092 0001:00010A75
  1093 0001:00010A84  1094 0001:00010A8B  1095 0001:00010A8E  1102 0001:00010AC0
  1103 0001:00010AD1  1104 0001:00010AE8  1105 0001:00010AF7  1106 0001:00010B05
  1107 0001:00010B15  1108 0001:00010B1F  1109 0001:00010B29  1111 0001:00010B4E
  1112 0001:00010B5C  1114 0001:00010B60  1115 0001:00010B62  1116 0001:00010B66
  1117 0001:00010B68  1119 0001:00010B73  1120 0001:00010B76  1122 0001:00010B78
  1124 0001:00010B80  1125 0001:00010B83  1127 0001:00010B85  1128 0001:00010B8C
  1129 0001:00010B8F  1130 0001:00010B98  1131 0001:00010B9F  1133 0001:00010BA8
  1134 0001:00010BB8  1135 0001:00010BC4  1136 0001:00010BCB  1137 0001:00010BD6
  1138 0001:00010BE0  1139 0001:00010BE7  1140 0001:00010BE9  1141 0001:00010BF6
  1142 0001:00010C03  1143 0001:00010C0D  1144 0001:00010C17  1145 0001:00010C1D
  1109 0001:00010C21  1146 0001:00010C2B  1148 0001:00010C34  1155 0001:00010C3C
  1156 0001:00010C4D  1157 0001:00010C64  1158 0001:00010C73  1159 0001:00010C81
  1160 0001:00010C91  1161 0001:00010CA0  1162 0001:00010CAE  1163 0001:00010CB6
  1164 0001:00010CCF  1165 0001:00010CD9  1166 0001:00010CE3  1168 0001:00010D05
  1169 0001:00010D15  1171 0001:00010D19  1172 0001:00010D1B  1173 0001:00010D1F
  1174 0001:00010D21  1176 0001:00010D2C  1177 0001:00010D2F  1179 0001:00010D31
  1181 0001:00010D39  1182 0001:00010D3C  1184 0001:00010D3E  1185 0001:00010D45
  1186 0001:00010D48  1187 0001:00010D4E  1188 0001:00010D73  1189 0001:00010D7A
  1191 0001:00010D83  1192 0001:00010D93  1193 0001:00010D9F  1194 0001:00010DA6
  1195 0001:00010DB1  1196 0001:00010DBB  1197 0001:00010DC2  1198 0001:00010DC4
  1199 0001:00010DD1  1200 0001:00010DDE  1201 0001:00010DE8  1202 0001:00010DF2
  1203 0001:00010DF8  1166 0001:00010DFC  1204 0001:00010E06  1205 0001:00010E0F
  1206 0001:00010E19  1207 0001:00010E23  1208 0001:00010E2D  1210 0001:00010E4F
  1211 0001:00010E60  1213 0001:00010E64  1214 0001:00010E66  1215 0001:00010E6A
  1216 0001:00010E6C  1218 0001:00010E77  1219 0001:00010E7A  1221 0001:00010E7C
  1223 0001:00010E84  1224 0001:00010E87  1226 0001:00010E89  1227 0001:00010E90
  1228 0001:00010E93  1229 0001:00010E99  1230 0001:00010EBE  1231 0001:00010EC5
  1233 0001:00010ECE  1234 0001:00010EDE  1235 0001:00010EEA  1236 0001:00010EF1
  1237 0001:00010EFC  1238 0001:00010F06  1239 0001:00010F0D  1240 0001:00010F0F
  1241 0001:00010F1C  1242 0001:00010F29  1243 0001:00010F33  1244 0001:00010F3D
  1245 0001:00010F43  1208 0001:00010F47  1246 0001:00010F51  1247 0001:00010F5A
  1248 0001:00010F64  1251 0001:00010F6C  1252 0001:00010F7E  1253 0001:00010F87
  1254 0001:00010F8E  1255 0001:00010F97  1256 0001:00010F9E  1259 0001:00010FB8
  1260 0001:00010FC3  1261 0001:00010FCF  1265 0001:00010FE0  1266 0001:00010FE6
  1267 0001:00010FF0  1268 0001:00010FF6  1275 0001:00010FF8  1276 0001:0001101B
  1277 0001:00011022  1279 0001:0001102C  1280 0001:00011051  1281 0001:0001107A
  1282 0001:000110A4  1284 0001:000110CC  1285 0001:000110D4  1286 0001:000110EE
  1287 0001:000110F7  1288 0001:000110FE  1290 0001:00011118  1291 0001:0001111F
  1293 0001:0001112B  1294 0001:00011133  1296 0001:00011139  1297 0001:00011141
  1299 0001:00011146  1301 0001:0001115C  1303 0001:00011169  1306 0001:00011189
  1308 0001:000111A7  1312 0001:000111DD  1313 0001:000111E5  1315 0001:000111EB
  1316 0001:000111F3  1318 0001:000111F8  1320 0001:0001120E  1323 0001:00011221
  1324 0001:0001122B  1325 0001:00011244  1330 0001:0001125F  1331 0001:00011269
  1332 0001:00011282  1336 0001:0001129D  1338 0001:000112AA  1339 0001:000112B2
  1341 0001:000112B8  1342 0001:000112C0  1344 0001:000112C5  1347 0001:000112DB
  1349 0001:000112F5  1352 0001:00011318  1353 0001:00011320  1355 0001:00011326
  1356 0001:0001132E  1358 0001:00011333  1360 0001:00011349  1363 0001:00011359
  1364 0001:00011366  1365 0001:0001137E  1366 0001:00011394  1367 0001:0001139B
  1371 0001:000113A2  1379 0001:000114A4  1380 0001:000114AD  1383 0001:000114D3
  1386 0001:000114EF  1388 0001:000114F8  1389 0001:00011508  1390 0001:00011518
  1393 0001:0001152C  1394 0001:00011539  1395 0001:00011548  1400 0001:0001155C
  1401 0001:00011569  1402 0001:00011578  1406 0001:0001158C  1408 0001:00011599
  1409 0001:000115A9  1410 0001:000115B9  1411 0001:000115C8  1412 0001:000115D8
  1413 0001:0001160B  1416 0001:0001161F  1417 0001:0001162C  1418 0001:00011638
  1419 0001:00011649  1420 0001:00011650  1421 0001:00011669  1422 0001:00011675
  1423 0001:0001168B  1427 0001:000116A1  1428 0001:000116AE  1429 0001:000116BD
  1432 0001:000116CE  1433 0001:000116D0  1435 0001:000116D9  1437 0001:000116E9
  1439 0001:000116F2  1441 0001:00011705  1443 0001:00011709  1444 0001:00011712
  1445 0001:0001171D  1446 0001:0001172D  1447 0001:00011743  1450 0001:0001174A
  1451 0001:0001175E  1452 0001:00011766  1463 0001:00011790  1465 0001:0001179B
  1466 0001:0001179D  1467 0001:000117A7  1468 0001:000117AC  1472 0001:000117B0
  1473 0001:000117B2  1475 0001:000117B7  1477 0001:000117C0  1478 0001:000117C2
  1480 0001:000117C7  1483 0001:000117DF  1484 0001:000117ED  1485 0001:000117F4
  1486 0001:00011802  1487 0001:00011815  1489 0001:0001183A  1490 0001:0001183F
  1491 0001:0001184C  1495 0001:00011853  1496 0001:0001187D  1497 0001:00011888
  1498 0001:00011897  1499 0001:0001189D  1500 0001:000118AB  1502 0001:000118BC
  1503 0001:000118BE  1504 0001:000118CB  1506 0001:000118D0  1507 0001:000118E5
  1509 0001:000118E9  1510 0001:000118F0  1512 0001:000118F2  1504 0001:000118F4
  1514 0001:000118F9  1515 0001:00011903  1516 0001:00011910  1517 0001:00011915
  1518 0001:00011923  1519 0001:00011928  1520 0001:00011938  1521 0001:00011959
  1524 0001:00011974  1525 0001:00011976  1526 0001:00011983  1528 0001:00011988
  1529 0001:0001199D  1531 0001:000119A1  1532 0001:000119A8  1534 0001:000119AA
  1526 0001:000119AC  1536 0001:000119B1  1537 0001:000119BB  1538 0001:000119C8
  1539 0001:000119CD  1540 0001:000119DD  1541 0001:000119FA  1544 0001:00011A1F
  1545 0001:00011A24  1546 0001:00011A2C  1547 0001:00011A34  1548 0001:00011A3E
  1551 0001:00011A40  1554 0001:00011A68  1555 0001:00011A6B  1556 0001:00011A72
  1557 0001:00011A79  1561 0001:00011A7C  1562 0001:00011A82  1568 0001:00011AA8
  1569 0001:00011AC9  1570 0001:00011ACB  1571 0001:00011AD1  1572 0001:00011AFC
  1573 0001:00011B1A  1574 0001:00011B37  1575 0001:00011B39  1576 0001:00011B49
  1577 0001:00011B54  1578 0001:00011B5E  1580 0001:00011B67  1581 0001:00011B7A
  1582 0001:00011B85  1583 0001:00011B8F  1585 0001:00011BA9  1586 0001:00011BC1
  1593 0001:00011C14  1594 0001:00011C35  1595 0001:00011C37  1596 0001:00011C62
  1597 0001:00011C64  1598 0001:00011C82  1599 0001:00011C97  1601 0001:00011CA0
  1602 0001:00011CB0  1603 0001:00011CBA  1604 0001:00011CC5  1605 0001:00011CD0
  1606 0001:00011CDB  1609 0001:00011CF5  1610 0001:00011D05  1611 0001:00011D15
  1613 0001:00011D2D  1626 0001:00011D5C  1627 0001:00011D7C  1628 0001:00011D8A
  1629 0001:00011D92  1630 0001:00011D9A  1631 0001:00011DA2  1632 0001:00011DA9
  1633 0001:00011DAB  1634 0001:00011DB0  1635 0001:00011DC1  1637 0001:00011DCD
  1640 0001:00011DF3  1642 0001:00011E05  1643 0001:00011E16  1646 0001:00011E1C
  1647 0001:00011E2D  1648 0001:00011E30  1653 0001:00011E3A  1655 0001:00011E4C
  1656 0001:00011E5D  1659 0001:00011E63  1660 0001:00011E74  1661 0001:00011E77
  1666 0001:00011E81  1668 0001:00011E93  1669 0001:00011EA4  1670 0001:00011EA7
  1671 0001:00011EB9  1672 0001:00011EC9  1673 0001:00011ECD  1674 0001:00011EDE
  1677 0001:00011EE6  1678 0001:00011EF7  1679 0001:00011EFA  1680 0001:00011F0C
  1681 0001:00011F1C  1682 0001:00011F20  1683 0001:00011F36  1684 0001:00011F60
  1685 0001:00011F69  1686 0001:00011F72  1687 0001:00011F7B  1688 0001:00011F84
  1689 0001:00011F8D  1692 0001:00011F94  1693 0001:00011FAB  1694 0001:00011FB5
  1695 0001:00011FCE  1696 0001:00011FD8  1697 0001:00011FEF  1698 0001:00011FF8
  1699 0001:00012005  1700 0001:00012010  1701 0001:00012027  1702 0001:00012031
  1704 0001:0001203A  1705 0001:0001204F  1707 0001:00012065  1709 0001:0001206E
  1710 0001:00012084  1712 0001:0001208B  1714 0001:0001209C  1715 0001:000120B3
  1716 0001:000120BC  1717 0001:000120C9  1718 0001:000120D4  1720 0001:000120DD
  1721 0001:000120F4  1722 0001:000120FF  1724 0001:00012122  1725 0001:00012129
  1726 0001:0001212E  1727 0001:0001213F  1732 0001:00012147  1734 0001:00012159
  1735 0001:0001216A  1736 0001:0001216D  1737 0001:0001217F  1738 0001:0001218F
  1739 0001:00012193  1740 0001:000121A4  1743 0001:000121AC  1744 0001:000121BD
  1745 0001:000121C0  1746 0001:000121D2  1747 0001:000121E2  1748 0001:000121E6
  1749 0001:000121FE  1750 0001:00012207  1752 0001:00012213  1753 0001:0001221D
  1754 0001:0001222E  1755 0001:00012231  1760 0001:0001223B  1762 0001:0001224D
  1763 0001:0001225E  1764 0001:00012261  1765 0001:00012273  1766 0001:00012283
  1767 0001:00012287  1768 0001:00012298  1771 0001:0001229D  1772 0001:000122AE
  1773 0001:000122BF  1774 0001:000122D0  1775 0001:000122D3  1776 0001:000122DA
  1780 0001:000122DC  1781 0001:000122E2  1635 0001:00012306  1783 0001:00012312
  1784 0001:00012319  1793 0001:0001234C  1794 0001:0001235C  1795 0001:00012363
  1796 0001:00012365  1797 0001:0001236A  1798 0001:0001237B  1800 0001:00012387
  1803 0001:000123AD  1805 0001:000123BF  1806 0001:000123D0  1809 0001:000123D6
  1810 0001:000123E7  1811 0001:000123EA  1816 0001:000123F4  1818 0001:00012406
  1819 0001:00012417  1822 0001:0001241D  1823 0001:0001242E  1824 0001:00012431
  1829 0001:0001243B  1831 0001:0001244D  1832 0001:0001245E  1833 0001:00012461
  1834 0001:00012473  1835 0001:00012483  1836 0001:00012487  1837 0001:00012498
  1840 0001:000124A0  1841 0001:000124B1  1842 0001:000124B4  1843 0001:000124C6
  1844 0001:000124D6  1845 0001:000124DA  1846 0001:000124F0  1847 0001:00012504
  1848 0001:0001250D  1851 0001:00012514  1852 0001:0001252F  1853 0001:0001254A
  1854 0001:00012565  1855 0001:00012580  1856 0001:00012589  1857 0001:00012590
  1858 0001:00012595  1859 0001:000125A6  1864 0001:000125AE  1866 0001:000125C0
  1867 0001:000125D1  1868 0001:000125D4  1869 0001:000125E6  1870 0001:000125F6
  1871 0001:000125FA  1872 0001:0001260B  1875 0001:00012613  1876 0001:00012624
  1877 0001:00012627  1878 0001:00012639  1879 0001:0001263F  1880 0001:0001264F
  1881 0001:00012653  1882 0001:0001266D  1883 0001:0001267E  1884 0001:00012681
  1889 0001:0001268B  1891 0001:0001269D  1892 0001:000126AE  1893 0001:000126B1
  1894 0001:000126C3  1895 0001:000126D3  1896 0001:000126D7  1897 0001:000126E8
  1900 0001:000126ED  1901 0001:000126FE  1902 0001:00012701  1903 0001:0001270C
  1904 0001:00012720  1905 0001:00012726  1909 0001:00012728  1798 0001:0001274C
  1911 0001:00012758  1912 0001:0001275F  1916 0001:00012794  1917 0001:0001279A
  1918 0001:0001279F  1919 0001:000127B0  1922 0001:000127B4  1923 0001:000127BB
  1924 0001:000127C2  1925 0001:000127CA  1926 0001:000127D2  1927 0001:000127D9
  1928 0001:000127DF  1929 0001:000127EB  1930 0001:000127F6  1931 0001:00012804
  1932 0001:00012814  1933 0001:00012820  1934 0001:00012828  1940 0001:0001283C
  1941 0001:00012842  1942 0001:00012864  1943 0001:0001287F  1944 0001:00012884
  1945 0001:0001288D  1946 0001:0001289C  1949 0001:000128C8  1950 0001:000128CC
  1951 0001:000128DB  1952 0001:000128EB  1953 0001:000128EF  1954 0001:000128FE
  1955 0001:0001290E  1956 0001:00012916  1959 0001:0001291C  1960 0001:0001291D
  1961 0001:00012920  1962 0001:00012928

Line numbers for ACS_Wave(ACS_Wave.pas) segment .itext

  1964 0002:000000C4

Line numbers for _DXTypes(_DXTypes.pas) segment .itext

   161 0002:000000CC

Line numbers for _DirectSound(_DirectSound.pas) segment .text

  2209 0001:00012FDC  2210 0001:00012FE1  2215 0001:00012FE4  2216 0001:00012FEF
  2222 0001:00012FF0  2227 0001:00012FF4  2228 0001:00012FF9  2233 0001:00012FFC
  2234 0001:00012FFE  2238 0001:00013000  2239 0001:00013002  2243 0001:00013004
  2244 0001:00013006

Line numbers for _DirectSound(_DirectSound.pas) segment .itext

  2247 0002:000000D4

Line numbers for wmfintf(wmfintf.pas) segment .text

  1236 0001:00013838  1237 0001:00013845  1238 0001:00013854  1240 0001:00013861
  1241 0001:00013868  1242 0001:0001387D  1243 0001:00013892  1244 0001:000138A7
  1245 0001:000138BC  1246 0001:000138D1  1248 0001:000138E6  1253 0001:00013974
  1254 0001:0001397D  1255 0001:00013984  1256 0001:00013998  1262 0001:0001399C
  1264 0001:000139BA

Line numbers for wmfintf(wmfintf.pas) segment .itext

  1258 0002:000000DC  1259 0002:000000E5  1261 0002:000000EA

Line numbers for libwma1(libwma1.pas) segment .text

   244 0001:00013F28   245 0001:00013F2B   246 0001:00013F39   247 0001:00013F40
   248 0001:00013F47   249 0001:00013F4E   251 0001:00013F66   265 0001:00013F68
   266 0001:00013F8D   267 0001:00013F9D   268 0001:00013FA3   269 0001:00013FAE
   270 0001:00013FB4   271 0001:00013FBF   272 0001:00013FC5   273 0001:00013FD0
   274 0001:00013FD7   275 0001:00013FEA   276 0001:00014000   277 0001:00014019
   278 0001:00014028   279 0001:00014038   280 0001:0001404E   281 0001:00014067
   283 0001:0001406B   284 0001:00014099   285 0001:000140A1   286 0001:000140A9
   287 0001:000140B1   288 0001:000140B9   290 0001:000140BE   291 0001:000140C9
   293 0001:000140CE   294 0001:000140D6   295 0001:000140DE   296 0001:000140E6
   297 0001:000140EE   298 0001:000140F2   300 0001:000140F7   302 0001:00014108
   303 0001:00014110   304 0001:00014118   305 0001:00014120   306 0001:00014128
   308 0001:0001412D   310 0001:0001413F   311 0001:00014152   312 0001:00014161
   313 0001:0001416B   314 0001:00014179   316 0001:0001419C   317 0001:000141A0
   318 0001:000141A3   319 0001:000141A6   320 0001:000141AD   321 0001:000141B3
   323 0001:000141BA   324 0001:000141C1   325 0001:000141C9   308 0001:000141CA
   326 0001:000141D3   328 0001:000141DD   329 0001:000141E3   330 0001:000141E9
   331 0001:00014200   332 0001:00014222   333 0001:00014230   334 0001:00014244
   335 0001:0001424A   336 0001:0001426C   337 0001:00014271   338 0001:00014280
   339 0001:00014298   341 0001:0001429C   342 0001:000142CF   343 0001:000142D7
   344 0001:000142DF   345 0001:000142E7   349 0001:000142EF   352 0001:000143A4
   353 0001:000143A7   354 0001:000143B0   355 0001:000143B4   359 0001:000143B8
   360 0001:000143C1   365 0001:000143C4   366 0001:000143E0   367 0001:000143F0
   368 0001:0001440B   369 0001:00014419   374 0001:00014450   375 0001:00014469
   376 0001:00014479   377 0001:00014491   378 0001:000144A7   383 0001:00014500
   384 0001:00014516   385 0001:00014526   386 0001:00014532   390 0001:00014564
   391 0001:0001456A   392 0001:00014573   393 0001:00014589   399 0001:00014590
   400 0001:00014599   401 0001:000145A0   403 0001:000145BB   406 0001:000145C1
   413 0001:000145CC   414 0001:000145D8   415 0001:000145DE   416 0001:000145EA
   417 0001:000145EF   419 0001:00014614   422 0001:0001461B   427 0001:00014624
   428 0001:0001463E   429 0001:0001464C   430 0001:00014663   431 0001:00014671
   436 0001:000146A4   437 0001:000146BE   438 0001:000146CC   439 0001:000146E3
   440 0001:000146F1   445 0001:00014720   446 0001:0001473A   447 0001:00014748
   448 0001:0001475F   449 0001:0001476D   454 0001:000147AC   455 0001:000147C6
   456 0001:000147D4   457 0001:000147EB   458 0001:000147F9   463 0001:00014830
   464 0001:0001484A   465 0001:00014858   466 0001:0001486F   467 0001:0001487D
   472 0001:000148B4   473 0001:000148CE   474 0001:000148DC   475 0001:000148F3
   476 0001:00014901   481 0001:00014934   482 0001:0001494E   483 0001:0001495C
   484 0001:00014973   485 0001:00014981   488 0001:000149B8   489 0001:000149BC
   490 0001:000149BE   492 0001:000149C7   494 0001:000149CD   496 0001:000149DE
   497 0001:000149E5   501 0001:000149E7   502 0001:000149EA   504 0001:000149EE
   505 0001:000149F9   507 0001:00014A02   508 0001:00014A06   511 0001:00014A08
   512 0001:00014A0A   517 0001:00014A10   518 0001:00014A1A   521 0001:00014A23
   523 0001:00014A2E   524 0001:00014A33   526 0001:00014A38   527 0001:00014A40
   528 0001:00014A4A   529 0001:00014A52   531 0001:00014A5A   532 0001:00014A62
   533 0001:00014A6C   534 0001:00014A74   535 0001:00014A7B   538 0001:00014A84
   539 0001:00014A8D   541 0001:00014A9A   542 0001:00014AA3   544 0001:00014AAB
   519 0001:00014AB1   547 0001:00014ABA   553 0001:00014AC0   554 0001:00014AC6
   555 0001:00014ACF   556 0001:00014AD8   557 0001:00014AE0   558 0001:00014AE8
   559 0001:00014AF0   560 0001:00014AF8   561 0001:00014B00   562 0001:00014B08
   564 0001:00014B16   565 0001:00014B22   566 0001:00014B29   567 0001:00014B30
   562 0001:00014B31   568 0001:00014B34   569 0001:00014B3C   584 0001:00014B44
   585 0001:00014B67   586 0001:00014B6E   587 0001:00014B7C   589 0001:00014B9A
   590 0001:00014BAA   591 0001:00014BB1   592 0001:00014BC7   594 0001:00014BD8
   595 0001:00014BEA   597 0001:00014BFB   598 0001:00014C03   599 0001:00014C07
   602 0001:00014C0C   604 0001:00014C1D   605 0001:00014C25   606 0001:00014C29
   608 0001:00014C2E   610 0001:00014C40   611 0001:00014C53   612 0001:00014C62
   613 0001:00014C6D   614 0001:00014C7E   616 0001:00014C94   617 0001:00014C9E
   618 0001:00014CB5   620 0001:00014CBF   621 0001:00014CC5   622 0001:00014CCB
   623 0001:00014CD2   624 0001:00014CE0   626 0001:00014CF7   627 0001:00014D0E
   628 0001:00014D1D   629 0001:00014D27   630 0001:00014D35   632 0001:00014D47
   633 0001:00014D4A   637 0001:00014D6C   639 0001:00014D70   640 0001:00014D74
   643 0001:00014D77   644 0001:00014D7E   647 0001:00014D8C   648 0001:00014D93
   624 0001:00014D96   651 0001:00014DA4   653 0001:00014DAA   654 0001:00014DB1
   656 0001:00014DC8   657 0001:00014DD6   659 0001:00014DED   660 0001:00014E04
   661 0001:00014E13   662 0001:00014E1D   663 0001:00014E2B   665 0001:00014E3D
   666 0001:00014E40   667 0001:00014E46   670 0001:00014E56   674 0001:00014E76
   676 0001:00014E7A   677 0001:00014E7E   678 0001:00014E81   679 0001:00014E88
   680 0001:00014E8E   681 0001:00014E95   684 0001:00014EA3   685 0001:00014EAA
   657 0001:00014EAD   688 0001:00014EB6   689 0001:00014EBE   690 0001:00014EC6
   608 0001:00014EC7   692 0001:00014ED0   694 0001:00014EDA   695 0001:00014EEB
   696 0001:00014F02   698 0001:00014F08   699 0001:00014F0C   700 0001:00014F12
   701 0001:00014F18   702 0001:00014F2F   703 0001:00014F51   705 0001:00014F5F
   716 0001:00014FF4   717 0001:00015014   718 0001:0001501B   719 0001:00015029
   721 0001:00015047   722 0001:00015057   723 0001:0001505E   724 0001:00015074
   726 0001:00015085   727 0001:00015097   729 0001:000150A8   730 0001:000150B0
   731 0001:000150B4   734 0001:000150B9   736 0001:000150CA   737 0001:000150D2
   738 0001:000150D6   740 0001:000150DB   742 0001:000150E9   743 0001:000150FC
   744 0001:0001510B   745 0001:00015115   746 0001:00015123   748 0001:00015134
   749 0001:00015137   750 0001:0001513B   751 0001:00015142   752 0001:0001514A
   754 0001:0001514C   755 0001:00015153   756 0001:0001515B   740 0001:0001515C
   758 0001:00015161   760 0001:0001516B   761 0001:0001517C   762 0001:00015193
   764 0001:00015199   765 0001:0001519D   766 0001:000151A3   767 0001:000151A9
   768 0001:000151C0   769 0001:000151E2   771 0001:000151F0   776 0001:00015238
   777 0001:0001523E   778 0001:00015248   779 0001:00015263   780 0001:00015271
   789 0001:000152A4   790 0001:000152CA   791 0001:000152D4   792 0001:000152EE
   793 0001:00015305   794 0001:00015314   795 0001:0001531E   796 0001:0001532C
   798 0001:0001533E   799 0001:00015341   800 0001:00015347   801 0001:00015350
   804 0001:0001535A   805 0001:0001535E   806 0001:00015365   808 0001:0001536C
   809 0001:00015373   810 0001:0001537B   819 0001:000153D0   820 0001:000153F0
   821 0001:000153F9   822 0001:00015413   823 0001:0001542A   824 0001:00015439
   825 0001:00015443   826 0001:00015451   828 0001:00015463   829 0001:00015466
   830 0001:0001546D   831 0001:00015474   833 0001:0001547A   834 0001:0001548B
   835 0001:00015492   836 0001:0001549A   855 0001:000154EC   856 0001:000154EF
   857 0001:000154FD   863 0001:00015504   864 0001:0001550A   865 0001:00015511
   866 0001:00015518   867 0001:0001553E   868 0001:00015543   874 0001:0001555C
   875 0001:00015562   876 0001:00015569   877 0001:00015570   878 0001:00015596
   879 0001:0001559B   885 0001:000155B0   886 0001:000155B9   887 0001:000155C0
   889 0001:000155DB   892 0001:000155E1   900 0001:000155EC   901 0001:000155F8
   902 0001:000155FE   903 0001:0001560A   904 0001:0001560F   905 0001:00015630
   907 0001:00015634   910 0001:0001563B   915 0001:00015644   916 0001:0001564A
   917 0001:00015656   918 0001:00015660   919 0001:0001566E   924 0001:00015684
   925 0001:0001568A   926 0001:00015696   927 0001:000156A0   928 0001:000156AE
   933 0001:000156C0   934 0001:000156C6   935 0001:000156D2   936 0001:000156DC
   937 0001:000156EA   942 0001:0001570C   943 0001:00015712   944 0001:0001571E
   945 0001:00015728   946 0001:00015736   951 0001:00015750   952 0001:00015756
   953 0001:00015762   954 0001:0001576C   955 0001:0001577A   960 0001:00015794
   961 0001:0001579A   962 0001:000157A6   963 0001:000157B0   964 0001:000157BE
   969 0001:000157D4   970 0001:000157DA   971 0001:000157E6   972 0001:000157F0
   973 0001:000157FE   976 0001:00015818   977 0001:0001581C   978 0001:00015823
   979 0001:0001582A   980 0001:00015832   983 0001:00015838   984 0001:00015841
   985 0001:00015869   997 0001:00015874  1000 0001:00015882  1002 0001:00015888
  1003 0001:0001589B  1005 0001:000158A4  1006 0001:000158AF  1008 0001:000158B3
  1009 0001:000158BA  1010 0001:000158C6  1011 0001:000158C8  1012 0001:000158CB
  1015 0001:000158CD  1016 0001:000158D5  1018 0001:000158DA  1019 0001:0001590C
  1022 0001:00015914  1023 0001:0001591B  1027 0001:0001591F  1030 0001:00015928
  1031 0001:0001592B  1032 0001:00015934  1033 0001:0001593A  1034 0001:00015942
  1035 0001:0001594A  1036 0001:00015952  1037 0001:00015956  1038 0001:0001595B
  1039 0001:0001595F  1048 0001:00015964  1049 0001:00015982  1050 0001:00015994
  1051 0001:000159A4  1052 0001:000159B7  1054 0001:000159C2  1055 0001:000159D8
  1056 0001:000159E3  1057 0001:00015A00  1058 0001:00015A15  1052 0001:00015A16
  1059 0001:00015A19  1060 0001:00015A21  1062 0001:00015A29  1075 0001:00015A78
  1076 0001:00015AA3  1077 0001:00015AB5  1078 0001:00015AC5  1079 0001:00015AD8
  1081 0001:00015AEA  1082 0001:00015B00  1083 0001:00015B0B  1084 0001:00015B28
  1086 0001:00015B4D  1087 0001:00015B54  1088 0001:00015B59  1089 0001:00015B76
  1090 0001:00015B93  1091 0001:00015B98  1092 0001:00015BAC  1094 0001:00015BB7
  1095 0001:00015BC4  1096 0001:00015BE4  1097 0001:00015BEF  1098 0001:00015C16
  1092 0001:00015C17  1100 0001:00015C1A  1079 0001:00015C1B  1102 0001:00015C24
  1104 0001:00015C3B  1105 0001:00015C43  1106 0001:00015C4B  1107 0001:00015C53
  1108 0001:00015C5B  1115 0001:00015D04  1116 0001:00015D24  1117 0001:00015D2B
  1118 0001:00015D39  1119 0001:00015D3B  1120 0001:00015D41  1122 0001:00015D5B
  1124 0001:00015D73  1125 0001:00015D7B  1127 0001:00015D80  1128 0001:00015D97
  1129 0001:00015DAE  1130 0001:00015DBB  1131 0001:00015DC3  1132 0001:00015DCB
  1134 0001:00015DD9  1135 0001:00015DE1  1136 0001:00015DE9  1138 0001:00015DEB
  1139 0001:00015E0F  1140 0001:00015E1F  1141 0001:00015E2E  1142 0001:00015E36
  1143 0001:00015E3A  1150 0001:00015E90  1151 0001:00015EB0  1152 0001:00015EB7
  1153 0001:00015EC5  1154 0001:00015ECA  1155 0001:00015ED0  1156 0001:00015ED6
  1158 0001:00015EF0  1160 0001:00015F08  1161 0001:00015F10  1164 0001:00015F15
  1165 0001:00015F20  1167 0001:00015F31  1168 0001:00015F39  1169 0001:00015F41
  1171 0001:00015F46  1172 0001:00015F4A  1173 0001:00015F54  1174 0001:00015F6B
  1176 0001:00015F7C  1177 0001:00015F84  1178 0001:00015F8C  1180 0001:00015F8E
  1182 0001:00015F96  1183 0001:00015FBA  1184 0001:00015FCA  1185 0001:00015FD9
  1186 0001:00015FE1  1187 0001:00015FE5  1192 0001:00016034  1193 0001:0001603B
  1195 0001:00016041  1196 0001:0001604D  1197 0001:00016057  1199 0001:00016069
  1300 0001:00016070  1301 0001:0001608E  1302 0001:00016095  1303 0001:0001609D
  1304 0001:000160A5  1305 0001:000160B7  1306 0001:000160C7  1307 0001:000160DA
  1309 0001:000160E5  1310 0001:000160FB  1311 0001:00016103  1312 0001:0001610E
  1313 0001:0001612B  1314 0001:00016140  1307 0001:00016141  1315 0001:00016144
  1316 0001:0001614C  1317 0001:00016154  1328 0001:000161A0  1329 0001:000161D0
  1330 0001:000161D7  1331 0001:000161E9  1332 0001:000161F9  1333 0001:0001620C
  1334 0001:00016215  1335 0001:0001621B  1337 0001:00016240  1338 0001:00016254
  1340 0001:00016263  1341 0001:00016283  1342 0001:0001628B  1343 0001:00016293
  1344 0001:0001629E  1345 0001:000162C5  1346 0001:000162CD  1347 0001:000162E5
  1338 0001:000162E6  1348 0001:000162ED  1349 0001:000162F5  1350 0001:000162FD
  1362 0001:0001636C  1363 0001:0001639C  1364 0001:000163A3  1365 0001:000163B5
  1366 0001:000163C5  1367 0001:000163D8  1368 0001:000163E1  1369 0001:000163E8
  1370 0001:00016405  1372 0001:0001642A  1373 0001:0001643E  1375 0001:0001644D
  1376 0001:0001646D  1377 0001:00016475  1378 0001:0001647D  1379 0001:00016488
  1380 0001:000164AF  1381 0001:000164B7  1382 0001:000164CF  1373 0001:000164D0
  1383 0001:000164D7  1384 0001:000164DF  1385 0001:000164E7  1400 0001:0001656C
  1401 0001:000165A1  1402 0001:000165B3  1403 0001:000165CA  1404 0001:000165DA
  1405 0001:000165ED  1406 0001:000165F6  1407 0001:000165FC  1409 0001:00016621
  1410 0001:0001663E  1411 0001:00016649  1412 0001:00016657  1413 0001:00016665
  1414 0001:00016676  1415 0001:0001668C  1416 0001:00016699  1417 0001:000166A1
  1418 0001:000166A9  1419 0001:000166B6  1421 0001:000166C8  1422 0001:000166DB
  1423 0001:000166EA  1424 0001:000166F4  1425 0001:00016702  1427 0001:00016725
  1428 0001:00016728  1429 0001:0001672B  1430 0001:00016733  1431 0001:00016739
  1432 0001:00016741  1433 0001:00016746  1434 0001:00016758  1435 0001:00016763
  1436 0001:00016769  1437 0001:00016773  1438 0001:00016781  1439 0001:00016788
  1440 0001:00016790  1442 0001:00016792  1443 0001:00016799  1444 0001:000167A1
  1419 0001:000167A2  1445 0001:000167AB  1446 0001:000167B3  1460 0001:00016870
  1461 0001:000168A5  1462 0001:000168B7  1463 0001:000168CE  1464 0001:000168DE
  1465 0001:000168F1  1466 0001:000168FA  1467 0001:00016901  1468 0001:0001691E
  1470 0001:00016943  1471 0001:00016960  1472 0001:0001696B  1473 0001:00016979
  1474 0001:00016987  1475 0001:00016998  1476 0001:000169AE  1477 0001:000169BB
  1478 0001:000169C3  1479 0001:000169CB  1480 0001:000169D8  1482 0001:000169EA
  1483 0001:000169FD  1484 0001:00016A0C  1485 0001:00016A16  1486 0001:00016A24
  1488 0001:00016A47  1489 0001:00016A4A  1490 0001:00016A4D  1491 0001:00016A55
  1492 0001:00016A5B  1493 0001:00016A63  1494 0001:00016A68  1495 0001:00016A7A
  1496 0001:00016A85  1497 0001:00016A8B  1498 0001:00016A95  1499 0001:00016AA3
  1500 0001:00016AAA  1501 0001:00016AB2  1503 0001:00016AB4  1504 0001:00016ABB
  1505 0001:00016AC3  1480 0001:00016AC4  1506 0001:00016ACD  1507 0001:00016AD5
  1527 0001:00016BA8  1528 0001:00016BE4  1529 0001:00016BE9  1530 0001:00016BEE
  1531 0001:00016BF3  1532 0001:00016BF8  1533 0001:00016C00  1535 0001:00016C04
  1536 0001:00016C09  1537 0001:00016C1B  1538 0001:00016C2B  1539 0001:00016C3E
  1540 0001:00016C45  1542 0001:00016C5C  1544 0001:00016C65  1545 0001:00016C85
  1550 0001:00016C8D  1551 0001:00016CA4  1553 0001:00016CB3  1554 0001:00016CD0
  1556 0001:00016CDA  1557 0001:00016CEA  1558 0001:00016CF9  1559 0001:00016D03
  1560 0001:00016D11  1561 0001:00016D17  1562 0001:00016D1D  1564 0001:00016D30
  1566 0001:00016D36  1567 0001:00016D5B  1569 0001:00016D77  1570 0001:00016D7D
  1574 0001:00016D83  1575 0001:00016D90  1577 0001:00016DAE  1579 0001:00016DB8
  1580 0001:00016DD2  1581 0001:00016DE2  1582 0001:00016DF2  1584 0001:00016E1A
  1585 0001:00016E20  1586 0001:00016E29  1587 0001:00016E31  1592 0001:00016E3C
  1593 0001:00016E44  1594 0001:00016E4C  1595 0001:00016E53  1551 0001:00016E54
  1596 0001:00016E5B  1540 0001:00016E5E  1597 0001:00016E67  1599 0001:00016E6D
  1600 0001:00016E6F  1604 0001:00016E71  1605 0001:00016E7C  1606 0001:00016E7E
  1619 0001:00016F1C  1620 0001:00016F4E  1621 0001:00016F52  1622 0001:00016F65
  1623 0001:00016F71  1624 0001:00016F79  1625 0001:00016F7F  1626 0001:00016F87
  1627 0001:00016F8C  1628 0001:00016FA8  1629 0001:00016FBE  1630 0001:00016FCA
  1631 0001:00016FDC  1632 0001:00016FF3  1633 0001:00016FFE  1634 0001:0001700C
  1635 0001:0001701A  1636 0001:0001702B  1637 0001:00017041  1638 0001:0001704E
  1639 0001:00017056  1640 0001:0001705E  1641 0001:0001706B  1643 0001:0001707F
  1644 0001:00017095  1645 0001:000170A4  1646 0001:000170AE  1647 0001:000170BC
  1649 0001:000170E3  1650 0001:000170E9  1651 0001:000170EC  1652 0001:000170F4
  1653 0001:000170FA  1654 0001:00017102  1655 0001:00017107  1656 0001:00017118
  1657 0001:00017121  1658 0001:00017127  1659 0001:00017131  1660 0001:00017142
  1661 0001:00017149  1662 0001:00017151  1664 0001:00017153  1665 0001:0001715A
  1666 0001:00017162  1641 0001:00017165  1667 0001:0001716C  1673 0001:00017218
  1674 0001:0001723B  1675 0001:0001723D  1676 0001:00017254  1677 0001:00017276
  1678 0001:0001727E  1682 0001:000172A4  1683 0001:000172B0  1687 0001:000172C4
  1688 0001:000172D0  1692 0001:000172E0  1693 0001:000172EC  1697 0001:0001730C
  1698 0001:00017318  1702 0001:00017330  1703 0001:0001733C  1707 0001:00017350
  1708 0001:0001735C  1712 0001:00017374  1713 0001:00017380  1718 0001:00017398
  1719 0001:0001739B  1720 0001:000173A4  1721 0001:000173A8  1722 0001:000173BE
  1723 0001:000173CC  1729 0001:00017428  1730 0001:0001744D  1731 0001:00017460
  1732 0001:0001746D  1733 0001:00017479  1734 0001:00017483  1735 0001:000174B7
  1736 0001:000174D2  1737 0001:000174D6  1738 0001:00017509  1739 0001:00017511
  1742 0001:00017568  1743 0001:0001756B  1744 0001:00017574  1745 0001:0001757C
  1746 0001:00017584  1747 0001:0001758C  1748 0001:00017590  1751 0001:00017594
  1752 0001:000175AA  1753 0001:000175B3  1754 0001:000175BC  1755 0001:000175D9
  1756 0001:000175E1  1757 0001:000175E9  1758 0001:000175F1  1759 0001:000175F9
  1760 0001:000175FD  1763 0001:00017630  1764 0001:00017636  1765 0001:0001763C
  1768 0001:00017640  1769 0001:0001764B  1770 0001:0001765B  1771 0001:00017664
  1772 0001:00017667  1775 0001:00017670  1776 0001:0001767B  1777 0001:0001768B
  1778 0001:00017694  1779 0001:00017697  1782 0001:000176A0  1783 0001:000176A7
  1785 0001:000176B6  1786 0001:000176B8  1789 0001:000176C0  1790 0001:000176C7
  1791 0001:000176D4  1792 0001:000176D6  1795 0001:000176DC  1796 0001:000176F6
  1797 0001:000176F9  1800 0001:00017720  1801 0001:00017723  1802 0001:00017726
  1805 0001:0001772C  1806 0001:0001772F  1807 0001:00017732  1810 0001:00017738
  1811 0001:0001773B  1812 0001:0001773E  1815 0001:00017744  1816 0001:00017747
  1817 0001:0001774A  1821 0001:00017750  1822 0001:0001775B  1823 0001:00017768
  1824 0001:0001776D  1825 0001:0001776F  1828 0001:00017778  1829 0001:00017786
  1830 0001:00017789  1833 0001:00017790  1834 0001:000177A5  1835 0001:000177AE
  1836 0001:000177B1  1839 0001:000177CC  1841 0001:000177D6  1842 0001:000177DB
  1843 0001:000177DF  1844 0001:000177E7  1845 0001:000177ED  1847 0001:000177F3
  1848 0001:000177F5  1855 0001:000177FC  1856 0001:0001781E  1858 0001:00017829
  1859 0001:0001783A  1860 0001:00017846  1861 0001:00017852  1862 0001:0001785F
  1863 0001:00017865  1864 0001:0001786A  1865 0001:00017875  1866 0001:00017882
  1867 0001:0001788D  1868 0001:00017898  1870 0001:000178A3  1871 0001:000178A5
  1874 0001:000178D0  1875 0001:000178E5  1876 0001:000178EE  1877 0001:000178F1
  1880 0001:0001790C  1881 0001:00017918  1882 0001:0001791D  1883 0001:00017929
  1884 0001:0001792E  1885 0001:0001793A  1886 0001:0001793C  1889 0001:00017944
  1890 0001:00017959  1891 0001:00017962  1892 0001:00017965  1895 0001:00017980
  1896 0001:0001798B  1897 0001:000179A0  1898 0001:000179AF  1899 0001:000179B1
  1905 0001:000179B8  1906 0001:000179D4  1908 0001:000179DA  1909 0001:000179EA
  1911 0001:000179F9  1912 0001:000179FE  1918 0001:00017A34  1919 0001:00017A56
  1921 0001:00017A5C  1922 0001:00017A6C  1923 0001:00017A7A  1924 0001:00017A7F
  1926 0001:00017A87  1932 0001:00017AC0  1933 0001:00017AE1  1934 0001:00017AEF
  1935 0001:00017AFA  1936 0001:00017AFE  1937 0001:00017B31  1938 0001:00017B40
  1939 0001:00017B54  1940 0001:00017B58  1941 0001:00017B8B  1942 0001:00017B91
  1943 0001:00017BA7  1944 0001:00017BB9  1945 0001:00017BBD  1946 0001:00017BF0
  1951 0001:00017CC8  1952 0001:00017CDE  1953 0001:00017CEC  1954 0001:00017CFC
  1955 0001:00017D00  1957 0001:00017D33  1963 0001:00017D88  1964 0001:00017DB1
  1965 0001:00017DC4  1966 0001:00017DD1  1967 0001:00017DDE  1968 0001:00017DE8
  1969 0001:00017E1C  1970 0001:00017E36  1971 0001:00017E3A  1972 0001:00017E6D
  1973 0001:00017E75  1976 0001:00017ED0  1977 0001:00017ED6  1978 0001:00017EE4
  1979 0001:00017EF2  1980 0001:00017EF9

Line numbers for libwma1(libwma1.pas) segment .itext

  1983 0002:000000EC

Line numbers for ACS_WinMedia(ACS_WinMedia.pas) segment .text

   590 0001:00018A9C   591 0001:00018AA0   592 0001:00018AB9   593 0001:00018AE0
   596 0001:00018AE4   597 0001:00018AE8   598 0001:00018B01   599 0001:00018B28
   602 0001:00018B2C   603 0001:00018B30   604 0001:00018B4C   607 0001:00018B60
   610 0001:00018B88   611 0001:00018B8F   612 0001:00018BA8   613 0001:00018BC5
   616 0001:00018BCC   617 0001:00018BD0   618 0001:00018BEC   621 0001:00018C00
   625 0001:00018C28   626 0001:00018C3A   627 0001:00018C43   628 0001:00018C4A
   631 0001:00018C64   632 0001:00018C6F   633 0001:00018C7B   641 0001:00018C8C
   642 0001:00018CAC   643 0001:00018CBA   644 0001:00018CC8   646 0001:00018CD8
   647 0001:00018CF3   648 0001:00018D09   649 0001:00018D2F   650 0001:00018D55
   651 0001:00018D68   652 0001:00018D74   653 0001:00018D7E   654 0001:00018D8A
   655 0001:00018DA0   656 0001:00018DB6   657 0001:00018DCD   658 0001:00018DDA
   659 0001:00018DE7   660 0001:00018DF3   661 0001:00018E2B   662 0001:00018E5A
   665 0001:00018E61   666 0001:00018E6F   668 0001:00018E7D   669 0001:00018E9E
   670 0001:00018EBF   671 0001:00018EE0   672 0001:00018F01   673 0001:00018F22
   674 0001:00018F43   675 0001:00018F64   676 0001:00018F85   677 0001:00018FB1
   678 0001:00018FDD   679 0001:00019009   680 0001:00019035   682 0001:00019056
   685 0001:0001906C   687 0001:00019082   690 0001:00019134   691 0001:0001913C
   692 0001:0001914A   693 0001:00019158   695 0001:00019164   696 0001:00019171
   697 0001:0001917C   698 0001:00019192   701 0001:000191AE   703 0001:000191C4
   706 0001:000191C8   707 0001:000191CE   708 0001:00019203   709 0001:0001920B
   710 0001:00019218   715 0001:0001921C   716 0001:00019225   717 0001:00019227
   719 0001:0001922D   720 0001:0001924D   721 0001:00019259   723 0001:0001925B
   726 0001:00019260   727 0001:00019263   728 0001:0001926A   729 0001:00019271
   732 0001:00019274   733 0001:00019277   734 0001:0001927E   735 0001:00019285
   738 0001:00019288   739 0001:0001928B   740 0001:00019292   741 0001:0001929D
   744 0001:000192A0   745 0001:000192A3   746 0001:000192AA   747 0001:000192B0
   750 0001:000192B4   751 0001:000192B7   752 0001:000192BE   753 0001:000192CF
   756 0001:000192D4   757 0001:000192D7   758 0001:000192DD   760 0001:000192E6
   761 0001:000192EC   763 0001:000192F5   764 0001:000192FC   767 0001:00019303
   770 0001:00019308   771 0001:0001930B   772 0001:00019311   773 0001:00019316
   774 0001:0001931D   775 0001:00019323   777 0001:0001932C   778 0001:00019333
   780 0001:0001933A   783 0001:0001933C   784 0001:0001934E   785 0001:00019357
   787 0001:0001935D   788 0001:0001936F   789 0001:0001937A   791 0001:0001938C
   792 0001:00019396   795 0001:000193B0   796 0001:000193BB   798 0001:000193C1
   799 0001:000193CC   801 0001:000193D7   802 0001:000193E3   805 0001:000193F4
   806 0001:00019415   807 0001:0001941E   808 0001:00019443   809 0001:0001944B
   810 0001:00019454   812 0001:0001947D   813 0001:0001949C   814 0001:000194A5
   815 0001:000194BB   817 0001:000194C8   818 0001:000194D1   820 0001:00019515
   823 0001:00019557   824 0001:000195AA   825 0001:000195DD   827 0001:000195EA
   828 0001:00019604   829 0001:00019620   830 0001:0001963A   831 0001:00019656
   832 0001:00019670   833 0001:0001968C   834 0001:000196A0   835 0001:000196C7
   836 0001:000196DB   837 0001:00019702   838 0001:0001971C   839 0001:00019738
   840 0001:00019752   842 0001:0001976E   843 0001:00019779   844 0001:00019780
   845 0001:00019787   850 0001:0001982C   851 0001:00019830   852 0001:00019839
   853 0001:0001984F   854 0001:00019851   855 0001:00019857   857 0001:00019864
   858 0001:00019866   860 0001:00019868   861 0001:00019883   862 0001:00019897
   865 0001:000198C0   866 0001:000198C3   867 0001:000198CB   868 0001:000198D4
   870 0001:000198E1   871 0001:000198EC   872 0001:000198F7   876 0001:000198FC
   877 0001:0001990E   878 0001:00019917   879 0001:00019921   880 0001:0001992B
   881 0001:00019936   884 0001:00019950   885 0001:0001995B   886 0001:00019967
   889 0001:00019978   890 0001:00019999   891 0001:000199A7   892 0001:000199B5
   894 0001:000199C5   895 0001:000199D7   896 0001:000199ED   897 0001:000199FA
   898 0001:00019A06   899 0001:00019A47   900 0001:00019A53   901 0001:00019A74
   902 0001:00019A86   903 0001:00019A98   904 0001:00019AA2   905 0001:00019AB5
   906 0001:00019AC8   907 0001:00019ADB   908 0001:00019AF4   909 0001:00019B0A
   910 0001:00019B17   911 0001:00019B35   912 0001:00019B48   913 0001:00019B54
   914 0001:00019B67   915 0001:00019B79   916 0001:00019B8B   917 0001:00019B9D
   918 0001:00019BAF   919 0001:00019BD9   921 0001:00019BE8   922 0001:00019BF9
   924 0001:00019C0C   925 0001:00019C45   929 0001:00019C4C   931 0001:00019C6D
   933 0001:00019C8E   935 0001:00019CAF   937 0001:00019CD0   939 0001:00019CFC
   941 0001:00019D28   943 0001:00019D49   944 0001:00019D53   947 0001:00019D69
   949 0001:00019D7F   952 0001:00019DF8   953 0001:00019DFF   954 0001:00019E0D
   955 0001:00019E1B   957 0001:00019E27   958 0001:00019E34   959 0001:00019E41
   960 0001:00019E4E   963 0001:00019E66   965 0001:00019E7C   968 0001:00019E80
   969 0001:00019E83   970 0001:00019E8E   972 0001:00019E97   973 0001:00019EA1
   974 0001:00019EBB   976 0001:00019EC2   982 0001:00019EC4   989 0001:00019EC6
   992 0001:00019EC8   993 0001:00019ECB   994 0001:00019ED2   995 0001:00019ED9
   999 0001:00019EDC  1000 0001:00019EE2  1004 0001:00019EE4  1005 0001:00019EEA
  1008 0001:00019EEC  1009 0001:00019EEF  1010 0001:00019EF8  1011 0001:00019F05
  1014 0001:00019F0C  1015 0001:00019F0F  1016 0001:00019F16  1017 0001:00019F21
  1018 0001:00019F28  1022 0001:00019F2C  1023 0001:00019F36  1027 0001:00019F38
  1028 0001:00019F41  1029 0001:00019F48  1033 0001:00019F4C  1034 0001:00019F53
  1038 0001:00019F54  1039 0001:00019F5A  1042 0001:00019F5C  1043 0001:00019F5F
  1044 0001:00019F6A  1047 0001:00019F6C  1048 0001:00019F77  1049 0001:00019F89
  1050 0001:00019F99  1053 0001:00019FA0  1054 0001:00019FA6  1055 0001:00019FB1
  1056 0001:00019FC3  1057 0001:00019FED  1058 0001:00019FF3  1061 0001:00019FF8
  1062 0001:00019FFB  1063 0001:0001A002  1064 0001:0001A00D  1067 0001:0001A010
  1068 0001:0001A01E  1069 0001:0001A029  1071 0001:0001A045  1072 0001:0001A056
  1075 0001:0001A060  1076 0001:0001A072  1077 0001:0001A07B  1078 0001:0001A08A
  1081 0001:0001A0A4  1082 0001:0001A0AF  1083 0001:0001A0B7  1084 0001:0001A0C3
  1088 0001:0001A0D4  1089 0001:0001A0DC  1092 0001:0001A0E0  1093 0001:0001A100
  1094 0001:0001A122  1095 0001:0001A13E  1096 0001:0001A147  1097 0001:0001A15D
  1098 0001:0001A163  1100 0001:0001A19B  1102 0001:0001A1D2  1103 0001:0001A1E9
  1104 0001:0001A202  1105 0001:0001A219  1106 0001:0001A232  1107 0001:0001A249
  1108 0001:0001A262  1109 0001:0001A273  1110 0001:0001A297  1111 0001:0001A2A8
  1112 0001:0001A2CC  1113 0001:0001A2E3  1114 0001:0001A2FC  1115 0001:0001A313
  1117 0001:0001A32C  1118 0001:0001A337  1122 0001:0001A3D8  1123 0001:0001A3E2
  1127 0001:0001A3E4  1128 0001:0001A3EE  1132 0001:0001A3F0  1133 0001:0001A3F2
  1134 0001:0001A409  1135 0001:0001A40F  1136 0001:0001A414  1137 0001:0001A419
  1139 0001:0001A41B  1142 0001:0001A420  1143 0001:0001A429  1144 0001:0001A433
  1145 0001:0001A43A  1147 0001:0001A43F  1148 0001:0001A44E  1150 0001:0001A456
  1152 0001:0001A45A  1153 0001:0001A46E  1155 0001:0001A474  1156 0001:0001A485
  1157 0001:0001A491  1158 0001:0001A49D  1159 0001:0001A4A9  1160 0001:0001A4DC
  1161 0001:0001A509  1164 0001:0001A514  1165 0001:0001A518  1166 0001:0001A51A
  1167 0001:0001A520  1169 0001:0001A535  1170 0001:0001A53C  1172 0001:0001A550
  1175 0001:0001A558  1176 0001:0001A561  1177 0001:0001A565  1178 0001:0001A56A
  1179 0001:0001A56F  1180 0001:0001A575  1182 0001:0001A58A  1183 0001:0001A591
  1184 0001:0001A595  1186 0001:0001A5B2  1190 0001:0001A5B8  1191 0001:0001A5CA
  1192 0001:0001A5D3  1193 0001:0001A5DA  1196 0001:0001A5F4  1197 0001:0001A5FF
  1198 0001:0001A60B  1202 0001:0001A61C  1203 0001:0001A626  1209 0001:0001A628
  1210 0001:0001A644  1211 0001:0001A655  1212 0001:0001A663  1213 0001:0001A6BE
  1214 0001:0001A6D7  1217 0001:0001A710  1218 0001:0001A729  1219 0001:0001A741
  1222 0001:0001A764  1223 0001:0001A776  1224 0001:0001A77F  1226 0001:0001A785
  1227 0001:0001A797  1228 0001:0001A7A2  1230 0001:0001A7B4  1233 0001:0001A7D0
  1234 0001:0001A7DB  1236 0001:0001A7E1  1237 0001:0001A7EC  1239 0001:0001A7F7
  1240 0001:0001A803  1243 0001:0001A814  1244 0001:0001A81F  1245 0001:0001A831
  1246 0001:0001A841  1249 0001:0001A848  1250 0001:0001A84E  1251 0001:0001A859
  1252 0001:0001A86B  1253 0001:0001A883  1254 0001:0001A889  1258 0001:0001A88C
  1259 0001:0001A892  1262 0001:0001A894  1263 0001:0001A897  1264 0001:0001A8A2
  1267 0001:0001A8A4  1268 0001:0001A8A7  1269 0001:0001A8AE  1270 0001:0001A8B9
  1276 0001:0001A8BC  1277 0001:0001A8EC  1278 0001:0001A8FE  1279 0001:0001A914
  1280 0001:0001A91C  1281 0001:0001A93B  1282 0001:0001A944  1283 0001:0001A95A
  1284 0001:0001A99B  1285 0001:0001A9CE  1287 0001:0001A9DB  1288 0001:0001A9F5
  1289 0001:0001AA11  1290 0001:0001AA2B  1291 0001:0001AA47  1292 0001:0001AA61
  1293 0001:0001AA7D  1294 0001:0001AA91  1295 0001:0001AAB8  1296 0001:0001AACC
  1297 0001:0001AAF3  1298 0001:0001AB0D  1299 0001:0001AB29  1300 0001:0001AB43
  1302 0001:0001AB5F  1303 0001:0001AB66  1304 0001:0001AB74  1307 0001:0001AB84
  1308 0001:0001ABA1  1305 0001:0001ABB6  1310 0001:0001ABBF  1311 0001:0001ABCD
  1312 0001:0001ABD5  1313 0001:0001ABDD  1314 0001:0001ABE4  1315 0001:0001ABEB
  1320 0001:0001ACAC  1321 0001:0001ACB0  1322 0001:0001ACB9  1323 0001:0001ACCF
  1324 0001:0001ACD1  1325 0001:0001ACD7  1327 0001:0001ACE4  1328 0001:0001ACE6
  1330 0001:0001ACE8  1331 0001:0001AD03  1332 0001:0001AD17  1335 0001:0001AD40
  1336 0001:0001AD43  1337 0001:0001AD4B  1338 0001:0001AD56  1339 0001:0001AD61
  1342 0001:0001AD64  1343 0001:0001AD72  1344 0001:0001AD7D  1346 0001:0001AD99
  1347 0001:0001ADAA

Line numbers for ACS_WinMedia(ACS_WinMedia.pas) segment .itext

  1350 0002:000000F4

Line numbers for MiTeC_ToolHelp32(MiTeC_ToolHelp32.pas) segment .text

   438 0001:00000000

Line numbers for IpRtrMib(objects.bpl\IPHlpApi\Pas\IpRtrMib.pas) segment .text

  1062 0001:00000000

Line numbers for IpExport(objects.bpl\IPHlpApi\Pas\IpExport.pas) segment .text

   343 0001:00000000

Line numbers for IpTypes(objects.bpl\IPHlpApi\Pas\IpTypes.pas) segment .text

   228 0001:00000000

Line numbers for IpHlpApi(objects.bpl\IPHlpApi\Pas\IpHlpApi.pas) segment .text

   752 0001:00000000

Line numbers for BisAudioCodec(omaudio.bpl\BisAudioCodec.pas) segment .text

    33 0001:0001B2E0    34 0001:0001B2F2    35 0001:0001B2FB    36 0001:0001B30C
    37 0001:0001B31D    40 0001:0001B338    41 0001:0001B343    42 0001:0001B34B
    43 0001:0001B353    44 0001:0001B35F    47 0001:0001B370    48 0001:0001B39D
    49 0001:0001B3A8    50 0001:0001B3B3    51 0001:0001B3BF    52 0001:0001B3C7
    53 0001:0001B3CF

Line numbers for BisAudioCodec(omaudio.bpl\BisAudioCodec.pas) segment .itext

    56 0002:000003F4

Line numbers for WaveACM(omaudio.bpl\WaveAudio\WaveAcm.pas) segment .text

   788 0001:0001B428   792 0001:0001B430   800 0001:0001B438   801 0001:0001B440
   807 0001:0001B448   808 0001:0001B454   812 0001:0001B460   818 0001:0001B468
   830 0001:0001B470   832 0001:0001B478   862 0001:0001B480   863 0001:0001B488
   864 0001:0001B490   867 0001:0001B498   868 0001:0001B4A0   869 0001:0001B4A8

Line numbers for WaveACM(omaudio.bpl\WaveAudio\WaveAcm.pas) segment .itext

   871 0002:000003FC

Line numbers for WaveAcmDrivers(omaudio.bpl\WaveAudio\WaveAcmDrivers.pas) segment .text

   103 0001:0001B79C   104 0001:0001B7B9   105 0001:0001B7C2   106 0001:0001B7C5
   107 0001:0001B7CF   108 0001:0001B7D9   110 0001:0001B7E6   113 0001:0001B808
   114 0001:0001B813   115 0001:0001B81A   116 0001:0001B822   117 0001:0001B82E
   122 0001:0001B83C   123 0001:0001B840   124 0001:0001B851   125 0001:0001B85A
   131 0001:0001B860   132 0001:0001B889   133 0001:0001B88E   134 0001:0001B89C
   135 0001:0001B8A8   136 0001:0001B8B7   137 0001:0001B8BD   140 0001:0001B8DC
   141 0001:0001B8DF   145 0001:0001B8E1   133 0001:0001B8E2   146 0001:0001B8E5
   152 0001:0001B910   153 0001:0001B922   154 0001:0001B927   155 0001:0001B932
   156 0001:0001B93B   157 0001:0001B943   158 0001:0001B949   161 0001:0001B968
   162 0001:0001B96B   166 0001:0001B96D   154 0001:0001B96E   167 0001:0001B971
   170 0001:0001B980   171 0001:0001B986   172 0001:0001B98F   178 0001:0001B994
   179 0001:0001B9A4   180 0001:0001B9AD   181 0001:0001B9B8   182 0001:0001B9C3
   183 0001:0001B9CB   184 0001:0001B9D7   186 0001:0001B9D9   180 0001:0001B9DA
   187 0001:0001B9DD   192 0001:0001B9E4   193 0001:0001B9F9   194 0001:0001BA02
   195 0001:0001BA05   196 0001:0001BA17   199 0001:0001BA34   200 0001:0001BA3F
   201 0001:0001BA4A   202 0001:0001BA56   208 0001:0001BA64   209 0001:0001BA6D
   210 0001:0001BA6F   211 0001:0001BA72   213 0001:0001BA76   214 0001:0001BA88
   215 0001:0001BA8D   216 0001:0001BA93   217 0001:0001BA99   218 0001:0001BA9F
   219 0001:0001BAAF   221 0001:0001BABF   223 0001:0001BAC2   233 0001:0001BACC
   234 0001:0001BADA   235 0001:0001BAEC   236 0001:0001BAF4   237 0001:0001BB02
   238 0001:0001BB1C   239 0001:0001BB2B   240 0001:0001BB32   242 0001:0001BB38
   243 0001:0001BB47   245 0001:0001BB4F   246 0001:0001BB61   247 0001:0001BB6B
   249 0001:0001BB74   251 0001:0001BB84   252 0001:0001BB92   262 0001:0001BBA0
   264 0001:0001BBB0   265 0001:0001BBBD   267 0001:0001BBC6   269 0001:0001BBD6
   272 0001:0001BC01   275 0001:0001BC11   237 0001:0001BC14   277 0001:0001BC2A
   280 0001:0001BC3D   289 0001:0001BC44   290 0001:0001BC4E   291 0001:0001BC50
   292 0001:0001BC53   294 0001:0001BC5B   295 0001:0001BC65   297 0001:0001BC6B
   298 0001:0001BC7D   300 0001:0001BC87   301 0001:0001BCA1   302 0001:0001BCAA
   303 0001:0001BCB3   304 0001:0001BCBC   305 0001:0001BCC7   306 0001:0001BCD2
   307 0001:0001BCDB   308 0001:0001BCE4   309 0001:0001BCED   310 0001:0001BCF6
   311 0001:0001BCFF   312 0001:0001BD08   313 0001:0001BD1B   314 0001:0001BD2E
   315 0001:0001BD41   316 0001:0001BD54   319 0001:0001BD67   321 0001:0001BD6E
   323 0001:0001BD71   326 0001:0001BD7C   327 0001:0001BD8E   328 0001:0001BD97
   329 0001:0001BD9B   330 0001:0001BDAB   333 0001:0001BDC8   334 0001:0001BDCC
   335 0001:0001BDDC   336 0001:0001BDE5   339 0001:0001BDEC   340 0001:0001BDF2
   341 0001:0001BDFB   347 0001:0001BE00   348 0001:0001BE10   349 0001:0001BE17
   350 0001:0001BE25   351 0001:0001BE31   352 0001:0001BE42   354 0001:0001BE47
   349 0001:0001BE48   355 0001:0001BE4B   363 0001:0001BE54   364 0001:0001BE89
   365 0001:0001BE8E   366 0001:0001BE9C   367 0001:0001BEA8   368 0001:0001BEC8
   369 0001:0001BEE3   370 0001:0001BEE7   371 0001:0001BEEA   374 0001:0001BEEC
   365 0001:0001BEED   375 0001:0001BEF0   383 0001:0001BF28   384 0001:0001BF55
   385 0001:0001BF5A   386 0001:0001BF68   387 0001:0001BF74   388 0001:0001BF94
   389 0001:0001BFAF   390 0001:0001BFB3   391 0001:0001BFB6   394 0001:0001BFB8
   385 0001:0001BFB9   395 0001:0001BFBC   398 0001:0001BFF0   399 0001:0001BFF1
   400 0001:0001BFF3   401 0001:0001BFFD   402 0001:0001C000   405 0001:0001C020

Line numbers for WaveAcmDrivers(omaudio.bpl\WaveAudio\WaveAcmDrivers.pas) segment .itext

   408 0002:00000404

Line numbers for WaveUtils(omaudio.bpl\WaveAudio\WaveUtils.pas) segment .text

   213 0001:0001C918   214 0001:0001C922   216 0001:0001C934   217 0001:0001C93A
   220 0001:0001C965   222 0001:0001C976   223 0001:0001C982   224 0001:0001C987
   227 0001:0001C98E   230 0001:0001C996   232 0001:0001C99D   233 0001:0001C9AB
   234 0001:0001C9B1   235 0001:0001C9BE   236 0001:0001C9CF   238 0001:0001C9E4
   241 0001:0001C9F1   242 0001:0001C9FF   243 0001:0001CA0C   244 0001:0001CA1C
   246 0001:0001CA3C   250 0001:0001CA46   251 0001:0001CA54   252 0001:0001CA61
   253 0001:0001CA71   255 0001:0001CA91   258 0001:0001CA9B   262 0001:0001CA9F
   263 0001:0001CAA2   274 0001:0001CAAC   275 0001:0001CAB6   276 0001:0001CAB8
   277 0001:0001CAC7   280 0001:0001CAE4   282 0001:0001CAEC   283 0001:0001CAFE
   286 0001:0001CB14   287 0001:0001CB23   289 0001:0001CB42   294 0001:0001CB50
   295 0001:0001CB5A   296 0001:0001CB5C   297 0001:0001CB6B   299 0001:0001CB82
   300 0001:0001CB8D   301 0001:0001CB98   303 0001:0001CB9A   308 0001:0001CBAC
   309 0001:0001CBBB   310 0001:0001CBBF   311 0001:0001CBCF   312 0001:0001CBDD
   313 0001:0001CBEA   314 0001:0001CBF9   316 0001:0001CC0E   317 0001:0001CC15
   318 0001:0001CC31   319 0001:0001CC37   320 0001:0001CC3F   323 0001:0001CC56
   325 0001:0001CC6D   334 0001:0001CC80   335 0001:0001CC90   336 0001:0001CC94
   337 0001:0001CC9E   338 0001:0001CCA8   339 0001:0001CCB6   340 0001:0001CCC5
   342 0001:0001CCD2   343 0001:0001CCE1   344 0001:0001CCF0   348 0001:0001CD1F
   349 0001:0001CD2E   350 0001:0001CD3F   353 0001:0001CD51   357 0001:0001CD74
   358 0001:0001CD7A   359 0001:0001CD83   360 0001:0001CD8C   361 0001:0001CD94
   370 0001:0001CD98   371 0001:0001CDA7   372 0001:0001CDAB   374 0001:0001CDBB
   375 0001:0001CDC5   376 0001:0001CDCB   377 0001:0001CDD9   379 0001:0001CDF9
   382 0001:0001CE0C   388 0001:0001CE1C   389 0001:0001CE2A   390 0001:0001CE33
   392 0001:0001CE37   393 0001:0001CE42   395 0001:0001CE56   396 0001:0001CE5E
   399 0001:0001CE60   406 0001:0001CE6C   407 0001:0001CE72   408 0001:0001CE80
   409 0001:0001CE89   410 0001:0001CE8D   411 0001:0001CE9B   417 0001:0001CEA0
   418 0001:0001CEA5   419 0001:0001CEB6   421 0001:0001CEC0   422 0001:0001CECB
   423 0001:0001CECF   425 0001:0001CED3   430 0001:0001CEDC   431 0001:0001CEE2
   432 0001:0001CEE9   433 0001:0001CEF2   434 0001:0001CF01   463 0001:0001CF24
   464 0001:0001CF42   466 0001:0001CF44   467 0001:0001CF51   468 0001:0001CF5C
   471 0001:0001CFB2   474 0001:0001D001   475 0001:0001D00E   478 0001:0001D056
   480 0001:0001D095   481 0001:0001D0A0   482 0001:0001D0A6   484 0001:0001D0BC
   490 0001:0001D160   491 0001:0001D167   493 0001:0001D174   494 0001:0001D176
   500 0001:0001D178   501 0001:0001D192   511 0001:0001D194   512 0001:0001D19E
   513 0001:0001D1A0   514 0001:0001D1A6   516 0001:0001D1AB   517 0001:0001D1B2
   518 0001:0001D1B4   519 0001:0001D1B5   514 0001:0001D1B7   521 0001:0001D1BC
   522 0001:0001D1C4   524 0001:0001D1C9   525 0001:0001D1CB   526 0001:0001D1DA
   532 0001:0001D1E0   533 0001:0001D1EA   534 0001:0001D1EC   535 0001:0001D1F2
   537 0001:0001D1F7   538 0001:0001D1FF   539 0001:0001D201   540 0001:0001D204
   535 0001:0001D207   542 0001:0001D20C   543 0001:0001D21A   545 0001:0001D220
   546 0001:0001D22C   547 0001:0001D22F   548 0001:0001D235   549 0001:0001D247
   550 0001:0001D250   552 0001:0001D257   561 0001:0001D25C   562 0001:0001D25F
   563 0001:0001D265   566 0001:0001D270   567 0001:0001D275   568 0001:0001D27A
   569 0001:0001D27F   570 0001:0001D280   564 0001:0001D281   572 0001:0001D285
   573 0001:0001D287   578 0001:0001D28C   579 0001:0001D28F   580 0001:0001D295
   583 0001:0001D2A2   584 0001:0001D2A8   585 0001:0001D2AE   586 0001:0001D2B4
   587 0001:0001D2B7   581 0001:0001D2BA   589 0001:0001D2BE   590 0001:0001D2C0
   592 0001:0001D2C4   593 0001:0001D2D0   594 0001:0001D2D2   595 0001:0001D2D8
   596 0001:0001D2EA   597 0001:0001D2F3   599 0001:0001D2FA   604 0001:0001D300
   605 0001:0001D304   606 0001:0001D306   608 0001:0001D30C   609 0001:0001D30E
   610 0001:0001D320   611 0001:0001D32E   613 0001:0001D339   616 0001:0001D33B
   626 0001:0001D340   627 0001:0001D34C   628 0001:0001D352   630 0001:0001D357
   631 0001:0001D36E   632 0001:0001D376   633 0001:0001D37D   634 0001:0001D381
   635 0001:0001D383   636 0001:0001D385   637 0001:0001D386   628 0001:0001D388
   639 0001:0001D38D   640 0001:0001D38F   646 0001:0001D394   647 0001:0001D3A0
   648 0001:0001D3A6   650 0001:0001D3AB   651 0001:0001D3C2   652 0001:0001D3CA
   653 0001:0001D3D1   654 0001:0001D3D9   655 0001:0001D3DE   656 0001:0001D3E1
   657 0001:0001D3E4   648 0001:0001D3E7   659 0001:0001D3EC   660 0001:0001D3EE
   662 0001:0001D3F4   663 0001:0001D400   664 0001:0001D402   665 0001:0001D408
   666 0001:0001D41A   667 0001:0001D423   669 0001:0001D42A   686 0001:0001D430
   687 0001:0001D438   688 0001:0001D44A   689 0001:0001D458   690 0001:0001D46A
   691 0001:0001D478   692 0001:0001D47E   694 0001:0001D48C   695 0001:0001D494
   696 0001:0001D49F   697 0001:0001D4A2   692 0001:0001D4A3   698 0001:0001D4A6
   699 0001:0001D4AF   700 0001:0001D4BE   702 0001:0001D4C6   703 0001:0001D4CB
   704 0001:0001D4D9   706 0001:0001D4E7   707 0001:0001D4ED   708 0001:0001D4F3
   703 0001:0001D4F4   709 0001:0001D4F7   710 0001:0001D50B   700 0001:0001D50E
   713 0001:0001D523   716 0001:0001D540   718 0001:0001D550   719 0001:0001D552
   732 0001:0001D558   733 0001:0001D560   734 0001:0001D572   735 0001:0001D580
   736 0001:0001D592   737 0001:0001D5A0   738 0001:0001D5A6   740 0001:0001D5B4
   741 0001:0001D5BC   742 0001:0001D5C7   743 0001:0001D5CA   738 0001:0001D5CB
   744 0001:0001D5CE   745 0001:0001D5D7   746 0001:0001D5E6   748 0001:0001D5EE
   749 0001:0001D5F3   750 0001:0001D601   752 0001:0001D60F   753 0001:0001D615
   754 0001:0001D61C   749 0001:0001D61D   755 0001:0001D620   756 0001:0001D635
   746 0001:0001D639   759 0001:0001D64E   762 0001:0001D66B   764 0001:0001D67B
   765 0001:0001D67D   767 0001:0001D684   768 0001:0001D690   769 0001:0001D692
   770 0001:0001D698   771 0001:0001D6AA   772 0001:0001D6B3   774 0001:0001D6BA
   783 0001:0001D6C0   784 0001:0001D6CF   785 0001:0001D6D3   786 0001:0001D6E1
   788 0001:0001D701   789 0001:0001D70F   791 0001:0001D727   792 0001:0001D72E
   793 0001:0001D73D   794 0001:0001D74A   795 0001:0001D758   796 0001:0001D75F
   797 0001:0001D762   798 0001:0001D765   799 0001:0001D76D   800 0001:0001D775
   801 0001:0001D788   802 0001:0001D796   804 0001:0001D7B8   807 0001:0001D7DC
   808 0001:0001D7E7   812 0001:0001D804   817 0001:0001D832   818 0001:0001D839
   819 0001:0001D846   822 0001:0001D84F   830 0001:0001D85C   831 0001:0001D861
   833 0001:0001D863   834 0001:0001D868   835 0001:0001D871   836 0001:0001D879
   838 0001:0001D87F   839 0001:0001D8A2   840 0001:0001D8AB   841 0001:0001D8B4
   842 0001:0001D8BD   843 0001:0001D8C6   845 0001:0001D8CD   846 0001:0001D8D9
   847 0001:0001D8E1   849 0001:0001D8E7   850 0001:0001D8FE   851 0001:0001D907
   853 0001:0001D90D   860 0001:0001D914   862 0001:0001D97B   864 0001:0001D987
   866 0001:0001D993   868 0001:0001D99F   870 0001:0001D9AB   872 0001:0001D9B7
   874 0001:0001D9C3   876 0001:0001D9CF   878 0001:0001D9DB   880 0001:0001D9E7
   882 0001:0001D9F3   884 0001:0001D9FF   886 0001:0001DA0B   888 0001:0001DA17
   890 0001:0001DA23   892 0001:0001DA2F   894 0001:0001DA3B   896 0001:0001DA47
   898 0001:0001DA53   900 0001:0001DA5F   902 0001:0001DA6A   907 0001:0001DA6C
   909 0001:0001DA6E   911 0001:0001DA78   912 0001:0001DA8F   913 0001:0001DA96
   914 0001:0001DAAD   915 0001:0001DAB4   916 0001:0001DACB   917 0001:0001DAD2
   918 0001:0001DAE9   919 0001:0001DAF0   920 0001:0001DB07   921 0001:0001DB0E
   922 0001:0001DB25   923 0001:0001DB2C   924 0001:0001DB43   925 0001:0001DB4A
   926 0001:0001DB61   927 0001:0001DB68   928 0001:0001DB7F   929 0001:0001DB86
   930 0001:0001DB9D   931 0001:0001DBA4   932 0001:0001DBBB   933 0001:0001DBC2
   934 0001:0001DBD9   935 0001:0001DBE0   936 0001:0001DBF7   937 0001:0001DBFE
   938 0001:0001DC15   939 0001:0001DC1C   940 0001:0001DC33   941 0001:0001DC3A
   942 0001:0001DC51   943 0001:0001DC55   944 0001:0001DC6C   945 0001:0001DC70
   946 0001:0001DC87   947 0001:0001DC8B   948 0001:0001DCA2   949 0001:0001DCA6
   950 0001:0001DCBD   952 0001:0001DCBF   957 0001:0001DCC4   958 0001:0001DCC7
   960 0001:0001DCC9   961 0001:0001DCDA   962 0001:0001DCE4   964 0001:0001DCF2
   970 0001:0001DCF8   971 0001:0001DD09   972 0001:0001DD16   973 0001:0001DD23
   974 0001:0001DD30   975 0001:0001DD41   977 0001:0001DD49   978 0001:0001DD50
   979 0001:0001DD5D   980 0001:0001DD61   982 0001:0001DD6E   984 0001:0001DD79
   986 0001:0001DDA4   989 0001:0001DE3C   992 0001:0001DEAF   995 0001:0001DF1E
   998 0001:0001DF6B  1001 0001:0001DFB5  1003 0001:0001DFDD  1005 0001:0001DFEC
  1017 0001:0001E054  1018 0001:0001E066  1019 0001:0001E06C  1020 0001:0001E080
  1021 0001:0001E0A2  1023 0001:0001E0B0  1024 0001:0001E0B8  1025 0001:0001E0D1
  1029 0001:0001E0D9  1032 0001:0001E0FF  1033 0001:0001E105  1034 0001:0001E10B
  1027 0001:0001E118  1037 0001:0001E12A  1039 0001:0001E130  1040 0001:0001E138
  1041 0001:0001E13D  1043 0001:0001E142  1046 0001:0001E147  1048 0001:0001E15E
  1049 0001:0001E166  1051 0001:0001E177  1057 0001:0001E184  1058 0001:0001E1A7
  1060 0001:0001E1AE

Line numbers for WaveUtils(omaudio.bpl\WaveAudio\WaveUtils.pas) segment .itext

  1053 0002:0000040C  1054 0002:00000415  1056 0002:00000426

Line numbers for WaveStorage(omaudio.bpl\WaveAudio\WaveStorage.pas) segment .text

   276 0001:0001ED1C   277 0001:0001ED34   278 0001:0001ED3D   279 0001:0001ED41
   280 0001:0001ED44   281 0001:0001ED4B   284 0001:0001ED6C   285 0001:0001ED77
   286 0001:0001ED85   287 0001:0001ED91   289 0001:0001ED9B   290 0001:0001EDA2
   291 0001:0001EDA7   292 0001:0001EDAD   293 0001:0001EDB5   294 0001:0001EDC1
   299 0001:0001EDD0   300 0001:0001EDD6   301 0001:0001EDDD   302 0001:0001EDE9
   305 0001:0001EDF0   306 0001:0001EDF8   307 0001:0001EDFA   309 0001:0001EE00
   310 0001:0001EE16   312 0001:0001EE1A   313 0001:0001EE1E   314 0001:0001EE2E
   315 0001:0001EE35   318 0001:0001EE37   321 0001:0001EE40   322 0001:0001EE43
   323 0001:0001EE45   325 0001:0001EE4B   326 0001:0001EE5A   327 0001:0001EE69
   328 0001:0001EE74   329 0001:0001EE79   330 0001:0001EE7D   331 0001:0001EE84
   332 0001:0001EE96   334 0001:0001EE98   338 0001:0001EE9C   339 0001:0001EEA2
   341 0001:0001EEAE   342 0001:0001EEB1   345 0001:0001EEB4   346 0001:0001EEB9
   347 0001:0001EEBB   349 0001:0001EECC   350 0001:0001EED9   352 0001:0001EEDD
   353 0001:0001EEE9   354 0001:0001EEED   357 0001:0001EEEF   360 0001:0001EEF8
   361 0001:0001EEFB   362 0001:0001EEFD   364 0001:0001EF03   365 0001:0001EF0E
   366 0001:0001EF13   367 0001:0001EF17   369 0001:0001EF19   373 0001:0001EF1C
   374 0001:0001EF22   376 0001:0001EF2E   377 0001:0001EF31   380 0001:0001EF34
   381 0001:0001EF35   383 0001:0001EF3B   384 0001:0001EF3F   385 0001:0001EF43
   386 0001:0001EF4A   388 0001:0001EF54   391 0001:0001EF58   392 0001:0001EF59
   393 0001:0001EF60   394 0001:0001EF6A   398 0001:0001EF6C   399 0001:0001EF74
   402 0001:0001EF78   403 0001:0001EF84   404 0001:0001EF86   405 0001:0001EF8A
   408 0001:0001EF95   409 0001:0001EF97   411 0001:0001EFAF   412 0001:0001EFB7
   416 0001:0001EFBE   417 0001:0001EFC8   418 0001:0001EFD5   420 0001:0001EFE7
   421 0001:0001EFF0   425 0001:0001EFF2   428 0001:0001EFFC   429 0001:0001F00B
   430 0001:0001F00D   432 0001:0001F013   433 0001:0001F015   436 0001:0001F034
   438 0001:0001F03B   439 0001:0001F047   440 0001:0001F05A   442 0001:0001F05C
   445 0001:0001F065   448 0001:0001F070   449 0001:0001F073   451 0001:0001F07F
   452 0001:0001F083   454 0001:0001F08A   455 0001:0001F08F   457 0001:0001F094
   458 0001:0001F0A9   460 0001:0001F0B0   461 0001:0001F0B4   464 0001:0001F0B8
   465 0001:0001F0BB   466 0001:0001F0C1   468 0001:0001F0D3   469 0001:0001F0D6
   473 0001:0001F0D8   474 0001:0001F0DE   475 0001:0001F0ED   478 0001:0001F0F0
   479 0001:0001F0F6   480 0001:0001F101   482 0001:0001F10E   483 0001:0001F115
   486 0001:0001F118   487 0001:0001F11B   488 0001:0001F126   490 0001:0001F130
   491 0001:0001F132   496 0001:0001F134   497 0001:0001F13E   498 0001:0001F145
   499 0001:0001F156   500 0001:0001F164   502 0001:0001F188   504 0001:0001F19D
   507 0001:0001F1A8   508 0001:0001F1AB   509 0001:0001F1B6   511 0001:0001F1C3
   512 0001:0001F1C5   515 0001:0001F1C8   516 0001:0001F1CB   517 0001:0001F1D6
   519 0001:0001F1DB   520 0001:0001F1DD   523 0001:0001F1E0   524 0001:0001F1E3
   525 0001:0001F1EE   527 0001:0001F1F3   528 0001:0001F1F5   532 0001:0001F1F8
   533 0001:0001F1FD   536 0001:0001F200   537 0001:0001F203   538 0001:0001F215
   541 0001:0001F218   542 0001:0001F21B   543 0001:0001F226   545 0001:0001F230
   546 0001:0001F232   549 0001:0001F234   550 0001:0001F237   551 0001:0001F242
   553 0001:0001F247   554 0001:0001F249   557 0001:0001F24C   558 0001:0001F253
   560 0001:0001F264   561 0001:0001F272   564 0001:0001F27E   565 0001:0001F287
   568 0001:0001F28C   569 0001:0001F292   570 0001:0001F299   571 0001:0001F2A5
   572 0001:0001F2B7   573 0001:0001F2C7   574 0001:0001F2CB   575 0001:0001F2D2
   578 0001:0001F2D8   579 0001:0001F2DF   580 0001:0001F2EB   581 0001:0001F2FF
   586 0001:0001F304   587 0001:0001F30B   588 0001:0001F31E   589 0001:0001F32C
   591 0001:0001F343   593 0001:0001F353   598 0001:0001F358   599 0001:0001F35F
   600 0001:0001F375   601 0001:0001F383   603 0001:0001F39A   605 0001:0001F3AA
   608 0001:0001F3B0   609 0001:0001F3B3   610 0001:0001F3BA   611 0001:0001F3C6
   612 0001:0001F3CA   613 0001:0001F3D1   617 0001:0001F3D4   618 0001:0001F3D8
   623 0001:0001F3DC   624 0001:0001F3E9   626 0001:0001F40E   627 0001:0001F41B
   628 0001:0001F429   629 0001:0001F436   630 0001:0001F444   632 0001:0001F465
   635 0001:0001F487   639 0001:0001F49C   640 0001:0001F4A0   643 0001:0001F4AC
   644 0001:0001F4B2   645 0001:0001F4C2   648 0001:0001F4C8   649 0001:0001F4CF
   652 0001:0001F508   655 0001:0001F50C   656 0001:0001F510   657 0001:0001F516
   658 0001:0001F536   663 0001:0001F53C   664 0001:0001F546   665 0001:0001F54A
   666 0001:0001F55B   667 0001:0001F569   669 0001:0001F58D   671 0001:0001F5A4
   676 0001:0001F5B0   677 0001:0001F5BD   678 0001:0001F5C1   679 0001:0001F5D2
   680 0001:0001F5E0   682 0001:0001F605   684 0001:0001F61C   695 0001:0001F628
   696 0001:0001F635   697 0001:0001F639   698 0001:0001F648   699 0001:0001F651
   701 0001:0001F666   702 0001:0001F674   704 0001:0001F697   707 0001:0001F6A1
   710 0001:0001F6B0   712 0001:0001F6B6   713 0001:0001F6C1   718 0001:0001F6CA
   722 0001:0001F6E7   725 0001:0001F70B   727 0001:0001F728   732 0001:0001F73F
   734 0001:0001F754   735 0001:0001F75E   736 0001:0001F76C   737 0001:0001F77E
   738 0001:0001F78C   740 0001:0001F7B1   743 0001:0001F7D1   746 0001:0001F7E3
   751 0001:0001F7EC   752 0001:0001F7F2   753 0001:0001F7F4   755 0001:0001F7F8
   756 0001:0001F7FF   758 0001:0001F808   765 0001:0001F810   766 0001:0001F824
   767 0001:0001F828   769 0001:0001F850   770 0001:0001F85C   771 0001:0001F86A
   772 0001:0001F874   773 0001:0001F876   774 0001:0001F88B   775 0001:0001F899
   776 0001:0001F8AE   777 0001:0001F8BC   779 0001:0001F8E3   782 0001:0001F903
   785 0001:0001F918   791 0001:0001F928   792 0001:0001F937   793 0001:0001F93B
   795 0001:0001F963   796 0001:0001F970   797 0001:0001F97F   798 0001:0001F989
   799 0001:0001F98B   800 0001:0001F9A0   801 0001:0001F9AE   802 0001:0001F9C3
   803 0001:0001F9D1   805 0001:0001F9FA   808 0001:0001FA1A   811 0001:0001FA2F
   817 0001:0001FA3C   818 0001:0001FA4C   819 0001:0001FA50   821 0001:0001FA78
   822 0001:0001FA84   823 0001:0001FA92   824 0001:0001FA9C   825 0001:0001FA9E
   826 0001:0001FAB3   827 0001:0001FAC1   830 0001:0001FAD7   831 0001:0001FAEC
   832 0001:0001FAFA   834 0001:0001FB25   837 0001:0001FB45   840 0001:0001FB5A
   846 0001:0001FB68   847 0001:0001FB78   848 0001:0001FB7C   850 0001:0001FB8F
   851 0001:0001FB9B   852 0001:0001FBA5   853 0001:0001FBA7   854 0001:0001FBBC
   855 0001:0001FBCA   857 0001:0001FBDF   858 0001:0001FBED   859 0001:0001FC01
   862 0001:0001FC1B   864 0001:0001FC3B   866 0001:0001FC50   867 0001:0001FC65
   868 0001:0001FC73   870 0001:0001FCA0   874 0001:0001FCC0   877 0001:0001FCD5
   883 0001:0001FCE0   884 0001:0001FCF0   885 0001:0001FCF4   887 0001:0001FD0C
   888 0001:0001FD18   889 0001:0001FD22   890 0001:0001FD24   891 0001:0001FD30
   892 0001:0001FD45   893 0001:0001FD53   894 0001:0001FD63   897 0001:0001FD79
   898 0001:0001FD8E   899 0001:0001FDA9   900 0001:0001FDB7   902 0001:0001FDE0
   905 0001:0001FE00   908 0001:0001FE15   911 0001:0001FE20   912 0001:0001FE24
   913 0001:0001FE2F   916 0001:0001FE34   917 0001:0001FE3A   918 0001:0001FE4E
   919 0001:0001FE62   928 0001:0001FE68   929 0001:0001FE79   930 0001:0001FE7D
   932 0001:0001FE88   933 0001:0001FE94   934 0001:0001FE99   935 0001:0001FE9E
   936 0001:0001FEAC   938 0001:0001FEB8   939 0001:0001FEC5   940 0001:0001FED0
   942 0001:0001FEDD   943 0001:0001FEEA   944 0001:0001FEF8   946 0001:0001FF11
   947 0001:0001FF1D   948 0001:0001FF2E   949 0001:0001FF41   950 0001:0001FF4F
   952 0001:0001FF76   955 0001:0001FF8D   956 0001:0001FF99   944 0001:0001FFA0
   958 0001:0001FFB6   960 0001:0001FFC9   962 0001:0001FFDA   965 0001:0001FFEC
   975 0001:0001FFFC   976 0001:0002000E   977 0001:00020012   979 0001:0002001E
   980 0001:00020023   981 0001:00020030   982 0001:00020040   983 0001:0002004E
   984 0001:00020051   986 0001:0002005F   987 0001:0002006D   988 0001:00020077
   989 0001:00020083   990 0001:0002008D   991 0001:00020097   992 0001:000200A2
   993 0001:000200A5   984 0001:000200A8   994 0001:000200AD   995 0001:000200B8
   996 0001:000200C6   998 0001:000200E1   999 0001:000200EF  1000 0001:000200FD
  1002 0001:0002011B  1004 0001:0002012E  1007 0001:0002013F  1010 0001:0002015C
  1011 0001:0002015F  1013 0001:0002016D  1014 0001:00020178  1015 0001:0002017B
  1011 0001:0002017E  1016 0001:00020183  1019 0001:00020193  1024 0001:000201A0
  1025 0001:000201AB  1026 0001:000201B5  1027 0001:000201C2  1028 0001:000201CF
  1029 0001:000201DB  1032 0001:000201EC  1033 0001:000201EF  1034 0001:000201FC
  1035 0001:00020204  1036 0001:00020211  1037 0001:00020219  1038 0001:00020221
  1039 0001:00020226  1042 0001:00020228  1043 0001:0002022E  1045 0001:00020232
  1046 0001:00020241  1049 0001:00020255  1050 0001:0002025F  1055 0001:00020264
  1056 0001:0002026A  1057 0001:00020271  1058 0001:0002027D  1063 0001:00020284
  1064 0001:0002028C  1066 0001:000202B3  1071 0001:000202B8  1072 0001:000202BE
  1073 0001:000202C5  1074 0001:000202D1  1077 0001:000202D8  1078 0001:000202E0
  1079 0001:000202E2  1082 0001:00020302  1084 0001:0002030F  1085 0001:0002031A
  1088 0001:00020321  1090 0001:00020323  1095 0001:0002032C  1096 0001:00020330
  1098 0001:0002033B  1100 0001:00020349  1101 0001:00020357  1103 0001:00020362
  1104 0001:0002036B  1106 0001:00020377  1107 0001:00020386  1108 0001:0002038D
  1109 0001:00020396  1110 0001:0002039F  1111 0001:000203A8  1112 0001:000203B1
  1113 0001:000203C0  1114 0001:000203CF  1115 0001:000203DE  1117 0001:000203EE
  1118 0001:000203F9  1120 0001:00020400  1121 0001:00020407  1127 0001:0002040C
  1128 0001:0002041A  1130 0001:00020424  1131 0001:00020427  1132 0001:0002042C
  1133 0001:00020437  1134 0001:0002043A  1136 0001:00020444  1138 0001:00020450
  1139 0001:00020458  1141 0001:00020464  1143 0001:0002047A  1144 0001:00020493
  1146 0001:0002049F  1147 0001:000204A9  1149 0001:000204B5  1150 0001:000204C4
  1151 0001:000204CB  1152 0001:000204D4  1154 0001:000204DF  1155 0001:000204E5
  1156 0001:000204F0  1157 0001:000204F9  1158 0001:00020503  1159 0001:00020512
  1160 0001:00020520  1161 0001:0002052F  1162 0001:00020543  1163 0001:00020545
  1164 0001:0002054D  1166 0001:00020557  1167 0001:00020561  1169 0001:00020569
  1170 0001:00020571  1172 0001:0002057C  1177 0001:00020595  1178 0001:000205A3
  1183 0001:000205AC  1184 0001:000205B1  1187 0001:000205E6  1190 0001:000205EC
  1191 0001:000205F1  1192 0001:000205F3  1196 0001:00020621  1198 0001:0002062C
  1199 0001:00020637  1202 0001:0002063E  1204 0001:00020640  1207 0001:00020648
  1208 0001:0002064B  1210 0001:00020652  1211 0001:0002065A  1213 0001:00020661
  1214 0001:00020668  1221 0001:0002066C  1222 0001:0002067A  1224 0001:00020684
  1225 0001:00020687  1226 0001:0002068D  1227 0001:00020698  1228 0001:0002069D
  1229 0001:000206AE  1231 0001:000206BA  1232 0001:000206C4  1234 0001:000206D0
  1235 0001:000206ED  1237 0001:000206F5  1239 0001:00020709  1240 0001:00020713
  1242 0001:0002071A  1243 0001:0002071F  1244 0001:0002072E  1245 0001:00020735
  1246 0001:0002073E  1247 0001:00020749  1248 0001:0002074F  1249 0001:00020755
  1250 0001:00020764  1251 0001:00020776  1252 0001:00020785  1253 0001:0002078D
  1255 0001:00020797  1256 0001:000207A1  1259 0001:000207B7  1262 0001:000207BF
  1266 0001:000207C3  1267 0001:000207D1  1272 0001:000207DC  1273 0001:000207EE
  1274 0001:00020807  1279 0001:00020824  1280 0001:0002083C  1281 0001:0002085C
  1286 0001:0002087C  1287 0001:0002088E  1288 0001:000208A7  1293 0001:000208C4
  1294 0001:000208DC  1295 0001:000208FC  1300 0001:0002091C  1301 0001:0002092E
  1302 0001:00020937  1303 0001:00020946  1306 0001:00020960  1307 0001:0002096B
  1308 0001:00020973  1309 0001:0002097F  1312 0001:00020990  1313 0001:00020997
  1315 0001:0002099E  1317 0001:000209A2  1318 0001:000209AE  1321 0001:000209BB
  1323 0001:000209C2  1327 0001:000209C8  1328 0001:000209D0  1331 0001:000209D4
  1332 0001:000209D7  1333 0001:000209DF  1336 0001:000209E4  1337 0001:000209EA
  1338 0001:000209F3  1339 0001:00020A18  1342 0001:00020A2C  1343 0001:00020A32
  1344 0001:00020A43  1345 0001:00020A50  1346 0001:00020A61  1348 0001:00020A6D
  1349 0001:00020A76  1353 0001:00020A7C  1354 0001:00020A82  1357 0001:00020A84
  1358 0001:00020A8A  1359 0001:00020A9B  1361 0001:00020AA9  1362 0001:00020AAB
  1367 0001:00020AB0  1368 0001:00020AC2  1369 0001:00020ACB  1370 0001:00020ADA
  1373 0001:00020AF4  1374 0001:00020AFF  1375 0001:00020B07  1376 0001:00020B13
  1379 0001:00020B24  1380 0001:00020B2B  1382 0001:00020B32  1384 0001:00020B36
  1385 0001:00020B42  1388 0001:00020B4F  1390 0001:00020B56  1394 0001:00020B5C
  1395 0001:00020B64  1398 0001:00020B68  1399 0001:00020B6B  1400 0001:00020B73
  1403 0001:00020B78  1404 0001:00020B7E  1405 0001:00020B87  1406 0001:00020BAC
  1409 0001:00020BC0  1410 0001:00020BC7  1412 0001:00020BD8  1413 0001:00020BE4
  1414 0001:00020BEF  1416 0001:00020BF7  1417 0001:00020C08  1419 0001:00020C14
  1420 0001:00020C1D  1425 0001:00020C24  1426 0001:00020C42  1428 0001:00020C5E
  1429 0001:00020C6A  1433 0001:00020CC2  1436 0001:00020CD1  1437 0001:00020CDE
  1438 0001:00020CFA  1443 0001:00020D90  1444 0001:00020DA8  1445 0001:00020DB4
  1446 0001:00020DB7  1450 0001:00020DD8  1451 0001:00020DDB  1454 0001:00020DDC
  1455 0001:00020DDF  1456 0001:00020DE6  1460 0001:00020DE8  1461 0001:00020DEE
  1462 0001:00020DF7  1466 0001:00020DFC  1467 0001:00020E02  1468 0001:00020E0B
  1472 0001:00020E10  1473 0001:00020E15  1478 0001:00020E18  1479 0001:00020E2A
  1480 0001:00020E33  1481 0001:00020E4A  1484 0001:00020E64  1485 0001:00020E6F
  1486 0001:00020E77  1487 0001:00020E83  1490 0001:00020E94  1491 0001:00020E98
  1492 0001:00020E9F  1493 0001:00020EA6  1496 0001:00020EAC  1497 0001:00020EB2
  1498 0001:00020EC2  1503 0001:00020EC8  1504 0001:00020ED1  1507 0001:00020EF8
  1508 0001:00020EFC  1509 0001:00020F0E  1511 0001:00020F33  1512 0001:00020F37
  1513 0001:00020F39  1508 0001:00020F3A  1516 0001:00020F3F  1517 0001:00020F43
  1522 0001:00020F50  1523 0001:00020F58  1524 0001:00020F6A  1523 0001:00020F7F
  1525 0001:00020F82  1526 0001:00020F8A  1531 0001:00020F90  1532 0001:00020F99
  1533 0001:00020FA0  1534 0001:00020FB2  1536 0001:00020FCA  1537 0001:00020FCD
  1538 0001:00020FCF  1533 0001:00020FD0  1539 0001:00020FD3

Line numbers for WaveStorage(omaudio.bpl\WaveAudio\WaveStorage.pas) segment .itext

  1541 0002:00000428

Line numbers for WaveIO(omaudio.bpl\WaveAudio\WaveIO.pas) segment .text

   166 0001:0002115C   167 0001:0002118B   168 0001:00021194   170 0001:000211A0
   171 0001:000211A7   172 0001:000211AD   173 0001:000211B3   175 0001:000211C5
   177 0001:000211E1   178 0001:000211F5   180 0001:000211FF   181 0001:00021209
   182 0001:0002120D   184 0001:00021260   187 0001:0002129C   188 0001:000212A7
   189 0001:000212B0   190 0001:000212B7   191 0001:000212C2   192 0001:000212CD
   193 0001:000212D8   194 0001:000212E3   195 0001:000212EF   196 0001:000212FB
   213 0001:0002130C   214 0001:00021316   215 0001:0002131A   216 0001:0002132A
   217 0001:00021334   218 0001:00021342   220 0001:0002135A   221 0001:00021364
   224 0001:00021379   229 0001:00021380   230 0001:0002138C   231 0001:0002139A
   233 0001:000213A7   234 0001:000213B3   236 0001:000213BE   237 0001:000213C4
   238 0001:000213D2   240 0001:000213D4   232 0001:000213E1   242 0001:000213EC
   243 0001:000213F7   246 0001:00021400   247 0001:00021406   248 0001:00021416
   249 0001:00021419   252 0001:0002141C   253 0001:00021422   255 0001:00021427
   256 0001:00021432   257 0001:0002144A   258 0001:00021460   260 0001:00021463
   264 0001:000214A0   265 0001:000214A7   268 0001:000214A8   269 0001:000214AE
   271 0001:000214B9   272 0001:000214BD   274 0001:000214C6   276 0001:000214CD
   279 0001:000214D0   280 0001:000214D6   282 0001:000214E1   283 0001:000214E5
   285 0001:000214EE   287 0001:000214F8   291 0001:000214FC   292 0001:00021507
   296 0001:00021508   297 0001:0002150E   299 0001:00021515   300 0001:00021519
   304 0001:0002151C   305 0001:00021520   309 0001:00021524   310 0001:0002152E
   314 0001:00021530   315 0001:0002153E   318 0001:00021540   319 0001:00021546
   320 0001:00021556   323 0001:0002155C   325 0001:00021562   326 0001:0002156B
   328 0001:0002157A   329 0001:00021587   332 0001:0002158C   333 0001:0002158F
   334 0001:00021593   335 0001:0002159D   336 0001:000215A7   339 0001:000215AC
   340 0001:000215B0   341 0001:000215BE   342 0001:000215C2   343 0001:000215C9
   344 0001:000215D3   345 0001:000215DD   348 0001:000215E0   349 0001:000215E1
   350 0001:000215E8   351 0001:000215F2   354 0001:000215F4   355 0001:000215F5
   356 0001:00021602   357 0001:0002160C   360 0001:00021610   361 0001:00021611
   362 0001:00021618   363 0001:00021622   366 0001:00021624   367 0001:00021625
   368 0001:0002162C   369 0001:00021636   372 0001:00021638   373 0001:0002164E
   374 0001:00021655   376 0001:0002165F   377 0001:0002167D   380 0001:000216A0
   381 0001:000216A9   384 0001:000216C0   386 0001:000216D9   389 0001:000216E0
   390 0001:000216E3   391 0001:000216F3   392 0001:00021706   396 0001:00021708
   397 0001:00021713   401 0001:00021714   402 0001:0002171F   405 0001:00021720
   406 0001:00021723   407 0001:00021735   410 0001:00021738   412 0001:0002173B
   413 0001:00021741   414 0001:00021748   415 0001:00021755   416 0001:00021763
   417 0001:00021771   419 0001:0002177A   420 0001:00021781   421 0001:0002178F
   423 0001:00021796   426 0001:00021798   427 0001:0002179B   430 0001:000217A2
   431 0001:000217AB   433 0001:000217BC   432 0001:000217C3   436 0001:000217D8
   437 0001:000217DD   439 0001:000217E2   442 0001:000217E4   443 0001:000217ED
   446 0001:000217F4   447 0001:000217FD   449 0001:0002180E   448 0001:00021815
   451 0001:00021828   453 0001:00021832   456 0001:00021838   457 0001:00021846
   458 0001:0002184A   459 0001:00021858   462 0001:00021886   463 0001:0002188E
   464 0001:0002189C   466 0001:000218B1   471 0001:000218C1   472 0001:000218C9
   473 0001:000218D7   475 0001:000218EE   480 0001:000218FE   481 0001:00021906
   482 0001:00021914   484 0001:00021929   489 0001:00021939   490 0001:00021941
   491 0001:0002194F   493 0001:00021964   498 0001:00021974   499 0001:0002197C
   500 0001:0002198A   502 0001:000219A1   507 0001:000219B1   508 0001:000219B9
   509 0001:000219C7   511 0001:000219DC   515 0001:000219EC   518 0001:000219FF
   520 0001:00021A15   523 0001:00021A20   524 0001:00021A26   525 0001:00021A36
   526 0001:00021A4D   529 0001:00021A50   530 0001:00021A51   531 0001:00021A53
   532 0001:00021A56   534 0001:00021A5A   535 0001:00021A5C   537 0001:00021A64
   541 0001:00021A68   543 0001:00021A7C   545 0001:00021A80   546 0001:00021A8A
   548 0001:00021A9B   550 0001:00021A9E   551 0001:00021AA8   553 0001:00021AB9
   555 0001:00021ABC   557 0001:00021ADC   559 0001:00021ADE   565 0001:00021AE0
   566 0001:00021AF2   568 0001:00021AF4   571 0001:00021AFA   573 0001:00021B06
   575 0001:00021B19   576 0001:00021B26   578 0001:00021B32   583 0001:00021B41
   584 0001:00021B4D   586 0001:00021B55   587 0001:00021B63   588 0001:00021B70
   589 0001:00021B81   591 0001:00021BA3   592 0001:00021BA5   593 0001:00021BAC
   596 0001:00021BBE   598 0001:00021BCA   600 0001:00021BD9   601 0001:00021BE2
   603 0001:00021BEC   605 0001:00021BF2   606 0001:00021BFC   608 0001:00021C09
   609 0001:00021C17   611 0001:00021C31   612 0001:00021C33   613 0001:00021C42
   617 0001:00021C56   618 0001:00021C60   619 0001:00021C6C   621 0001:00021C70
   622 0001:00021C81   623 0001:00021C87   624 0001:00021C92   625 0001:00021C9C
   629 0001:00021CA7   635 0001:00021CB4   636 0001:00021CB9   638 0001:00021CC8
   639 0001:00021CD8   640 0001:00021CE5   641 0001:00021CF4   636 0001:00021CF5
   642 0001:00021CFA   647 0001:00021D00   648 0001:00021D06   651 0001:00021D0C
   654 0001:00021D17   656 0001:00021D2F   657 0001:00021D35   658 0001:00021D3B
   653 0001:00021D42   661 0001:00021D50   662 0001:00021D5F   663 0001:00021D65
   666 0001:00021D73   671 0001:00021D78   672 0001:00021D7F   675 0001:00021D85
   678 0001:00021D90   680 0001:00021DA5   681 0001:00021DAB   682 0001:00021DB1
   677 0001:00021DB8   685 0001:00021DC1   686 0001:00021DD0   687 0001:00021DD6
   690 0001:00021DE9   695 0001:00021DF0   696 0001:00021DF6   697 0001:00021DFD
   698 0001:00021E09   702 0001:00021E10   703 0001:00021E18   707 0001:00021E1C
   708 0001:00021E24   713 0001:00021E28   717 0001:00021E2C   718 0001:00021E34
   722 0001:00021E38   723 0001:00021E40   728 0001:00021E44

Line numbers for WaveIO(omaudio.bpl\WaveAudio\WaveIO.pas) segment .itext

   730 0002:00000430

Line numbers for WaveIn(omaudio.bpl\WaveAudio\WaveIn.pas) segment .text

    71 0001:00021FC4    72 0001:00021FD6    73 0001:00021FDF    74 0001:00021FE6
    78 0001:00022000    79 0001:00022007    83 0001:00022008    84 0001:0002200D
    89 0001:00022010    90 0001:00022019    91 0001:0002202D    93 0001:0002203A
    94 0001:00022041    99 0001:00022048   100 0001:0002204F   101 0001:00022055
   103 0001:0002206D   104 0001:00022070   105 0001:00022073   106 0001:00022076
   107 0001:00022079   108 0001:00022086   109 0001:00022089   110 0001:00022092
   111 0001:00022095   112 0001:0002209E   113 0001:000220A4   114 0001:000220AD
   115 0001:000220B3   116 0001:000220BC   117 0001:000220C2   118 0001:000220CB
   119 0001:000220D1   120 0001:000220DA   121 0001:000220E0   122 0001:000220EB
   123 0001:000220F1   124 0001:000220FC   125 0001:00022102   126 0001:0002210C
   127 0001:00022112   128 0001:0002211F   129 0001:00022125   130 0001:00022132
   132 0001:00022138   137 0001:00022144   138 0001:0002214B   139 0001:0002214D
   140 0001:00022154   141 0001:0002216B   142 0001:00022176   147 0001:00022180
   148 0001:0002218C   149 0001:000221A0   151 0001:000221AB   152 0001:000221B2
   155 0001:000221BC   156 0001:000221C2   158 0001:000221CA   159 0001:000221D8
   161 0001:000221F0   163 0001:000221F6   168 0001:00022238   169 0001:0002223B
   170 0001:00022248   176 0001:0002224C   177 0001:00022258   178 0001:0002225C
   180 0001:00022269   181 0001:00022272   182 0001:0002227A   184 0001:0002228A
   185 0001:00022292   186 0001:00022299   187 0001:000222A7   188 0001:000222AB
   189 0001:000222B9   191 0001:000222C7   194 0001:000222F1   195 0001:00022307
   196 0001:0002230F   197 0001:0002231D   198 0001:00022354   200 0001:0002235A
   202 0001:00022371   206 0001:0002238B   207 0001:00022391   210 0001:000223AE
   211 0001:000223B5   215 0001:000223C5   217 0001:000223DB   220 0001:00022408
   221 0001:00022414   222 0001:00022418   224 0001:00022425   225 0001:0002242E
   226 0001:00022436   228 0001:00022446   229 0001:0002244E   230 0001:0002245C
   231 0001:00022463   232 0001:00022471   233 0001:0002248E   234 0001:0002249B
   236 0001:000224B9   238 0001:000224BF   240 0001:000224D5   243 0001:000224EE
   247 0001:000224FE   249 0001:00022514   252 0001:00022540   253 0001:00022549
   254 0001:0002254D   256 0001:00022559   257 0001:00022561   258 0001:0002256F
   260 0001:0002259B   261 0001:000225A5   262 0001:000225B0   265 0001:000225C1
   268 0001:000225D1   271 0001:000225DC   272 0001:000225E5   273 0001:000225E9
   275 0001:000225F5   276 0001:000225FD   277 0001:0002260B   279 0001:00022637
   280 0001:00022641   281 0001:0002264C   284 0001:0002265D   287 0001:0002266D
   291 0001:00022678   292 0001:00022682   297 0001:00022684   298 0001:00022693
   299 0001:00022695   300 0001:000226A7   303 0001:000226D4   304 0001:000226E2
   305 0001:00022705   306 0001:00022709   307 0001:0002270F   309 0001:00022733
   310 0001:00022739   311 0001:0002274E   313 0001:00022758   319 0001:00022764
   320 0001:00022774   321 0001:00022778   322 0001:0002277D   324 0001:0002278F
   325 0001:00022795   326 0001:0002279E   327 0001:000227AC   328 0001:000227BE
   330 0001:000227C4   332 0001:000227E2   335 0001:000227F6   339 0001:00022804
   340 0001:0002280A   342 0001:00022813   343 0001:00022816   344 0001:00022822
   346 0001:00022833   347 0001:0002283D   348 0001:0002284E   352 0001:00022854
   354 0001:00022857   357 0001:0002285C   359 0001:00022862   361 0001:00022879
   367 0001:0002287C   368 0001:00022888   369 0001:0002288D   370 0001:0002289B
   374 0001:000228A8   376 0001:000228BA   377 0001:000228C9   381 0001:000228CB
   382 0001:000228D0   371 0001:000228D1   386 0001:0002291E   388 0001:00022932
   391 0001:0002293C   392 0001:0002293F   393 0001:00022946   394 0001:00022976
   398 0001:00022978   399 0001:00022980   400 0001:00022985   405 0001:00022988
   406 0001:00022997   407 0001:000229A5   408 0001:000229B3   412 0001:000229E9
   413 0001:000229ED   414 0001:00022A03   415 0001:00022A19   416 0001:00022A33
   418 0001:00022A41   422 0001:00022A88   424 0001:00022AA6   426 0001:00022AAC
   427 0001:00022AB9   428 0001:00022ACE   430 0001:00022ADD   433 0001:00022AF4
   434 0001:00022B0A   436 0001:00022B2B

Line numbers for WaveIn(omaudio.bpl\WaveAudio\WaveIn.pas) segment .itext

   438 0002:00000438

Line numbers for WaveRecorders(omaudio.bpl\WaveAudio\WaveRecorders.pas) segment .text

   147 0001:00023450   148 0001:00023462   149 0001:0002346B   150 0001:0002347B
   153 0001:00023498   154 0001:000234A3   155 0001:000234AF   156 0001:000234BA
   160 0001:000234C8   161 0001:000234D4   165 0001:000234D8   166 0001:000234DE
   167 0001:000234E7   168 0001:000234EC   169 0001:000234FC   173 0001:00023500
   174 0001:0002350E   175 0001:00023525   176 0001:00023531   179 0001:0002353C
   180 0001:00023543   181 0001:00023551   183 0001:0002356F   185 0001:0002357F
   188 0001:00023584   189 0001:0002358B   190 0001:00023599   191 0001:000235A5
   193 0001:000235C3   195 0001:000235D3   201 0001:000235D8   202 0001:000235DC
   203 0001:000235E6   204 0001:000235FD   209 0001:00023604   210 0001:0002360D
   211 0001:00023618   212 0001:00023625   213 0001:0002362E   216 0001:00023634
   217 0001:0002363A   220 0001:00023644   221 0001:00023648   223 0001:0002364F
   224 0001:00023657   225 0001:0002365B   227 0001:00023662   230 0001:00023668
   231 0001:0002366E   233 0001:00023679   234 0001:0002367D   236 0001:00023688
   238 0001:0002368F   242 0001:00023694   243 0001:000236A2   244 0001:000236B9
   245 0001:000236C5   249 0001:000236D0   250 0001:000236D6   251 0001:000236DF
   252 0001:000236E4   253 0001:000236F4   256 0001:000236F8   257 0001:000236FF
   258 0001:0002370D   259 0001:0002371E   260 0001:0002372C   262 0001:00023744
   264 0001:00023754   267 0001:00023758   268 0001:0002375F   269 0001:0002376D
   271 0001:00023785   272 0001:00023796   273 0001:000237A4   276 0001:000237BC
   278 0001:000237CC   282 0001:000237D0   283 0001:000237DF   284 0001:000237E3
   286 0001:000237EF   287 0001:000237F9   289 0001:00023800   290 0001:00023818
   291 0001:00023826   293 0001:0002383E   295 0001:00023850   296 0001:0002385E
   299 0001:00023871   302 0001:0002387C   303 0001:0002387D   304 0001:00023887
   307 0001:0002388C   308 0001:00023892   309 0001:000238B3   312 0001:000238B8
   313 0001:000238BE   314 0001:000238C7   315 0001:000238DD   316 0001:000238F8
   320 0001:00023924   321 0001:00023929

Line numbers for WaveRecorders(omaudio.bpl\WaveAudio\WaveRecorders.pas) segment .itext

   323 0002:00000440

Line numbers for WaveOut(omaudio.bpl\WaveAudio\WaveOut.pas) segment .text

   102 0001:00023AB8   103 0001:00023AC1   104 0001:00023AD4   105 0001:00023AEE
   108 0001:00023AF4   109 0001:00023AFA   110 0001:00023B21   117 0001:00023B24
   118 0001:00023B2D   119 0001:00023B37   120 0001:00023B4A   121 0001:00023B4C
   123 0001:00023B51   124 0001:00023B53   125 0001:00023B60   127 0001:00023B6F
   128 0001:00023B73   121 0001:00023B86   131 0001:00023B89   132 0001:00023B92
   138 0001:00023BA4   139 0001:00023BAA   140 0001:00023BBE   141 0001:00023BC0
   142 0001:00023BCE   144 0001:00023BD3   145 0001:00023BE2   146 0001:00023BEE
   147 0001:00023BFF   142 0001:00023C01   149 0001:00023C06   154 0001:00023C18
   155 0001:00023C2A   156 0001:00023C33   157 0001:00023C40   158 0001:00023C49
   159 0001:00023C52   160 0001:00023C64   161 0001:00023C76   162 0001:00023C7D
   166 0001:00023C9C   167 0001:00023CA3   171 0001:00023CA4   172 0001:00023CA9
   177 0001:00023CAC   178 0001:00023CB5   179 0001:00023CC9   181 0001:00023CD6
   182 0001:00023CDD   187 0001:00023CE4   188 0001:00023CEB   189 0001:00023CF1
   191 0001:00023D09   192 0001:00023D0C   193 0001:00023D0F   194 0001:00023D12
   195 0001:00023D15   196 0001:00023D22   197 0001:00023D25   198 0001:00023D2E
   199 0001:00023D31   200 0001:00023D3A   201 0001:00023D40   202 0001:00023D49
   203 0001:00023D4F   204 0001:00023D58   205 0001:00023D5E   206 0001:00023D67
   207 0001:00023D6D   208 0001:00023D76   209 0001:00023D7C   210 0001:00023D87
   211 0001:00023D8D   212 0001:00023D98   213 0001:00023D9E   214 0001:00023DA8
   215 0001:00023DAE   216 0001:00023DBB   217 0001:00023DC1   218 0001:00023DCE
   220 0001:00023DD4   225 0001:00023DE0   226 0001:00023DE7   227 0001:00023DEE
   229 0001:00023E02   230 0001:00023E05   232 0001:00023E12   233 0001:00023E15
   234 0001:00023E1E   236 0001:00023E21   237 0001:00023E2A   238 0001:00023E2D
   239 0001:00023E36   240 0001:00023E39   241 0001:00023E42   242 0001:00023E45
   243 0001:00023E4E   244 0001:00023E51   245 0001:00023E58   247 0001:00023E5B
   253 0001:00023E68   254 0001:00023E75   255 0001:00023E79   256 0001:00023E82
   258 0001:00023E95   260 0001:00023EAA   261 0001:00023EB7   262 0001:00023EBC
   263 0001:00023EC3   266 0001:00023EC7   272 0001:00023ED4   273 0001:00023EDF
   274 0001:00023EE3   275 0001:00023EEC   277 0001:00023F08   279 0001:00023F0D
   280 0001:00023F18   281 0001:00023F1B   283 0001:00023F1F   284 0001:00023F3C
   286 0001:00023F40   289 0001:00023F4C   290 0001:00023F50   291 0001:00023F66
   292 0001:00023F78   295 0001:00023F7C   296 0001:00023F80   297 0001:00023F87
   298 0001:00023F8E   299 0001:00023FA4   302 0001:00023FA8   303 0001:00023FAC
   304 0001:00023FC2   305 0001:00023FC9   308 0001:00023FCC   309 0001:00023FD0
   310 0001:00023FD7   311 0001:00023FED   314 0001:00023FF0   315 0001:00023FF4
   316 0001:0002400A   317 0001:00024011   320 0001:00024014   321 0001:00024018
   322 0001:0002401F   323 0001:00024035   328 0001:00024038   329 0001:0002403E
   331 0001:0002404C   333 0001:00024057   334 0001:00024068   337 0001:00024077
   340 0001:00024086   341 0001:00024099   344 0001:000240A4   345 0001:000240AA
   347 0001:000240B9   348 0001:000240CB   349 0001:000240ED   351 0001:0002410B
   356 0001:00024110   357 0001:00024116   359 0001:00024124   361 0001:0002412F
   362 0001:00024140   365 0001:0002414F   368 0001:0002415E   369 0001:00024171
   372 0001:0002417C   373 0001:00024182   375 0001:00024191   376 0001:000241A3
   377 0001:000241C5   379 0001:000241E3   382 0001:000241E8   383 0001:000241EF
   385 0001:000241FB   386 0001:00024205   388 0001:0002421A   393 0001:00024220
   394 0001:00024227   395 0001:0002422D   396 0001:00024234   397 0001:0002424B
   398 0001:00024256   401 0001:00024260   402 0001:00024263   403 0001:00024269
   405 0001:00024277   406 0001:00024283   408 0001:000242B3   413 0001:000242B8
   414 0001:000242C4   415 0001:000242D8   417 0001:000242E3   418 0001:000242EA
   421 0001:000242F4   422 0001:000242F6   423 0001:00024309   426 0001:00024310
   427 0001:00024312   428 0001:00024325   433 0001:0002432C   434 0001:00024330
   435 0001:00024339   436 0001:00024347   437 0001:00024367   438 0001:00024375
   439 0001:00024393   440 0001:000243A1   441 0001:000243BF   446 0001:000243C4
   447 0001:000243C7   448 0001:000243D4   454 0001:000243D8   455 0001:000243E4
   456 0001:000243E8   458 0001:000243F5   460 0001:00024405   461 0001:0002440E
   462 0001:00024416   463 0001:0002441E   464 0001:00024425   465 0001:00024433
   466 0001:00024437   467 0001:00024445   469 0001:00024453   472 0001:0002447D
   473 0001:00024493   474 0001:0002449B   475 0001:000244A9   476 0001:000244E0
   478 0001:000244E6   480 0001:000244FD   484 0001:00024517   485 0001:0002451D
   488 0001:0002453A   489 0001:00024541   493 0001:00024551   495 0001:00024567
   498 0001:00024594   499 0001:000245A0   500 0001:000245A4   502 0001:000245B1
   503 0001:000245BA   504 0001:000245C2   506 0001:000245D2   507 0001:000245DA
   508 0001:000245E8   509 0001:000245EF   510 0001:000245FD   511 0001:0002461A
   512 0001:00024627   514 0001:00024645   516 0001:0002464B   518 0001:00024661
   519 0001:00024668   522 0001:0002467F   526 0001:0002468F   528 0001:000246A5
   531 0001:000246D0   532 0001:000246D9   533 0001:000246DD   535 0001:000246E9
   536 0001:000246F1   537 0001:000246FF   539 0001:0002472B   540 0001:00024735
   541 0001:00024740   544 0001:00024751   547 0001:00024761   550 0001:0002476C
   551 0001:00024775   552 0001:00024779   554 0001:00024785   555 0001:0002478D
   556 0001:0002479B   558 0001:000247C7   559 0001:000247D1   560 0001:000247DC
   563 0001:000247ED   566 0001:000247FD   570 0001:00024808   571 0001:00024812
   576 0001:00024814   577 0001:00024823   578 0001:00024825   579 0001:00024837
   582 0001:00024864   583 0001:00024872   584 0001:00024888   585 0001:0002489E
   586 0001:000248C1   587 0001:000248C5   588 0001:000248CB   590 0001:000248EF
   591 0001:000248F5   592 0001:0002490A   594 0001:00024914   600 0001:00024920
   601 0001:00024930   602 0001:00024934   603 0001:00024939   605 0001:0002494F
   606 0001:00024955   607 0001:0002495E   609 0001:00024964   610 0001:0002496E
   612 0001:00024977   613 0001:00024985   614 0001:00024997   616 0001:0002499D
   618 0001:000249BB   621 0001:000249CF   625 0001:000249DC   626 0001:000249DF
   627 0001:000249E1   631 0001:000249E8   632 0001:000249EB   633 0001:000249ED
   636 0001:000249F4   638 0001:000249FA   640 0001:00024A11   643 0001:00024A14
   644 0001:00024A17   645 0001:00024A37   646 0001:00024A45   649 0001:00024A48
   650 0001:00024A4B   651 0001:00024A52   652 0001:00024A82   653 0001:00024A89
   657 0001:00024A8C   658 0001:00024A94   659 0001:00024A9C   660 0001:00024AA1
   669 0001:00024AA4   670 0001:00024AB2   671 0001:00024AC0   672 0001:00024ACE
   673 0001:00024AD4   675 0001:00024AF3   677 0001:00024B15   678 0001:00024B17
   679 0001:00024B1C   681 0001:00024B28   683 0001:00024B43   684 0001:00024B5F
   685 0001:00024B67   687 0001:00024B76   691 0001:00024B86   692 0001:00024B8B
   693 0001:00024B8F   694 0001:00024B91   695 0001:00024BA8   697 0001:00024BB2
   698 0001:00024BB4   700 0001:00024BC2   701 0001:00024BC6   704 0001:00024BD9
   706 0001:00024BDB   707 0001:00024BEC   709 0001:00024BF8   710 0001:00024C01
   711 0001:00024C05   713 0001:00024C1E   715 0001:00024C32   717 0001:00024C41
   719 0001:00024C47   720 0001:00024C51   722 0001:00024C5A   723 0001:00024C68
   724 0001:00024C79   728 0001:00024C95   730 0001:00024CA4   731 0001:00024CB1
   732 0001:00024CC6   736 0001:00024CEA   737 0001:00024D00   739 0001:00024D21

Line numbers for WaveOut(omaudio.bpl\WaveAudio\WaveOut.pas) segment .itext

   741 0002:00000448

Line numbers for WavePlayers(omaudio.bpl\WaveAudio\WavePlayers.pas) segment .text

   185 0001:000258C8   186 0001:000258DF   187 0001:000258E8   188 0001:000258FA
   189 0001:00025904   192 0001:00025924   193 0001:0002592F   194 0001:0002593B
   195 0001:00025946   199 0001:00025954   200 0001:0002595B   203 0001:0002595C
   204 0001:00025962   206 0001:0002596A   207 0001:00025973   209 0001:00025977
   210 0001:00025983   213 0001:00025993   215 0001:0002599E   219 0001:000259A4
   220 0001:000259AF   223 0001:000259B0   224 0001:000259B3   225 0001:000259BE
   228 0001:000259C0   229 0001:000259C6   230 0001:000259CF   231 0001:000259F7
   235 0001:00025A0C   236 0001:00025A18   240 0001:00025A1C   241 0001:00025A22
   242 0001:00025A25   244 0001:00025A37   245 0001:00025A44   247 0001:00025A5E
   251 0001:00025A64   252 0001:00025A68   253 0001:00025A76   256 0001:00025A7C
   257 0001:00025A83   258 0001:00025A91   260 0001:00025AAF   262 0001:00025ABF
   265 0001:00025AC4   266 0001:00025ACB   267 0001:00025AD7   268 0001:00025AEE
   269 0001:00025AF7   274 0001:00025AFC   275 0001:00025B0E   276 0001:00025B17
   277 0001:00025B1E   280 0001:00025B38   281 0001:00025B3E   283 0001:00025B46
   284 0001:00025B51   286 0001:00025B69   288 0001:00025B6F   292 0001:00025BB0
   293 0001:00025BB6   295 0001:00025BBF   296 0001:00025BCB   298 0001:00025BDC
   299 0001:00025BE6   300 0001:00025BF7   304 0001:00025BFC   305 0001:00025C00
   306 0001:00025C0A   308 0001:00025C23   309 0001:00025C25   313 0001:00025C2C
   314 0001:00025C30   315 0001:00025C3A   317 0001:00025C53   318 0001:00025C55
   323 0001:00025C5C   326 0001:00025C60   327 0001:00025C63   328 0001:00025C74
   333 0001:00025C78   334 0001:00025C81   335 0001:00025C8C   336 0001:00025C99
   337 0001:00025CA2   340 0001:00025CA8   341 0001:00025CAE   344 0001:00025CB8
   345 0001:00025CBC   347 0001:00025CC3   348 0001:00025CCB   349 0001:00025CCF
   351 0001:00025CD6   354 0001:00025CDC   355 0001:00025CE2   357 0001:00025CED
   358 0001:00025CF1   360 0001:00025CFC   362 0001:00025D03   365 0001:00025D08
   366 0001:00025D0F   367 0001:00025D19   368 0001:00025D30   369 0001:00025D39
   373 0001:00025D40   374 0001:00025D46   375 0001:00025D49   377 0001:00025D5B
   378 0001:00025D68   380 0001:00025D82   384 0001:00025D88   385 0001:00025D8C
   386 0001:00025D9A   389 0001:00025DA0   390 0001:00025DA7   391 0001:00025DB5
   392 0001:00025DC6   393 0001:00025DD4   395 0001:00025DEC   397 0001:00025DFC
   400 0001:00025E00   401 0001:00025E07   402 0001:00025E15   404 0001:00025E2D
   405 0001:00025E3E   406 0001:00025E4C   409 0001:00025E64   411 0001:00025E74
   415 0001:00025E78   416 0001:00025E87   417 0001:00025E8B   419 0001:00025E97
   420 0001:00025EA1   422 0001:00025EA8   423 0001:00025EC0   424 0001:00025ECE
   426 0001:00025EE6   428 0001:00025EF8   429 0001:00025F06   432 0001:00025F19
   435 0001:00025F24   436 0001:00025F25   437 0001:00025F2F   440 0001:00025F34
   441 0001:00025F3A   442 0001:00025F58   446 0001:00025F5C   447 0001:00025F65
   448 0001:00025F87   451 0001:00025F94   452 0001:00025F9D   453 0001:00025FBF
   456 0001:00025FCC   457 0001:00025FD2   458 0001:00025FDB   459 0001:00025FF1
   460 0001:0002600C   464 0001:00026038   465 0001:0002603D

Line numbers for WavePlayers(omaudio.bpl\WaveAudio\WavePlayers.pas) segment .itext

   467 0002:00000450

Line numbers for WaveMixer(omaudio.bpl\WaveAudio\WaveMixer.pas) segment .text

   194 0001:000265E0   195 0001:000265F5   196 0001:000265F8   197 0001:00026602
   202 0001:00026620   203 0001:00026624   204 0001:00026627   205 0001:00026636
   206 0001:0002663D   207 0001:00026646   209 0001:0002664D   210 0001:00026650
   214 0001:0002666D   216 0001:00026688   217 0001:00026695   218 0001:0002669E
   219 0001:000266A0   220 0001:000266BA   218 0001:000266CB   221 0001:000266D0
   227 0001:000266D8   228 0001:000266E4   229 0001:000266F2   230 0001:000266F9
   231 0001:00026700   232 0001:00026708   233 0001:00026710   234 0001:0002671E
   235 0001:0002672C   236 0001:00026730   238 0001:0002674B   244 0001:00026754
   245 0001:0002675E   246 0001:00026760   247 0001:00026762   249 0001:00026784
   250 0001:00026789   251 0001:0002678B   246 0001:0002678C   252 0001:00026790
   261 0001:00026798   262 0001:000267BE   263 0001:000267C5   265 0001:000267DB
   267 0001:000267F1   269 0001:000267FC   270 0001:00026806   271 0001:00026814
   272 0001:00026820   273 0001:0002682F   274 0001:00026836   275 0001:00026846
   276 0001:0002684D   277 0001:0002685D   278 0001:00026864   279 0001:0002686A
   281 0001:00026887   283 0001:0002688B   284 0001:00026895   285 0001:000268A8
   287 0001:000268E3   288 0001:000268F3   289 0001:000268F5   284 0001:000268F6
   292 0001:00026906   296 0001:00026916   299 0001:00026922   300 0001:0002692C
   309 0001:00026958   310 0001:0002697E   311 0001:00026985   313 0001:0002699B
   315 0001:000269B4   316 0001:000269BF   317 0001:000269CD   318 0001:000269DA
   319 0001:000269E9   320 0001:000269F0   321 0001:000269FA   322 0001:00026A01
   323 0001:00026A0B   324 0001:00026A12   325 0001:00026A18   327 0001:00026A33
   329 0001:00026A3C   330 0001:00026A46   331 0001:00026A57   333 0001:00026A90
   334 0001:00026A93   335 0001:00026A95   330 0001:00026A96   338 0001:00026AA6
   342 0001:00026AB6   343 0001:00026AC0   346 0001:00026AEC   347 0001:00026AF2
   348 0001:00026B01   353 0001:00026B04   354 0001:00026B06   355 0001:00026B0A
   356 0001:00026B11   358 0001:00026B1B   359 0001:00026B1E   360 0001:00026B20
   355 0001:00026B24   361 0001:00026B29   366 0001:00026B30   367 0001:00026B32
   368 0001:00026B36   369 0001:00026B3D   371 0001:00026B44   372 0001:00026B47
   373 0001:00026B49   368 0001:00026B4D   374 0001:00026B52   377 0001:00026B5C
   378 0001:00026B61   379 0001:00026B68   380 0001:00026B74   381 0001:00026B77
   382 0001:00026B82   383 0001:00026B85   384 0001:00026B8F   385 0001:00026B92
   391 0001:00026B9C   392 0001:00026BA4   393 0001:00026BA7   394 0001:00026BB1
   396 0001:00026BBA   397 0001:00026BCA   398 0001:00026BD2   399 0001:00026BDC
   400 0001:00026BE4   401 0001:00026BEA   402 0001:00026BF2   403 0001:00026BF8
   405 0001:00026C16   406 0001:00026C1A   408 0001:00026C2F   414 0001:00026C38
   415 0001:00026C41   416 0001:00026C4B   418 0001:00026C54   419 0001:00026C5A
   420 0001:00026C64   421 0001:00026C76   422 0001:00026C86   423 0001:00026C8E
   424 0001:00026C98   425 0001:00026CA0   426 0001:00026CA6   427 0001:00026CAE
   428 0001:00026CB4   431 0001:00026CD0   437 0001:00026CD8   438 0001:00026CE0
   439 0001:00026CE2   440 0001:00026CEC   442 0001:00026CF5   443 0001:00026D05
   444 0001:00026D0D   445 0001:00026D17   446 0001:00026D1F   447 0001:00026D25
   448 0001:00026D2D   449 0001:00026D33   451 0001:00026D51   452 0001:00026D55
   454 0001:00026D58   460 0001:00026D64   461 0001:00026D6A   462 0001:00026D74
   464 0001:00026D7D   465 0001:00026D83   466 0001:00026D93   467 0001:00026D9B
   468 0001:00026DA5   469 0001:00026DAD   470 0001:00026DB3   471 0001:00026DBB
   472 0001:00026DC1   475 0001:00026DDD   484 0001:00026DE4   485 0001:00026DEF
   486 0001:00026DF6   487 0001:00026DFF   488 0001:00026E03   489 0001:00026E0C
   492 0001:00026E10   493 0001:00026E1A   495 0001:00026E1F   497 0001:00026E35
   499 0001:00026E49   500 0001:00026E54   501 0001:00026E62   502 0001:00026E6F
   503 0001:00026E7E   504 0001:00026E85   505 0001:00026E8F   506 0001:00026E96
   507 0001:00026EA0   508 0001:00026EA7   509 0001:00026EAD   511 0001:00026EC8
   513 0001:00026ED1   514 0001:00026EE0   516 0001:00026EEA   517 0001:00026EF8
   518 0001:00026EFA   513 0001:00026EFB   521 0001:00026F0B   524 0001:00026F1B
   533 0001:00026F28   534 0001:00026F33   535 0001:00026F3C   536 0001:00026F40
   537 0001:00026F49   540 0001:00026F4D   541 0001:00026F57   543 0001:00026F5C
   544 0001:00026F67   546 0001:00026F6F   548 0001:00026F83   549 0001:00026F8E
   550 0001:00026F9C   551 0001:00026FA9   552 0001:00026FB3   553 0001:00026FC2
   554 0001:00026FC9   555 0001:00026FD9   556 0001:00026FE0   557 0001:00026FF0
   558 0001:00026FF7   559 0001:00026FFD   562 0001:00027025   566 0001:00027035
   567 0001:0002703F   572 0001:00027048   573 0001:0002705A   574 0001:00027063
   575 0001:00027075   576 0001:00027088   577 0001:00027097   578 0001:000270A0
   581 0001:000270BC   582 0001:000270C7   583 0001:000270CE   584 0001:000270D6
   585 0001:000270DE   586 0001:000270E5   587 0001:000270EB   588 0001:000270F5
   589 0001:000270FA   590 0001:00027106   596 0001:00027114   598 0001:0002711D
   601 0001:00027130   602 0001:00027138   603 0001:00027143   605 0001:0002714E
   606 0001:0002715C   608 0001:0002716E   609 0001:00027181   610 0001:00027183
   605 0001:00027184   611 0001:00027187   615 0001:00027191   616 0001:00027199
   617 0001:000271AA   619 0001:000271BA   620 0001:000271C8   622 0001:000271E0
   623 0001:000271F7   624 0001:000271F9   619 0001:000271FA   625 0001:000271FD
   628 0001:00027204   630 0001:0002721C   636 0001:00027224   637 0001:00027243
   638 0001:00027245   640 0001:00027254   641 0001:00027260   642 0001:0002727B
   643 0001:0002727C   638 0001:0002727D   644 0001:00027280   650 0001:000272A8
   651 0001:000272CF   652 0001:000272D4   654 0001:000272DF   655 0001:000272E9
   656 0001:000272EF   658 0001:00027304   659 0001:00027325   660 0001:00027328
   652 0001:00027329   661 0001:0002732C   667 0001:00027358   668 0001:0002736C
   669 0001:0002736E   670 0001:00027378   671 0001:00027388   674 0001:000273A1
   675 0001:000273AC   676 0001:000273B4   678 0001:000273BA   681 0001:000273C8
   682 0001:000273C9   683 0001:000273D0   684 0001:000273DC   688 0001:000273E0
   689 0001:000273E1   690 0001:000273EB   691 0001:000273FE   695 0001:00027400
   696 0001:00027405   699 0001:00027408   700 0001:0002740E   701 0001:0002741D
   707 0001:00027420   708 0001:0002743F   710 0001:00027455   711 0001:00027464
   712 0001:00027472   713 0001:0002747C   714 0001:00027486   716 0001:000274A1
   719 0001:000274B1   722 0001:000274D4   723 0001:000274DA   725 0001:000274ED
   726 0001:000274F0   728 0001:000274F9   732 0001:000274FC   734 0001:00027501
   735 0001:00027504   737 0001:0002750B   740 0001:0002750C   741 0001:00027512
   742 0001:0002751C   748 0001:00027520   749 0001:0002753F   751 0001:00027555
   752 0001:00027564   753 0001:00027572   754 0001:0002757C   755 0001:00027586
   757 0001:000275A1   760 0001:000275B1   764 0001:000275D4   765 0001:000275D8
   769 0001:000275DC   770 0001:000275E3   773 0001:000275E4   774 0001:000275EA
   775 0001:000275F4   780 0001:000275F8   781 0001:000275FD   782 0001:0002760F
   781 0001:00027629   783 0001:0002762C   788 0001:00027630   789 0001:00027634
   791 0001:00027640   792 0001:0002764F   793 0001:00027659   789 0001:0002765A
   794 0001:0002765F   797 0001:00027664   798 0001:0002766A   799 0001:00027671
   801 0001:00027675   803 0001:0002767C   804 0001:00027682   806 0001:00027687
   807 0001:00027696   808 0001:000276A5   811 0001:000276C3   812 0001:000276D2
   813 0001:000276D7   814 0001:000276E2   815 0001:000276E9

Line numbers for WaveMixer(omaudio.bpl\WaveAudio\WaveMixer.pas) segment .itext

   817 0002:00000458

Line numbers for BisAudioWave(omaudio.bpl\BisAudioWave.pas) segment .text

    98 0001:00027F8C    99 0001:00027FBA   100 0001:00027FC3   101 0001:00028018
   106 0001:00028054   107 0001:0002805D   108 0001:0002806E   110 0001:0002807B
   111 0001:00028082   116 0001:00028088   117 0001:000280A9   118 0001:000280AF
   119 0001:000280B7   120 0001:000280C5   121 0001:000280D7   122 0001:000280EF
   120 0001:000280F0   124 0001:00028100   127 0001:00028110   130 0001:00028134
   131 0001:00028137   132 0001:0002813E   133 0001:00028145   136 0001:00028148
   137 0001:0002814B   138 0001:00028152   139 0001:00028159   142 0001:0002815C
   143 0001:00028162   144 0001:00028176   145 0001:0002817D   146 0001:00028186
   147 0001:0002818A   149 0001:00028191   152 0001:00028194   153 0001:0002819A
   154 0001:000281AE   155 0001:000281B5   156 0001:000281BE   157 0001:000281C2
   159 0001:000281C9   164 0001:000281CC   165 0001:000281FA   166 0001:00028203
   167 0001:00028258   172 0001:00028294   173 0001:0002829D   174 0001:000282AE
   176 0001:000282BB   177 0001:000282C2   182 0001:000282C8   183 0001:000282E9
   184 0001:000282EF   185 0001:000282F7   186 0001:00028305   187 0001:00028317
   188 0001:0002832F   186 0001:00028330   190 0001:00028340   193 0001:00028350
   196 0001:00028374   197 0001:00028377   198 0001:0002837E   199 0001:00028385
   202 0001:00028388   203 0001:0002838B   204 0001:00028392   205 0001:00028399
   208 0001:0002839C   209 0001:000283A2   210 0001:000283B6   211 0001:000283BD
   212 0001:000283C6   213 0001:000283CA   215 0001:000283D1   218 0001:000283D4
   219 0001:000283DA   220 0001:000283EE   221 0001:000283F5   222 0001:000283FE
   223 0001:00028402   225 0001:00028409   230 0001:0002840C   231 0001:0002841E
   232 0001:00028427   233 0001:0002842F   234 0001:00028439   237 0001:00028454
   238 0001:0002845F   239 0001:00028468   240 0001:00028474   243 0001:00028484
   244 0001:00028487   245 0001:0002848E   246 0001:00028495   247 0001:0002849B
   250 0001:000284A0   251 0001:000284A3   252 0001:000284AD   253 0001:000284BE
   255 0001:000284CB   258 0001:000284D0   259 0001:000284D3   260 0001:000284DA
   261 0001:000284F1   262 0001:000284FA   263 0001:00028500   265 0001:00028509
   268 0001:0002851B   269 0001:00028522   271 0001:0002852C   274 0001:00028530
   275 0001:00028531   276 0001:0002853B   277 0001:0002854B   281 0001:00028550
   282 0001:00028555   285 0001:00028558   286 0001:00028562   287 0001:00028572
   288 0001:0002857C   289 0001:00028590   292 0001:0002859C   293 0001:000285A5
   294 0001:000285AE   295 0001:000285B3   296 0001:000285D4   299 0001:000285DC
   300 0001:000285E5   301 0001:000285EE   303 0001:00028606   304 0001:0002860D
   305 0001:00028615   306 0001:0002861B   307 0001:00028621   308 0001:00028634
   309 0001:0002863D   311 0001:00028644   314 0001:00028648   315 0001:0002864B
   316 0001:00028654   319 0001:00028658   320 0001:0002865E   321 0001:00028672
   322 0001:00028679   323 0001:00028682   324 0001:00028686   326 0001:0002868D

Line numbers for BisAudioWave(omaudio.bpl\BisAudioWave.pas) segment .itext

   328 0002:00000460

Line numbers for BisAudioDtmf(omaudio.bpl\BisAudioDtmf.pas) segment .text

    84 0001:000287C0    85 0001:000287C4    86 0001:000287E0    89 0001:000287E8
    90 0001:000287EC    91 0001:00028813   102 0001:0002881C   103 0001:0002882F
   104 0001:00028836   105 0001:00028850   106 0001:00028859   107 0001:0002886B
   108 0001:0002887D   109 0001:00028886   110 0001:00028896   112 0001:000288ED
   113 0001:000288FF   114 0001:0002891A   109 0001:0002891B   115 0001:00028922
   119 0001:0002894C   120 0001:0002894E   121 0001:000289D1   122 0001:000289D7
   123 0001:000289DD   124 0001:000289E3   125 0001:000289E9   126 0001:000289EF
   127 0001:000289F5   128 0001:000289FB   129 0001:00028A01   130 0001:00028A07
   131 0001:00028A0D   132 0001:00028A13   133 0001:00028A19   134 0001:00028A1F
   135 0001:00028A25   136 0001:00028A2B   138 0001:00028A31   140 0001:00028A33
   143 0001:00028A38   144 0001:00028A57   145 0001:00028A5B   146 0001:00028AA1
   147 0001:00028AB6   148 0001:00028ABB   149 0001:00028AC0   150 0001:00028AC5
   151 0001:00028ACA   152 0001:00028ACF   154 0001:00028AD4   156 0001:00028AD8
   161 0001:00028B00   162 0001:00028B27   163 0001:00028B29   164 0001:00028B39
   165 0001:00028B55   167 0001:00028B5B   219 0001:00028B84   220 0001:00028B86
   222 0001:00028B88   223 0001:00028B8A   225 0001:00028B8C   226 0001:00028B8E
   229 0001:00028B90   230 0001:00028B91   237 0001:00028B92   238 0001:00028B93
   239 0001:00028B98   240 0001:00028B9D   241 0001:00028BA0   244 0001:00028BA1
   245 0001:00028BA3   247 0001:00028BA4   262 0001:00028BA8   264 0001:00028BA9
   265 0001:00028BAC   267 0001:00028BAE   268 0001:00028BB1   272 0001:00028BB3
   273 0001:00028BB4   277 0001:00028BB6   278 0001:00028BB8   279 0001:00028BBE
   280 0001:00028BC4   282 0001:00028BC6   283 0001:00028BCB   286 0001:00028BCD
   287 0001:00028BD2   289 0001:00028BD4   290 0001:00028BD6   291 0001:00028BDC
   292 0001:00028BE2   294 0001:00028BE4   297 0001:00028BE9   298 0001:00028BEB
   302 0001:00028BED   303 0001:00028BF0   304 0001:00028BF5   305 0001:00028BFA
   307 0001:00028BFC   308 0001:00028C01   311 0001:00028C03   312 0001:00028C08
   314 0001:00028C0A   317 0001:00028C0F   320 0001:00028C10   321 0001:00028C11
   334 0001:00028C14   335 0001:00028C2D   347 0001:00028C60   350 0001:00028C67
   356 0001:00028C78   357 0001:00028C86   358 0001:00028C9A   360 0001:00028CA7
   363 0001:00028CAC   364 0001:00028CB4   367 0001:00028CD0   370 0001:00028CDB
   371 0001:00028CDC   372 0001:00028CDD   375 0001:00028CDE   376 0001:00028CE1
   377 0001:00028CE4   378 0001:00028CE7   379 0001:00028CEA   381 0001:00028CED
   382 0001:00028CF0   387 0001:00028CF2   389 0001:00028CF3   390 0001:00028CF6
   391 0001:00028CF9   393 0001:00028CFA   394 0001:00028CFD   400 0001:00028CFF
   401 0001:00028D00   403 0001:00028D01   404 0001:00028D03   405 0001:00028D06
   406 0001:00028D09   407 0001:00028D0B   410 0001:00028D0D   411 0001:00028D0F
   412 0001:00028D14   413 0001:00028D17   414 0001:00028D1A   417 0001:00028D1B
   418 0001:00028D1E   419 0001:00028D21   421 0001:00028D23   422 0001:00028D26
   423 0001:00028D29   425 0001:00028D2B   428 0001:00028D2D   431 0001:00028D2F
   432 0001:00028D30   433 0001:00028D32   434 0001:00028D33   436 0001:00028D35
   439 0001:00028D36   441 0001:00028D38   442 0001:00028D3A   444 0001:00028D3D
   447 0001:00028D3F   449 0001:00028D41   451 0001:00028D46   452 0001:00028D49
   453 0001:00028D4C   455 0001:00028D4E   456 0001:00028D50   459 0001:00028D52
   460 0001:00028D55   461 0001:00028D58   463 0001:00028D5A   465 0001:00028D5B
   467 0001:00028D5C   468 0001:00028D5D   469 0001:00028D60   473 0001:00028D62
   474 0001:00028D65   475 0001:00028D67   476 0001:00028D68   477 0001:00028D6B
   480 0001:00028D6D   481 0001:00028D6E   485 0001:00028D70   487 0001:00028D73
   488 0001:00028D75   489 0001:00028D78   491 0001:00028D7B   492 0001:00028D7C
   493 0001:00028D7D   496 0001:00028D7E   498 0001:00028D81   503 0001:00028D8C
   504 0001:00028D9E   505 0001:00028DA7   506 0001:00028DB1   507 0001:00028DBB
   508 0001:00028DC5   509 0001:00028DD8   512 0001:00028DF4   514 0001:00028DFF
   515 0001:00028E0B   518 0001:00028E1C   519 0001:00028E20   520 0001:00028E2A
   521 0001:00028E3C   526 0001:00028E44   527 0001:00028E53   528 0001:00028E55
   530 0001:00028E6F   531 0001:00028E75   532 0001:00028E7B   534 0001:00028E81
   535 0001:00028E90   536 0001:00028EBB   537 0001:00028EE6   534 0001:00028EED
   539 0001:00028EF2   540 0001:00028F19   541 0001:00028F21   543 0001:00028F29
   545 0001:00028F2B   549 0001:00028F4C   550 0001:00028F4E   551 0001:00028F52
   552 0001:00028F65   557 0001:00028F68   558 0001:00028F6E   559 0001:00028F75
   560 0001:00028F7E   570 0001:00028F84   571 0001:00028F94   572 0001:00028F98
   574 0001:00028FAA   575 0001:00028FAC   576 0001:00028FB1   577 0001:00028FB6
   579 0001:00028FBE   581 0001:00028FCD   582 0001:00028FD1   584 0001:00028FDE
   585 0001:00028FE4   588 0001:00028FEA   589 0001:00028FF1   590 0001:00028FFC
   591 0001:00028FFE   592 0001:0002900B   591 0001:00029024   595 0001:0002902B
   599 0001:00029031   601 0001:00029035   603 0001:0002903B   604 0001:00029043
   605 0001:00029049   607 0001:0002904B   608 0001:00029052   610 0001:0002905D
   613 0001:0002907F   614 0001:00029085   615 0001:00029093   616 0001:00029097
   617 0001:000290A8   618 0001:000290AC   619 0001:000290BF   620 0001:000290C2
   622 0001:000290CD   615 0001:000290CF   626 0001:000290D3   628 0001:000290E4
   629 0001:000290EC   634 0001:000290FF   641 0001:0002910C   642 0001:0002911A
   643 0001:0002911E   644 0001:00029128   645 0001:0002913B   646 0001:0002913F
   647 0001:0002914D   648 0001:00029157   649 0001:00029165   650 0001:00029172
   652 0001:0002918E   653 0001:00029196   657 0001:000291AC   676 0001:000291B8
   677 0001:000291C4   678 0001:000291DD   679 0001:000291E4   680 0001:000291EB
   681 0001:000291F2   682 0001:000291F9   677 0001:00029205   684 0001:0002920A
   685 0001:00029215   687 0001:00029235   688 0001:0002924F   690 0001:00029262
   691 0001:0002927B   692 0001:00029296   693 0001:000292A0   694 0001:000292AB
   695 0001:000292C6   696 0001:000292D0   697 0001:000292DB   690 0001:000292EA
   698 0001:000292F0   685 0001:000292F3   700 0001:000292FC   701 0001:0002932C
   702 0001:0002936C   703 0001:000293B5   700 0001:000293CD   705 0001:000293D7
   706 0001:00029420   707 0001:0002947B   708 0001:000294A8   709 0001:000294CF
   719 0001:000294D8   720 0001:000294E8   721 0001:000294F4   722 0001:00029502
   723 0001:0002950D   724 0001:00029518   726 0001:0002951B   721 0001:0002951F
   728 0001:00029524   729 0001:00029530   730 0001:00029541   731 0001:0002954C
   732 0001:00029557   734 0001:0002955A   729 0001:0002955E   736 0001:00029563
   737 0001:0002956C   738 0001:00029576   739 0001:00029580   740 0001:00029594
   741 0001:000295AB   742 0001:000295BE   744 0001:000295C4   745 0001:000295C9
   747 0001:000295E8   748 0001:00029604   749 0001:0002960B   750 0001:0002961B
   754 0001:00029631   755 0001:00029646   756 0001:0002964D   758 0001:00029668
   759 0001:00029687   760 0001:0002969E   761 0001:000296CF   762 0001:000296E0
   763 0001:000296F0   768 0001:000296FC   769 0001:00029714   772 0001:00029722
   774 0001:00029744   775 0001:00029754   778 0001:0002975D   779 0001:00029764
   780 0001:0002976B   777 0001:0002977A   783 0001:0002978E   784 0001:00029797
   786 0001:000297A0   787 0001:000297A4   789 0001:000297BA   790 0001:000297C4
   794 0001:000297CB

Line numbers for BisAudioDtmf(omaudio.bpl\BisAudioDtmf.pas) segment .itext

   796 0002:00000468

Line numbers for BisRtpAcmDrivers(omaudio.bpl\BisRtpAcmDrivers.pas) segment .text

    29 0001:000298BC    30 0001:000298BE    31 0001:000298D2    32 0001:000298D8
    33 0001:000298DE    34 0001:000298E4    36 0001:000298E9    40 0001:000298EC
    41 0001:000298EE    42 0001:000298F2    43 0001:000298F9    44 0001:00029915
    45 0001:00029919    46 0001:0002991D    47 0001:00029921    51 0001:00029923
    55 0001:00029924    56 0001:00029951    57 0001:0002996E    63 0001:0002999C
    64 0001:000299A8    65 0001:000299AA    66 0001:000299B1    67 0001:000299B5
    68 0001:000299D0    72 0001:000299DC    73 0001:000299DE    74 0001:000299E2
    75 0001:000299FC

Line numbers for BisRtpAcmDrivers(omaudio.bpl\BisRtpAcmDrivers.pas) segment .itext

    77 0002:00000480

Line numbers for BisAudioTextPhrases(omaudio.bpl\BisAudioTextPhrases.pas) segment .text

    75 0001:00029DB8    76 0001:00029DCA    77 0001:00029DD3    78 0001:00029DE2
    81 0001:00029DFC    82 0001:00029E07    83 0001:00029E0F    84 0001:00029E1B
    89 0001:00029E2C    90 0001:00029E32    91 0001:00029E3B    94 0001:00029E40
    95 0001:00029E63    96 0001:00029E65    97 0001:00029E75    98 0001:00029E83
    99 0001:00029E8D   100 0001:00029E94   102 0001:00029E9D   109 0001:00029EC4
   110 0001:00029ED1   111 0001:00029ED5   112 0001:00029EEF   113 0001:00029F09
   114 0001:00029F16   115 0001:00029F32   116 0001:00029F41   117 0001:00029F4F
   118 0001:00029F5A   119 0001:00029F70   120 0001:00029F85   123 0001:00029F96
   126 0001:00029FA6   112 0001:00029FA9   128 0001:00029FB2   133 0001:00029FBC
   134 0001:00029FCE   135 0001:00029FD7   136 0001:00029FE6   139 0001:0002A000
   140 0001:0002A00B   141 0001:0002A013   142 0001:0002A01F   149 0001:0002A030
   150 0001:0002A055   151 0001:0002A066   152 0001:0002A074   153 0001:0002A07E
   154 0001:0002A099   155 0001:0002A0B9   156 0001:0002A0D4   157 0001:0002A0F9
   158 0001:0002A118   160 0001:0002A137   153 0001:0002A138   162 0001:0002A14C
   164 0001:0002A15C   169 0001:0002A1C4   170 0001:0002A1CC   171 0001:0002A1D8
   173 0001:0002A1E0   174 0001:0002A1E7   175 0001:0002A1EB   177 0001:0002A1F8
   178 0001:0002A201   179 0001:0002A20C   180 0001:0002A215   184 0001:0002A220
   185 0001:0002A227   186 0001:0002A22B   188 0001:0002A240   189 0001:0002A249
   190 0001:0002A254   191 0001:0002A25D   196 0001:0002A271   201 0001:0002A278
   202 0001:0002A27E   203 0001:0002A287   206 0001:0002A28C   207 0001:0002A2AF
   208 0001:0002A2B1   209 0001:0002A2C1   210 0001:0002A2CF   211 0001:0002A2D9
   212 0001:0002A2DF   213 0001:0002A2E5   215 0001:0002A2EE   218 0001:0002A318
   219 0001:0002A332   220 0001:0002A334   221 0001:0002A344   222 0001:0002A352
   223 0001:0002A35B   225 0001:0002A364   234 0001:0002A38C   235 0001:0002A3A8
   236 0001:0002A3AF   237 0001:0002A3BD   238 0001:0002A3C7   239 0001:0002A3CA
   241 0001:0002A3D2   242 0001:0002A3E1   243 0001:0002A3E9   244 0001:0002A3FD
   245 0001:0002A40B   246 0001:0002A423   247 0001:0002A432   248 0001:0002A436
   249 0001:0002A44B   250 0001:0002A455   252 0001:0002A470   253 0001:0002A47E
   256 0001:0002A480   257 0001:0002A48E   240 0001:0002A490   261 0001:0002A4B7
   263 0001:0002A4BC

Line numbers for BisAudioTextPhrases(omaudio.bpl\BisAudioTextPhrases.pas) segment .itext

   265 0002:000004A0

Line numbers for BisAudioUtils(omaudio.bpl\BisAudioUtils.pas) segment .text

    23 0001:0002A530    25 0001:0002A550    26 0001:0002A56E    27 0001:0002A57D
    28 0001:0002A58B    30 0001:0002A594    32 0001:0002A5C8    33 0001:0002A5CC
    34 0001:0002A5D4    35 0001:0002A5E8    36 0001:0002A5F4    38 0001:0002A5FF
    29 0001:0002A606    41 0001:0002A61C    45 0001:0002A62C    54 0001:0002A6A4
    55 0001:0002A6C5    56 0001:0002A6D6    57 0001:0002A6E7    58 0001:0002A6F5
    59 0001:0002A707    60 0001:0002A721    61 0001:0002A727    63 0001:0002A75E
    64 0001:0002A76E    65 0001:0002A79D    67 0001:0002A7A7    59 0001:0002A7AA
    68 0001:0002A7B3    69 0001:0002A7BB    70 0001:0002A7D5    71 0001:0002A7DB
    73 0001:0002A7F2    74 0001:0002A801    75 0001:0002A812    76 0001:0002A820
    77 0001:0002A832    79 0001:0002A854    83 0001:0002A864    69 0001:0002A867
    85 0001:0002A87D    86 0001:0002A885    88 0001:0002A895    92 0001:0002A8F0
    93 0001:0002A909    94 0001:0002A913    95 0001:0002A91D    96 0001:0002A927
    98 0001:0002A92E   105 0001:0002A950   106 0001:0002A95D   107 0001:0002A981
   108 0001:0002A99B   109 0001:0002A9A8   110 0001:0002A9B7   111 0001:0002A9C5
   112 0001:0002A9DA   113 0001:0002A9E5   114 0001:0002A9F3   116 0001:0002AA15
   118 0001:0002AA25   107 0001:0002AA28   120 0001:0002AA31   125 0001:0002AA38
   126 0001:0002AA42   127 0001:0002AA51   128 0001:0002AA5F   129 0001:0002AA69
   131 0001:0002AA80   133 0001:0002AA90

Line numbers for BisAudioUtils(omaudio.bpl\BisAudioUtils.pas) segment .itext

   135 0002:000004A8

Line numbers for FftSpec(omaudio.bpl\FftSpec\fftspec.pas) segment .text

    82 0001:0002AB3C    83 0001:0002AB43    84 0001:0002AB4C    85 0001:0002AB52
    86 0001:0002AB59    87 0001:0002AB60    89 0001:0002AB65    90 0001:0002AB76
    91 0001:0002AB7C    92 0001:0002AB85    93 0001:0002AB92    94 0001:0002AB9C
    87 0001:0002AB9D    95 0001:0002ABA2    96 0001:0002ABA8   111 0001:0002ABB4
   112 0001:0002ABB5   113 0001:0002ABB7   115 0001:0002ABBE   116 0001:0002ABC9
   113 0001:0002ABCE   118 0001:0002ABD3   119 0001:0002ABD5   147 0001:0002ABD8
   148 0001:0002ABEE   149 0001:0002ABFE   151 0001:0002AC0C   150 0001:0002AC1D
   151 0001:0002AC27   150 0001:0002AC4A   153 0001:0002AC4D   154 0001:0002AC53
   155 0001:0002AC59   157 0001:0002AC67   158 0001:0002AC75   159 0001:0002AC83
   162 0001:0002AC8D   163 0001:0002AC94   164 0001:0002AC99   165 0001:0002AC9D
   167 0001:0002ACB0   168 0001:0002ACB7   169 0001:0002ACD2   170 0001:0002ACED
   171 0001:0002ACFD   172 0001:0002AD10   173 0001:0002AD1A   174 0001:0002AD2A
   175 0001:0002AD3C   176 0001:0002AD51   177 0001:0002AD5B   165 0001:0002AD5C
   179 0001:0002AD66   160 0001:0002AD6D   181 0001:0002AD7A   182 0001:0002AD82
   155 0001:0002AD86   186 0001:0002AD94   187 0001:0002ADDF   186 0001:0002ADE2
   189 0001:0002ADF2   191 0001:0002AE02   220 0001:0002AE0C   221 0001:0002AE21
   222 0001:0002AE31   224 0001:0002AE3F   223 0001:0002AE54   224 0001:0002AE5E
   223 0001:0002AE80   226 0001:0002AE86   227 0001:0002AE8C   228 0001:0002AE92
   230 0001:0002AEA0   231 0001:0002AEAE   232 0001:0002AEBC   233 0001:0002AEC2
   235 0001:0002AED0   236 0001:0002AED7   237 0001:0002AEDC   238 0001:0002AEE0
   240 0001:0002AEF3   241 0001:0002AEFA   242 0001:0002AF15   243 0001:0002AF30
   244 0001:0002AF40   245 0001:0002AF53   246 0001:0002AF5D   247 0001:0002AF6D
   248 0001:0002AF7F   249 0001:0002AF94   250 0001:0002AF9E   238 0001:0002AF9F
   252 0001:0002AFA9   233 0001:0002AFB1   254 0001:0002AFBF   255 0001:0002AFC7
   228 0001:0002AFCB   259 0001:0002AFD9   260 0001:0002B023   259 0001:0002B027
   262 0001:0002B03A   264 0001:0002B04A   280 0001:0002B054   281 0001:0002B058
   282 0001:0002B05A   284 0001:0002B05C   285 0001:0002B06E   282 0001:0002B06F
   286 0001:0002B074   288 0001:0002B07B   287 0001:0002B086   288 0001:0002B08B
   287 0001:0002B09C   289 0001:0002B09F   303 0001:0002B0A4   305 0001:0002B0A8
   304 0001:0002B0B6   305 0001:0002B0BB   304 0001:0002B0EA   306 0001:0002B0ED
   320 0001:0002B108   322 0001:0002B10C   321 0001:0002B11A   322 0001:0002B11F
   321 0001:0002B140   323 0001:0002B143   352 0001:0002B154   353 0001:0002B15F
   354 0001:0002B169   355 0001:0002B174   357 0001:0002B183   358 0001:0002B187
   360 0001:0002B19D   361 0001:0002B1CE   362 0001:0002B1DB   363 0001:0002B256
   364 0001:0002B296   365 0001:0002B2D1   366 0001:0002B319   367 0001:0002B344
   368 0001:0002B3B1   370 0001:0002B3B7   371 0001:0002B3C5   372 0001:0002B3CE
   358 0001:0002B3CF   373 0001:0002B3D6   355 0001:0002B3E3   375 0001:0002B3EE
   374 0001:0002B3F3   375 0001:0002B3F8   374 0001:0002B406   376 0001:0002B40C
   377 0001:0002B416   378 0001:0002B41F   379 0001:0002B428   381 0001:0002B431
   394 0001:0002B46C

Line numbers for FftSpec(omaudio.bpl\FftSpec\fftspec.pas) segment .itext

   384 0002:000004B0   385 0002:000004B9   386 0002:000004C3   387 0002:000004CD
   388 0002:000004D7   389 0002:000004E1   390 0002:000004EB   392 0002:000004F5

Line numbers for BisAudioSpectrum(omaudio.bpl\BisAudioSpectrum.pas) segment .text

    54 0001:0002B5A0    55 0001:0002B5B2    56 0001:0002B5BB    57 0001:0002B5C1
    58 0001:0002B5C7    61 0001:0002B5E4    62 0001:0002B5EF    63 0001:0002B5FB
    66 0001:0002B60C    67 0001:0002B60D    68 0001:0002B614    69 0001:0002B621
    72 0001:0002B624    73 0001:0002B62E    74 0001:0002B630    76 0001:0002B63E
    77 0001:0002B641    78 0001:0002B644    80 0001:0002B647    82 0001:0002B649
    86 0001:0002B654    87 0001:0002B656    88 0001:0002B65A    89 0001:0002B66D
    94 0001:0002B670    95 0001:0002B676    96 0001:0002B67D    97 0001:0002B686
   101 0001:0002B68C   104 0001:0002B6CF   113 0001:0002B6D0   114 0001:0002B6D8
   115 0001:0002B701   116 0001:0002B709   117 0001:0002B727   119 0001:0002B73C
   120 0001:0002B75A   122 0001:0002B76D   123 0001:0002B771   124 0001:0002B773
   140 0001:0002B784   141 0001:0002B795   142 0001:0002B7A5   143 0001:0002B7B0
   144 0001:0002B7B9   145 0001:0002B7C4   146 0001:0002B7CF   147 0001:0002B7D9
   148 0001:0002B7E4   149 0001:0002B7F8   150 0001:0002B814   151 0001:0002B82D
   153 0001:0002B83D   154 0001:0002B84A   155 0001:0002B853   157 0001:0002B873
   158 0001:0002B880   153 0001:0002B881   160 0001:0002B886   162 0001:0002B898
   163 0001:0002B89D   165 0001:0002B89F   166 0001:0002B8AE   167 0001:0002B8C0
   168 0001:0002B8C9   170 0001:0002B8CB   165 0001:0002B8CC   172 0001:0002B8D1
   173 0001:0002B8DE   174 0001:0002B8E8   175 0001:0002B90D   176 0001:0002B91C
   177 0001:0002B929   181 0001:0002B950   182 0001:0002B95B   185 0001:0002B96E
   188 0001:0002B97C   189 0001:0002B980   190 0001:0002B982   191 0001:0002B98A
   193 0001:0002B991   200 0001:0002B998   201 0001:0002B9A5   202 0001:0002B9A9
   203 0001:0002B9B3   204 0001:0002B9C9   205 0001:0002B9CF   206 0001:0002B9DD
   207 0001:0002B9E8   208 0001:0002B9F6   209 0001:0002BA04   211 0001:0002BA21
   212 0001:0002BA2C   216 0001:0002BA42

Line numbers for BisAudioSpectrum(omaudio.bpl\BisAudioSpectrum.pas) segment .itext

   218 0002:000004F8

Line numbers for .omaudio(omaudio.dpk) segment .itext

    52 0002:00000500

Bound resource files

omaudio.res
omaudio.drf


Program entry point at 0002:00000500
