
 Start         Length     Name                   Class
 0001:00401000 0001AD10H .text                   CODE
 0002:0041C000 000003F0H .itext                  ICODE
 0003:0041D000 000002D0H .data                   DATA
 0004:0041E000 00000044H .bss                    BSS
 0005:00000000 00000000H .tls                    TLS


Detailed map of segments

 0001:00000000 0000021E C=CODE     S=.text    G=(none)   M=System   ACBP=A9
 0001:00000220 000001C3 C=CODE     S=.text    G=(none)   M=SysInit  ACBP=A9
 0001:000003E4 0000012E C=CODE     S=.text    G=(none)   M=Classes  ACBP=A9
 0001:00000514 000001F8 C=CODE     S=.text    G=(none)   M=Windows  ACBP=A9
 0001:0000070C 00000006 C=CODE     S=.text    G=(none)   M=TypInfo  ACBP=A9
 0001:00000714 0000004E C=CODE     S=.text    G=(none)   M=SysUtils ACBP=A9
 0001:00000764 00000006 C=CODE     S=.text    G=(none)   M=Variants ACBP=A9
 0001:0000076C 00000006 C=CODE     S=.text    G=(none)   M=VarUtils ACBP=A9
 0001:00000774 0000000E C=CODE     S=.text    G=(none)   M=IniFiles ACBP=A9
 0001:00000784 0000003E C=CODE     S=.text    G=(none)   M=Registry ACBP=A9
 0001:000007C4 00000906 C=CODE     S=.text    G=(none)   M=CPortTypes ACBP=A9
 0001:000010CC 0000016E C=CODE     S=.text    G=(none)   M=Graphics ACBP=A9
 0001:0000123C 000003B6 C=CODE     S=.text    G=(none)   M=Controls ACBP=A9
 0001:000015F4 00000006 C=CODE     S=.text    G=(none)   M=ActnList ACBP=A9
 0001:000015FC 00000006 C=CODE     S=.text    G=(none)   M=Themes   ACBP=A9
 0001:00001604 00000006 C=CODE     S=.text    G=(none)   M=Menus    ACBP=A9
 0001:0000160C 00000006 C=CODE     S=.text    G=(none)   M=UxTheme  ACBP=A9
 0001:00001614 00000006 C=CODE     S=.text    G=(none)   M=MultiMon ACBP=A9
 0001:0000161C 00000006 C=CODE     S=.text    G=(none)   M=DwmApi   ACBP=A9
 0001:00001624 0000014E C=CODE     S=.text    G=(none)   M=Forms    ACBP=A9
 0001:00001774 00000006 C=CODE     S=.text    G=(none)   M=HelpIntfs ACBP=A9
 0001:0000177C 00000016 C=CODE     S=.text    G=(none)   M=Dialogs  ACBP=A9
 0001:00001794 0000010E C=CODE     S=.text    G=(none)   M=StdCtrls ACBP=A9
 0001:000018A4 00000006 C=CODE     S=.text    G=(none)   M=Printers ACBP=A9
 0001:000018AC 00000056 C=CODE     S=.text    G=(none)   M=ExtCtrls ACBP=A9
 0001:00001904 00000006 C=CODE     S=.text    G=(none)   M=GraphUtil ACBP=A9
 0001:0000190C 00000006 C=CODE     S=.text    G=(none)   M=Clipbrd  ACBP=A9
 0001:00001914 00000006 C=CODE     S=.text    G=(none)   M=FlatSB   ACBP=A9
 0001:0000191C 00000006 C=CODE     S=.text    G=(none)   M=Buttons  ACBP=A9
 0001:00001924 0000168E C=CODE     S=.text    G=(none)   M=CPortEsc ACBP=A9
 0001:00002FB4 0000061A C=CODE     S=.text    G=(none)   M=CPortTrmSet ACBP=A9
 0001:000035D0 0000635C C=CODE     S=.text    G=(none)   M=CPortCtl ACBP=A9
 0001:0000992C 000003BA C=CODE     S=.text    G=(none)   M=CPortSetup ACBP=A9
 0001:00009CE8 0000782F C=CODE     S=.text    G=(none)   M=CPort    ACBP=A9
 0001:00011518 0000003E C=CODE     S=.text    G=(none)   M=BisCoreObjects ACBP=A9
 0001:00011558 0000000E C=CODE     S=.text    G=(none)   M=BisUtils ACBP=A9
 0001:00011568 00000016 C=CODE     S=.text    G=(none)   M=BisObject ACBP=A9
 0001:00011580 00000006 C=CODE     S=.text    G=(none)   M=DB       ACBP=A9
 0001:00011588 00000006 C=CODE     S=.text    G=(none)   M=WideStrings ACBP=A9
 0001:00011590 00000006 C=CODE     S=.text    G=(none)   M=FMTBcd   ACBP=A9
 0001:00011598 00000006 C=CODE     S=.text    G=(none)   M=SqlTimSt ACBP=A9
 0001:000115A0 00000006 C=CODE     S=.text    G=(none)   M=ComObj   ACBP=A9
 0001:000115A8 00000006 C=CODE     S=.text    G=(none)   M=BisFm    ACBP=A9
 0001:000115B0 00000006 C=CODE     S=.text    G=(none)   M=BisThreads ACBP=A9
 0001:000115B8 00000006 C=CODE     S=.text    G=(none)   M=BisLocks ACBP=A9
 0001:000115C0 00000006 C=CODE     S=.text    G=(none)   M=DECUtil  ACBP=A9
 0001:000115C8 00000006 C=CODE     S=.text    G=(none)   M=Hash     ACBP=A9
 0001:000115D0 00000006 C=CODE     S=.text    G=(none)   M=Cipher   ACBP=A9
 0001:000115D8 00000006 C=CODE     S=.text    G=(none)   M=Cipher1  ACBP=A9
 0001:000115E0 00000006 C=CODE     S=.text    G=(none)   M=BisCryptUtils ACBP=A9
 0001:000115E8 00000006 C=CODE     S=.text    G=(none)   M=DBCtrls  ACBP=A9
 0001:000115F0 00000006 C=CODE     S=.text    G=(none)   M=ComCtrls ACBP=A9
 0001:000115F8 00000006 C=CODE     S=.text    G=(none)   M=ExtActns ACBP=A9
 0001:00011600 00000006 C=CODE     S=.text    G=(none)   M=ExtDlgs  ACBP=A9
 0001:00011608 00000006 C=CODE     S=.text    G=(none)   M=Mapi     ACBP=A9
 0001:00011610 00000006 C=CODE     S=.text    G=(none)   M=DBPWDlg  ACBP=A9
 0001:00011618 00000006 C=CODE     S=.text    G=(none)   M=DBLogDlg ACBP=A9
 0001:00011620 00000006 C=CODE     S=.text    G=(none)   M=rxToolEdit ACBP=A9
 0001:00011628 00000006 C=CODE     S=.text    G=(none)   M=rxDateUtil ACBP=A9
 0001:00011630 00000006 C=CODE     S=.text    G=(none)   M=RXCtrls  ACBP=A9
 0001:00011638 00000006 C=CODE     S=.text    G=(none)   M=RxHook   ACBP=A9
 0001:00011640 00000006 C=CODE     S=.text    G=(none)   M=RXConst  ACBP=A9
 0001:00011648 00000006 C=CODE     S=.text    G=(none)   M=rxVclutils ACBP=A9
 0001:00011650 00000006 C=CODE     S=.text    G=(none)   M=RXProps  ACBP=A9
 0001:00011658 00000006 C=CODE     S=.text    G=(none)   M=rxAppUtils ACBP=A9
 0001:00011660 00000006 C=CODE     S=.text    G=(none)   M=RxPrgrss ACBP=A9
 0001:00011668 00000006 C=CODE     S=.text    G=(none)   M=SynEdit  ACBP=A9
 0001:00011670 00000006 C=CODE     S=.text    G=(none)   M=SynEditHighlighter ACBP=A9
 0001:00011678 00000006 C=CODE     S=.text    G=(none)   M=SynEditMiscClasses ACBP=A9
 0001:00011680 00000006 C=CODE     S=.text    G=(none)   M=SynRegExpr ACBP=A9
 0001:00011688 00000006 C=CODE     S=.text    G=(none)   M=SynEditKeyCmds ACBP=A9
 0001:00011690 00000006 C=CODE     S=.text    G=(none)   M=SynTextDrawer ACBP=A9
 0001:00011698 00000006 C=CODE     S=.text    G=(none)   M=rxCurrEdit ACBP=A9
 0001:000116A0 00000006 C=CODE     S=.text    G=(none)   M=ThemedDBGrid ACBP=A9
 0001:000116A8 00000006 C=CODE     S=.text    G=(none)   M=RxRichEd ACBP=A9
 0001:000116B0 00000006 C=CODE     S=.text    G=(none)   M=OleCtnrs ACBP=A9
 0001:000116B8 00000006 C=CODE     S=.text    G=(none)   M=CheckLst ACBP=A9
 0001:000116C0 00000006 C=CODE     S=.text    G=(none)   M=GIFImage ACBP=A9
 0001:000116C8 00000006 C=CODE     S=.text    G=(none)   M=jpeg     ACBP=A9
 0001:000116D0 00000006 C=CODE     S=.text    G=(none)   M=BisCore  ACBP=A9
 0001:000116D8 00000006 C=CODE     S=.text    G=(none)   M=kbmMemTable ACBP=A9
 0001:000116E0 00000006 C=CODE     S=.text    G=(none)   M=BisConnectionUtils ACBP=A9
 0001:000116E8 00000006 C=CODE     S=.text    G=(none)   M=SynHighlighterXML ACBP=A9
 0001:000116F0 00000006 C=CODE     S=.text    G=(none)   M=SynHighlighterSQL ACBP=A9
 0001:000116F8 00000006 C=CODE     S=.text    G=(none)   M=OleServer ACBP=A9
 0001:00011700 00000006 C=CODE     S=.text    G=(none)   M=OleCtrls ACBP=A9
 0001:00011708 00000006 C=CODE     S=.text    G=(none)   M=AxCtrls  ACBP=A9
 0001:00011710 00000006 C=CODE     S=.text    G=(none)   M=BisTimedMsgFm ACBP=A9
 0001:00011718 00000006 C=CODE     S=.text    G=(none)   M=ActnMan  ACBP=A9
 0001:00011720 00000006 C=CODE     S=.text    G=(none)   M=ActnMenus ACBP=A9
 0001:00011728 00000006 C=CODE     S=.text    G=(none)   M=XPStyleActnCtrls ACBP=A9
 0001:00011730 00000006 C=CODE     S=.text    G=(none)   M=GIFImg   ACBP=A9
 0001:00011738 00000006 C=CODE     S=.text    G=(none)   M=BisSystemUtils ACBP=A9
 0001:00011740 00000006 C=CODE     S=.text    G=(none)   M=MiTeC_Routines ACBP=A9
 0001:00011748 00000006 C=CODE     S=.text    G=(none)   M=MSI_Processes ACBP=A9
 0001:00011750 00000006 C=CODE     S=.text    G=(none)   M=MiTeC_PSAPI ACBP=A9
 0001:00011758 00000006 C=CODE     S=.text    G=(none)   M=MSI_Devices ACBP=A9
 0001:00011760 00000006 C=CODE     S=.text    G=(none)   M=MSI_CPU  ACBP=A9
 0001:00011768 00000006 C=CODE     S=.text    G=(none)   M=BisExceptNotifier ACBP=A9
 0001:00011770 00000006 C=CODE     S=.text    G=(none)   M=JclDebug ACBP=A9
 0001:00011778 00000006 C=CODE     S=.text    G=(none)   M=JclSysInfo ACBP=A9
 0001:00011780 00000006 C=CODE     S=.text    G=(none)   M=JclStrings ACBP=A9
 0001:00011788 00000006 C=CODE     S=.text    G=(none)   M=JclSysUtils ACBP=A9
 0001:00011790 00000006 C=CODE     S=.text    G=(none)   M=JclWideStrings ACBP=A9
 0001:00011798 00000006 C=CODE     S=.text    G=(none)   M=JclShell ACBP=A9
 0001:000117A0 00000006 C=CODE     S=.text    G=(none)   M=JclRegistry ACBP=A9
 0001:000117A8 00000006 C=CODE     S=.text    G=(none)   M=JclHookExcept ACBP=A9
 0001:000117B0 00000006 C=CODE     S=.text    G=(none)   M=BisDeadlocks ACBP=A9
 0001:000117B8 00000006 C=CODE     S=.text    G=(none)   M=BisServiceApplication ACBP=A9
 0001:000117C0 00000006 C=CODE     S=.text    G=(none)   M=BisSvcMgr ACBP=A9
 0001:000117C8 00000006 C=CODE     S=.text    G=(none)   M=SvcMgr   ACBP=A9
 0001:000117D0 00000006 C=CODE     S=.text    G=(none)   M=AsyncCalls ACBP=A9
 0001:000117D8 00000AFA C=CODE     S=.text    G=(none)   M=BisComPort ACBP=A9
 0001:000122D4 00000306 C=CODE     S=.text    G=(none)   M=BisBarcodeScanner ACBP=A9
 0001:000125DC 00000856 C=CODE     S=.text    G=(none)   M=XAsync   ACBP=A9
 0001:00012E34 0000026E C=CODE     S=.text    G=(none)   M=XComErr  ACBP=A9
 0001:000130A4 000070FC C=CODE     S=.text    G=(none)   M=XComDrv  ACBP=A9
 0001:0001A1A0 00000B6F C=CODE     S=.text    G=(none)   M=.omcom   ACBP=A9
 0002:00000000 00000006 C=ICODE    S=.itext   G=(none)   M=System   ACBP=A9
 0002:00000008 00000006 C=ICODE    S=.itext   G=(none)   M=Classes  ACBP=A9
 0002:00000010 00000011 C=ICODE    S=.itext   G=(none)   M=Windows  ACBP=A9
 0002:00000024 00000006 C=ICODE    S=.itext   G=(none)   M=TypInfo  ACBP=A9
 0002:0000002C 00000006 C=ICODE    S=.itext   G=(none)   M=SysUtils ACBP=A9
 0002:00000034 00000006 C=ICODE    S=.itext   G=(none)   M=Variants ACBP=A9
 0002:0000003C 00000006 C=ICODE    S=.itext   G=(none)   M=VarUtils ACBP=A9
 0002:00000044 00000006 C=ICODE    S=.itext   G=(none)   M=IniFiles ACBP=A9
 0002:0000004C 00000006 C=ICODE    S=.itext   G=(none)   M=Registry ACBP=A9
 0002:00000054 00000008 C=ICODE    S=.itext   G=(none)   M=CPortTypes ACBP=A9
 0002:0000005C 00000006 C=ICODE    S=.itext   G=(none)   M=Graphics ACBP=A9
 0002:00000064 00000006 C=ICODE    S=.itext   G=(none)   M=Controls ACBP=A9
 0002:0000006C 00000006 C=ICODE    S=.itext   G=(none)   M=ActnList ACBP=A9
 0002:00000074 00000006 C=ICODE    S=.itext   G=(none)   M=Themes   ACBP=A9
 0002:0000007C 00000006 C=ICODE    S=.itext   G=(none)   M=Menus    ACBP=A9
 0002:00000084 00000006 C=ICODE    S=.itext   G=(none)   M=UxTheme  ACBP=A9
 0002:0000008C 00000006 C=ICODE    S=.itext   G=(none)   M=MultiMon ACBP=A9
 0002:00000094 00000006 C=ICODE    S=.itext   G=(none)   M=DwmApi   ACBP=A9
 0002:0000009C 00000006 C=ICODE    S=.itext   G=(none)   M=Forms    ACBP=A9
 0002:000000A4 00000006 C=ICODE    S=.itext   G=(none)   M=HelpIntfs ACBP=A9
 0002:000000AC 00000006 C=ICODE    S=.itext   G=(none)   M=Dialogs  ACBP=A9
 0002:000000B4 00000006 C=ICODE    S=.itext   G=(none)   M=Printers ACBP=A9
 0002:000000BC 00000006 C=ICODE    S=.itext   G=(none)   M=ExtCtrls ACBP=A9
 0002:000000C4 00000006 C=ICODE    S=.itext   G=(none)   M=GraphUtil ACBP=A9
 0002:000000CC 00000006 C=ICODE    S=.itext   G=(none)   M=Clipbrd  ACBP=A9
 0002:000000D4 00000006 C=ICODE    S=.itext   G=(none)   M=FlatSB   ACBP=A9
 0002:000000DC 00000006 C=ICODE    S=.itext   G=(none)   M=Buttons  ACBP=A9
 0002:000000E4 00000008 C=ICODE    S=.itext   G=(none)   M=CPortEsc ACBP=A9
 0002:000000EC 00000008 C=ICODE    S=.itext   G=(none)   M=CPortTrmSet ACBP=A9
 0002:000000F4 0000005C C=ICODE    S=.itext   G=(none)   M=CPortCtl ACBP=A9
 0002:00000150 00000008 C=ICODE    S=.itext   G=(none)   M=CPortSetup ACBP=A9
 0002:00000158 00000008 C=ICODE    S=.itext   G=(none)   M=CPort    ACBP=A9
 0002:00000160 00000006 C=ICODE    S=.itext   G=(none)   M=BisUtils ACBP=A9
 0002:00000168 00000006 C=ICODE    S=.itext   G=(none)   M=DB       ACBP=A9
 0002:00000170 00000006 C=ICODE    S=.itext   G=(none)   M=WideStrings ACBP=A9
 0002:00000178 00000006 C=ICODE    S=.itext   G=(none)   M=FMTBcd   ACBP=A9
 0002:00000180 00000006 C=ICODE    S=.itext   G=(none)   M=SqlTimSt ACBP=A9
 0002:00000188 00000006 C=ICODE    S=.itext   G=(none)   M=ComObj   ACBP=A9
 0002:00000190 00000006 C=ICODE    S=.itext   G=(none)   M=BisFm    ACBP=A9
 0002:00000198 00000006 C=ICODE    S=.itext   G=(none)   M=BisThreads ACBP=A9
 0002:000001A0 00000006 C=ICODE    S=.itext   G=(none)   M=BisLocks ACBP=A9
 0002:000001A8 00000006 C=ICODE    S=.itext   G=(none)   M=DECUtil  ACBP=A9
 0002:000001B0 00000006 C=ICODE    S=.itext   G=(none)   M=Hash     ACBP=A9
 0002:000001B8 00000006 C=ICODE    S=.itext   G=(none)   M=Cipher   ACBP=A9
 0002:000001C0 00000006 C=ICODE    S=.itext   G=(none)   M=Cipher1  ACBP=A9
 0002:000001C8 00000006 C=ICODE    S=.itext   G=(none)   M=BisCryptUtils ACBP=A9
 0002:000001D0 00000006 C=ICODE    S=.itext   G=(none)   M=DBCtrls  ACBP=A9
 0002:000001D8 00000006 C=ICODE    S=.itext   G=(none)   M=ComCtrls ACBP=A9
 0002:000001E0 00000006 C=ICODE    S=.itext   G=(none)   M=ExtActns ACBP=A9
 0002:000001E8 00000006 C=ICODE    S=.itext   G=(none)   M=ExtDlgs  ACBP=A9
 0002:000001F0 00000006 C=ICODE    S=.itext   G=(none)   M=Mapi     ACBP=A9
 0002:000001F8 00000006 C=ICODE    S=.itext   G=(none)   M=DBPWDlg  ACBP=A9
 0002:00000200 00000006 C=ICODE    S=.itext   G=(none)   M=DBLogDlg ACBP=A9
 0002:00000208 00000006 C=ICODE    S=.itext   G=(none)   M=rxToolEdit ACBP=A9
 0002:00000210 00000006 C=ICODE    S=.itext   G=(none)   M=rxDateUtil ACBP=A9
 0002:00000218 00000006 C=ICODE    S=.itext   G=(none)   M=RXCtrls  ACBP=A9
 0002:00000220 00000006 C=ICODE    S=.itext   G=(none)   M=RxHook   ACBP=A9
 0002:00000228 00000006 C=ICODE    S=.itext   G=(none)   M=RXConst  ACBP=A9
 0002:00000230 00000006 C=ICODE    S=.itext   G=(none)   M=rxVclutils ACBP=A9
 0002:00000238 00000006 C=ICODE    S=.itext   G=(none)   M=RXProps  ACBP=A9
 0002:00000240 00000006 C=ICODE    S=.itext   G=(none)   M=rxAppUtils ACBP=A9
 0002:00000248 00000006 C=ICODE    S=.itext   G=(none)   M=RxPrgrss ACBP=A9
 0002:00000250 00000006 C=ICODE    S=.itext   G=(none)   M=SynEdit  ACBP=A9
 0002:00000258 00000006 C=ICODE    S=.itext   G=(none)   M=SynEditHighlighter ACBP=A9
 0002:00000260 00000006 C=ICODE    S=.itext   G=(none)   M=SynEditMiscClasses ACBP=A9
 0002:00000268 00000006 C=ICODE    S=.itext   G=(none)   M=SynRegExpr ACBP=A9
 0002:00000270 00000006 C=ICODE    S=.itext   G=(none)   M=SynEditKeyCmds ACBP=A9
 0002:00000278 00000006 C=ICODE    S=.itext   G=(none)   M=SynTextDrawer ACBP=A9
 0002:00000280 00000006 C=ICODE    S=.itext   G=(none)   M=rxCurrEdit ACBP=A9
 0002:00000288 00000006 C=ICODE    S=.itext   G=(none)   M=ThemedDBGrid ACBP=A9
 0002:00000290 00000006 C=ICODE    S=.itext   G=(none)   M=RxRichEd ACBP=A9
 0002:00000298 00000006 C=ICODE    S=.itext   G=(none)   M=OleCtnrs ACBP=A9
 0002:000002A0 00000006 C=ICODE    S=.itext   G=(none)   M=CheckLst ACBP=A9
 0002:000002A8 00000006 C=ICODE    S=.itext   G=(none)   M=GIFImage ACBP=A9
 0002:000002B0 00000006 C=ICODE    S=.itext   G=(none)   M=jpeg     ACBP=A9
 0002:000002B8 00000006 C=ICODE    S=.itext   G=(none)   M=BisCore  ACBP=A9
 0002:000002C0 00000006 C=ICODE    S=.itext   G=(none)   M=kbmMemTable ACBP=A9
 0002:000002C8 00000006 C=ICODE    S=.itext   G=(none)   M=BisConnectionUtils ACBP=A9
 0002:000002D0 00000006 C=ICODE    S=.itext   G=(none)   M=SynHighlighterXML ACBP=A9
 0002:000002D8 00000006 C=ICODE    S=.itext   G=(none)   M=SynHighlighterSQL ACBP=A9
 0002:000002E0 00000006 C=ICODE    S=.itext   G=(none)   M=OleServer ACBP=A9
 0002:000002E8 00000006 C=ICODE    S=.itext   G=(none)   M=OleCtrls ACBP=A9
 0002:000002F0 00000006 C=ICODE    S=.itext   G=(none)   M=AxCtrls  ACBP=A9
 0002:000002F8 00000006 C=ICODE    S=.itext   G=(none)   M=BisTimedMsgFm ACBP=A9
 0002:00000300 00000006 C=ICODE    S=.itext   G=(none)   M=ActnMan  ACBP=A9
 0002:00000308 00000006 C=ICODE    S=.itext   G=(none)   M=ActnMenus ACBP=A9
 0002:00000310 00000006 C=ICODE    S=.itext   G=(none)   M=XPStyleActnCtrls ACBP=A9
 0002:00000318 00000006 C=ICODE    S=.itext   G=(none)   M=GIFImg   ACBP=A9
 0002:00000320 00000006 C=ICODE    S=.itext   G=(none)   M=BisSystemUtils ACBP=A9
 0002:00000328 00000006 C=ICODE    S=.itext   G=(none)   M=MiTeC_Routines ACBP=A9
 0002:00000330 00000006 C=ICODE    S=.itext   G=(none)   M=MSI_Processes ACBP=A9
 0002:00000338 00000006 C=ICODE    S=.itext   G=(none)   M=MiTeC_PSAPI ACBP=A9
 0002:00000340 00000006 C=ICODE    S=.itext   G=(none)   M=MSI_Devices ACBP=A9
 0002:00000348 00000006 C=ICODE    S=.itext   G=(none)   M=MSI_CPU  ACBP=A9
 0002:00000350 00000006 C=ICODE    S=.itext   G=(none)   M=BisExceptNotifier ACBP=A9
 0002:00000358 00000006 C=ICODE    S=.itext   G=(none)   M=JclDebug ACBP=A9
 0002:00000360 00000006 C=ICODE    S=.itext   G=(none)   M=JclSysInfo ACBP=A9
 0002:00000368 00000006 C=ICODE    S=.itext   G=(none)   M=JclStrings ACBP=A9
 0002:00000370 00000006 C=ICODE    S=.itext   G=(none)   M=JclSysUtils ACBP=A9
 0002:00000378 00000006 C=ICODE    S=.itext   G=(none)   M=JclWideStrings ACBP=A9
 0002:00000380 00000006 C=ICODE    S=.itext   G=(none)   M=JclShell ACBP=A9
 0002:00000388 00000006 C=ICODE    S=.itext   G=(none)   M=JclRegistry ACBP=A9
 0002:00000390 00000006 C=ICODE    S=.itext   G=(none)   M=JclHookExcept ACBP=A9
 0002:00000398 00000006 C=ICODE    S=.itext   G=(none)   M=BisDeadlocks ACBP=A9
 0002:000003A0 00000006 C=ICODE    S=.itext   G=(none)   M=BisServiceApplication ACBP=A9
 0002:000003A8 00000006 C=ICODE    S=.itext   G=(none)   M=BisSvcMgr ACBP=A9
 0002:000003B0 00000006 C=ICODE    S=.itext   G=(none)   M=SvcMgr   ACBP=A9
 0002:000003B8 00000006 C=ICODE    S=.itext   G=(none)   M=AsyncCalls ACBP=A9
 0002:000003C0 00000008 C=ICODE    S=.itext   G=(none)   M=BisComPort ACBP=A9
 0002:000003C8 00000008 C=ICODE    S=.itext   G=(none)   M=BisBarcodeScanner ACBP=A9
 0002:000003D0 00000008 C=ICODE    S=.itext   G=(none)   M=XAsync   ACBP=A9
 0002:000003D8 00000008 C=ICODE    S=.itext   G=(none)   M=XComErr  ACBP=A9
 0002:000003E0 00000008 C=ICODE    S=.itext   G=(none)   M=XComDrv  ACBP=A9
 0002:000003E8 00000005 C=ICODE    S=.itext   G=(none)   M=.omcom   ACBP=A9
 0003:00000000 0000002C C=DATA     S=.data    G=DGROUP   M=SysInit  ACBP=A9
 0003:0000002C 00000040 C=DATA     S=.data    G=DGROUP   M=CPortCtl ACBP=A9
 0003:0000006C 00000168 C=DATA     S=.data    G=DGROUP   M=CPort    ACBP=A9
 0003:000001D4 000000B0 C=DATA     S=.data    G=DGROUP   M=XComDrv  ACBP=A9
 0004:00000000 0000000C C=BSS      S=.bss     G=DGROUP   M=SysInit  ACBP=A9
 0004:0000000C 00000008 C=BSS      S=.bss     G=DGROUP   M=Windows  ACBP=A9
 0004:00000014 00000004 C=BSS      S=.bss     G=DGROUP   M=CPortTypes ACBP=A9
 0004:00000018 00000004 C=BSS      S=.bss     G=DGROUP   M=CPortEsc ACBP=A9
 0004:0000001C 00000004 C=BSS      S=.bss     G=DGROUP   M=CPortTrmSet ACBP=A9
 0004:00000020 00000008 C=BSS      S=.bss     G=DGROUP   M=CPortCtl ACBP=A9
 0004:00000028 00000004 C=BSS      S=.bss     G=DGROUP   M=CPortSetup ACBP=A9
 0004:0000002C 00000004 C=BSS      S=.bss     G=DGROUP   M=CPort    ACBP=A9
 0004:00000030 00000004 C=BSS      S=.bss     G=DGROUP   M=BisComPort ACBP=A9
 0004:00000034 00000004 C=BSS      S=.bss     G=DGROUP   M=BisBarcodeScanner ACBP=A9
 0004:00000038 00000004 C=BSS      S=.bss     G=DGROUP   M=XAsync   ACBP=A9
 0004:0000003C 00000004 C=BSS      S=.bss     G=DGROUP   M=XComErr  ACBP=A9
 0004:00000040 00000004 C=BSS      S=.bss     G=DGROUP   M=XComDrv  ACBP=A9


  Address             Publics by Name

 0002:000003E8       .omcom..omcom
 0001:0001ACF0       .omcom.@GetPackageInfoTable
 0001:0001ACF8       .omcom.@PackageLoad
 0001:0001AD04       .omcom.@PackageUnload
 0004:00000034       BisBarcodeScanner..2
 0001:00012324       BisBarcodeScanner..TBisBarcodeScanner
 0002:000003C8       BisBarcodeScanner.BisBarcodeScanner
 0001:000125AC       BisBarcodeScanner.Finalization
 0001:000124D4       BisBarcodeScanner.TBisBarcodeScanner.ComPortRxChar
 0001:00012594       BisBarcodeScanner.TBisBarcodeScanner.Connect
 0001:00012438       BisBarcodeScanner.TBisBarcodeScanner.Create
 0001:00012494       BisBarcodeScanner.TBisBarcodeScanner.Destroy
 0001:000124BC       BisBarcodeScanner.TBisBarcodeScanner.DoBarcode
 0004:00000030       BisComPort..2
 0001:000119D0       BisComPort..TBisComPort
 0002:000003C0       BisComPort.BisComPort
 0001:000122A4       BisComPort.Finalization
 0001:00012004       BisComPort.TBisComPort.ComPortAfterClose
 0001:0001206C       BisComPort.TBisComPort.ComPortAfterOpen
 0001:000120D4       BisComPort.TBisComPort.ComPortError
 0001:00012174       BisComPort.TBisComPort.Connect
 0001:00011CA0       BisComPort.TBisComPort.Create
 0001:00011FBC       BisComPort.TBisComPort.Destroy
 0001:000121CC       BisComPort.TBisComPort.Disconnect
 0001:00011FEC       BisComPort.TBisComPort.DoStatus
 0001:00012250       BisComPort.TBisComPort.GetBaudRate
 0001:00012224       BisComPort.TBisComPort.GetConnected
 0001:00012258       BisComPort.TBisComPort.GetDataBits
 0001:0001222C       BisComPort.TBisComPort.GetParityBits
 0001:00012238       BisComPort.TBisComPort.GetPort
 0001:00012260       BisComPort.TBisComPort.GetStopBits
 0001:00012268       BisComPort.TBisComPort.SeTBisComPortBaudRate
 0001:00012274       BisComPort.TBisComPort.SetDataBits
 0001:00012280       BisComPort.TBisComPort.SetParityBits
 0001:0001228C       BisComPort.TBisComPort.SetPort
 0001:00012298       BisComPort.TBisComPort.SetStopBits
 0004:0000002C       CPort..31
 0001:0000AD10       CPort..EComPort
 0001:0000AD88       CPort..EComPortExt
 0001:0000A28C       CPort..TComBuffer
 0001:0000A9E8       CPort..TComDataPacket
 0001:00009F50       CPort..TComFlowControl
 0001:00009CE8       CPort..TComLink
 0001:0000A17C       CPort..TComParity
 0001:0000A4AC       CPort..TComPort
 0001:0000AC78       CPort..TComStream
 0001:00009D60       CPort..TComThread
 0001:00009DE4       CPort..TComTimeouts
 0001:0000A35C       CPort..TCustomComPort
 0003:00000154       CPort.BaudRateInts
 0003:00000114       CPort.BaudRateStrings
 0001:000112A0       CPort.BaudRateToInt
 0001:00011284       CPort.BaudRateToStr
 0001:0000D258       CPort.BoolToStr
 0003:0000008C       CPort.CBaudRate
 0003:000000EC       CPort.CControlDTR
 0003:000000DC       CPort.CControlRTS
 0003:000000CC       CPort.CDataBits
 0001:0000FC60       CPort.CheckLinks
 0001:0000AE04       CPort.ComErrorMessage
 0003:0000006C       CPort.CParityBits
 0002:00000158       CPort.CPort
 0001:0000D588       CPort.CPortCharToStr
 0001:00010CF8       CPort.CportDoneAsync
 0001:00010CB8       CPort.CportInitAsync
 0001:0000CA8C       CPort.CPortPrepareAsync
 0001:0000D4C0       CPort.CPortStrToChar
 0003:00000080       CPort.CStopBits
 0003:000001A0       CPort.DataBitsStrings
 0001:0001131C       CPort.DataBitsToStr
 0001:00010490       CPort.DiscardPacketToPos
 0003:000000F8       CPort.DTRStrings
 0001:0000D32C       CPort.DTRToStr
 0001:00010BAC       CPort.EComPort.Create
 0001:00010C7C       CPort.EComPort.Create
 0001:00010AC8       CPort.EComPortExt.Create
 0001:000106B0       CPort.EndPacket
 0001:00010D28       CPort.EnumComPorts
 0001:0000CF54       CPort.ErrorCode
 0001:0000B3D8       CPort.EventsToInt
 0001:00011450       CPort.Finalization
 0003:000001C4       CPort.FlowControlStrings
 0001:000113E8       CPort.FlowControlToStr
 0001:00010534       CPort.FormPacket
 0001:0000C598       CPort.GetTOValue
 0001:0000B444       CPort.IntToEvents
 0001:00010820       CPort.IsBufferTooLarge
 0003:000001B0       CPort.ParityBitsStrings
 0001:00011384       CPort.ParityToStr
 0001:0000FC1C       CPort.PerformRead
 0003:00000104       CPort.RTSStrings
 0001:0000D38C       CPort.RTSToStr
 0001:0000F3FC       CPort.SetRegistry
 0001:000105C4       CPort.StartPacket
 0003:00000194       CPort.StopBitsStrings
 0001:000112D0       CPort.StopBitsToStr
 0001:00010ED4       CPort.StrToBaudRate
 0001:0000D294       CPort.StrToBool
 0001:00010FEC       CPort.StrToDataBits
 0001:0000D434       CPort.StrToDTR
 0001:00011104       CPort.StrToFlowControl
 0001:00011078       CPort.StrToParity
 0001:0000D3A8       CPort.StrToRTS
 0001:00010F60       CPort.StrToStopBits
 0001:0000BDC4       CPort.TComBuffer.AssignTo
 0001:0000BD80       CPort.TComBuffer.Create
 0001:0000BDF8       CPort.TComBuffer.SetComPort
 0001:0000BDFC       CPort.TComBuffer.SetInputSize
 0001:0000BE30       CPort.TComBuffer.SetOutputSize
 0001:000102B0       CPort.TComDataPacket.AddData
 0001:00010374       CPort.TComDataPacket.CheckIncludeStrings
 0001:00010218       CPort.TComDataPacket.Create
 0001:00010278       CPort.TComDataPacket.Destroy
 0001:00010344       CPort.TComDataPacket.DoCustomStart
 0001:0001035C       CPort.TComDataPacket.DoCustomStop
 0001:00010314       CPort.TComDataPacket.DoDiscard
 0001:0001032C       CPort.TComDataPacket.DoPacket
 0001:00010954       CPort.TComDataPacket.EmptyBuffer
 0001:00010850       CPort.TComDataPacket.HandleBuffer
 0001:000102E8       CPort.TComDataPacket.Notification
 0001:000108E8       CPort.TComDataPacket.RxBuf
 0001:000109E8       CPort.TComDataPacket.SetCaseInsensitive
 0001:000109B0       CPort.TComDataPacket.SetComPort
 0001:000109FC       CPort.TComDataPacket.SetSize
 0001:00010A10       CPort.TComDataPacket.SetStartString
 0001:00010A3C       CPort.TComDataPacket.SetStopString
 0001:0001046C       CPort.TComDataPacket.Upper
 0001:000108C4       CPort.TComDataPacket.ValidStop
 0001:0000BA28       CPort.TComFlowControl.AssignTo
 0001:0000B9E8       CPort.TComFlowControl.Create
 0001:0000BBDC       CPort.TComFlowControl.GetFlowControl
 0001:0000BA98       CPort.TComFlowControl.SetComPort
 0001:0000BA9C       CPort.TComFlowControl.SetControlDTR
 0001:0000BABC       CPort.TComFlowControl.SetControlRTS
 0001:0000BB5C       CPort.TComFlowControl.SetDSRSensitivity
 0001:0000BC34       CPort.TComFlowControl.SetFlowControl
 0001:0000BADC       CPort.TComFlowControl.SetOutCTSFlow
 0001:0000BAFC       CPort.TComFlowControl.SetOutDSRFlow
 0001:0000BB7C       CPort.TComFlowControl.SetTxContinueOnXoff
 0001:0000BBBC       CPort.TComFlowControl.SetXoffChar
 0001:0000BB9C       CPort.TComFlowControl.SetXonChar
 0001:0000BB1C       CPort.TComFlowControl.SetXonXoffIn
 0001:0000BB3C       CPort.TComFlowControl.SetXonXoffOut
 0001:0000BCB8       CPort.TComParity.AssignTo
 0001:0000BC7C       CPort.TComParity.Create
 0001:0000BD00       CPort.TComParity.SetBits
 0001:0000BD20       CPort.TComParity.SetCheck
 0001:0000BCFC       CPort.TComParity.SetComPort
 0001:0000BD40       CPort.TComParity.SetReplace
 0001:0000BD60       CPort.TComParity.SetReplaceChar
 0001:00010A68       CPort.TComStream.Create
 0001:00010AA4       CPort.TComStream.Read
 0001:00010AC4       CPort.TComStream.Seek
 0001:00010AB4       CPort.TComStream.Write
 0001:0000B548       CPort.TComThread.Create
 0001:0000B5C8       CPort.TComThread.Destroy
 0001:0000B6D0       CPort.TComThread.DispatchComMsg
 0001:0000B81C       CPort.TComThread.DoEvents
 0001:0000B5F4       CPort.TComThread.Execute
 0001:0000B700       CPort.TComThread.SendEvents
 0001:0000B6BC       CPort.TComThread.Stop
 0001:0000B8FC       CPort.TComTimeouts.AssignTo
 0001:0000B8B0       CPort.TComTimeouts.Create
 0001:0000B944       CPort.TComTimeouts.SetComPort
 0001:0000B948       CPort.TComTimeouts.SetReadInterval
 0001:0000B968       CPort.TComTimeouts.SetReadTotalC
 0001:0000B988       CPort.TComTimeouts.SetReadTotalM
 0001:0000B9A8       CPort.TComTimeouts.SetWriteTotalC
 0001:0000B9C8       CPort.TComTimeouts.SetWriteTotalM
 0001:0000D034       CPort.TCustomComPort.AbortAllAsync
 0001:0000C644       CPort.TCustomComPort.ApplyBuffer
 0001:0000C40C       CPort.TCustomComPort.ApplyDCB
 0001:0000C5A4       CPort.TCustomComPort.ApplyTimeouts
 0001:0000C2B0       CPort.TCustomComPort.BeginUpdate
 0001:0000FAC8       CPort.TCustomComPort.CallAfterClose
 0001:0000FAE8       CPort.TCustomComPort.CallAfterOpen
 0001:0000FB10       CPort.TCustomComPort.CallBeforeClose
 0001:0000FB2C       CPort.TCustomComPort.CallBeforeOpen
 0001:0000FB38       CPort.TCustomComPort.CallBreak
 0001:0000FB44       CPort.TCustomComPort.CallCTSChange
 0001:0000FB70       CPort.TCustomComPort.CallDSRChange
 0001:0000FBC8       CPort.TCustomComPort.CallError
 0001:0000FBF4       CPort.TCustomComPort.CallRing
 0001:0000FB9C       CPort.TCustomComPort.CallRLSDChange
 0001:0000FC10       CPort.TCustomComPort.CallRx80Full
 0001:0000FD5C       CPort.TCustomComPort.CallRxChar
 0001:0000FDB0       CPort.TCustomComPort.CallRxFlag
 0001:0000FDCC       CPort.TCustomComPort.CallTxEmpty
 0001:0000FA5C       CPort.TCustomComPort.CheckSignals
 0001:0000C944       CPort.TCustomComPort.ClearBuffer
 0001:0000C3B8       CPort.TCustomComPort.Close
 0001:0000BE64       CPort.TCustomComPort.Create
 0001:0000BFE0       CPort.TCustomComPort.CreateHandle
 0001:0000BF8C       CPort.TCustomComPort.Destroy
 0001:0000C0CC       CPort.TCustomComPort.DestroyHandle
 0001:0000F8DC       CPort.TCustomComPort.DoAfterClose
 0001:0000F8BC       CPort.TCustomComPort.DoAfterOpen
 0001:0000F87C       CPort.TCustomComPort.DoBeforeClose
 0001:0000F89C       CPort.TCustomComPort.DoBeforeOpen
 0001:0000F934       CPort.TCustomComPort.DoBreak
 0001:0000F994       CPort.TCustomComPort.DoCTSChange
 0001:0000F9B4       CPort.TCustomComPort.DoDSRChange
 0001:0000F9F4       CPort.TCustomComPort.DoError
 0001:0000F974       CPort.TCustomComPort.DoRing
 0001:0000F9D4       CPort.TCustomComPort.DoRLSDChange
 0001:0000FA3C       CPort.TCustomComPort.DoRx80Full
 0001:0000F914       CPort.TCustomComPort.DoRxBuf
 0001:0000F8FC       CPort.TCustomComPort.DoRxChar
 0001:0000FA1C       CPort.TCustomComPort.DoRxFlag
 0001:0000F954       CPort.TCustomComPort.DoTxEmpty
 0001:0000C2B4       CPort.TCustomComPort.EndUpdate
 0001:000101A4       CPort.TCustomComPort.GetTriggersOnRxChar
 0001:0000FDF4       CPort.TCustomComPort.HasLink
 0001:0000C6C0       CPort.TCustomComPort.InputCount
 0001:0000D070       CPort.TCustomComPort.IsAsyncCompleted
 0001:0000C988       CPort.TCustomComPort.LastErrors
 0001:0000C0DC       CPort.TCustomComPort.Loaded
 0001:0000E3A4       CPort.TCustomComPort.LoadIniFile
 0001:0000ECF0       CPort.TCustomComPort.LoadRegistry
 0001:0000F690       CPort.TCustomComPort.LoadSettings
 0001:0000FE90       CPort.TCustomComPort.NotifyLink
 0001:0000C2CC       CPort.TCustomComPort.Open
 0001:0000C70C       CPort.TCustomComPort.OutputCount
 0001:0000CE00       CPort.TCustomComPort.Read
 0001:0000CD50       CPort.TCustomComPort.ReadAsync
 0001:0000CEE0       CPort.TCustomComPort.ReadStr
 0001:0000CE68       CPort.TCustomComPort.ReadStrAsync
 0001:0000F7EC       CPort.TCustomComPort.RegisterLink
 0001:0000FF24       CPort.TCustomComPort.SendSignalToLink
 0001:00010040       CPort.TCustomComPort.SetBaudRate
 0001:0000C834       CPort.TCustomComPort.SetBreak
 0001:00010200       CPort.TCustomComPort.SetBuffer
 0001:00010018       CPort.TCustomComPort.SetConnected
 0001:00010058       CPort.TCustomComPort.SetCustomBaudRate
 0001:00010070       CPort.TCustomComPort.SetDataBits
 0001:00010088       CPort.TCustomComPort.SetDiscardNull
 0001:0000C878       CPort.TCustomComPort.SetDTR
 0001:000100A0       CPort.TCustomComPort.SetEventChar
 0001:0001016C       CPort.TCustomComPort.SetEventThreadPriority
 0001:000101B8       CPort.TCustomComPort.SetFlowControl
 0001:00011440       CPort.TCustomComPort.SetOverlapped
 0001:000101D0       CPort.TCustomComPort.SetParity
 0001:000100B8       CPort.TCustomComPort.SetPort
 0001:0000C8BC       CPort.TCustomComPort.SetRTS
 0001:000100F8       CPort.TCustomComPort.SetStopBits
 0001:00010110       CPort.TCustomComPort.SetSyncMethod
 0001:000101E8       CPort.TCustomComPort.SetTimeouts
 0001:00010148       CPort.TCustomComPort.SetTriggersOnRxChar
 0001:0000C698       CPort.TCustomComPort.SetupComPort
 0001:0000C900       CPort.TCustomComPort.SetXonXoff
 0001:0000D250       CPort.TCustomComPort.ShowSetupDialog
 0001:0000C750       CPort.TCustomComPort.Signals
 0001:0000C7F0       CPort.TCustomComPort.StateFlags
 0001:0000D5FC       CPort.TCustomComPort.StoreIniFile
 0001:0000DD0C       CPort.TCustomComPort.StoreRegistry
 0001:0000F568       CPort.TCustomComPort.StoreSettings
 0001:0000D21C       CPort.TCustomComPort.TransmitChar
 0001:0000FE30       CPort.TCustomComPort.TxNotifyLink
 0001:0000F834       CPort.TCustomComPort.UnRegisterLink
 0001:0000CF74       CPort.TCustomComPort.WaitForAsync
 0001:0000D0E8       CPort.TCustomComPort.WaitForEvent
 0001:0000C148       CPort.TCustomComPort.WindowMethod
 0001:00011404       CPort.TCustomComPort.Write
 0001:0000CB40       CPort.TCustomComPort.WriteAsync
 0001:0000CC80       CPort.TCustomComPort.WriteStr
 0001:0000CC48       CPort.TCustomComPort.WriteStrAsync
 0001:0000CAD0       CPort.TCustomComPort._SyncRead
 0001:0000CB04       CPort.TCustomComPort._SyncWrite
 0001:0000CBE0       CPort.TCustomComPort._WriteAsyncWrapper
 0001:0000CCCC       CPort.TCustomComPort._WriteStrWrapper
 0004:00000024       CPortCtl..9
 0001:000036D4       CPortCtl..TComComboBox
 0001:0000495C       CPortCtl..TComLed
 0001:00003F6C       CPortCtl..TComRadioGroup
 0001:00003640       CPortCtl..TComSelect
 0001:00004F1C       CPortCtl..TComTermBuffer
 0001:000053B4       CPortCtl..TComTerminal
 0001:000051E4       CPortCtl..TCustomComTerminal
 0001:00004868       CPortCtl..TLedBitmap
 0001:000084A4       CPortCtl.AllOff
 0001:00009560       CPortCtl.AppendLineFeeds
 0003:00000064       CPortCtl.BorderStyles
 0004:00000020       CPortCtl.ComTerminalFont
 0002:000000F4       CPortCtl.CPortCtl
 0001:000098C8       CPortCtl.Finalization
 0001:00009610       CPortCtl.Force7BitData
 0001:00005E8C       CPortCtl.Max
 0001:00005E84       CPortCtl.Min
 0003:00000048       CPortCtl.OffBitmaps
 0003:0000002C       CPortCtl.OnBitmaps
 0001:00008924       CPortCtl.ScrollBarVisible
 0001:000089BC       CPortCtl.SetHorzRange
 0001:00008994       CPortCtl.SetRange
 0001:00008A20       CPortCtl.SetVertRange
 0001:00006490       CPortCtl.TComComboBox.ApplySettings
 0001:00006508       CPortCtl.TComComboBox.Change
 0001:000063F8       CPortCtl.TComComboBox.Create
 0001:00006460       CPortCtl.TComComboBox.Destroy
 0001:00006594       CPortCtl.TComComboBox.GetAutoApply
 0001:00006588       CPortCtl.TComComboBox.GetComPort
 0001:0000666C       CPortCtl.TComComboBox.GetComProperty
 0001:000065AC       CPortCtl.TComComboBox.GetText
 0001:000064C0       CPortCtl.TComComboBox.Notification
 0001:000065A0       CPortCtl.TComComboBox.SetAutoApply
 0001:00006560       CPortCtl.TComComboBox.SetComPort
 0001:0000661C       CPortCtl.TComComboBox.SetComProperty
 0001:000065E8       CPortCtl.TComComboBox.SetText
 0001:0000649C       CPortCtl.TComComboBox.UpdateSettings
 0001:00006AD8       CPortCtl.TComLed.BitmapNeeded
 0001:00007054       CPortCtl.TComLed.BitmapToDraw
 0001:00006C4C       CPortCtl.TComLed.CalcBitmapPos
 0001:00006AA8       CPortCtl.TComLed.CMEnabledChanged
 0001:000068B8       CPortCtl.TComLed.Create
 0001:000069C4       CPortCtl.TComLed.Destroy
 0001:00006AB8       CPortCtl.TComLed.DoChange
 0001:00006A88       CPortCtl.TComLed.DoTimer
 0001:00006FD4       CPortCtl.TComLed.GetGlyph
 0001:00006D58       CPortCtl.TComLed.IsStateOn
 0001:00006A58       CPortCtl.TComLed.Notification
 0001:00006A20       CPortCtl.TComLed.Paint
 0001:00006D24       CPortCtl.TComLed.RingDetect
 0001:00006C04       CPortCtl.TComLed.SelectLedBitmap
 0001:00006E40       CPortCtl.TComLed.SetComPort
 0001:00006FF0       CPortCtl.TComLed.SetGlyph
 0001:00006E18       CPortCtl.TComLed.SetKind
 0001:00006F00       CPortCtl.TComLed.SetLedSignal
 0001:00006EC8       CPortCtl.TComLed.SetState
 0001:00006DE8       CPortCtl.TComLed.SetStateInternal
 0001:00006CC8       CPortCtl.TComLed.SignalChange
 0001:00007048       CPortCtl.TComLed.StoredGlyph
 0001:00006710       CPortCtl.TComRadioGroup.ApplySettings
 0001:00006794       CPortCtl.TComRadioGroup.Click
 0001:00006678       CPortCtl.TComRadioGroup.Create
 0001:000066E0       CPortCtl.TComRadioGroup.Destroy
 0001:00006848       CPortCtl.TComRadioGroup.GetAutoApply
 0001:0000683C       CPortCtl.TComRadioGroup.GetComPort
 0001:000068AC       CPortCtl.TComRadioGroup.GetComProperty
 0001:00006744       CPortCtl.TComRadioGroup.Notification
 0001:00006854       CPortCtl.TComRadioGroup.SetAutoApply
 0001:00006814       CPortCtl.TComRadioGroup.SetComPort
 0001:00006860       CPortCtl.TComRadioGroup.SetComProperty
 0001:0000671C       CPortCtl.TComRadioGroup.UpdateSettings
 0001:00006188       CPortCtl.TComSelect.ApplySettings
 0001:00006100       CPortCtl.TComSelect.Change
 0001:00005E94       CPortCtl.TComSelect.SelectBaudRate
 0001:00005F0C       CPortCtl.TComSelect.SelectDataBits
 0001:0000602C       CPortCtl.TComSelect.SelectFlowControl
 0001:00005F6C       CPortCtl.TComSelect.SelectParity
 0001:00005EF4       CPortCtl.TComSelect.SelectPort
 0001:00005FCC       CPortCtl.TComSelect.SelectStopBits
 0001:0000608C       CPortCtl.TComSelect.SetComProperty
 0001:00006208       CPortCtl.TComSelect.UpdateSettings
 0001:00007510       CPortCtl.TComTermBuffer.ClearAllTabs
 0001:0000707C       CPortCtl.TComTermBuffer.Create
 0001:000070B8       CPortCtl.TComTermBuffer.Destroy
 0001:00007320       CPortCtl.TComTermBuffer.EraseLine
 0001:00007398       CPortCtl.TComTermBuffer.EraseScreen
 0001:00007134       CPortCtl.TComTermBuffer.GetChar
 0001:00007570       CPortCtl.TComTermBuffer.GetLastLine
 0001:00007524       CPortCtl.TComTermBuffer.GetLineLength
 0001:000074C8       CPortCtl.TComTermBuffer.GetTab
 0001:0000742C       CPortCtl.TComTermBuffer.Init
 0001:000074D8       CPortCtl.TComTermBuffer.NextTab
 0001:00007160       CPortCtl.TComTermBuffer.ScrollDown
 0001:00007248       CPortCtl.TComTermBuffer.ScrollUp
 0001:000070F4       CPortCtl.TComTermBuffer.SetChar
 0001:000074D0       CPortCtl.TComTermBuffer.SetTab
 0001:0000835C       CPortCtl.TCustomComTerminal.AdvanceCaret
 0001:0000917C       CPortCtl.TCustomComTerminal.CalculateMetrics
 0001:00007CC0       CPortCtl.TCustomComTerminal.CanAutoSize
 0001:00007730       CPortCtl.TCustomComTerminal.ClearScreen
 0001:00007BE8       CPortCtl.TCustomComTerminal.CMColorChanged
 0001:00007B0C       CPortCtl.TCustomComTerminal.CMCtl3DChanged
 0001:00007B38       CPortCtl.TCustomComTerminal.CMFontChanged
 0001:000075A4       CPortCtl.TCustomComTerminal.Create
 0001:0000929C       CPortCtl.TCustomComTerminal.CreateEscapeCodes
 0001:00007D60       CPortCtl.TCustomComTerminal.CreateParams
 0001:0000815C       CPortCtl.TCustomComTerminal.CreateTerminalCaret
 0001:000076E0       CPortCtl.TCustomComTerminal.Destroy
 0001:000091D8       CPortCtl.TCustomComTerminal.DoChar
 0001:000091F8       CPortCtl.TCustomComTerminal.DoGetEscapeCodes
 0001:00009218       CPortCtl.TCustomComTerminal.DoStrRecieved
 0001:00009238       CPortCtl.TCustomComTerminal.DoUnhandledCode
 0001:00008228       CPortCtl.TCustomComTerminal.DrawChar
 0001:00009398       CPortCtl.TCustomComTerminal.GetCharAttr
 0001:000096F0       CPortCtl.TCustomComTerminal.GetConnected
 0001:00008B74       CPortCtl.TCustomComTerminal.HideCaret
 0001:000094B8       CPortCtl.TCustomComTerminal.InitCaret
 0001:000086D4       CPortCtl.TCustomComTerminal.InvalidatePortion
 0001:00007DD8       CPortCtl.TCustomComTerminal.KeyDown
 0001:00007EA4       CPortCtl.TCustomComTerminal.KeyPress
 0001:00007EC0       CPortCtl.TCustomComTerminal.Loaded
 0001:00007954       CPortCtl.TCustomComTerminal.LoadFromStream
 0001:00008770       CPortCtl.TCustomComTerminal.ModifyScrollBar
 0001:0000775C       CPortCtl.TCustomComTerminal.MoveCaret
 0001:00007EE4       CPortCtl.TCustomComTerminal.Notification
 0001:00008070       CPortCtl.TCustomComTerminal.Paint
 0001:00007FD4       CPortCtl.TCustomComTerminal.PaintDesign
 0001:00007F14       CPortCtl.TCustomComTerminal.PaintTerminal
 0001:000092F8       CPortCtl.TCustomComTerminal.PerformTest
 0001:000093F4       CPortCtl.TCustomComTerminal.PutChar
 0001:00008DA0       CPortCtl.TCustomComTerminal.PutEscapeCode
 0001:00009510       CPortCtl.TCustomComTerminal.RestoreAttr
 0001:000094E0       CPortCtl.TCustomComTerminal.RestoreCaretPos
 0001:0000964C       CPortCtl.TCustomComTerminal.RxBuf
 0001:00009538       CPortCtl.TCustomComTerminal.SaveAttr
 0001:000094F4       CPortCtl.TCustomComTerminal.SaveCaretPos
 0001:0000799C       CPortCtl.TCustomComTerminal.SaveToStream
 0001:00007AAC       CPortCtl.TCustomComTerminal.SelectFont
 0001:00008BAC       CPortCtl.TCustomComTerminal.SendChar
 0001:00008C74       CPortCtl.TCustomComTerminal.SendCode
 0001:00008D1C       CPortCtl.TCustomComTerminal.SendCodeNoEcho
 0001:000098A4       CPortCtl.TCustomComTerminal.SetAltColor
 0001:000084E8       CPortCtl.TCustomComTerminal.SetAttributes
 0001:00009718       CPortCtl.TCustomComTerminal.SetBorderStyle
 0001:0000982C       CPortCtl.TCustomComTerminal.SetCaret
 0001:00009740       CPortCtl.TCustomComTerminal.SetColumns
 0001:0000985C       CPortCtl.TCustomComTerminal.SetComPort
 0001:00009704       CPortCtl.TCustomComTerminal.SetConnected
 0001:00009800       CPortCtl.TCustomComTerminal.SetEmulation
 0001:000085E4       CPortCtl.TCustomComTerminal.SetMode
 0001:000097A0       CPortCtl.TCustomComTerminal.SetRows
 0001:0000972C       CPortCtl.TCustomComTerminal.SetScrollBars
 0001:0000936C       CPortCtl.TCustomComTerminal.SetTermAttrColors
 0001:00008B90       CPortCtl.TCustomComTerminal.ShowCaret
 0001:00007B04       CPortCtl.TCustomComTerminal.ShowSetupDialog
 0001:000081CC       CPortCtl.TCustomComTerminal.StringReceived
 0001:000088A4       CPortCtl.TCustomComTerminal.UpdateScrollPos
 0001:00008A88       CPortCtl.TCustomComTerminal.UpdateScrollRange
 0001:00007C00       CPortCtl.TCustomComTerminal.WMGetDlgCode
 0001:00007C98       CPortCtl.TCustomComTerminal.WMHScroll
 0001:00007C18       CPortCtl.TCustomComTerminal.WMKillFocus
 0001:00007C4C       CPortCtl.TCustomComTerminal.WMLButtonDown
 0001:00007C38       CPortCtl.TCustomComTerminal.WMSetFocus
 0001:00007C84       CPortCtl.TCustomComTerminal.WMSize
 0001:00007CAC       CPortCtl.TCustomComTerminal.WMVScroll
 0001:000077F4       CPortCtl.TCustomComTerminal.Write
 0001:00007944       CPortCtl.TCustomComTerminal.WriteEscCode
 0001:00007840       CPortCtl.TCustomComTerminal.WriteStr
 0004:00000018       CPortEsc..4
 0001:00001B90       CPortEsc..TEscapeCodes
 0001:00001CC0       CPortEsc..TEscapeCodesVT100
 0001:00001C2C       CPortEsc..TEscapeCodesVT52
 0001:00002C14       CPortEsc.CodeDevice
 0001:00002B14       CPortEsc.CodeEraseLine
 0001:00002A94       CPortEsc.CodeEraseScreen
 0001:00002CA4       CPortEsc.CodeIdentify
 0001:00002B94       CPortEsc.CodeTab
 0002:000000E4       CPortEsc.CPortEsc
 0001:00002F84       CPortEsc.Finalization
 0001:000029D8       CPortEsc.ParseParams
 0001:00001D54       CPortEsc.TEscapeCodes.Create
 0001:00001D98       CPortEsc.TEscapeCodes.Destroy
 0001:00001DC8       CPortEsc.TEscapeCodes.GetParam
 0001:000028F8       CPortEsc.TEscapeCodesVT100.DetectCode
 0001:00002D74       CPortEsc.TEscapeCodesVT100.DetectExtCode
 0001:00002380       CPortEsc.TEscapeCodesVT100.EscCodeToStr
 0001:000022C0       CPortEsc.TEscapeCodesVT100.ProcessChar
 0001:0000212C       CPortEsc.TEscapeCodesVT52.DetectCode
 0001:00001EF8       CPortEsc.TEscapeCodesVT52.EscCodeToStr
 0001:00001E5C       CPortEsc.TEscapeCodesVT52.ProcessChar
 0004:00000028       CPortSetup..2
 0001:0000992C       CPortSetup..TComSetupFrm
 0002:00000150       CPortSetup.CPortSetup
 0001:00009BA8       CPortSetup.EditComPort
 0001:00009CB8       CPortSetup.Finalization
 0001:00009CB4       CPortSetup.TComSetupFrm.FormCreate
 0004:0000001C       CPortTrmSet..2
 0001:00002FB4       CPortTrmSet..TComTrmSetForm
 0002:000000EC       CPortTrmSet.CPortTrmSet
 0001:00003288       CPortTrmSet.EditComTerminal
 0001:000035A0       CPortTrmSet.Finalization
 0001:0000359C       CPortTrmSet.TComTrmSetForm.FormCreate
 0004:00000014       CPortTypes..1
 0001:00000F14       CPortTypes.ComErrorsToStr
 0002:00000054       CPortTypes.CPortTypes
 0001:00000E90       CPortTypes.e
 0001:0000109C       CPortTypes.Finalization
 0001:00000368       SysInit.@InitPkg
 0001:000003CC       SysInit.@PackageLoad
 0001:000003D8       SysInit.@PackageUnload
 0001:00000258       SysInit.AllocTlsBuffer
 0001:00000314       SysInit.ExitProcessTLS
 0001:000002DC       SysInit.ExitThreadTLS
 0001:00000220       SysInit.FreeLibrary
 0001:00000264       SysInit.GetTlsSize
 0004:00000004       SysInit.HInstance
 0001:00000338       SysInit.InitializeModule
 0001:000002B0       SysInit.InitProcessTLS
 0001:0000026C       SysInit.InitThreadTLS
 0001:00000228       SysInit.LocalAlloc
 0001:00000230       SysInit.LocalFree
 0003:00000004       SysInit.Module
 0004:00000000       SysInit.ModuleIsLib
 0004:00000001       SysInit.ModuleIsPackage
 0001:00000238       SysInit.TlsAlloc
 0004:00000008       SysInit.tlsBuffer
 0001:00000240       SysInit.TlsFree
 0001:00000248       SysInit.TlsGetValue
 0003:00000000       SysInit.TlsIndex
 0005:00000000       SysInit.TlsLast
 0003:0000001C       SysInit.TlsProc
 0001:00000250       SysInit.TlsSetValue
 0001:00000344       SysInit.UninitializeModule
 0004:0000000C       Windows..3
 0001:0000052C       Windows.ClearCommError
 0001:00000534       Windows.CloseHandle
 0001:0000062C       Windows.CreateCaret
 0001:0000053C       Windows.CreateEvent
 0001:00000544       Windows.CreateFile
 0001:00000634       Windows.DefWindowProc
 0001:0000063C       Windows.DestroyCaret
 0001:0000054C       Windows.EscapeCommFunction
 0001:000006C8       Windows.Finalization
 0001:00000554       Windows.FreeLibrary
 0001:0000055C       Windows.GetCommModemStatus
 0001:00000564       Windows.GetCommProperties
 0001:0000056C       Windows.GetCommState
 0001:00000574       Windows.GetCommTimeouts
 0001:00000644       Windows.GetDC
 0001:0000057C       Windows.GetLastError
 0001:00000584       Windows.GetOverlappedResult
 0001:0000064C       Windows.GetScrollPos
 0001:00000654       Windows.GetScrollRange
 0001:0000065C       Windows.GetSystemMetrics
 0001:00000614       Windows.GetTextMetrics
 0001:0000058C       Windows.GetTickCount
 0001:00000594       Windows.GetVersionEx
 0001:00000664       Windows.HideCaret
 0004:00000010       Windows.HtmlHelpModule
 0001:0000066C       Windows.InSendMessage
 0001:00000674       Windows.InvalidateRect
 0001:000006BC       Windows.MakeLong
 0001:0000059C       Windows.OutputDebugString
 0001:0000061C       Windows.PatBlt
 0001:000005A4       Windows.PurgeComm
 0001:000005AC       Windows.QueryPerformanceCounter
 0001:000005B4       Windows.QueryPerformanceFrequency
 0001:000005BC       Windows.ReadFile
 0001:00000514       Windows.RegCloseKey
 0001:0000051C       Windows.RegEnumValue
 0001:00000524       Windows.RegOpenKeyEx
 0001:0000067C       Windows.ReleaseDC
 0001:00000684       Windows.ReplyMessage
 0001:0000068C       Windows.ScrollWindowEx
 0001:00000624       Windows.SelectObject
 0001:00000694       Windows.SendMessage
 0001:0000069C       Windows.SetCaretPos
 0001:000005C4       Windows.SetCommMask
 0001:000005CC       Windows.SetCommState
 0001:000005D4       Windows.SetCommTimeouts
 0001:000005DC       Windows.SetEvent
 0001:000006A4       Windows.SetScrollPos
 0001:000006AC       Windows.SetScrollRange
 0001:000005E4       Windows.SetupComm
 0001:000006B4       Windows.ShowCaret
 0001:000005EC       Windows.TransmitCommChar
 0001:000005F4       Windows.WaitCommEvent
 0001:000005FC       Windows.WaitForMultipleObjects
 0001:00000604       Windows.WaitForSingleObject
 0002:00000010       Windows.Windows
 0001:0000060C       Windows.WriteFile
 0004:00000038       XAsync..2
 0001:0001266C       XAsync..EAsyncError
 0001:000126E8       XAsync..TAsyncThread
 0001:00012E04       XAsync.Finalization
 0001:00012848       XAsync.InitOverlapped
 0001:000128E4       XAsync.InternalCheckHandle
 0001:000129DC       XAsync.InternalCloseAsync
 0001:00012948       XAsync.InternalInitAsync
 0001:00012ADC       XAsync.InternalReadAsync
 0001:00012A40       XAsync.InternalReadStringAsync
 0001:0001286C       XAsync.InternalStartThread
 0001:00012BAC       XAsync.InternalWaitAsync
 0001:00012B44       XAsync.InternalWriteAsync
 0001:000128C8       XAsync.IsAsyncDone
 0001:00012880       XAsync.IsHandleValid
 0001:00012D68       XAsync.ReadComm
 0001:00012CEC       XAsync.ReadComm
 0001:00012DCC       XAsync.SetRXTime
 0001:00012750       XAsync.TAsyncThread.Create
 0001:000127A4       XAsync.TAsyncThread.DoAsyncProc
 0001:000127C0       XAsync.TAsyncThread.Execute
 0001:00012C18       XAsync.WriteComm
 0001:00012C88       XAsync.WriteComm
 0002:000003D0       XAsync.XAsync
 0004:00000040       XComDrv..22
 0001:000137DC       XComDrv..TCommBuffers
 0001:000136D8       XComDrv..TCommDataControl
 0001:00013908       XComDrv..TCommEventChars
 0001:00014ED0       XComDrv..TCommEventThread
 0001:00013600       XComDrv..TCommPlugin
 0001:00013A4C       XComDrv..TCommTimeoutsEx
 0001:00013C30       XComDrv..TCustomComm
 0001:00014414       XComDrv..TCustomModem
 0001:00014110       XComDrv..TModemSettings
 0001:00013D0C       XComDrv..TXComm
 0001:0001451C       XComDrv..TXModem
 0001:0001810C       XComDrv.ATPos
 0001:00017D40       XComDrv.ATResultToME
 0001:00017CD0       XComDrv.ATShortToLong
 0001:00014D98       XComDrv.BaudRateToStr
 0003:00000208       XComDrv.BaudRate_
 0001:00014B18       XComDrv.CharToDataBits
 0001:00014AB4       XComDrv.ConvertErrorFmt
 0001:00014B14       XComDrv.DataBitsToChar
 0001:0001A11C       XComDrv.Finalization
 0001:00017F2C       XComDrv.FindRegAT
 0001:00014C28       XComDrv.FlowControlToStr
 0003:00000244       XComDrv.func_
 0003:0000025C       XComDrv.func_
 0003:00000254       XComDrv.func_
 0003:0000024C       XComDrv.func_
 0001:00018F70       XComDrv.GetCommand
 0001:00014EB0       XComDrv.GetCommState
 0001:00019110       XComDrv.GetData
 0001:00014AD8       XComDrv.GetRXTimeout
 0001:0001A0D4       XComDrv.GetTickCount
 0001:000191B4       XComDrv.HasResult
 0001:00016BDC       XComDrv.intRead
 0001:00016B20       XComDrv.intSend
 0001:00018270       XComDrv.IsConnectAT
 0001:0001801C       XComDrv.IsRegAT
 0001:00015418       XComDrv.IsWinNT
 0003:00000264       XComDrv.MRC_
 0001:00014CE0       XComDrv.ParityToStr
 0001:00017A2C       XComDrv.PluginLocked
 0001:000182C8       XComDrv.RegToStr
 0001:00017E08       XComDrv.RemoveChar
 0001:00014E94       XComDrv.SetDCB
 0001:00014B8C       XComDrv.StopBitsToStr
 0001:00017E40       XComDrv.StripAT
 0001:00014DC4       XComDrv.StrToBaudRate
 0001:00014C40       XComDrv.StrToFlowControl
 0001:00014CF8       XComDrv.StrToParity
 0001:00014BA4       XComDrv.StrToStopBits
 0003:000001D4       XComDrv.STR_FLOWCONTROL
 0003:000001E8       XComDrv.STR_PARITY
 0003:000001FC       XComDrv.STR_STOPBITS
 0001:00015560       XComDrv.TCommBuffers.AssignTo
 0001:000153C4       XComDrv.TCommBuffers.Create
 0001:000154E8       XComDrv.TCommBuffers.GetIOSize
 0001:00015468       XComDrv.TCommBuffers.SetIOSize
 0001:0001535C       XComDrv.TCommDataControl.AssignTo
 0001:000151DC       XComDrv.TCommDataControl.Create
 0001:000152BC       XComDrv.TCommDataControl.GetDataBits
 0001:000152F4       XComDrv.TCommDataControl.GetParity
 0001:00015328       XComDrv.TCommDataControl.GetStopBits
 0001:0001522C       XComDrv.TCommDataControl.SetDataBits
 0001:0001525C       XComDrv.TCommDataControl.SetParity
 0001:0001528C       XComDrv.TCommDataControl.SetStopBits
 0001:00015764       XComDrv.TCommEventChars.AssignTo
 0001:000155D8       XComDrv.TCommEventChars.Create
 0001:000156B0       XComDrv.TCommEventChars.GetCommChar
 0001:00015628       XComDrv.TCommEventChars.SetCommChar
 0001:00014F3C       XComDrv.TCommEventThread.Create
 0001:00014FA4       XComDrv.TCommEventThread.Destroy
 0001:0001509C       XComDrv.TCommEventThread.DoOnSignal
 0001:00014FDC       XComDrv.TCommEventThread.Execute
 0001:00015180       XComDrv.TCommPlugin.CommValid
 0001:000150B8       XComDrv.TCommPlugin.Create
 0001:00015110       XComDrv.TCommPlugin.Destroy
 0001:00015140       XComDrv.TCommPlugin.HandleEvents
 0001:00015144       XComDrv.TCommPlugin.Notification
 0001:00015154       XComDrv.TCommPlugin.SetComm
 0001:00015984       XComDrv.TCommTimeoutsEx.AssignTo
 0001:000157F8       XComDrv.TCommTimeoutsEx.Create
 0001:000158DC       XComDrv.TCommTimeoutsEx.GetInterval
 0001:00015854       XComDrv.TCommTimeoutsEx.SetInterval
 0001:00016128       XComDrv.TCustomComm.AddPlugin
 0001:00016580       XComDrv.TCustomComm.BeginUpdate
 0001:00016164       XComDrv.TCustomComm.ClearPlugins
 0001:000176B0       XComDrv.TCustomComm.CloseAsync
 0001:00016684       XComDrv.TCustomComm.CloseDevice
 0001:00015A18       XComDrv.TCustomComm.Create
 0001:00015B38       XComDrv.TCustomComm.Destroy
 0001:000165E8       XComDrv.TCustomComm.EndUpdate
 0001:00015FE4       XComDrv.TCustomComm.GetBaudRate
 0001:00016028       XComDrv.TCustomComm.GetBaudValue
 0001:000160F4       XComDrv.TCustomComm.GetCommOptions
 0001:00016890       XComDrv.TCustomComm.GetCommStatus
 0001:00016A8C       XComDrv.TCustomComm.GetCount
 0001:0001608C       XComDrv.TCustomComm.GetDTRSettings
 0001:00017A84       XComDrv.TCustomComm.GetLocked
 0001:00016920       XComDrv.TCustomComm.GetMaxBaud
 0001:00016718       XComDrv.TCustomComm.GetOpened
 0001:00016720       XComDrv.TCustomComm.GetPaused
 0001:00016140       XComDrv.TCustomComm.GetPlugin
 0001:00016158       XComDrv.TCustomComm.GetPluginCount
 0001:00016058       XComDrv.TCustomComm.GetRTSSettings
 0001:0001686C       XComDrv.TCustomComm.GetTotalReceived
 0001:000160C0       XComDrv.TCustomComm.GetXOnXOffSettings
 0001:00017190       XComDrv.TCustomComm.HandleEvents
 0001:00017620       XComDrv.TCustomComm.InitAsync
 0001:000175A8       XComDrv.TCustomComm.InternalAsyncProc
 0001:00016438       XComDrv.TCustomComm.OpenDevice
 0001:00016770       XComDrv.TCustomComm.PurgeIn
 0001:000167F4       XComDrv.TCustomComm.PurgeOut
 0001:00017854       XComDrv.TCustomComm.ReadAsync
 0001:0001703C       XComDrv.TCustomComm.ReadByte
 0001:0001702C       XComDrv.TCustomComm.ReadData
 0001:00016EAC       XComDrv.TCustomComm.ReadDataEx
 0001:0001705C       XComDrv.TCustomComm.ReadString
 0001:000170A0       XComDrv.TCustomComm.ReadString
 0001:00017904       XComDrv.TCustomComm.ReadStringAsync
 0001:000171F8       XComDrv.TCustomComm.ReceiveData
 0001:00016134       XComDrv.TCustomComm.RemovePlugin
 0001:000176B8       XComDrv.TCustomComm.SendAsync
 0001:00016E5C       XComDrv.TCustomComm.SendByte
 0001:00016E4C       XComDrv.TCustomComm.SendData
 0001:00016C98       XComDrv.TCustomComm.SendDataEx
 0001:00016E7C       XComDrv.TCustomComm.SendString
 0001:0001777C       XComDrv.TCustomComm.SendStringAsync
 0001:00015C5C       XComDrv.TCustomComm.SetBaudRate
 0001:00015C94       XComDrv.TCustomComm.SetBaudValue
 0001:00015C2C       XComDrv.TCustomComm.SetBuffers
 0001:00015F80       XComDrv.TCustomComm.SetCommOptions
 0001:00015C1C       XComDrv.TCustomComm.SetDataControl
 0001:00015BB8       XComDrv.TCustomComm.SetDeviceName
 0001:00015D3C       XComDrv.TCustomComm.SetDTRSettings
 0001:00015C3C       XComDrv.TCustomComm.SetEventChars
 0001:00015CC4       XComDrv.TCustomComm.SetFlowControl
 0001:00016740       XComDrv.TCustomComm.SetPaused
 0001:00015CFC       XComDrv.TCustomComm.SetRTSSettings
 0001:00015C4C       XComDrv.TCustomComm.SetTimeouts
 0001:00015DA4       XComDrv.TCustomComm.SetXOnXOffSettings
 0001:00017218       XComDrv.TCustomComm.ToggleBreak
 0001:0001728C       XComDrv.TCustomComm.ToggleDTR
 0001:00017300       XComDrv.TCustomComm.ToggleRTS
 0001:00017374       XComDrv.TCustomComm.ToggleXonXoff
 0001:00016320       XComDrv.TCustomComm.UpdateBuffers
 0001:00016188       XComDrv.TCustomComm.UpdateDCB
 0001:000170E8       XComDrv.TCustomComm.UpdateEvents
 0001:00015DE4       XComDrv.TCustomComm.UpdateFlowSettings
 0001:000163A4       XComDrv.TCustomComm.UpdateTimeouts
 0001:000179B0       XComDrv.TCustomComm.WaitAsync
 0001:000173E8       XComDrv.TCustomComm.WaitForString
 0001:000183C8       XComDrv.TCustomModem.CloseDevice
 0001:00019B28       XComDrv.TCustomModem.Connect
 0001:00018324       XComDrv.TCustomModem.Create
 0001:0001836C       XComDrv.TCustomModem.Destroy
 0001:00019CFC       XComDrv.TCustomModem.Disconnect
 0001:00019750       XComDrv.TCustomModem.DoChangeCmdState
 0001:000195F4       XComDrv.TCustomModem.DoConnect
 0001:000196C4       XComDrv.TCustomModem.DoConnecting
 0001:00019660       XComDrv.TCustomModem.DoDisconnect
 0001:00019708       XComDrv.TCustomModem.DoDisconnecting
 0001:00018C48       XComDrv.TCustomModem.EnterCommandState
 0001:00018DD8       XComDrv.TCustomModem.ExitCommandState
 0001:00019B04       XComDrv.TCustomModem.GetConnected
 0001:00018464       XComDrv.TCustomModem.GetEnterCmd
 0001:00018DB4       XComDrv.TCustomModem.GetInstalled
 0001:00019F90       XComDrv.TCustomModem.GetLineStatus
 0001:0001A0A8       XComDrv.TCustomModem.GetLocked
 0001:0001A074       XComDrv.TCustomModem.GetModemState
 0001:00018A7C       XComDrv.TCustomModem.GetRegisterValue
 0001:0001948C       XComDrv.TCustomModem.HandleAT
 0001:000193C4       XComDrv.TCustomModem.HandleEvents
 0001:000184E8       XComDrv.TCustomModem.InitCommand
 0001:00019824       XComDrv.TCustomModem.InitModem
 0001:00019EF4       XComDrv.TCustomModem.LowerDTR
 0001:0001839C       XComDrv.TCustomModem.OpenDevice
 0001:000192B4       XComDrv.TCustomModem.ReceiveData
 0001:00019770       XComDrv.TCustomModem.ResetModem
 0001:000186C4       XComDrv.TCustomModem.SendCommand
 0001:00018450       XComDrv.TCustomModem.SetModemSettings
 0001:00018840       XComDrv.TCustomModem.SetRegisterValue
 0001:00019970       XComDrv.TCustomModem.WaitForAT
 0001:00017B48       XComDrv.TModemSettings.AssignTo
 0001:00017AB4       XComDrv.TModemSettings.Create
 0001:00017BAC       XComDrv.TModemSettings.SetSpeed
 0001:00018F2C       XComDrv.WaitRX
 0002:000003E0       XComDrv.XComDrv
 0004:0000003C       XComErr..2
 0001:00012EC4       XComErr..EDeviceError
 0001:00012F4C       XComErr.EDeviceError.CreateCode
 0001:00013074       XComErr.Finalization
 0002:000003D8       XComErr.XComErr
 0001:00012F90       XComErr.XCommError
 0001:00012FB0       XComErr.XCommWin32Error


  Address             Publics by Value

 0001:00000220       SysInit.FreeLibrary
 0001:00000228       SysInit.LocalAlloc
 0001:00000230       SysInit.LocalFree
 0001:00000238       SysInit.TlsAlloc
 0001:00000240       SysInit.TlsFree
 0001:00000248       SysInit.TlsGetValue
 0001:00000250       SysInit.TlsSetValue
 0001:00000258       SysInit.AllocTlsBuffer
 0001:00000264       SysInit.GetTlsSize
 0001:0000026C       SysInit.InitThreadTLS
 0001:000002B0       SysInit.InitProcessTLS
 0001:000002DC       SysInit.ExitThreadTLS
 0001:00000314       SysInit.ExitProcessTLS
 0001:00000338       SysInit.InitializeModule
 0001:00000344       SysInit.UninitializeModule
 0001:00000368       SysInit.@InitPkg
 0001:000003CC       SysInit.@PackageLoad
 0001:000003D8       SysInit.@PackageUnload
 0001:00000514       Windows.RegCloseKey
 0001:0000051C       Windows.RegEnumValue
 0001:00000524       Windows.RegOpenKeyEx
 0001:0000052C       Windows.ClearCommError
 0001:00000534       Windows.CloseHandle
 0001:0000053C       Windows.CreateEvent
 0001:00000544       Windows.CreateFile
 0001:0000054C       Windows.EscapeCommFunction
 0001:00000554       Windows.FreeLibrary
 0001:0000055C       Windows.GetCommModemStatus
 0001:00000564       Windows.GetCommProperties
 0001:0000056C       Windows.GetCommState
 0001:00000574       Windows.GetCommTimeouts
 0001:0000057C       Windows.GetLastError
 0001:00000584       Windows.GetOverlappedResult
 0001:0000058C       Windows.GetTickCount
 0001:00000594       Windows.GetVersionEx
 0001:0000059C       Windows.OutputDebugString
 0001:000005A4       Windows.PurgeComm
 0001:000005AC       Windows.QueryPerformanceCounter
 0001:000005B4       Windows.QueryPerformanceFrequency
 0001:000005BC       Windows.ReadFile
 0001:000005C4       Windows.SetCommMask
 0001:000005CC       Windows.SetCommState
 0001:000005D4       Windows.SetCommTimeouts
 0001:000005DC       Windows.SetEvent
 0001:000005E4       Windows.SetupComm
 0001:000005EC       Windows.TransmitCommChar
 0001:000005F4       Windows.WaitCommEvent
 0001:000005FC       Windows.WaitForMultipleObjects
 0001:00000604       Windows.WaitForSingleObject
 0001:0000060C       Windows.WriteFile
 0001:00000614       Windows.GetTextMetrics
 0001:0000061C       Windows.PatBlt
 0001:00000624       Windows.SelectObject
 0001:0000062C       Windows.CreateCaret
 0001:00000634       Windows.DefWindowProc
 0001:0000063C       Windows.DestroyCaret
 0001:00000644       Windows.GetDC
 0001:0000064C       Windows.GetScrollPos
 0001:00000654       Windows.GetScrollRange
 0001:0000065C       Windows.GetSystemMetrics
 0001:00000664       Windows.HideCaret
 0001:0000066C       Windows.InSendMessage
 0001:00000674       Windows.InvalidateRect
 0001:0000067C       Windows.ReleaseDC
 0001:00000684       Windows.ReplyMessage
 0001:0000068C       Windows.ScrollWindowEx
 0001:00000694       Windows.SendMessage
 0001:0000069C       Windows.SetCaretPos
 0001:000006A4       Windows.SetScrollPos
 0001:000006AC       Windows.SetScrollRange
 0001:000006B4       Windows.ShowCaret
 0001:000006BC       Windows.MakeLong
 0001:000006C8       Windows.Finalization
 0001:00000E90       CPortTypes.e
 0001:00000F14       CPortTypes.ComErrorsToStr
 0001:0000109C       CPortTypes.Finalization
 0001:00001B90       CPortEsc..TEscapeCodes
 0001:00001C2C       CPortEsc..TEscapeCodesVT52
 0001:00001CC0       CPortEsc..TEscapeCodesVT100
 0001:00001D54       CPortEsc.TEscapeCodes.Create
 0001:00001D98       CPortEsc.TEscapeCodes.Destroy
 0001:00001DC8       CPortEsc.TEscapeCodes.GetParam
 0001:00001E5C       CPortEsc.TEscapeCodesVT52.ProcessChar
 0001:00001EF8       CPortEsc.TEscapeCodesVT52.EscCodeToStr
 0001:0000212C       CPortEsc.TEscapeCodesVT52.DetectCode
 0001:000022C0       CPortEsc.TEscapeCodesVT100.ProcessChar
 0001:00002380       CPortEsc.TEscapeCodesVT100.EscCodeToStr
 0001:000028F8       CPortEsc.TEscapeCodesVT100.DetectCode
 0001:000029D8       CPortEsc.ParseParams
 0001:00002A94       CPortEsc.CodeEraseScreen
 0001:00002B14       CPortEsc.CodeEraseLine
 0001:00002B94       CPortEsc.CodeTab
 0001:00002C14       CPortEsc.CodeDevice
 0001:00002CA4       CPortEsc.CodeIdentify
 0001:00002D74       CPortEsc.TEscapeCodesVT100.DetectExtCode
 0001:00002F84       CPortEsc.Finalization
 0001:00002FB4       CPortTrmSet..TComTrmSetForm
 0001:00003288       CPortTrmSet.EditComTerminal
 0001:0000359C       CPortTrmSet.TComTrmSetForm.FormCreate
 0001:000035A0       CPortTrmSet.Finalization
 0001:00003640       CPortCtl..TComSelect
 0001:000036D4       CPortCtl..TComComboBox
 0001:00003F6C       CPortCtl..TComRadioGroup
 0001:00004868       CPortCtl..TLedBitmap
 0001:0000495C       CPortCtl..TComLed
 0001:00004F1C       CPortCtl..TComTermBuffer
 0001:000051E4       CPortCtl..TCustomComTerminal
 0001:000053B4       CPortCtl..TComTerminal
 0001:00005E84       CPortCtl.Min
 0001:00005E8C       CPortCtl.Max
 0001:00005E94       CPortCtl.TComSelect.SelectBaudRate
 0001:00005EF4       CPortCtl.TComSelect.SelectPort
 0001:00005F0C       CPortCtl.TComSelect.SelectDataBits
 0001:00005F6C       CPortCtl.TComSelect.SelectParity
 0001:00005FCC       CPortCtl.TComSelect.SelectStopBits
 0001:0000602C       CPortCtl.TComSelect.SelectFlowControl
 0001:0000608C       CPortCtl.TComSelect.SetComProperty
 0001:00006100       CPortCtl.TComSelect.Change
 0001:00006188       CPortCtl.TComSelect.ApplySettings
 0001:00006208       CPortCtl.TComSelect.UpdateSettings
 0001:000063F8       CPortCtl.TComComboBox.Create
 0001:00006460       CPortCtl.TComComboBox.Destroy
 0001:00006490       CPortCtl.TComComboBox.ApplySettings
 0001:0000649C       CPortCtl.TComComboBox.UpdateSettings
 0001:000064C0       CPortCtl.TComComboBox.Notification
 0001:00006508       CPortCtl.TComComboBox.Change
 0001:00006560       CPortCtl.TComComboBox.SetComPort
 0001:00006588       CPortCtl.TComComboBox.GetComPort
 0001:00006594       CPortCtl.TComComboBox.GetAutoApply
 0001:000065A0       CPortCtl.TComComboBox.SetAutoApply
 0001:000065AC       CPortCtl.TComComboBox.GetText
 0001:000065E8       CPortCtl.TComComboBox.SetText
 0001:0000661C       CPortCtl.TComComboBox.SetComProperty
 0001:0000666C       CPortCtl.TComComboBox.GetComProperty
 0001:00006678       CPortCtl.TComRadioGroup.Create
 0001:000066E0       CPortCtl.TComRadioGroup.Destroy
 0001:00006710       CPortCtl.TComRadioGroup.ApplySettings
 0001:0000671C       CPortCtl.TComRadioGroup.UpdateSettings
 0001:00006744       CPortCtl.TComRadioGroup.Notification
 0001:00006794       CPortCtl.TComRadioGroup.Click
 0001:00006814       CPortCtl.TComRadioGroup.SetComPort
 0001:0000683C       CPortCtl.TComRadioGroup.GetComPort
 0001:00006848       CPortCtl.TComRadioGroup.GetAutoApply
 0001:00006854       CPortCtl.TComRadioGroup.SetAutoApply
 0001:00006860       CPortCtl.TComRadioGroup.SetComProperty
 0001:000068AC       CPortCtl.TComRadioGroup.GetComProperty
 0001:000068B8       CPortCtl.TComLed.Create
 0001:000069C4       CPortCtl.TComLed.Destroy
 0001:00006A20       CPortCtl.TComLed.Paint
 0001:00006A58       CPortCtl.TComLed.Notification
 0001:00006A88       CPortCtl.TComLed.DoTimer
 0001:00006AA8       CPortCtl.TComLed.CMEnabledChanged
 0001:00006AB8       CPortCtl.TComLed.DoChange
 0001:00006AD8       CPortCtl.TComLed.BitmapNeeded
 0001:00006C04       CPortCtl.TComLed.SelectLedBitmap
 0001:00006C4C       CPortCtl.TComLed.CalcBitmapPos
 0001:00006CC8       CPortCtl.TComLed.SignalChange
 0001:00006D24       CPortCtl.TComLed.RingDetect
 0001:00006D58       CPortCtl.TComLed.IsStateOn
 0001:00006DE8       CPortCtl.TComLed.SetStateInternal
 0001:00006E18       CPortCtl.TComLed.SetKind
 0001:00006E40       CPortCtl.TComLed.SetComPort
 0001:00006EC8       CPortCtl.TComLed.SetState
 0001:00006F00       CPortCtl.TComLed.SetLedSignal
 0001:00006FD4       CPortCtl.TComLed.GetGlyph
 0001:00006FF0       CPortCtl.TComLed.SetGlyph
 0001:00007048       CPortCtl.TComLed.StoredGlyph
 0001:00007054       CPortCtl.TComLed.BitmapToDraw
 0001:0000707C       CPortCtl.TComTermBuffer.Create
 0001:000070B8       CPortCtl.TComTermBuffer.Destroy
 0001:000070F4       CPortCtl.TComTermBuffer.SetChar
 0001:00007134       CPortCtl.TComTermBuffer.GetChar
 0001:00007160       CPortCtl.TComTermBuffer.ScrollDown
 0001:00007248       CPortCtl.TComTermBuffer.ScrollUp
 0001:00007320       CPortCtl.TComTermBuffer.EraseLine
 0001:00007398       CPortCtl.TComTermBuffer.EraseScreen
 0001:0000742C       CPortCtl.TComTermBuffer.Init
 0001:000074C8       CPortCtl.TComTermBuffer.GetTab
 0001:000074D0       CPortCtl.TComTermBuffer.SetTab
 0001:000074D8       CPortCtl.TComTermBuffer.NextTab
 0001:00007510       CPortCtl.TComTermBuffer.ClearAllTabs
 0001:00007524       CPortCtl.TComTermBuffer.GetLineLength
 0001:00007570       CPortCtl.TComTermBuffer.GetLastLine
 0001:000075A4       CPortCtl.TCustomComTerminal.Create
 0001:000076E0       CPortCtl.TCustomComTerminal.Destroy
 0001:00007730       CPortCtl.TCustomComTerminal.ClearScreen
 0001:0000775C       CPortCtl.TCustomComTerminal.MoveCaret
 0001:000077F4       CPortCtl.TCustomComTerminal.Write
 0001:00007840       CPortCtl.TCustomComTerminal.WriteStr
 0001:00007944       CPortCtl.TCustomComTerminal.WriteEscCode
 0001:00007954       CPortCtl.TCustomComTerminal.LoadFromStream
 0001:0000799C       CPortCtl.TCustomComTerminal.SaveToStream
 0001:00007AAC       CPortCtl.TCustomComTerminal.SelectFont
 0001:00007B04       CPortCtl.TCustomComTerminal.ShowSetupDialog
 0001:00007B0C       CPortCtl.TCustomComTerminal.CMCtl3DChanged
 0001:00007B38       CPortCtl.TCustomComTerminal.CMFontChanged
 0001:00007BE8       CPortCtl.TCustomComTerminal.CMColorChanged
 0001:00007C00       CPortCtl.TCustomComTerminal.WMGetDlgCode
 0001:00007C18       CPortCtl.TCustomComTerminal.WMKillFocus
 0001:00007C38       CPortCtl.TCustomComTerminal.WMSetFocus
 0001:00007C4C       CPortCtl.TCustomComTerminal.WMLButtonDown
 0001:00007C84       CPortCtl.TCustomComTerminal.WMSize
 0001:00007C98       CPortCtl.TCustomComTerminal.WMHScroll
 0001:00007CAC       CPortCtl.TCustomComTerminal.WMVScroll
 0001:00007CC0       CPortCtl.TCustomComTerminal.CanAutoSize
 0001:00007D60       CPortCtl.TCustomComTerminal.CreateParams
 0001:00007DD8       CPortCtl.TCustomComTerminal.KeyDown
 0001:00007EA4       CPortCtl.TCustomComTerminal.KeyPress
 0001:00007EC0       CPortCtl.TCustomComTerminal.Loaded
 0001:00007EE4       CPortCtl.TCustomComTerminal.Notification
 0001:00007F14       CPortCtl.TCustomComTerminal.PaintTerminal
 0001:00007FD4       CPortCtl.TCustomComTerminal.PaintDesign
 0001:00008070       CPortCtl.TCustomComTerminal.Paint
 0001:0000815C       CPortCtl.TCustomComTerminal.CreateTerminalCaret
 0001:000081CC       CPortCtl.TCustomComTerminal.StringReceived
 0001:00008228       CPortCtl.TCustomComTerminal.DrawChar
 0001:0000835C       CPortCtl.TCustomComTerminal.AdvanceCaret
 0001:000084A4       CPortCtl.AllOff
 0001:000084E8       CPortCtl.TCustomComTerminal.SetAttributes
 0001:000085E4       CPortCtl.TCustomComTerminal.SetMode
 0001:000086D4       CPortCtl.TCustomComTerminal.InvalidatePortion
 0001:00008770       CPortCtl.TCustomComTerminal.ModifyScrollBar
 0001:000088A4       CPortCtl.TCustomComTerminal.UpdateScrollPos
 0001:00008924       CPortCtl.ScrollBarVisible
 0001:00008994       CPortCtl.SetRange
 0001:000089BC       CPortCtl.SetHorzRange
 0001:00008A20       CPortCtl.SetVertRange
 0001:00008A88       CPortCtl.TCustomComTerminal.UpdateScrollRange
 0001:00008B74       CPortCtl.TCustomComTerminal.HideCaret
 0001:00008B90       CPortCtl.TCustomComTerminal.ShowCaret
 0001:00008BAC       CPortCtl.TCustomComTerminal.SendChar
 0001:00008C74       CPortCtl.TCustomComTerminal.SendCode
 0001:00008D1C       CPortCtl.TCustomComTerminal.SendCodeNoEcho
 0001:00008DA0       CPortCtl.TCustomComTerminal.PutEscapeCode
 0001:0000917C       CPortCtl.TCustomComTerminal.CalculateMetrics
 0001:000091D8       CPortCtl.TCustomComTerminal.DoChar
 0001:000091F8       CPortCtl.TCustomComTerminal.DoGetEscapeCodes
 0001:00009218       CPortCtl.TCustomComTerminal.DoStrRecieved
 0001:00009238       CPortCtl.TCustomComTerminal.DoUnhandledCode
 0001:0000929C       CPortCtl.TCustomComTerminal.CreateEscapeCodes
 0001:000092F8       CPortCtl.TCustomComTerminal.PerformTest
 0001:0000936C       CPortCtl.TCustomComTerminal.SetTermAttrColors
 0001:00009398       CPortCtl.TCustomComTerminal.GetCharAttr
 0001:000093F4       CPortCtl.TCustomComTerminal.PutChar
 0001:000094B8       CPortCtl.TCustomComTerminal.InitCaret
 0001:000094E0       CPortCtl.TCustomComTerminal.RestoreCaretPos
 0001:000094F4       CPortCtl.TCustomComTerminal.SaveCaretPos
 0001:00009510       CPortCtl.TCustomComTerminal.RestoreAttr
 0001:00009538       CPortCtl.TCustomComTerminal.SaveAttr
 0001:00009560       CPortCtl.AppendLineFeeds
 0001:00009610       CPortCtl.Force7BitData
 0001:0000964C       CPortCtl.TCustomComTerminal.RxBuf
 0001:000096F0       CPortCtl.TCustomComTerminal.GetConnected
 0001:00009704       CPortCtl.TCustomComTerminal.SetConnected
 0001:00009718       CPortCtl.TCustomComTerminal.SetBorderStyle
 0001:0000972C       CPortCtl.TCustomComTerminal.SetScrollBars
 0001:00009740       CPortCtl.TCustomComTerminal.SetColumns
 0001:000097A0       CPortCtl.TCustomComTerminal.SetRows
 0001:00009800       CPortCtl.TCustomComTerminal.SetEmulation
 0001:0000982C       CPortCtl.TCustomComTerminal.SetCaret
 0001:0000985C       CPortCtl.TCustomComTerminal.SetComPort
 0001:000098A4       CPortCtl.TCustomComTerminal.SetAltColor
 0001:000098C8       CPortCtl.Finalization
 0001:0000992C       CPortSetup..TComSetupFrm
 0001:00009BA8       CPortSetup.EditComPort
 0001:00009CB4       CPortSetup.TComSetupFrm.FormCreate
 0001:00009CB8       CPortSetup.Finalization
 0001:00009CE8       CPort..TComLink
 0001:00009D60       CPort..TComThread
 0001:00009DE4       CPort..TComTimeouts
 0001:00009F50       CPort..TComFlowControl
 0001:0000A17C       CPort..TComParity
 0001:0000A28C       CPort..TComBuffer
 0001:0000A35C       CPort..TCustomComPort
 0001:0000A4AC       CPort..TComPort
 0001:0000A9E8       CPort..TComDataPacket
 0001:0000AC78       CPort..TComStream
 0001:0000AD10       CPort..EComPort
 0001:0000AD88       CPort..EComPortExt
 0001:0000AE04       CPort.ComErrorMessage
 0001:0000B3D8       CPort.EventsToInt
 0001:0000B444       CPort.IntToEvents
 0001:0000B548       CPort.TComThread.Create
 0001:0000B5C8       CPort.TComThread.Destroy
 0001:0000B5F4       CPort.TComThread.Execute
 0001:0000B6BC       CPort.TComThread.Stop
 0001:0000B6D0       CPort.TComThread.DispatchComMsg
 0001:0000B700       CPort.TComThread.SendEvents
 0001:0000B81C       CPort.TComThread.DoEvents
 0001:0000B8B0       CPort.TComTimeouts.Create
 0001:0000B8FC       CPort.TComTimeouts.AssignTo
 0001:0000B944       CPort.TComTimeouts.SetComPort
 0001:0000B948       CPort.TComTimeouts.SetReadInterval
 0001:0000B968       CPort.TComTimeouts.SetReadTotalC
 0001:0000B988       CPort.TComTimeouts.SetReadTotalM
 0001:0000B9A8       CPort.TComTimeouts.SetWriteTotalC
 0001:0000B9C8       CPort.TComTimeouts.SetWriteTotalM
 0001:0000B9E8       CPort.TComFlowControl.Create
 0001:0000BA28       CPort.TComFlowControl.AssignTo
 0001:0000BA98       CPort.TComFlowControl.SetComPort
 0001:0000BA9C       CPort.TComFlowControl.SetControlDTR
 0001:0000BABC       CPort.TComFlowControl.SetControlRTS
 0001:0000BADC       CPort.TComFlowControl.SetOutCTSFlow
 0001:0000BAFC       CPort.TComFlowControl.SetOutDSRFlow
 0001:0000BB1C       CPort.TComFlowControl.SetXonXoffIn
 0001:0000BB3C       CPort.TComFlowControl.SetXonXoffOut
 0001:0000BB5C       CPort.TComFlowControl.SetDSRSensitivity
 0001:0000BB7C       CPort.TComFlowControl.SetTxContinueOnXoff
 0001:0000BB9C       CPort.TComFlowControl.SetXonChar
 0001:0000BBBC       CPort.TComFlowControl.SetXoffChar
 0001:0000BBDC       CPort.TComFlowControl.GetFlowControl
 0001:0000BC34       CPort.TComFlowControl.SetFlowControl
 0001:0000BC7C       CPort.TComParity.Create
 0001:0000BCB8       CPort.TComParity.AssignTo
 0001:0000BCFC       CPort.TComParity.SetComPort
 0001:0000BD00       CPort.TComParity.SetBits
 0001:0000BD20       CPort.TComParity.SetCheck
 0001:0000BD40       CPort.TComParity.SetReplace
 0001:0000BD60       CPort.TComParity.SetReplaceChar
 0001:0000BD80       CPort.TComBuffer.Create
 0001:0000BDC4       CPort.TComBuffer.AssignTo
 0001:0000BDF8       CPort.TComBuffer.SetComPort
 0001:0000BDFC       CPort.TComBuffer.SetInputSize
 0001:0000BE30       CPort.TComBuffer.SetOutputSize
 0001:0000BE64       CPort.TCustomComPort.Create
 0001:0000BF8C       CPort.TCustomComPort.Destroy
 0001:0000BFE0       CPort.TCustomComPort.CreateHandle
 0001:0000C0CC       CPort.TCustomComPort.DestroyHandle
 0001:0000C0DC       CPort.TCustomComPort.Loaded
 0001:0000C148       CPort.TCustomComPort.WindowMethod
 0001:0000C2B0       CPort.TCustomComPort.BeginUpdate
 0001:0000C2B4       CPort.TCustomComPort.EndUpdate
 0001:0000C2CC       CPort.TCustomComPort.Open
 0001:0000C3B8       CPort.TCustomComPort.Close
 0001:0000C40C       CPort.TCustomComPort.ApplyDCB
 0001:0000C598       CPort.GetTOValue
 0001:0000C5A4       CPort.TCustomComPort.ApplyTimeouts
 0001:0000C644       CPort.TCustomComPort.ApplyBuffer
 0001:0000C698       CPort.TCustomComPort.SetupComPort
 0001:0000C6C0       CPort.TCustomComPort.InputCount
 0001:0000C70C       CPort.TCustomComPort.OutputCount
 0001:0000C750       CPort.TCustomComPort.Signals
 0001:0000C7F0       CPort.TCustomComPort.StateFlags
 0001:0000C834       CPort.TCustomComPort.SetBreak
 0001:0000C878       CPort.TCustomComPort.SetDTR
 0001:0000C8BC       CPort.TCustomComPort.SetRTS
 0001:0000C900       CPort.TCustomComPort.SetXonXoff
 0001:0000C944       CPort.TCustomComPort.ClearBuffer
 0001:0000C988       CPort.TCustomComPort.LastErrors
 0001:0000CA8C       CPort.CPortPrepareAsync
 0001:0000CAD0       CPort.TCustomComPort._SyncRead
 0001:0000CB04       CPort.TCustomComPort._SyncWrite
 0001:0000CB40       CPort.TCustomComPort.WriteAsync
 0001:0000CBE0       CPort.TCustomComPort._WriteAsyncWrapper
 0001:0000CC48       CPort.TCustomComPort.WriteStrAsync
 0001:0000CC80       CPort.TCustomComPort.WriteStr
 0001:0000CCCC       CPort.TCustomComPort._WriteStrWrapper
 0001:0000CD50       CPort.TCustomComPort.ReadAsync
 0001:0000CE00       CPort.TCustomComPort.Read
 0001:0000CE68       CPort.TCustomComPort.ReadStrAsync
 0001:0000CEE0       CPort.TCustomComPort.ReadStr
 0001:0000CF54       CPort.ErrorCode
 0001:0000CF74       CPort.TCustomComPort.WaitForAsync
 0001:0000D034       CPort.TCustomComPort.AbortAllAsync
 0001:0000D070       CPort.TCustomComPort.IsAsyncCompleted
 0001:0000D0E8       CPort.TCustomComPort.WaitForEvent
 0001:0000D21C       CPort.TCustomComPort.TransmitChar
 0001:0000D250       CPort.TCustomComPort.ShowSetupDialog
 0001:0000D258       CPort.BoolToStr
 0001:0000D294       CPort.StrToBool
 0001:0000D32C       CPort.DTRToStr
 0001:0000D38C       CPort.RTSToStr
 0001:0000D3A8       CPort.StrToRTS
 0001:0000D434       CPort.StrToDTR
 0001:0000D4C0       CPort.CPortStrToChar
 0001:0000D588       CPort.CPortCharToStr
 0001:0000D5FC       CPort.TCustomComPort.StoreIniFile
 0001:0000DD0C       CPort.TCustomComPort.StoreRegistry
 0001:0000E3A4       CPort.TCustomComPort.LoadIniFile
 0001:0000ECF0       CPort.TCustomComPort.LoadRegistry
 0001:0000F3FC       CPort.SetRegistry
 0001:0000F568       CPort.TCustomComPort.StoreSettings
 0001:0000F690       CPort.TCustomComPort.LoadSettings
 0001:0000F7EC       CPort.TCustomComPort.RegisterLink
 0001:0000F834       CPort.TCustomComPort.UnRegisterLink
 0001:0000F87C       CPort.TCustomComPort.DoBeforeClose
 0001:0000F89C       CPort.TCustomComPort.DoBeforeOpen
 0001:0000F8BC       CPort.TCustomComPort.DoAfterOpen
 0001:0000F8DC       CPort.TCustomComPort.DoAfterClose
 0001:0000F8FC       CPort.TCustomComPort.DoRxChar
 0001:0000F914       CPort.TCustomComPort.DoRxBuf
 0001:0000F934       CPort.TCustomComPort.DoBreak
 0001:0000F954       CPort.TCustomComPort.DoTxEmpty
 0001:0000F974       CPort.TCustomComPort.DoRing
 0001:0000F994       CPort.TCustomComPort.DoCTSChange
 0001:0000F9B4       CPort.TCustomComPort.DoDSRChange
 0001:0000F9D4       CPort.TCustomComPort.DoRLSDChange
 0001:0000F9F4       CPort.TCustomComPort.DoError
 0001:0000FA1C       CPort.TCustomComPort.DoRxFlag
 0001:0000FA3C       CPort.TCustomComPort.DoRx80Full
 0001:0000FA5C       CPort.TCustomComPort.CheckSignals
 0001:0000FAC8       CPort.TCustomComPort.CallAfterClose
 0001:0000FAE8       CPort.TCustomComPort.CallAfterOpen
 0001:0000FB10       CPort.TCustomComPort.CallBeforeClose
 0001:0000FB2C       CPort.TCustomComPort.CallBeforeOpen
 0001:0000FB38       CPort.TCustomComPort.CallBreak
 0001:0000FB44       CPort.TCustomComPort.CallCTSChange
 0001:0000FB70       CPort.TCustomComPort.CallDSRChange
 0001:0000FB9C       CPort.TCustomComPort.CallRLSDChange
 0001:0000FBC8       CPort.TCustomComPort.CallError
 0001:0000FBF4       CPort.TCustomComPort.CallRing
 0001:0000FC10       CPort.TCustomComPort.CallRx80Full
 0001:0000FC1C       CPort.PerformRead
 0001:0000FC60       CPort.CheckLinks
 0001:0000FD5C       CPort.TCustomComPort.CallRxChar
 0001:0000FDB0       CPort.TCustomComPort.CallRxFlag
 0001:0000FDCC       CPort.TCustomComPort.CallTxEmpty
 0001:0000FDF4       CPort.TCustomComPort.HasLink
 0001:0000FE30       CPort.TCustomComPort.TxNotifyLink
 0001:0000FE90       CPort.TCustomComPort.NotifyLink
 0001:0000FF24       CPort.TCustomComPort.SendSignalToLink
 0001:00010018       CPort.TCustomComPort.SetConnected
 0001:00010040       CPort.TCustomComPort.SetBaudRate
 0001:00010058       CPort.TCustomComPort.SetCustomBaudRate
 0001:00010070       CPort.TCustomComPort.SetDataBits
 0001:00010088       CPort.TCustomComPort.SetDiscardNull
 0001:000100A0       CPort.TCustomComPort.SetEventChar
 0001:000100B8       CPort.TCustomComPort.SetPort
 0001:000100F8       CPort.TCustomComPort.SetStopBits
 0001:00010110       CPort.TCustomComPort.SetSyncMethod
 0001:00010148       CPort.TCustomComPort.SetTriggersOnRxChar
 0001:0001016C       CPort.TCustomComPort.SetEventThreadPriority
 0001:000101A4       CPort.TCustomComPort.GetTriggersOnRxChar
 0001:000101B8       CPort.TCustomComPort.SetFlowControl
 0001:000101D0       CPort.TCustomComPort.SetParity
 0001:000101E8       CPort.TCustomComPort.SetTimeouts
 0001:00010200       CPort.TCustomComPort.SetBuffer
 0001:00010218       CPort.TComDataPacket.Create
 0001:00010278       CPort.TComDataPacket.Destroy
 0001:000102B0       CPort.TComDataPacket.AddData
 0001:000102E8       CPort.TComDataPacket.Notification
 0001:00010314       CPort.TComDataPacket.DoDiscard
 0001:0001032C       CPort.TComDataPacket.DoPacket
 0001:00010344       CPort.TComDataPacket.DoCustomStart
 0001:0001035C       CPort.TComDataPacket.DoCustomStop
 0001:00010374       CPort.TComDataPacket.CheckIncludeStrings
 0001:0001046C       CPort.TComDataPacket.Upper
 0001:00010490       CPort.DiscardPacketToPos
 0001:00010534       CPort.FormPacket
 0001:000105C4       CPort.StartPacket
 0001:000106B0       CPort.EndPacket
 0001:00010820       CPort.IsBufferTooLarge
 0001:00010850       CPort.TComDataPacket.HandleBuffer
 0001:000108C4       CPort.TComDataPacket.ValidStop
 0001:000108E8       CPort.TComDataPacket.RxBuf
 0001:00010954       CPort.TComDataPacket.EmptyBuffer
 0001:000109B0       CPort.TComDataPacket.SetComPort
 0001:000109E8       CPort.TComDataPacket.SetCaseInsensitive
 0001:000109FC       CPort.TComDataPacket.SetSize
 0001:00010A10       CPort.TComDataPacket.SetStartString
 0001:00010A3C       CPort.TComDataPacket.SetStopString
 0001:00010A68       CPort.TComStream.Create
 0001:00010AA4       CPort.TComStream.Read
 0001:00010AB4       CPort.TComStream.Write
 0001:00010AC4       CPort.TComStream.Seek
 0001:00010AC8       CPort.EComPortExt.Create
 0001:00010BAC       CPort.EComPort.Create
 0001:00010C7C       CPort.EComPort.Create
 0001:00010CB8       CPort.CportInitAsync
 0001:00010CF8       CPort.CportDoneAsync
 0001:00010D28       CPort.EnumComPorts
 0001:00010ED4       CPort.StrToBaudRate
 0001:00010F60       CPort.StrToStopBits
 0001:00010FEC       CPort.StrToDataBits
 0001:00011078       CPort.StrToParity
 0001:00011104       CPort.StrToFlowControl
 0001:00011284       CPort.BaudRateToStr
 0001:000112A0       CPort.BaudRateToInt
 0001:000112D0       CPort.StopBitsToStr
 0001:0001131C       CPort.DataBitsToStr
 0001:00011384       CPort.ParityToStr
 0001:000113E8       CPort.FlowControlToStr
 0001:00011404       CPort.TCustomComPort.Write
 0001:00011440       CPort.TCustomComPort.SetOverlapped
 0001:00011450       CPort.Finalization
 0001:000119D0       BisComPort..TBisComPort
 0001:00011CA0       BisComPort.TBisComPort.Create
 0001:00011FBC       BisComPort.TBisComPort.Destroy
 0001:00011FEC       BisComPort.TBisComPort.DoStatus
 0001:00012004       BisComPort.TBisComPort.ComPortAfterClose
 0001:0001206C       BisComPort.TBisComPort.ComPortAfterOpen
 0001:000120D4       BisComPort.TBisComPort.ComPortError
 0001:00012174       BisComPort.TBisComPort.Connect
 0001:000121CC       BisComPort.TBisComPort.Disconnect
 0001:00012224       BisComPort.TBisComPort.GetConnected
 0001:0001222C       BisComPort.TBisComPort.GetParityBits
 0001:00012238       BisComPort.TBisComPort.GetPort
 0001:00012250       BisComPort.TBisComPort.GetBaudRate
 0001:00012258       BisComPort.TBisComPort.GetDataBits
 0001:00012260       BisComPort.TBisComPort.GetStopBits
 0001:00012268       BisComPort.TBisComPort.SeTBisComPortBaudRate
 0001:00012274       BisComPort.TBisComPort.SetDataBits
 0001:00012280       BisComPort.TBisComPort.SetParityBits
 0001:0001228C       BisComPort.TBisComPort.SetPort
 0001:00012298       BisComPort.TBisComPort.SetStopBits
 0001:000122A4       BisComPort.Finalization
 0001:00012324       BisBarcodeScanner..TBisBarcodeScanner
 0001:00012438       BisBarcodeScanner.TBisBarcodeScanner.Create
 0001:00012494       BisBarcodeScanner.TBisBarcodeScanner.Destroy
 0001:000124BC       BisBarcodeScanner.TBisBarcodeScanner.DoBarcode
 0001:000124D4       BisBarcodeScanner.TBisBarcodeScanner.ComPortRxChar
 0001:00012594       BisBarcodeScanner.TBisBarcodeScanner.Connect
 0001:000125AC       BisBarcodeScanner.Finalization
 0001:0001266C       XAsync..EAsyncError
 0001:000126E8       XAsync..TAsyncThread
 0001:00012750       XAsync.TAsyncThread.Create
 0001:000127A4       XAsync.TAsyncThread.DoAsyncProc
 0001:000127C0       XAsync.TAsyncThread.Execute
 0001:00012848       XAsync.InitOverlapped
 0001:0001286C       XAsync.InternalStartThread
 0001:00012880       XAsync.IsHandleValid
 0001:000128C8       XAsync.IsAsyncDone
 0001:000128E4       XAsync.InternalCheckHandle
 0001:00012948       XAsync.InternalInitAsync
 0001:000129DC       XAsync.InternalCloseAsync
 0001:00012A40       XAsync.InternalReadStringAsync
 0001:00012ADC       XAsync.InternalReadAsync
 0001:00012B44       XAsync.InternalWriteAsync
 0001:00012BAC       XAsync.InternalWaitAsync
 0001:00012C18       XAsync.WriteComm
 0001:00012C88       XAsync.WriteComm
 0001:00012CEC       XAsync.ReadComm
 0001:00012D68       XAsync.ReadComm
 0001:00012DCC       XAsync.SetRXTime
 0001:00012E04       XAsync.Finalization
 0001:00012EC4       XComErr..EDeviceError
 0001:00012F4C       XComErr.EDeviceError.CreateCode
 0001:00012F90       XComErr.XCommError
 0001:00012FB0       XComErr.XCommWin32Error
 0001:00013074       XComErr.Finalization
 0001:00013600       XComDrv..TCommPlugin
 0001:000136D8       XComDrv..TCommDataControl
 0001:000137DC       XComDrv..TCommBuffers
 0001:00013908       XComDrv..TCommEventChars
 0001:00013A4C       XComDrv..TCommTimeoutsEx
 0001:00013C30       XComDrv..TCustomComm
 0001:00013D0C       XComDrv..TXComm
 0001:00014110       XComDrv..TModemSettings
 0001:00014414       XComDrv..TCustomModem
 0001:0001451C       XComDrv..TXModem
 0001:00014AB4       XComDrv.ConvertErrorFmt
 0001:00014AD8       XComDrv.GetRXTimeout
 0001:00014B14       XComDrv.DataBitsToChar
 0001:00014B18       XComDrv.CharToDataBits
 0001:00014B8C       XComDrv.StopBitsToStr
 0001:00014BA4       XComDrv.StrToStopBits
 0001:00014C28       XComDrv.FlowControlToStr
 0001:00014C40       XComDrv.StrToFlowControl
 0001:00014CE0       XComDrv.ParityToStr
 0001:00014CF8       XComDrv.StrToParity
 0001:00014D98       XComDrv.BaudRateToStr
 0001:00014DC4       XComDrv.StrToBaudRate
 0001:00014E94       XComDrv.SetDCB
 0001:00014EB0       XComDrv.GetCommState
 0001:00014ED0       XComDrv..TCommEventThread
 0001:00014F3C       XComDrv.TCommEventThread.Create
 0001:00014FA4       XComDrv.TCommEventThread.Destroy
 0001:00014FDC       XComDrv.TCommEventThread.Execute
 0001:0001509C       XComDrv.TCommEventThread.DoOnSignal
 0001:000150B8       XComDrv.TCommPlugin.Create
 0001:00015110       XComDrv.TCommPlugin.Destroy
 0001:00015140       XComDrv.TCommPlugin.HandleEvents
 0001:00015144       XComDrv.TCommPlugin.Notification
 0001:00015154       XComDrv.TCommPlugin.SetComm
 0001:00015180       XComDrv.TCommPlugin.CommValid
 0001:000151DC       XComDrv.TCommDataControl.Create
 0001:0001522C       XComDrv.TCommDataControl.SetDataBits
 0001:0001525C       XComDrv.TCommDataControl.SetParity
 0001:0001528C       XComDrv.TCommDataControl.SetStopBits
 0001:000152BC       XComDrv.TCommDataControl.GetDataBits
 0001:000152F4       XComDrv.TCommDataControl.GetParity
 0001:00015328       XComDrv.TCommDataControl.GetStopBits
 0001:0001535C       XComDrv.TCommDataControl.AssignTo
 0001:000153C4       XComDrv.TCommBuffers.Create
 0001:00015418       XComDrv.IsWinNT
 0001:00015468       XComDrv.TCommBuffers.SetIOSize
 0001:000154E8       XComDrv.TCommBuffers.GetIOSize
 0001:00015560       XComDrv.TCommBuffers.AssignTo
 0001:000155D8       XComDrv.TCommEventChars.Create
 0001:00015628       XComDrv.TCommEventChars.SetCommChar
 0001:000156B0       XComDrv.TCommEventChars.GetCommChar
 0001:00015764       XComDrv.TCommEventChars.AssignTo
 0001:000157F8       XComDrv.TCommTimeoutsEx.Create
 0001:00015854       XComDrv.TCommTimeoutsEx.SetInterval
 0001:000158DC       XComDrv.TCommTimeoutsEx.GetInterval
 0001:00015984       XComDrv.TCommTimeoutsEx.AssignTo
 0001:00015A18       XComDrv.TCustomComm.Create
 0001:00015B38       XComDrv.TCustomComm.Destroy
 0001:00015BB8       XComDrv.TCustomComm.SetDeviceName
 0001:00015C1C       XComDrv.TCustomComm.SetDataControl
 0001:00015C2C       XComDrv.TCustomComm.SetBuffers
 0001:00015C3C       XComDrv.TCustomComm.SetEventChars
 0001:00015C4C       XComDrv.TCustomComm.SetTimeouts
 0001:00015C5C       XComDrv.TCustomComm.SetBaudRate
 0001:00015C94       XComDrv.TCustomComm.SetBaudValue
 0001:00015CC4       XComDrv.TCustomComm.SetFlowControl
 0001:00015CFC       XComDrv.TCustomComm.SetRTSSettings
 0001:00015D3C       XComDrv.TCustomComm.SetDTRSettings
 0001:00015DA4       XComDrv.TCustomComm.SetXOnXOffSettings
 0001:00015DE4       XComDrv.TCustomComm.UpdateFlowSettings
 0001:00015F80       XComDrv.TCustomComm.SetCommOptions
 0001:00015FE4       XComDrv.TCustomComm.GetBaudRate
 0001:00016028       XComDrv.TCustomComm.GetBaudValue
 0001:00016058       XComDrv.TCustomComm.GetRTSSettings
 0001:0001608C       XComDrv.TCustomComm.GetDTRSettings
 0001:000160C0       XComDrv.TCustomComm.GetXOnXOffSettings
 0001:000160F4       XComDrv.TCustomComm.GetCommOptions
 0001:00016128       XComDrv.TCustomComm.AddPlugin
 0001:00016134       XComDrv.TCustomComm.RemovePlugin
 0001:00016140       XComDrv.TCustomComm.GetPlugin
 0001:00016158       XComDrv.TCustomComm.GetPluginCount
 0001:00016164       XComDrv.TCustomComm.ClearPlugins
 0001:00016188       XComDrv.TCustomComm.UpdateDCB
 0001:00016320       XComDrv.TCustomComm.UpdateBuffers
 0001:000163A4       XComDrv.TCustomComm.UpdateTimeouts
 0001:00016438       XComDrv.TCustomComm.OpenDevice
 0001:00016580       XComDrv.TCustomComm.BeginUpdate
 0001:000165E8       XComDrv.TCustomComm.EndUpdate
 0001:00016684       XComDrv.TCustomComm.CloseDevice
 0001:00016718       XComDrv.TCustomComm.GetOpened
 0001:00016720       XComDrv.TCustomComm.GetPaused
 0001:00016740       XComDrv.TCustomComm.SetPaused
 0001:00016770       XComDrv.TCustomComm.PurgeIn
 0001:000167F4       XComDrv.TCustomComm.PurgeOut
 0001:0001686C       XComDrv.TCustomComm.GetTotalReceived
 0001:00016890       XComDrv.TCustomComm.GetCommStatus
 0001:00016920       XComDrv.TCustomComm.GetMaxBaud
 0001:00016A8C       XComDrv.TCustomComm.GetCount
 0001:00016B20       XComDrv.intSend
 0001:00016BDC       XComDrv.intRead
 0001:00016C98       XComDrv.TCustomComm.SendDataEx
 0001:00016E4C       XComDrv.TCustomComm.SendData
 0001:00016E5C       XComDrv.TCustomComm.SendByte
 0001:00016E7C       XComDrv.TCustomComm.SendString
 0001:00016EAC       XComDrv.TCustomComm.ReadDataEx
 0001:0001702C       XComDrv.TCustomComm.ReadData
 0001:0001703C       XComDrv.TCustomComm.ReadByte
 0001:0001705C       XComDrv.TCustomComm.ReadString
 0001:000170A0       XComDrv.TCustomComm.ReadString
 0001:000170E8       XComDrv.TCustomComm.UpdateEvents
 0001:00017190       XComDrv.TCustomComm.HandleEvents
 0001:000171F8       XComDrv.TCustomComm.ReceiveData
 0001:00017218       XComDrv.TCustomComm.ToggleBreak
 0001:0001728C       XComDrv.TCustomComm.ToggleDTR
 0001:00017300       XComDrv.TCustomComm.ToggleRTS
 0001:00017374       XComDrv.TCustomComm.ToggleXonXoff
 0001:000173E8       XComDrv.TCustomComm.WaitForString
 0001:000175A8       XComDrv.TCustomComm.InternalAsyncProc
 0001:00017620       XComDrv.TCustomComm.InitAsync
 0001:000176B0       XComDrv.TCustomComm.CloseAsync
 0001:000176B8       XComDrv.TCustomComm.SendAsync
 0001:0001777C       XComDrv.TCustomComm.SendStringAsync
 0001:00017854       XComDrv.TCustomComm.ReadAsync
 0001:00017904       XComDrv.TCustomComm.ReadStringAsync
 0001:000179B0       XComDrv.TCustomComm.WaitAsync
 0001:00017A2C       XComDrv.PluginLocked
 0001:00017A84       XComDrv.TCustomComm.GetLocked
 0001:00017AB4       XComDrv.TModemSettings.Create
 0001:00017B48       XComDrv.TModemSettings.AssignTo
 0001:00017BAC       XComDrv.TModemSettings.SetSpeed
 0001:00017CD0       XComDrv.ATShortToLong
 0001:00017D40       XComDrv.ATResultToME
 0001:00017E08       XComDrv.RemoveChar
 0001:00017E40       XComDrv.StripAT
 0001:00017F2C       XComDrv.FindRegAT
 0001:0001801C       XComDrv.IsRegAT
 0001:0001810C       XComDrv.ATPos
 0001:00018270       XComDrv.IsConnectAT
 0001:000182C8       XComDrv.RegToStr
 0001:00018324       XComDrv.TCustomModem.Create
 0001:0001836C       XComDrv.TCustomModem.Destroy
 0001:0001839C       XComDrv.TCustomModem.OpenDevice
 0001:000183C8       XComDrv.TCustomModem.CloseDevice
 0001:00018450       XComDrv.TCustomModem.SetModemSettings
 0001:00018464       XComDrv.TCustomModem.GetEnterCmd
 0001:000184E8       XComDrv.TCustomModem.InitCommand
 0001:000186C4       XComDrv.TCustomModem.SendCommand
 0001:00018840       XComDrv.TCustomModem.SetRegisterValue
 0001:00018A7C       XComDrv.TCustomModem.GetRegisterValue
 0001:00018C48       XComDrv.TCustomModem.EnterCommandState
 0001:00018DB4       XComDrv.TCustomModem.GetInstalled
 0001:00018DD8       XComDrv.TCustomModem.ExitCommandState
 0001:00018F2C       XComDrv.WaitRX
 0001:00018F70       XComDrv.GetCommand
 0001:00019110       XComDrv.GetData
 0001:000191B4       XComDrv.HasResult
 0001:000192B4       XComDrv.TCustomModem.ReceiveData
 0001:000193C4       XComDrv.TCustomModem.HandleEvents
 0001:0001948C       XComDrv.TCustomModem.HandleAT
 0001:000195F4       XComDrv.TCustomModem.DoConnect
 0001:00019660       XComDrv.TCustomModem.DoDisconnect
 0001:000196C4       XComDrv.TCustomModem.DoConnecting
 0001:00019708       XComDrv.TCustomModem.DoDisconnecting
 0001:00019750       XComDrv.TCustomModem.DoChangeCmdState
 0001:00019770       XComDrv.TCustomModem.ResetModem
 0001:00019824       XComDrv.TCustomModem.InitModem
 0001:00019970       XComDrv.TCustomModem.WaitForAT
 0001:00019B04       XComDrv.TCustomModem.GetConnected
 0001:00019B28       XComDrv.TCustomModem.Connect
 0001:00019CFC       XComDrv.TCustomModem.Disconnect
 0001:00019EF4       XComDrv.TCustomModem.LowerDTR
 0001:00019F90       XComDrv.TCustomModem.GetLineStatus
 0001:0001A074       XComDrv.TCustomModem.GetModemState
 0001:0001A0A8       XComDrv.TCustomModem.GetLocked
 0001:0001A0D4       XComDrv.GetTickCount
 0001:0001A11C       XComDrv.Finalization
 0001:0001ACF0       .omcom.@GetPackageInfoTable
 0001:0001ACF8       .omcom.@PackageLoad
 0001:0001AD04       .omcom.@PackageUnload
 0002:00000010       Windows.Windows
 0002:00000054       CPortTypes.CPortTypes
 0002:000000E4       CPortEsc.CPortEsc
 0002:000000EC       CPortTrmSet.CPortTrmSet
 0002:000000F4       CPortCtl.CPortCtl
 0002:00000150       CPortSetup.CPortSetup
 0002:00000158       CPort.CPort
 0002:000003C0       BisComPort.BisComPort
 0002:000003C8       BisBarcodeScanner.BisBarcodeScanner
 0002:000003D0       XAsync.XAsync
 0002:000003D8       XComErr.XComErr
 0002:000003E0       XComDrv.XComDrv
 0002:000003E8       .omcom..omcom
 0003:00000000       SysInit.TlsIndex
 0003:00000004       SysInit.Module
 0003:0000001C       SysInit.TlsProc
 0003:0000002C       CPortCtl.OnBitmaps
 0003:00000048       CPortCtl.OffBitmaps
 0003:00000064       CPortCtl.BorderStyles
 0003:0000006C       CPort.CParityBits
 0003:00000080       CPort.CStopBits
 0003:0000008C       CPort.CBaudRate
 0003:000000CC       CPort.CDataBits
 0003:000000DC       CPort.CControlRTS
 0003:000000EC       CPort.CControlDTR
 0003:000000F8       CPort.DTRStrings
 0003:00000104       CPort.RTSStrings
 0003:00000114       CPort.BaudRateStrings
 0003:00000154       CPort.BaudRateInts
 0003:00000194       CPort.StopBitsStrings
 0003:000001A0       CPort.DataBitsStrings
 0003:000001B0       CPort.ParityBitsStrings
 0003:000001C4       CPort.FlowControlStrings
 0003:000001D4       XComDrv.STR_FLOWCONTROL
 0003:000001E8       XComDrv.STR_PARITY
 0003:000001FC       XComDrv.STR_STOPBITS
 0003:00000208       XComDrv.BaudRate_
 0003:00000244       XComDrv.func_
 0003:0000024C       XComDrv.func_
 0003:00000254       XComDrv.func_
 0003:0000025C       XComDrv.func_
 0003:00000264       XComDrv.MRC_
 0004:00000000       SysInit.ModuleIsLib
 0004:00000001       SysInit.ModuleIsPackage
 0004:00000004       SysInit.HInstance
 0004:00000008       SysInit.tlsBuffer
 0004:0000000C       Windows..3
 0004:00000010       Windows.HtmlHelpModule
 0004:00000014       CPortTypes..1
 0004:00000018       CPortEsc..4
 0004:0000001C       CPortTrmSet..2
 0004:00000020       CPortCtl.ComTerminalFont
 0004:00000024       CPortCtl..9
 0004:00000028       CPortSetup..2
 0004:0000002C       CPort..31
 0004:00000030       BisComPort..2
 0004:00000034       BisBarcodeScanner..2
 0004:00000038       XAsync..2
 0004:0000003C       XComErr..2
 0004:00000040       XComDrv..22
 0005:00000000       SysInit.TlsLast


Line numbers for CPortTypes(CPortTypes.pas) segment .text

    79 0001:00000E90    80 0001:00000EAD    81 0001:00000EB8    83 0001:00000EC8
    84 0001:00000EE8    85 0001:00000F14    86 0001:00000F20    87 0001:00000F28
    88 0001:00000F3A    89 0001:00000F4C    90 0001:00000F5E    91 0001:00000F70
    92 0001:00000F82    93 0001:00000F94    94 0001:00000FA6    95 0001:00000FB8
    96 0001:00000FC0    98 0001:00000FCF    99 0001:00000FEB

Line numbers for CPortTypes(CPortTypes.pas) segment .itext

   101 0002:00000054

Line numbers for CPortEsc(CPortEsc.pas) segment .text

    92 0001:00001D54    93 0001:00001D66    94 0001:00001D6F    95 0001:00001D7E
    98 0001:00001D98    99 0001:00001DA3   100 0001:00001DAB   101 0001:00001DB7
   104 0001:00001DC8   105 0001:00001DE2   106 0001:00001DF1   108 0001:00001DF8
   109 0001:00001E06   111 0001:00001E2C   113 0001:00001E36   123 0001:00001E5C
   124 0001:00001E7C   125 0001:00001E7E   127 0001:00001E84   129 0001:00001E8A
   130 0001:00001E92   133 0001:00001E98   134 0001:00001E9F   138 0001:00001EA3
   139 0001:00001EBA   140 0001:00001EC4   142 0001:00001EC8   143 0001:00001ECB
   144 0001:00001ECF   147 0001:00001ED1   151 0001:00001EF8   152 0001:00001F19
   153 0001:00001F84   154 0001:00001F95   155 0001:00001FA6   156 0001:00001FB7
   157 0001:00001FC8   158 0001:00001FD9   159 0001:00001FEA   160 0001:00001FFB
   161 0001:00002009   162 0001:00002017   163 0001:00002025   166 0001:00002076
   168 0001:0000207D   172 0001:0000212C   173 0001:00002152   174 0001:00002154
   175 0001:000021D0   176 0001:000021D7   177 0001:000021DE   178 0001:000021E5
   179 0001:000021EC   180 0001:000021F3   181 0001:000021FA   182 0001:00002201
   183 0001:00002208   185 0001:0000220C   186 0001:00002217   188 0001:0000221B
   189 0001:00002237   192 0001:0000223B   193 0001:00002248   196 0001:0000224C
   197 0001:0000224E   198 0001:0000226B   202 0001:00002288   212 0001:000022C0
   213 0001:000022E0   214 0001:000022E2   216 0001:000022E8   218 0001:000022EE
   219 0001:000022F6   222 0001:000022FC   223 0001:00002303   227 0001:00002307
   228 0001:0000231E   229 0001:00002320   230 0001:00002326   233 0001:00002332
   234 0001:0000233A   236 0001:00002340   237 0001:0000234A   239 0001:0000234E
   240 0001:00002351   241 0001:00002355   242 0001:00002359   245 0001:0000235B
   252 0001:00002380   253 0001:0000239F   254 0001:00002442   255 0001:00002454
   256 0001:00002481   257 0001:00002493   258 0001:000024D8   259 0001:000024EA
   260 0001:000024FC   261 0001:0000250E   262 0001:00002520   263 0001:00002532
   264 0001:00002544   265 0001:00002556   266 0001:00002568   267 0001:0000257A
   268 0001:0000258C   269 0001:0000259E   270 0001:000025B0   271 0001:000025F5
   272 0001:00002607   273 0001:00002619   274 0001:0000262B   275 0001:0000263D
   276 0001:0000264F   277 0001:00002661   278 0001:00002673   279 0001:00002685
   280 0001:00002694   281 0001:000026A3   282 0001:000026B2   283 0001:000026C1
   284 0001:000026D0   285 0001:000026DF   286 0001:000026EE   288 0001:000026FD
   290 0001:00002705   291 0001:00002710   295 0001:000028F8   296 0001:00002916
   297 0001:00002921   298 0001:00002949   299 0001:0000294D   300 0001:00002951
   301 0001:00002955   302 0001:00002959   303 0001:0000295D   305 0001:00002961
   309 0001:00002965   310 0001:00002967   311 0001:00002976   312 0001:00002978
   313 0001:00002980   314 0001:00002999   315 0001:0000299D   316 0001:000029A1
   317 0001:000029A5   320 0001:000029A7   332 0001:000029D8   333 0001:000029FC
   334 0001:00002A01   337 0001:00002A0B   339 0001:00002A1E   340 0001:00002A2C
   343 0001:00002A36   344 0001:00002A4B   335 0001:00002A4C   346 0001:00002A58
   347 0001:00002A5E   348 0001:00002A6C   353 0001:00002A94   354 0001:00002AA8
   355 0001:00002AB7   358 0001:00002ABB   359 0001:00002ACB   360 0001:00002ADB
   361 0001:00002ADF   363 0001:00002AE3   366 0001:00002AE5   367 0001:00002AF0
   372 0001:00002B14   373 0001:00002B28   374 0001:00002B37   377 0001:00002B3B
   378 0001:00002B4B   379 0001:00002B5B   380 0001:00002B5F   382 0001:00002B63
   385 0001:00002B65   386 0001:00002B70   391 0001:00002B94   392 0001:00002BA8
   393 0001:00002BB7   396 0001:00002BBB   397 0001:00002BCB   398 0001:00002BDB
   399 0001:00002BDF   401 0001:00002BE3   404 0001:00002BE5   405 0001:00002BF0
   410 0001:00002C14   411 0001:00002C28   412 0001:00002C37   415 0001:00002C3B
   416 0001:00002C4B   417 0001:00002C63   418 0001:00002C67   419 0001:00002C6B
   420 0001:00002C6F   422 0001:00002C73   425 0001:00002C75   426 0001:00002C80
   429 0001:00002CA4   430 0001:00002CBA   433 0001:00002CF6   435 0001:00002CFA
   436 0001:00002D2C   438 0001:00002D30   439 0001:00002D32   441 0001:00002D74
   442 0001:00002D9C   443 0001:00002DA0   448 0001:00002DB0   451 0001:00002DC2
   452 0001:00002DD1   453 0001:00002DDF   454 0001:00002E07   455 0001:00002EA1
   456 0001:00002EAA   457 0001:00002EB0   458 0001:00002EB6   459 0001:00002EBC
   460 0001:00002EC2   461 0001:00002EC8   462 0001:00002ED4   463 0001:00002EE0
   464 0001:00002EEC   465 0001:00002EF2   466 0001:00002EF8   467 0001:00002EFE
   468 0001:00002F04   469 0001:00002F0A   470 0001:00002F16   471 0001:00002F22
   473 0001:00002F28   475 0001:00002F2C   477 0001:00002F44   479 0001:00002F54

Line numbers for CPortEsc(CPortEsc.pas) segment .itext

   481 0002:000000E4

Line numbers for CPortTrmSet(CPortTrmSet.pas) segment .text

    60 0001:00003288    61 0001:000032A7    63 0001:000032B8    64 0001:000032D3
    65 0001:000032EE    66 0001:00003309    67 0001:00003324    68 0001:0000333F
    69 0001:0000335A    70 0001:00003375    71 0001:00003397    72 0001:000033B9
    73 0001:000033D4    75 0001:000033E6    76 0001:00003400    77 0001:0000341A
    78 0001:00003434    79 0001:0000344E    80 0001:00003468    81 0001:00003483
    82 0001:0000349E    83 0001:000034AC    85 0001:000034DE    87 0001:000034F0
    88 0001:000034FE    90 0001:00003530    92 0001:00003542    94 0001:0000355C
    96 0001:00003564   107 0001:0000359C

Line numbers for CPortTrmSet(CPortTrmSet.pas) segment .itext

   109 0002:000000EC

Line numbers for CPortCtl(CPortCtl.pas) segment .text

   617 0001:00005E84   620 0001:00005E88   621 0001:00005E8A   625 0001:00005E8C
   628 0001:00005E90   629 0001:00005E92   639 0001:00005E94   640 0001:00005EAB
   641 0001:00005EB3   642 0001:00005EB5   641 0001:00005ECB   643 0001:00005ED0
   647 0001:00005EF4   648 0001:00005EF7   649 0001:00005EFF   650 0001:00005F07
   656 0001:00005F0C   657 0001:00005F23   658 0001:00005F2B   659 0001:00005F2D
   658 0001:00005F43   660 0001:00005F48   666 0001:00005F6C   667 0001:00005F83
   668 0001:00005F8B   669 0001:00005F8D   668 0001:00005FA3   670 0001:00005FA8
   676 0001:00005FCC   677 0001:00005FE3   678 0001:00005FEB   679 0001:00005FED
   678 0001:00006003   680 0001:00006008   686 0001:0000602C   687 0001:00006043
   688 0001:0000604B   689 0001:0000604D   688 0001:00006063   690 0001:00006068
   694 0001:0000608C   695 0001:0000608F   696 0001:00006094   697 0001:000060BF
   698 0001:000060C8   699 0001:000060D1   700 0001:000060DA   701 0001:000060E3
   702 0001:000060EC   704 0001:000060F5   706 0001:000060FD   710 0001:00006100
   711 0001:00006106   712 0001:00006132   713 0001:0000613E   714 0001:0000614A
   715 0001:00006156   716 0001:00006162   717 0001:0000616E   719 0001:00006178
   720 0001:0000617E   721 0001:00006185   726 0001:00006188   730 0001:0000618F
   731 0001:000061BB   732 0001:000061C6   733 0001:000061D2   734 0001:000061DE
   735 0001:000061EA   736 0001:000061F9   740 0001:00006206   744 0001:00006208
   745 0001:0000622D   746 0001:00006238   747 0001:0000623A   750 0001:0000626A
   751 0001:00006277   752 0001:00006280   756 0001:0000629D   757 0001:000062B6
   758 0001:000062BF   762 0001:000062DC   763 0001:000062F5   764 0001:000062FE
   768 0001:0000631B   769 0001:00006334   770 0001:0000633D   774 0001:00006357
   775 0001:00006373   776 0001:00006378   780 0001:00006392   781 0001:000063AF
   782 0001:000063B4   785 0001:000063CC   793 0001:000063F8   794 0001:0000640D
   795 0001:0000641F   796 0001:0000642A   797 0001:00006439   798 0001:00006445
   802 0001:00006460   803 0001:0000646B   804 0001:00006477   805 0001:00006482
   810 0001:00006490   811 0001:0000649B   817 0001:0000649C   818 0001:000064A0
   819 0001:000064AD   820 0001:000064BA   825 0001:000064C0   826 0001:000064C9
   827 0001:000064D4   829 0001:000064E4   830 0001:000064E9   831 0001:000064F8
   833 0001:00006504   837 0001:00006508   838 0001:0000651E   839 0001:00006536
   840 0001:0000653D   844 0001:00006560   845 0001:00006563   847 0001:0000656E
   848 0001:00006573   850 0001:00006577   852 0001:0000657E   855 0001:00006585
   859 0001:00006588   860 0001:00006591   864 0001:00006594   865 0001:0000659E
   869 0001:000065A0   870 0001:000065A9   873 0001:000065AC   874 0001:000065B2
   875 0001:000065BF   877 0001:000065C9   878 0001:000065E2   881 0001:000065E8
   882 0001:000065EE   883 0001:000065FE   884 0001:00006617   890 0001:0000661C
   891 0001:00006620   892 0001:0000662B   893 0001:0000663A   896 0001:00006646
   897 0001:0000664D   900 0001:0000665C   901 0001:00006668   905 0001:0000666C
   906 0001:00006676   914 0001:00006678   915 0001:0000668D   916 0001:0000669F
   917 0001:000066AA   918 0001:000066B9   919 0001:000066C3   923 0001:000066E0
   924 0001:000066EB   925 0001:000066F7   926 0001:00006702   931 0001:00006710
   932 0001:0000671B   938 0001:0000671C   939 0001:00006720   940 0001:0000672D
   941 0001:00006737   942 0001:00006740   947 0001:00006744   948 0001:0000674D
   949 0001:00006758   951 0001:00006768   952 0001:0000676D   954 0001:0000677C
   955 0001:00006785   958 0001:0000678D   962 0001:00006794   963 0001:000067AB
   965 0001:000067B9   966 0001:000067BE   967 0001:000067DC   969 0001:000067E8
   970 0001:000067EF   974 0001:00006814   975 0001:00006817   977 0001:00006822
   978 0001:00006827   980 0001:0000682B   982 0001:00006832   985 0001:00006839
   989 0001:0000683C   990 0001:00006845   994 0001:00006848   995 0001:00006852
   999 0001:00006854  1000 0001:0000685D  1006 0001:00006860  1007 0001:00006864
  1008 0001:0000686F  1009 0001:0000687E  1012 0001:0000688A  1013 0001:00006891
  1016 0001:0000689D  1017 0001:000068A6  1021 0001:000068AC  1022 0001:000068B6
  1030 0001:000068B8  1031 0001:000068CF  1032 0001:000068D8  1033 0001:000068E5
  1034 0001:000068F1  1035 0001:000068FD  1036 0001:00006911  1037 0001:0000691B
  1038 0001:0000692F  1039 0001:00006938  1040 0001:00006945  1041 0001:00006959
  1042 0001:00006962  1043 0001:0000696F  1044 0001:00006985  1045 0001:0000698E
  1046 0001:0000699F  1050 0001:000069C4  1051 0001:000069CF  1052 0001:000069DA
  1053 0001:000069E5  1054 0001:000069F0  1055 0001:000069F9  1056 0001:00006A04
  1057 0001:00006A10  1063 0001:00006A20  1065 0001:00006A26  1067 0001:00006A2D
  1069 0001:00006A36  1070 0001:00006A51  1075 0001:00006A58  1076 0001:00006A61
  1077 0001:00006A6C  1078 0001:00006A79  1079 0001:00006A82  1083 0001:00006A88
  1084 0001:00006A8B  1085 0001:00006A98  1086 0001:00006AA6  1089 0001:00006AA8
  1090 0001:00006AAB  1091 0001:00006AB5  1095 0001:00006AB8  1096 0001:00006AB9
  1097 0001:00006AC3  1098 0001:00006AD5  1102 0001:00006AD8  1103 0001:00006ADB
  1104 0001:00006AF9  1105 0001:00006B07  1113 0001:00006C04  1114 0001:00006C0B
  1116 0001:00006C10  1117 0001:00006C2D  1119 0001:00006C45  1125 0001:00006C4C
  1126 0001:00006C56  1127 0001:00006C5F  1128 0001:00006C8F  1129 0001:00006CC1
  1145 0001:00006CC8  1147 0001:00006CCB  1149 0001:00006CD6  1150 0001:00006CDA
  1151 0001:00006CE7  1152 0001:00006CF0  1154 0001:00006CFE  1155 0001:00006D0B
  1156 0001:00006D1B  1159 0001:00006D22  1163 0001:00006D24  1164 0001:00006D27
  1165 0001:00006D38  1166 0001:00006D45  1167 0001:00006D4E  1168 0001:00006D55
  1172 0001:00006D58  1173 0001:00006D5B  1174 0001:00006D8A  1175 0001:00006D9C
  1176 0001:00006DAE  1177 0001:00006DC0  1178 0001:00006DC4  1179 0001:00006DC8
  1180 0001:00006DCC  1182 0001:00006DE4  1184 0001:00006DE6  1188 0001:00006DE8
  1189 0001:00006DF0  1190 0001:00006DFA  1191 0001:00006E00  1192 0001:00006E0D
  1193 0001:00006E14  1197 0001:00006E18  1198 0001:00006E1B  1200 0001:00006E23
  1201 0001:00006E2B  1202 0001:00006E34  1204 0001:00006E3E  1208 0001:00006E40
  1209 0001:00006E46  1211 0001:00006E50  1212 0001:00006E54  1213 0001:00006E5F
  1214 0001:00006E67  1216 0001:00006E6B  1217 0001:00006E72  1218 0001:00006E83
  1220 0001:00006E9B  1221 0001:00006EA6  1223 0001:00006EB1  1226 0001:00006EBC
  1228 0001:00006EC5  1233 0001:00006EC8  1234 0001:00006ED1  1235 0001:00006EE9
  1236 0001:00006EEE  1241 0001:00006F00  1243 0001:00006F0C  1244 0001:00006F12
  1245 0001:00006F20  1246 0001:00006F28  1247 0001:00006F30  1248 0001:00006F38
  1249 0001:00006F40  1250 0001:00006F48  1251 0001:00006F50  1252 0001:00006F7F
  1253 0001:00006F8B  1254 0001:00006F97  1255 0001:00006FA3  1256 0001:00006FAF
  1257 0001:00006FBB  1258 0001:00006FC7  1261 0001:00006FD1  1265 0001:00006FD4
  1266 0001:00006FDD  1267 0001:00006FE4  1269 0001:00006FEB  1271 0001:00006FED
  1275 0001:00006FF0  1276 0001:00006FF9  1278 0001:00007002  1279 0001:0000700B
  1280 0001:00007014  1281 0001:0000701D  1282 0001:0000702C  1284 0001:00007039
  1286 0001:00007043  1290 0001:00007048  1291 0001:00007052  1297 0001:00007054
  1298 0001:00007057  1299 0001:00007062  1301 0001:00007066  1302 0001:0000706D
  1303 0001:00007077  1312 0001:0000707C  1313 0001:00007091  1314 0001:0000709A
  1315 0001:0000709D  1319 0001:000070B8  1320 0001:000070C3  1322 0001:000070CA
  1323 0001:000070CF  1325 0001:000070D7  1326 0001:000070E3  1333 0001:000070F4
  1334 0001:00007107  1335 0001:00007115  1339 0001:00007129  1345 0001:00007134
  1346 0001:00007138  1347 0001:00007146  1351 0001:0000715B  1359 0001:00007160
  1360 0001:00007167  1361 0001:0000717D  1363 0001:00007185  1364 0001:0000718F
  1366 0001:000071AA  1370 0001:000071B4  1371 0001:000071B9  1372 0001:000071DA
  1373 0001:000071E0  1377 0001:00007201  1378 0001:0000720D  1381 0001:00007219
  1383 0001:00007241  1391 0001:00007248  1392 0001:0000724F  1393 0001:00007267
  1395 0001:0000726D  1396 0001:00007276  1400 0001:0000728C  1401 0001:00007291
  1402 0001:000072B2  1403 0001:000072B8  1407 0001:000072D9  1408 0001:000072E5
  1411 0001:000072F1  1413 0001:00007317  1420 0001:00007320  1422 0001:0000732D
  1423 0001:0000733E  1425 0001:0000734F  1428 0001:00007357  1429 0001:00007363
  1432 0001:0000736F  1433 0001:0000738D  1440 0001:00007398  1442 0001:000073A5
  1444 0001:000073C9  1446 0001:000073DB  1449 0001:000073E2  1450 0001:000073EE
  1453 0001:000073FA  1454 0001:00007422  1460 0001:0000742C  1461 0001:00007431
  1463 0001:00007438  1464 0001:0000743D  1466 0001:00007445  1467 0001:00007461
  1468 0001:0000747D  1469 0001:00007490  1470 0001:000074A2  1473 0001:000074A9
  1474 0001:000074B4  1471 0001:000074B7  1476 0001:000074C2  1481 0001:000074C8
  1482 0001:000074CF  1487 0001:000074D0  1488 0001:000074D6  1494 0001:000074D8
  1495 0001:000074DC  1497 0001:000074E0  1500 0001:000074ED  1496 0001:000074EE
  1501 0001:000074F9  1502 0001:00007504  1504 0001:00007509  1505 0001:0000750B
  1510 0001:00007510  1511 0001:00007523  1516 0001:00007524  1517 0001:0000752F
  1518 0001:00007534  1519 0001:00007546  1520 0001:0000755D  1518 0001:00007561
  1521 0001:00007564  1526 0001:00007570  1527 0001:00007576  1528 0001:00007578
  1529 0001:0000758A  1530 0001:00007597  1528 0001:0000759A  1531 0001:0000759D
  1540 0001:000075A4  1541 0001:000075BD  1542 0001:000075C6  1543 0001:000075CF
  1544 0001:000075D8  1545 0001:000075E1  1546 0001:000075ED  1547 0001:000075F9
  1548 0001:00007606  1549 0001:00007610  1550 0001:00007624  1551 0001:0000762E
  1552 0001:00007635  1553 0001:0000763F  1554 0001:00007649  1555 0001:0000766D
  1556 0001:00007691  1557 0001:00007698  1558 0001:000076AC  1559 0001:000076B8
  1560 0001:000076C1  1564 0001:000076E0  1565 0001:000076EB  1566 0001:000076F4
  1567 0001:000076FF  1568 0001:0000770A  1569 0001:00007715  1570 0001:00007721
  1574 0001:00007730  1575 0001:00007733  1576 0001:0000773E  1577 0001:0000774F
  1578 0001:00007759  1582 0001:0000775C  1583 0001:0000775D  1584 0001:00007767
  1586 0001:0000776F  1587 0001:00007774  1589 0001:00007780  1591 0001:00007786
  1592 0001:00007790  1594 0001:00007798  1595 0001:0000779D  1597 0001:000077A9
  1599 0001:000077AF  1600 0001:000077B8  1602 0001:000077EF  1608 0001:000077F4
  1611 0001:0000780A  1612 0001:00007812  1613 0001:0000781C  1620 0001:00007840
  1621 0001:0000784E  1622 0001:00007856  1624 0001:00007864  1626 0001:0000787F
  1627 0001:00007889  1629 0001:00007896  1630 0001:0000789E  1631 0001:000078A4
  1632 0001:000078B9  1634 0001:000078BF  1635 0001:000078DB  1636 0001:000078F7
  1640 0001:0000790A  1641 0001:00007914  1624 0001:00007917  1643 0001:0000792B
  1645 0001:0000793B  1653 0001:00007944  1654 0001:0000794D  1655 0001:00007952
  1662 0001:00007954  1663 0001:0000795D  1664 0001:00007964  1666 0001:00007972
  1667 0001:00007980  1664 0001:0000798B  1669 0001:0000798E  1670 0001:00007995
  1678 0001:0000799C  1679 0001:000079BE  1680 0001:000079CB  1681 0001:000079DC
  1683 0001:000079EF  1684 0001:000079FF  1686 0001:00007A03  1688 0001:00007A10
  1690 0001:00007A2E  1691 0001:00007A34  1692 0001:00007A38  1693 0001:00007A48
  1686 0001:00007A4B  1696 0001:00007A4E  1697 0001:00007A53  1698 0001:00007A6F
  1681 0001:00007A70  1699 0001:00007A79  1703 0001:00007AAC  1704 0001:00007AB0
  1706 0001:00007AC6  1707 0001:00007AD5  1708 0001:00007ADF  1709 0001:00007AEA
  1710 0001:00007AF4  1712 0001:00007AFB  1717 0001:00007B04  1718 0001:00007B09
  1721 0001:00007B0C  1722 0001:00007B12  1723 0001:00007B25  1724 0001:00007B2C
  1725 0001:00007B35  1729 0001:00007B38  1730 0001:00007B4F  1731 0001:00007B56
  1732 0001:00007B62  1733 0001:00007B6D  1734 0001:00007B85  1735 0001:00007B91
  1737 0001:00007BAD  1739 0001:00007BB8  1740 0001:00007BBF  1743 0001:00007BE8
  1744 0001:00007BEB  1745 0001:00007BF2  1746 0001:00007BFB  1751 0001:00007C00
  1753 0001:00007C07  1754 0001:00007C10  1755 0001:00007C14  1759 0001:00007C18
  1761 0001:00007C1E  1762 0001:00007C23  1763 0001:00007C2A  1764 0001:00007C33
  1768 0001:00007C38  1769 0001:00007C3B  1771 0001:00007C42  1772 0001:00007C49
  1776 0001:00007C4C  1778 0001:00007C53  1779 0001:00007C6B  1780 0001:00007C75
  1781 0001:00007C7E  1785 0001:00007C84  1786 0001:00007C87  1787 0001:00007C8E
  1788 0001:00007C95  1793 0001:00007C98  1794 0001:00007CA8  1799 0001:00007CAC
  1800 0001:00007CBF  1808 0001:00007CC0  1809 0001:00007CCC  1810 0001:00007CCE
  1812 0001:00007CDC  1813 0001:00007CEB  1815 0001:00007CF4  1816 0001:00007CFD
  1818 0001:00007D04  1819 0001:00007D09  1822 0001:00007D14  1824 0001:00007D1C
  1825 0001:00007D2D  1827 0001:00007D36  1828 0001:00007D3F  1830 0001:00007D46
  1831 0001:00007D4B  1834 0001:00007D58  1841 0001:00007D60  1842 0001:00007D66
  1845 0001:00007D6F  1846 0001:00007D80  1848 0001:00007D9C  1849 0001:00007DA3
  1851 0001:00007DAA  1852 0001:00007DB7  1853 0001:00007DBE  1854 0001:00007DCD
  1856 0001:00007DD4  1862 0001:00007DD8  1863 0001:00007DE2  1864 0001:00007DEF
  1865 0001:00007E15  1866 0001:00007E19  1867 0001:00007E1D  1868 0001:00007E21
  1869 0001:00007E25  1871 0001:00007E29  1873 0001:00007E2B  1875 0001:00007E34
  1876 0001:00007E38  1877 0001:00007E41  1879 0001:00007E4E  1882 0001:00007E5B
  1883 0001:00007E6D  1884 0001:00007E7A  1885 0001:00007E87  1886 0001:00007E94
  1888 0001:00007E9F  1892 0001:00007EA4  1893 0001:00007EAA  1894 0001:00007EB3
  1895 0001:00007EBD  1898 0001:00007EC0  1899 0001:00007EC3  1900 0001:00007ECA
  1901 0001:00007ED1  1902 0001:00007ED7  1903 0001:00007EE2  1907 0001:00007EE4
  1908 0001:00007EED  1909 0001:00007EF8  1910 0001:00007F05  1911 0001:00007F0E
  1918 0001:00007F14  1919 0001:00007F27  1920 0001:00007F3A  1921 0001:00007F3E
  1922 0001:00007F51  1923 0001:00007F55  1925 0001:00007F69  1926 0001:00007F77
  1928 0001:00007F84  1929 0001:00007F8D  1930 0001:00007FA3  1931 0001:00007FAA
  1932 0001:00007FBC  1926 0001:00007FBD  1933 0001:00007FC0  1923 0001:00007FC3
  1934 0001:00007FC9  1937 0001:00007FD4  1938 0001:00007FD7  1939 0001:00007FEB
  1940 0001:00007FFF  1941 0001:00008017  1942 0001:0000802B  1943 0001:00008055
  1948 0001:00008070  1949 0001:00008076  1950 0001:00008084  1951 0001:00008095
  1952 0001:0000809B  1955 0001:000080A7  1957 0001:000080BA  1958 0001:000080D8
  1959 0001:00008102  1960 0001:00008121  1961 0001:0000814B  1963 0001:00008154
  1967 0001:0000815C  1968 0001:0000815F  1969 0001:00008167  1970 0001:00008172
  1972 0001:00008180  1973 0001:00008184  1974 0001:0000819A  1976 0001:000081A3
  1977 0001:000081C0  1979 0001:000081C7  1983 0001:000081CC  1984 0001:000081ED
  1985 0001:000081FB  1986 0001:00008205  1993 0001:00008228  1994 0001:00008256
  1995 0001:00008266  1996 0001:00008272  1997 0001:0000827D  1998 0001:0000828E
  1999 0001:00008294  2001 0001:000082BA  2002 0001:000082E1  2003 0001:00008312
  2004 0001:00008322  2005 0001:00008332  2011 0001:0000835C  2012 0001:0000835F
  2015 0001:0000838A  2017 0001:00008398  2018 0001:000083A5  2020 0001:000083B3
  2021 0001:000083BE  2024 0001:000083D5  2027 0001:000083E9  2029 0001:000083FB
  2032 0001:0000840F  2033 0001:0000841D  2035 0001:0000842A  2039 0001:0000843C
  2040 0001:00008447  2042 0001:00008454  2044 0001:00008466  2047 0001:0000847C
  2048 0001:0000848E  2049 0001:00008492  2052 0001:000084A1  2060 0001:000084A4
  2061 0001:000084AD  2062 0001:000084BD  2063 0001:000084CA  2064 0001:000084D3
  2065 0001:000084DC  2066 0001:000084E5  2068 0001:000084E8  2069 0001:000084F6
  2070 0001:00008502  2071 0001:00008509  2073 0001:00008520  2074 0001:00008533
  2075 0001:00008586  2076 0001:0000858F  2077 0001:0000859B  2078 0001:000085A7
  2079 0001:000085B3  2080 0001:000085BF  2081 0001:000085CB  2083 0001:000085D5
  2071 0001:000085D6  2084 0001:000085DD  2089 0001:000085E4  2090 0001:00008606
  2092 0001:00008611  2093 0001:0000861D  2094 0001:0000862C  2095 0001:00008632
  2097 0001:0000863B  2098 0001:00008642  2099 0001:00008651  2100 0001:0000865B
  2101 0001:0000866A  2102 0001:00008670  2104 0001:0000867E  2105 0001:0000868A
  2111 0001:000086D4  2112 0001:000086E5  2113 0001:000086FF  2114 0001:0000871B
  2115 0001:00008736  2116 0001:00008752  2117 0001:00008766  2124 0001:00008770
  2125 0001:00008780  2129 0001:0000879D  2130 0001:000087A1  2132 0001:000087AC
  2133 0001:000087B5  2134 0001:000087C5  2135 0001:000087C8  2136 0001:000087EF
  2137 0001:000087F2  2138 0001:000087F5  2139 0001:00008804  2141 0001:00008813
  2143 0001:00008816  2144 0001:00008827  2145 0001:00008837  2147 0001:0000883B
  2148 0001:00008844  2149 0001:00008850  2152 0001:00008854  2153 0001:0000885D
  2154 0001:0000885F  2157 0001:0000886C  2158 0001:00008875  2161 0001:00008881
  2162 0001:0000889A  2166 0001:000088A4  2167 0001:000088A7  2169 0001:000088B6
  2170 0001:000088CC  2172 0001:000088E5  2174 0001:000088F2  2175 0001:00008908
  2177 0001:00008921  2189 0001:00008924  2190 0001:0000892D  2191 0001:0000892F
  2195 0001:00008967  2196 0001:00008984  2198 0001:0000898D  2201 0001:00008994
  2202 0001:0000899D  2203 0001:000089B5  2210 0001:000089BC  2211 0001:000089BF
  2213 0001:000089CE  2214 0001:000089E3  2215 0001:000089F3  2218 0001:00008A06
  2219 0001:00008A0E  2222 0001:00008A1C  2228 0001:00008A20  2229 0001:00008A23
  2231 0001:00008A30  2232 0001:00008A45  2233 0001:00008A55  2236 0001:00008A6B
  2237 0001:00008A73  2240 0001:00008A84  2242 0001:00008A88  2243 0001:00008A91
  2245 0001:00008AA1  2246 0001:00008AAC  2247 0001:00008AB7  2248 0001:00008AC4
  2249 0001:00008ACE  2250 0001:00008ADD  2252 0001:00008AE7  2253 0001:00008AF4
  2254 0001:00008AFE  2255 0001:00008B0C  2256 0001:00008B13  2257 0001:00008B1E
  2258 0001:00008B25  2260 0001:00008B32  2261 0001:00008B3D  2264 0001:00008B51
  2267 0001:00008B66  2268 0001:00008B6E  2272 0001:00008B74  2273 0001:00008B77
  2274 0001:00008B80  2275 0001:00008B8D  2279 0001:00008B90  2280 0001:00008B93
  2281 0001:00008B9C  2282 0001:00008BA9  2286 0001:00008BAC  2287 0001:00008BC6
  2290 0001:00008BCF  2291 0001:00008BD6  2292 0001:00008BDF  2293 0001:00008BE6
  2294 0001:00008BFD  2295 0001:00008C04  2296 0001:00008C0D  2300 0001:00008C14
  2302 0001:00008C24  2304 0001:00008C38  2305 0001:00008C46  2307 0001:00008C4F
  2311 0001:00008C74  2312 0001:00008C98  2314 0001:00008CB1  2315 0001:00008CD1
  2318 0001:00008CDA  2319 0001:00008CE1  2320 0001:00008CEF  2323 0001:00008CF6
  2327 0001:00008D1C  2328 0001:00008D40  2329 0001:00008D59  2330 0001:00008D79
  2334 0001:00008DA0  2335 0001:00008DC7  2336 0001:00008DC9  2337 0001:00008DCF
  2339 0001:00008E73  2340 0001:00008E9C  2341 0001:00008EC5  2342 0001:00008EEE
  2344 0001:00008F17  2345 0001:00008F45  2346 0001:00008F53  2347 0001:00008F6F
  2348 0001:00008F8B  2351 0001:00008FB6  2352 0001:00008FCC  2356 0001:00008FE3
  2357 0001:00008FEB  2358 0001:00008FF8  2360 0001:00009009  2361 0001:00009021
  2362 0001:00009039  2363 0001:00009049  2364 0001:00009058  2365 0001:00009069
  2368 0001:0000907A  2369 0001:00009082  2370 0001:0000908F  2372 0001:0000909E
  2373 0001:000090AA  2374 0001:000090B6  2375 0001:000090C6  2378 0001:000090D6
  2379 0001:000090DE  2380 0001:000090F7  2381 0001:00009110  2383 0001:0000911E
  2384 0001:0000912B  2386 0001:00009136  2388 0001:00009138  2395 0001:0000917C
  2396 0001:00009184  2397 0001:0000918D  2398 0001:0000919E  2399 0001:000091A5
  2400 0001:000091AC  2401 0001:000091B4  2402 0001:000091BD  2404 0001:000091C7
  2405 0001:000091CF  2409 0001:000091D8  2410 0001:000091D9  2411 0001:000091E3
  2412 0001:000091F5  2417 0001:000091F8  2418 0001:000091F9  2419 0001:00009203
  2420 0001:00009215  2424 0001:00009218  2425 0001:00009219  2426 0001:00009223
  2427 0001:00009235  2432 0001:00009238  2433 0001:0000925B  2434 0001:00009265
  2435 0001:00009279  2439 0001:0000929C  2440 0001:000092A0  2442 0001:000092A6
  2443 0001:000092B3  2444 0001:000092C7  2447 0001:000092DB  2448 0001:000092E3
  2451 0001:000092F4  2458 0001:000092F8  2461 0001:00009301  2462 0001:00009305
  2463 0001:0000930F  2464 0001:00009316  2466 0001:0000931B  2467 0001:0000932D
  2468 0001:0000933C  2467 0001:00009351  2468 0001:00009354  2466 0001:00009355
  2469 0001:0000935A  2470 0001:00009364  2473 0001:0000936C  2474 0001:00009370
  2475 0001:0000937A  2476 0001:00009384  2477 0001:0000938A  2478 0001:00009390
  2483 0001:00009398  2484 0001:000093A1  2486 0001:000093AC  2487 0001:000093B5
  2489 0001:000093C0  2490 0001:000093C9  2491 0001:000093D2  2493 0001:000093DD
  2495 0001:000093E6  2496 0001:000093F0  2497 0001:000093F3  2503 0001:000093F4
  2504 0001:000093FD  2505 0001:00009428  2506 0001:00009433  2507 0001:0000943E
  2508 0001:00009449  2511 0001:00009454  2512 0001:0000945D  2513 0001:00009460
  2514 0001:00009478  2516 0001:0000949A  2519 0001:000094A3  2520 0001:000094B0
  2524 0001:000094B8  2525 0001:000094BB  2526 0001:000094C2  2527 0001:000094D5
  2528 0001:000094DC  2533 0001:000094E0  2534 0001:000094F1  2539 0001:000094F4
  2540 0001:0000950C  2545 0001:00009510  2546 0001:00009534  2551 0001:00009538
  2552 0001:0000955C  2563 0001:00009560  2564 0001:0000957D  2567 0001:00009584
  2568 0001:0000958D  2569 0001:000095CF  2565 0001:000095D0  2571 0001:000095DB
  2577 0001:00009610  2578 0001:0000961C  2579 0001:0000962E  2578 0001:00009644
  2580 0001:00009647  2582 0001:0000964C  2583 0001:00009669  2585 0001:00009671
  2586 0001:00009676  2590 0001:00009680  2591 0001:0000968A  2597 0001:0000969D
  2598 0001:000096A6  2599 0001:000096AD  2600 0001:000096B6  2601 0001:000096BD
  2602 0001:000096C7  2606 0001:000096F0  2607 0001:000096F2  2608 0001:000096FC
  2609 0001:00009700  2613 0001:00009704  2614 0001:0000970E  2615 0001:00009715
  2619 0001:00009718  2621 0001:00009720  2622 0001:00009726  2624 0001:0000972B
  2628 0001:0000972C  2630 0001:00009734  2631 0001:0000973A  2633 0001:0000973F
  2636 0001:00009740  2637 0001:00009746  2639 0001:0000974E  2641 0001:0000976A
  2643 0001:00009775  2644 0001:0000977C  2646 0001:00009788  2647 0001:00009793
  2650 0001:0000979D  2653 0001:000097A0  2654 0001:000097A6  2656 0001:000097AE
  2658 0001:000097CA  2660 0001:000097D5  2661 0001:000097DC  2663 0001:000097E8
  2664 0001:000097F3  2667 0001:000097FD  2670 0001:00009800  2671 0001:00009803
  2673 0001:0000980B  2674 0001:00009811  2676 0001:00009817  2677 0001:00009822
  2680 0001:00009829  2683 0001:0000982C  2684 0001:00009830  2686 0001:00009838
  2687 0001:0000983E  2689 0001:0000984D  2690 0001:00009852  2693 0001:00009859
  2696 0001:0000985C  2697 0001:00009862  2699 0001:0000986C  2700 0001:00009870
  2701 0001:0000987B  2702 0001:00009883  2704 0001:00009887  2705 0001:0000988E
  2708 0001:0000989F  2711 0001:000098A4  2712 0001:000098A7  2714 0001:000098AF
  2715 0001:000098B5  2716 0001:000098BB  2718 0001:000098C5  2728 0001:000098C8
  2730 0001:000098EB

Line numbers for CPortCtl(CPortCtl.pas) segment .itext

  2720 0002:000000F4  2722 0002:000000FD  2723 0002:0000010E  2724 0002:0000011D
  2725 0002:0000012C  2727 0002:0000013B

Line numbers for CPortSetup(CPortSetup.pas) segment .text

    60 0001:00009BA8    61 0001:00009BAC    63 0001:00009BBC    64 0001:00009BC9
    65 0001:00009BD6    66 0001:00009BE3    67 0001:00009BF0    68 0001:00009BFD
    69 0001:00009C0A    70 0001:00009C15    71 0001:00009C20    72 0001:00009C2B
    73 0001:00009C36    74 0001:00009C41    75 0001:00009C4C    77 0001:00009C59
    78 0001:00009C60    79 0001:00009C6B    80 0001:00009C76    81 0001:00009C81
    82 0001:00009C8C    83 0001:00009C97    84 0001:00009CA2    86 0001:00009CA9
    88 0001:00009CB0   101 0001:00009CB4

Line numbers for CPortSetup(CPortSetup.pas) segment .itext

   103 0002:00000150

Line numbers for CPort(omcom.bpl\cport\source\CPort.pas) segment .text

   638 0001:0000AE04   639 0001:0000AE1D   640 0001:0000AE8F   641 0001:0000AEA0
   642 0001:0000AEB1   643 0001:0000AEC2   644 0001:0000AED3   645 0001:0000AEE4
   646 0001:0000AEF5   647 0001:0000AF06   648 0001:0000AF17   649 0001:0000AF28
   650 0001:0000AF39   651 0001:0000AF4A   652 0001:0000AF5B   653 0001:0000AF6C
   654 0001:0000AF7D   655 0001:0000AF8E   656 0001:0000AF9C   657 0001:0000AFAA
   658 0001:0000AFB8   659 0001:0000AFC6   660 0001:0000AFD4   661 0001:0000AFE2
   662 0001:0000AFF0   664 0001:0000AFFE   666 0001:0000B017   684 0001:0000B3D8
   685 0001:0000B3DD   686 0001:0000B3DF   687 0001:0000B3E5   688 0001:0000B3E8
   689 0001:0000B3EE   690 0001:0000B3F1   691 0001:0000B3F7   692 0001:0000B3FA
   693 0001:0000B400   694 0001:0000B405   695 0001:0000B40B   696 0001:0000B40E
   697 0001:0000B414   698 0001:0000B417   699 0001:0000B41E   700 0001:0000B421
   701 0001:0000B427   702 0001:0000B42C   703 0001:0000B432   704 0001:0000B435
   705 0001:0000B43C   706 0001:0000B441   709 0001:0000B444   710 0001:0000B448
   711 0001:0000B44F   712 0001:0000B457   713 0001:0000B463   714 0001:0000B46B
   715 0001:0000B477   716 0001:0000B47F   717 0001:0000B48B   718 0001:0000B493
   719 0001:0000B49F   720 0001:0000B4A7   721 0001:0000B4B3   722 0001:0000B4BB
   723 0001:0000B4C7   724 0001:0000B4CF   725 0001:0000B4DB   726 0001:0000B4E3
   727 0001:0000B4EF   728 0001:0000B4F7   729 0001:0000B503   730 0001:0000B50B
   731 0001:0000B517   739 0001:0000B548   740 0001:0000B561   741 0001:0000B56C
   742 0001:0000B57C   744 0001:0000B581   746 0001:0000B58C   748 0001:0000B5A2
   749 0001:0000B5A9   753 0001:0000B5C8   754 0001:0000B5D3   755 0001:0000B5DA
   756 0001:0000B5E6   764 0001:0000B5F4   766 0001:0000B600   767 0001:0000B60E
   768 0001:0000B620   769 0001:0000B626   772 0001:0000B62A   773 0001:0000B63C
   775 0001:0000B64E   779 0001:0000B66B   780 0001:0000B678   782 0001:0000B67F
   784 0001:0000B684   785 0001:0000B692   786 0001:0000B6A0   787 0001:0000B6A9
   788 0001:0000B6B2   793 0001:0000B6BC   794 0001:0000B6C5   795 0001:0000B6CC
   800 0001:0000B6D0   803 0001:0000B6E4   805 0001:0000B6F0   806 0001:0000B6F6
   810 0001:0000B6FC   814 0001:0000B700   815 0001:0000B703   816 0001:0000B709
   817 0001:0000B721   818 0001:0000B727   819 0001:0000B73C   820 0001:0000B742
   821 0001:0000B757   822 0001:0000B75D   823 0001:0000B772   824 0001:0000B778
   825 0001:0000B790   826 0001:0000B796   827 0001:0000B7AB   828 0001:0000B7B1
   829 0001:0000B7C6   830 0001:0000B7CC   831 0001:0000B7E1   832 0001:0000B7E7
   833 0001:0000B7FC   834 0001:0000B802   835 0001:0000B81A   839 0001:0000B81C
   840 0001:0000B81F   841 0001:0000B825   842 0001:0000B82D   843 0001:0000B833
   844 0001:0000B83B   845 0001:0000B841   846 0001:0000B849   847 0001:0000B84F
   848 0001:0000B857   849 0001:0000B85D   850 0001:0000B865   851 0001:0000B86B
   852 0001:0000B873   853 0001:0000B879   854 0001:0000B881   855 0001:0000B887
   856 0001:0000B88F   857 0001:0000B895   858 0001:0000B89D   859 0001:0000B8A3
   860 0001:0000B8AB   868 0001:0000B8B0   869 0001:0000B8C2   870 0001:0000B8CB
   871 0001:0000B8D2   872 0001:0000B8D9   873 0001:0000B8E0   877 0001:0000B8FC
   878 0001:0000B902   882 0001:0000B913   883 0001:0000B91B   884 0001:0000B921
   885 0001:0000B927   886 0001:0000B92D   890 0001:0000B936   891 0001:0000B93F
   896 0001:0000B944   897 0001:0000B947   901 0001:0000B948   902 0001:0000B94B
   904 0001:0000B950   906 0001:0000B953   907 0001:0000B95A   909 0001:0000B963
   913 0001:0000B968   914 0001:0000B96B   916 0001:0000B970   917 0001:0000B973
   918 0001:0000B97A   920 0001:0000B983   924 0001:0000B988   925 0001:0000B98B
   927 0001:0000B990   928 0001:0000B993   929 0001:0000B99A   931 0001:0000B9A3
   935 0001:0000B9A8   936 0001:0000B9AB   938 0001:0000B9B0   939 0001:0000B9B3
   940 0001:0000B9BA   942 0001:0000B9C3   946 0001:0000B9C8   947 0001:0000B9CB
   949 0001:0000B9D0   950 0001:0000B9D3   951 0001:0000B9DA   953 0001:0000B9E3
   961 0001:0000B9E8   962 0001:0000B9FA   963 0001:0000BA03   964 0001:0000BA07
   965 0001:0000BA0B   969 0001:0000BA28   970 0001:0000BA2E   974 0001:0000BA3F
   975 0001:0000BA48   976 0001:0000BA4F   977 0001:0000BA56   978 0001:0000BA5D
   979 0001:0000BA64   980 0001:0000BA6B   981 0001:0000BA72   982 0001:0000BA79
   983 0001:0000BA80   987 0001:0000BA8A   988 0001:0000BA93   993 0001:0000BA98
   994 0001:0000BA9B   998 0001:0000BA9C   999 0001:0000BA9F  1001 0001:0000BAA4
  1002 0001:0000BAA7  1003 0001:0000BAAE  1005 0001:0000BAB7  1009 0001:0000BABC
  1010 0001:0000BABF  1012 0001:0000BAC4  1013 0001:0000BAC7  1014 0001:0000BACE
  1016 0001:0000BAD7  1020 0001:0000BADC  1021 0001:0000BADF  1023 0001:0000BAE4
  1024 0001:0000BAE7  1025 0001:0000BAEE  1027 0001:0000BAF7  1031 0001:0000BAFC
  1032 0001:0000BAFF  1034 0001:0000BB04  1035 0001:0000BB07  1036 0001:0000BB0E
  1038 0001:0000BB17  1042 0001:0000BB1C  1043 0001:0000BB1F  1045 0001:0000BB24
  1046 0001:0000BB27  1047 0001:0000BB2E  1049 0001:0000BB37  1053 0001:0000BB3C
  1054 0001:0000BB3F  1056 0001:0000BB44  1057 0001:0000BB47  1058 0001:0000BB4E
  1060 0001:0000BB57  1064 0001:0000BB5C  1065 0001:0000BB5F  1067 0001:0000BB64
  1068 0001:0000BB67  1069 0001:0000BB6E  1071 0001:0000BB77  1075 0001:0000BB7C
  1076 0001:0000BB7F  1078 0001:0000BB84  1079 0001:0000BB87  1080 0001:0000BB8E
  1082 0001:0000BB97  1086 0001:0000BB9C  1087 0001:0000BB9F  1089 0001:0000BBA4
  1090 0001:0000BBA7  1091 0001:0000BBAE  1093 0001:0000BBB7  1097 0001:0000BBBC
  1098 0001:0000BBBF  1100 0001:0000BBC4  1101 0001:0000BBC7  1102 0001:0000BBCE
  1104 0001:0000BBD7  1109 0001:0000BBDC  1112 0001:0000BBF4  1114 0001:0000BBF7
  1117 0001:0000BC0F  1119 0001:0000BC13  1122 0001:0000BC2B  1124 0001:0000BC2F
  1125 0001:0000BC31  1129 0001:0000BC34  1130 0001:0000BC37  1132 0001:0000BC3C
  1133 0001:0000BC40  1134 0001:0000BC44  1135 0001:0000BC48  1136 0001:0000BC4C
  1139 0001:0000BC55  1140 0001:0000BC59  1144 0001:0000BC5F  1145 0001:0000BC63
  1149 0001:0000BC67  1150 0001:0000BC6E  1151 0001:0000BC77  1159 0001:0000BC7C
  1160 0001:0000BC8E  1161 0001:0000BC97  1162 0001:0000BC9B  1166 0001:0000BCB8
  1167 0001:0000BCBE  1171 0001:0000BCCF  1172 0001:0000BCD8  1173 0001:0000BCDF
  1174 0001:0000BCE6  1178 0001:0000BCF0  1179 0001:0000BCF9  1184 0001:0000BCFC
  1185 0001:0000BCFF  1189 0001:0000BD00  1190 0001:0000BD03  1192 0001:0000BD08
  1193 0001:0000BD0B  1194 0001:0000BD12  1196 0001:0000BD1B  1200 0001:0000BD20
  1201 0001:0000BD23  1203 0001:0000BD28  1204 0001:0000BD2B  1205 0001:0000BD32
  1207 0001:0000BD3B  1211 0001:0000BD40  1212 0001:0000BD43  1214 0001:0000BD48
  1215 0001:0000BD4B  1216 0001:0000BD52  1218 0001:0000BD5B  1222 0001:0000BD60
  1223 0001:0000BD63  1225 0001:0000BD68  1226 0001:0000BD6B  1227 0001:0000BD72
  1229 0001:0000BD7B  1237 0001:0000BD80  1238 0001:0000BD92  1239 0001:0000BD9B
  1240 0001:0000BDA2  1241 0001:0000BDA9  1245 0001:0000BDC4  1246 0001:0000BDCA
  1250 0001:0000BDDB  1251 0001:0000BDE3  1255 0001:0000BDEC  1256 0001:0000BDF5
  1261 0001:0000BDF8  1262 0001:0000BDFB  1266 0001:0000BDFC  1267 0001:0000BDFF
  1269 0001:0000BE04  1270 0001:0000BE09  1271 0001:0000BE18  1272 0001:0000BE1B
  1273 0001:0000BE22  1275 0001:0000BE2B  1279 0001:0000BE30  1280 0001:0000BE33
  1282 0001:0000BE38  1283 0001:0000BE3D  1284 0001:0000BE4C  1285 0001:0000BE4F
  1286 0001:0000BE56  1288 0001:0000BE5F  1296 0001:0000BE64  1297 0001:0000BE7B
  1299 0001:0000BE84  1301 0001:0000BE8B  1302 0001:0000BE9A  1303 0001:0000BEA9
  1304 0001:0000BEAD  1305 0001:0000BEB1  1306 0001:0000BEB5  1307 0001:0000BEBC
  1308 0001:0000BEC9  1309 0001:0000BECD  1310 0001:0000BED1  1312 0001:0000BEDC
  1313 0001:0000BEE3  1314 0001:0000BEED  1315 0001:0000BEFE  1316 0001:0000BF07
  1317 0001:0000BF18  1318 0001:0000BF21  1319 0001:0000BF32  1320 0001:0000BF3B
  1321 0001:0000BF4C  1322 0001:0000BF55  1326 0001:0000BF8C  1327 0001:0000BF97
  1328 0001:0000BF9E  1329 0001:0000BFA6  1330 0001:0000BFAE  1331 0001:0000BFB6
  1332 0001:0000BFBE  1333 0001:0000BFCA  1334 0001:0000BFD2  1341 0001:0000BFE0
  1342 0001:0000BFFA  1344 0001:0000C00A  1345 0001:0000C013  1347 0001:0000C01A
  1349 0001:0000C01C  1358 0001:0000C03D  1359 0001:0000C042  1360 0001:0000C060
  1362 0001:0000C07C  1367 0001:0000C0CC  1368 0001:0000C0D4  1369 0001:0000C0DA
  1372 0001:0000C0DC  1373 0001:0000C0E6  1375 0001:0000C0EE  1377 0001:0000C100
  1378 0001:0000C107  1379 0001:0000C115  1381 0001:0000C12C  1384 0001:0000C140
  1388 0001:0000C148  1390 0001:0000C154  1391 0001:0000C162  1392 0001:0000C170
  1393 0001:0000C179  1394 0001:0000C180  1395 0001:0000C18D  1396 0001:0000C209
  1397 0001:0000C213  1398 0001:0000C21D  1399 0001:0000C227  1400 0001:0000C231
  1401 0001:0000C23B  1402 0001:0000C245  1403 0001:0000C24F  1404 0001:0000C259
  1405 0001:0000C263  1408 0001:0000C27A  1411 0001:0000C290  1412 0001:0000C2A8
  1417 0001:0000C2B0  1418 0001:0000C2B3  1423 0001:0000C2B4  1425 0001:0000C2BA
  1426 0001:0000C2BD  1427 0001:0000C2C3  1429 0001:0000C2C8  1433 0001:0000C2CC
  1435 0001:0000C2D6  1437 0001:0000C2F0  1439 0001:0000C2F8  1440 0001:0000C300
  1441 0001:0000C307  1443 0001:0000C315  1446 0001:0000C32C  1447 0001:0000C334
  1448 0001:0000C33B  1451 0001:0000C345  1452 0001:0000C355  1455 0001:0000C35E
  1459 0001:0000C367  1463 0001:0000C37B  1464 0001:0000C387  1465 0001:0000C39C
  1469 0001:0000C3A3  1471 0001:0000C3AB  1475 0001:0000C3B8  1477 0001:0000C3BB
  1479 0001:0000C3C7  1481 0001:0000C3CE  1483 0001:0000C3D5  1485 0001:0000C3DB
  1486 0001:0000C3E3  1487 0001:0000C3E7  1491 0001:0000C3ED  1497 0001:0000C3F5
  1498 0001:0000C3FC  1500 0001:0000C400  1502 0001:0000C407  1529 0001:0000C40C
  1531 0001:0000C412  1534 0001:0000C43A  1535 0001:0000C441  1536 0001:0000C456
  1537 0001:0000C45B  1539 0001:0000C463  1540 0001:0000C46B  1541 0001:0000C471
  1543 0001:0000C479  1545 0001:0000C47C  1546 0001:0000C484  1547 0001:0000C48C
  1548 0001:0000C492  1549 0001:0000C497  1550 0001:0000C49D  1551 0001:0000C4A2
  1553 0001:0000C4C0  1554 0001:0000C4C6  1555 0001:0000C4CE  1556 0001:0000C4D4
  1557 0001:0000C4DC  1558 0001:0000C4E2  1559 0001:0000C4E7  1560 0001:0000C4ED
  1563 0001:0000C4F5  1564 0001:0000C508  1565 0001:0000C518  1566 0001:0000C51E
  1568 0001:0000C52F  1569 0001:0000C536  1571 0001:0000C546  1573 0001:0000C54C
  1574 0001:0000C551  1576 0001:0000C557  1577 0001:0000C55F  1582 0001:0000C567
  1583 0001:0000C575  1585 0001:0000C591  1594 0001:0000C598  1595 0001:0000C59D
  1598 0001:0000C5A0  1600 0001:0000C5A4  1602 0001:0000C5AA  1605 0001:0000C5CA
  1606 0001:0000C5D8  1607 0001:0000C5E7  1608 0001:0000C5F6  1609 0001:0000C605
  1612 0001:0000C614  1613 0001:0000C622  1615 0001:0000C63E  1619 0001:0000C644
  1621 0001:0000C648  1625 0001:0000C660  1626 0001:0000C678  1627 0001:0000C694
  1631 0001:0000C698  1632 0001:0000C69C  1633 0001:0000C6A7  1634 0001:0000C6B2
  1635 0001:0000C6BD  1642 0001:0000C6C0  1643 0001:0000C6C6  1644 0001:0000C6CC
  1645 0001:0000C6CE  1648 0001:0000C6D0  1649 0001:0000C6E7  1650 0001:0000C703
  1651 0001:0000C707  1658 0001:0000C70C  1659 0001:0000C712  1660 0001:0000C729
  1661 0001:0000C745  1662 0001:0000C749  1668 0001:0000C750  1669 0001:0000C755
  1670 0001:0000C75E  1671 0001:0000C76C  1672 0001:0000C788  1674 0001:0000C78F
  1675 0001:0000C795  1676 0001:0000C7A0  1677 0001:0000C7A6  1678 0001:0000C7B1
  1679 0001:0000C7B7  1680 0001:0000C7C2  1681 0001:0000C7C8  1682 0001:0000C7D3
  1689 0001:0000C7F0  1690 0001:0000C7F6  1691 0001:0000C80D  1692 0001:0000C829
  1693 0001:0000C82E  1699 0001:0000C834  1700 0001:0000C838  1701 0001:0000C83C
  1703 0001:0000C843  1705 0001:0000C848  1706 0001:0000C856  1707 0001:0000C872
  1713 0001:0000C878  1714 0001:0000C87C  1715 0001:0000C880  1717 0001:0000C887
  1719 0001:0000C88C  1720 0001:0000C89A  1721 0001:0000C8B6  1727 0001:0000C8BC
  1728 0001:0000C8C0  1729 0001:0000C8C4  1731 0001:0000C8CB  1733 0001:0000C8D0
  1734 0001:0000C8DE  1735 0001:0000C8FA  1741 0001:0000C900  1742 0001:0000C904
  1743 0001:0000C908  1745 0001:0000C90F  1747 0001:0000C914  1748 0001:0000C922
  1749 0001:0000C93E  1755 0001:0000C944  1756 0001:0000C948  1757 0001:0000C94A
  1758 0001:0000C94E  1759 0001:0000C953  1760 0001:0000C957  1762 0001:0000C95A
  1763 0001:0000C968  1764 0001:0000C984  1771 0001:0000C988  1772 0001:0000C98F
  1773 0001:0000C9A6  1774 0001:0000C9C2  1776 0001:0000C9C9  1777 0001:0000C9CF
  1778 0001:0000C9DA  1779 0001:0000C9E9  1780 0001:0000C9F4  1781 0001:0000C9FA
  1782 0001:0000CA05  1783 0001:0000CA0B  1784 0001:0000CA16  1785 0001:0000CA1D
  1786 0001:0000CA28  1787 0001:0000CA2E  1788 0001:0000CA39  1789 0001:0000CA40
  1790 0001:0000CA4B  1791 0001:0000CA52  1792 0001:0000CA5D  1797 0001:0000CA8C
  1798 0001:0000CA98  1800 0001:0000CA9B  1801 0001:0000CA9E  1802 0001:0000CAA5
  1803 0001:0000CAAA  1804 0001:0000CAB6  1805 0001:0000CAC2  1807 0001:0000CAC5
  1813 0001:0000CAD0  1814 0001:0000CAD9  1815 0001:0000CADF  1816 0001:0000CAE3
  1817 0001:0000CAE5  1819 0001:0000CAE7  1820 0001:0000CAFD  1826 0001:0000CB04
  1827 0001:0000CB0E  1828 0001:0000CB10  1830 0001:0000CB16  1831 0001:0000CB2E
  1832 0001:0000CB32  1833 0001:0000CB38  1842 0001:0000CB40  1843 0001:0000CB53
  1844 0001:0000CB58  1845 0001:0000CB6E  1847 0001:0000CB7D  1848 0001:0000CB9B
  1850 0001:0000CBA8  1851 0001:0000CBAD  1853 0001:0000CBC9  1854 0001:0000CBD4
  1855 0001:0000CBD7  1866 0001:0000CBE0  1871 0001:0000CBEF  1872 0001:0000CBF7
  1874 0001:0000CC05  1875 0001:0000CC14  1881 0001:0000CC2E  1890 0001:0000CC3E
  1896 0001:0000CC48  1897 0001:0000CC51  1898 0001:0000CC5C  1900 0001:0000CC78
  1901 0001:0000CC7A  1904 0001:0000CC80  1905 0001:0000CC87  1906 0001:0000CC90
  1908 0001:0000CC9D  1909 0001:0000CC9F  1910 0001:0000CCBC  1912 0001:0000CCC5
  1918 0001:0000CCCC  1920 0001:0000CCD8  1922 0001:0000CCE2  1923 0001:0000CCEA
  1924 0001:0000CCF8  1925 0001:0000CD04  1927 0001:0000CD1E  1929 0001:0000CD2E
  1938 0001:0000CD50  1939 0001:0000CD63  1940 0001:0000CD68  1941 0001:0000CD7E
  1943 0001:0000CD84  1945 0001:0000CD89  1948 0001:0000CDB6  1949 0001:0000CDBA
  1950 0001:0000CDC1  1951 0001:0000CDCA  1953 0001:0000CDE3  1954 0001:0000CDE9
  1955 0001:0000CDEF  1956 0001:0000CDF1  1960 0001:0000CDF3  1961 0001:0000CDF6
  1967 0001:0000CE00  1972 0001:0000CE0F  1973 0001:0000CE17  1974 0001:0000CE25
  1975 0001:0000CE35  1977 0001:0000CE4F  1979 0001:0000CE5F  1985 0001:0000CE68
  1986 0001:0000CE77  1987 0001:0000CE7B  1988 0001:0000CE85  1989 0001:0000CE93
  1990 0001:0000CEA6  1992 0001:0000CEBF  1995 0001:0000CECF  1996 0001:0000CED4
  2002 0001:0000CEE0  2007 0001:0000CEEF  2008 0001:0000CEF7  2009 0001:0000CF05
  2010 0001:0000CF14  2011 0001:0000CF21  2013 0001:0000CF38  2015 0001:0000CF48
  2019 0001:0000CF54  2020 0001:0000CF56  2021 0001:0000CF62  2022 0001:0000CF6A
  2024 0001:0000CF6F  2031 0001:0000CF74  2032 0001:0000CF7C  2033 0001:0000CF81
  2039 0001:0000CF97  2045 0001:0000CFA6  2048 0001:0000CFC7  2049 0001:0000CFCB
  2051 0001:0000CFED  2053 0001:0000CFF3  2057 0001:0000D006  2059 0001:0000D013
  2063 0001:0000D01C  2071 0001:0000D02A  2072 0001:0000D02D  2076 0001:0000D034
  2077 0001:0000D037  2078 0001:0000D040  2079 0001:0000D04F  2080 0001:0000D06B
  2086 0001:0000D070  2087 0001:0000D078  2088 0001:0000D07C  2090 0001:0000D092
  2091 0001:0000D0A9  2092 0001:0000D0AD  2093 0001:0000D0C5  2094 0001:0000D0E1
  2105 0001:0000D0E8  2107 0001:0000D0F8  2108 0001:0000D0FE  2110 0001:0000D114
  2111 0001:0000D123  2112 0001:0000D135  2113 0001:0000D138  2115 0001:0000D13C
  2116 0001:0000D13F  2119 0001:0000D146  2121 0001:0000D14B  2122 0001:0000D159
  2124 0001:0000D16E  2126 0001:0000D185  2128 0001:0000D195  2130 0001:0000D1A5
  2132 0001:0000D1BB  2135 0001:0000D1C6  2136 0001:0000D1CA  2138 0001:0000D1E6
  2140 0001:0000D201  2142 0001:0000D212  2146 0001:0000D21C  2147 0001:0000D222
  2148 0001:0000D230  2149 0001:0000D24C  2154 0001:0000D250  2155 0001:0000D255
  2159 0001:0000D258  2160 0001:0000D25B  2161 0001:0000D25F  2163 0001:0000D26D
  2164 0001:0000D279  2167 0001:0000D294  2168 0001:0000D2AA  2169 0001:0000D2C3
  2171 0001:0000D2C7  2172 0001:0000D2C9  2178 0001:0000D32C  2179 0001:0000D332
  2180 0001:0000D343  2186 0001:0000D38C  2187 0001:0000D392  2188 0001:0000D3A3
  2193 0001:0000D3A8  2194 0001:0000D3CB  2197 0001:0000D3CD  2199 0001:0000D3FC
  2195 0001:0000D3FD  2201 0001:0000D402  2202 0001:0000D407  2205 0001:0000D409
  2210 0001:0000D434  2211 0001:0000D457  2214 0001:0000D459  2216 0001:0000D488
  2212 0001:0000D489  2218 0001:0000D48E  2219 0001:0000D493  2222 0001:0000D495
  2227 0001:0000D4C0  2228 0001:0000D4E7  2230 0001:0000D4F3  2232 0001:0000D506
  2233 0001:0000D514  2235 0001:0000D549  2237 0001:0000D550  2240 0001:0000D552
  2243 0001:0000D55A  2244 0001:0000D55C  2247 0001:0000D588  2248 0001:0000D5A1
  2249 0001:0000D5A9  2251 0001:0000D5B4  2252 0001:0000D5CE  2256 0001:0000D5FC
  2257 0001:0000D620  2259 0001:0000D62A  2260 0001:0000D63D  2261 0001:0000D65C
  2262 0001:0000D662  2263 0001:0000D675  2264 0001:0000D694  2265 0001:0000D6B3
  2266 0001:0000D6D5  2268 0001:0000D6F8  2270 0001:0000D6FE  2271 0001:0000D71D
  2273 0001:0000D73C  2275 0001:0000D742  2276 0001:0000D764  2277 0001:0000D786
  2279 0001:0000D7A8  2281 0001:0000D7AE  2282 0001:0000D7C4  2284 0001:0000D7DA
  2286 0001:0000D7E0  2287 0001:0000D7F6  2288 0001:0000D80C  2289 0001:0000D822
  2290 0001:0000D838  2292 0001:0000D84E  2294 0001:0000D858  2295 0001:0000D87A
  2296 0001:0000D89C  2297 0001:0000D8BE  2298 0001:0000D8E0  2299 0001:0000D902
  2300 0001:0000D924  2301 0001:0000D946  2302 0001:0000D968  2303 0001:0000D98A
  2305 0001:0000D9AC  2309 0001:0000DD0C  2310 0001:0000DD2F  2312 0001:0000DD39
  2313 0001:0000DD48  2314 0001:0000DD63  2315 0001:0000DD69  2316 0001:0000DD78
  2317 0001:0000DD93  2318 0001:0000DDAE  2319 0001:0000DDCC  2321 0001:0000DDEB
  2323 0001:0000DDF1  2324 0001:0000DE0C  2326 0001:0000DE27  2328 0001:0000DE2D
  2329 0001:0000DE4B  2330 0001:0000DE69  2332 0001:0000DE87  2334 0001:0000DE8D
  2335 0001:0000DE9F  2337 0001:0000DEB1  2339 0001:0000DEB7  2340 0001:0000DEC9
  2341 0001:0000DEDB  2342 0001:0000DEED  2343 0001:0000DEFF  2345 0001:0000DF11
  2347 0001:0000DF1B  2348 0001:0000DF39  2349 0001:0000DF57  2350 0001:0000DF75
  2351 0001:0000DF93  2352 0001:0000DFB1  2353 0001:0000DFCF  2354 0001:0000DFED
  2355 0001:0000E00B  2356 0001:0000E029  2358 0001:0000E047  2362 0001:0000E3A4
  2363 0001:0000E3C9  2365 0001:0000E3D3  2366 0001:0000E3F3  2367 0001:0000E426
  2368 0001:0000E42C  2369 0001:0000E449  2370 0001:0000E47C  2371 0001:0000E4AF
  2372 0001:0000E4E6  2375 0001:0000E51E  2377 0001:0000E524  2378 0001:0000E557
  2380 0001:0000E58A  2382 0001:0000E594  2383 0001:0000E5CB  2384 0001:0000E602
  2386 0001:0000E639  2388 0001:0000E63F  2389 0001:0000E65F  2391 0001:0000E67F
  2393 0001:0000E689  2394 0001:0000E6A9  2395 0001:0000E6C9  2396 0001:0000E6E9
  2397 0001:0000E709  2399 0001:0000E729  2401 0001:0000E733  2402 0001:0000E76A
  2403 0001:0000E7A1  2404 0001:0000E7D8  2405 0001:0000E80F  2406 0001:0000E846
  2407 0001:0000E883  2408 0001:0000E8C6  2409 0001:0000E909  2410 0001:0000E94C
  2412 0001:0000E98F  2416 0001:0000ECF0  2417 0001:0000ED14  2419 0001:0000ED1E
  2420 0001:0000ED37  2421 0001:0000ED57  2422 0001:0000ED5D  2423 0001:0000ED72
  2424 0001:0000ED92  2425 0001:0000EDB2  2426 0001:0000EDD3  2428 0001:0000EDF4
  2430 0001:0000EDFA  2431 0001:0000EE1A  2433 0001:0000EE3A  2435 0001:0000EE40
  2436 0001:0000EE61  2437 0001:0000EE82  2439 0001:0000EEA3  2441 0001:0000EEA9
  2442 0001:0000EEBF  2444 0001:0000EED5  2446 0001:0000EEDB  2447 0001:0000EEF1
  2448 0001:0000EF07  2449 0001:0000EF1D  2450 0001:0000EF33  2452 0001:0000EF49
  2454 0001:0000EF53  2455 0001:0000EF74  2456 0001:0000EF95  2457 0001:0000EFB6
  2458 0001:0000EFD7  2459 0001:0000EFF8  2460 0001:0000F019  2461 0001:0000F03A
  2462 0001:0000F05B  2463 0001:0000F07C  2465 0001:0000F09D  2472 0001:0000F3FC
  2473 0001:0000F431  2474 0001:0000F440  2476 0001:0000F448  2477 0001:0000F45C
  2478 0001:0000F476  2480 0001:0000F484  2481 0001:0000F49E  2482 0001:0000F4AA
  2483 0001:0000F4C5  2484 0001:0000F4D7  2485 0001:0000F4E4  2486 0001:0000F4EF
  2488 0001:0000F4FB  2495 0001:0000F568  2496 0001:0000F58F  2497 0001:0000F59D
  2499 0001:0000F5A1  2500 0001:0000F5B0  2501 0001:0000F5BE  2502 0001:0000F5CF
  2504 0001:0000F5E7  2508 0001:0000F5F7  2509 0001:0000F609  2510 0001:0000F617
  2512 0001:0000F62F  2516 0001:0000F64E  2518 0001:0000F66C  2525 0001:0000F690
  2526 0001:0000F6B7  2527 0001:0000F6BF  2528 0001:0000F6CD  2529 0001:0000F6DB
  2531 0001:0000F6DF  2532 0001:0000F6EE  2533 0001:0000F6FC  2534 0001:0000F70D
  2536 0001:0000F725  2540 0001:0000F735  2541 0001:0000F747  2542 0001:0000F755
  2544 0001:0000F76D  2548 0001:0000F78A  2551 0001:0000F7A9  2553 0001:0000F7C7
  2557 0001:0000F7EC  2558 0001:0000F7F3  2559 0001:0000F802  2561 0001:0000F81A
  2562 0001:0000F824  2563 0001:0000F82E  2567 0001:0000F834  2568 0001:0000F83B
  2569 0001:0000F84A  2571 0001:0000F862  2572 0001:0000F86C  2573 0001:0000F876
  2578 0001:0000F87C  2579 0001:0000F87D  2580 0001:0000F887  2581 0001:0000F897
  2584 0001:0000F89C  2585 0001:0000F89D  2586 0001:0000F8A7  2587 0001:0000F8B7
  2590 0001:0000F8BC  2591 0001:0000F8BD  2592 0001:0000F8C7  2593 0001:0000F8D7
  2596 0001:0000F8DC  2597 0001:0000F8DD  2598 0001:0000F8E7  2599 0001:0000F8F7
  2602 0001:0000F8FC  2603 0001:0000F8FD  2604 0001:0000F904  2605 0001:0000F910
  2608 0001:0000F914  2609 0001:0000F915  2610 0001:0000F91F  2611 0001:0000F932
  2614 0001:0000F934  2615 0001:0000F935  2616 0001:0000F93F  2617 0001:0000F94F
  2620 0001:0000F954  2621 0001:0000F955  2622 0001:0000F95F  2623 0001:0000F96F
  2626 0001:0000F974  2627 0001:0000F975  2628 0001:0000F97F  2629 0001:0000F98F
  2632 0001:0000F994  2633 0001:0000F995  2634 0001:0000F99F  2635 0001:0000F9B1
  2638 0001:0000F9B4  2639 0001:0000F9B5  2640 0001:0000F9BF  2641 0001:0000F9D1
  2644 0001:0000F9D4  2645 0001:0000F9D5  2646 0001:0000F9DF  2647 0001:0000F9F1
  2650 0001:0000F9F4  2651 0001:0000F9F9  2652 0001:0000FA03  2653 0001:0000FA17
  2656 0001:0000FA1C  2657 0001:0000FA1D  2658 0001:0000FA27  2659 0001:0000FA37
  2662 0001:0000FA3C  2663 0001:0000FA3D  2664 0001:0000FA47  2665 0001:0000FA57
  2670 0001:0000FA5C  2671 0001:0000FA60  2673 0001:0000FA64  2674 0001:0000FA6B
  2675 0001:0000FA72  2678 0001:0000FA7C  2679 0001:0000FA87  2680 0001:0000FA92
  2681 0001:0000FA9D  2682 0001:0000FAAA  2683 0001:0000FAB7  2685 0001:0000FAC4
  2690 0001:0000FAC8  2691 0001:0000FACC  2692 0001:0000FAD7  2693 0001:0000FAE2
  2696 0001:0000FAE8  2697 0001:0000FAEC  2698 0001:0000FAF7  2699 0001:0000FB02
  2700 0001:0000FB0B  2703 0001:0000FB10  2705 0001:0000FB14  2706 0001:0000FB1D
  2707 0001:0000FB28  2710 0001:0000FB2C  2711 0001:0000FB2D  2712 0001:0000FB36
  2715 0001:0000FB38  2716 0001:0000FB39  2717 0001:0000FB42  2722 0001:0000FB44
  2723 0001:0000FB48  2725 0001:0000FB54  2726 0001:0000FB5F  2727 0001:0000FB6C
  2732 0001:0000FB70  2733 0001:0000FB74  2735 0001:0000FB80  2736 0001:0000FB8B
  2737 0001:0000FB98  2742 0001:0000FB9C  2743 0001:0000FBA0  2745 0001:0000FBAC
  2746 0001:0000FBB7  2747 0001:0000FBC4  2752 0001:0000FBC8  2753 0001:0000FBCC
  2754 0001:0000FBD5  2755 0001:0000FBE0  2756 0001:0000FBED  2759 0001:0000FBF4
  2760 0001:0000FBF8  2761 0001:0000FC01  2762 0001:0000FC0C  2765 0001:0000FC10
  2766 0001:0000FC11  2767 0001:0000FC1A  2775 0001:0000FC1C  2776 0001:0000FC23
  2777 0001:0000FC30  2779 0001:0000FC43  2780 0001:0000FC5A  2790 0001:0000FC60
  2791 0001:0000FC68  2793 0001:0000FC6D  2795 0001:0000FC8D  2796 0001:0000FC91
  2798 0001:0000FC9F  2800 0001:0000FCB8  2801 0001:0000FCCB  2804 0001:0000FCD2
  2808 0001:0000FCD8  2809 0001:0000FCDC  2812 0001:0000FCE9  2814 0001:0000FCFF
  2798 0001:0000FD02  2815 0001:0000FD05  2817 0001:0000FD17  2818 0001:0000FD1B
  2821 0001:0000FD35  2823 0001:0000FD3B  2825 0001:0000FD43  2829 0001:0000FD53
  2831 0001:0000FD5C  2832 0001:0000FD66  2834 0001:0000FD6F  2835 0001:0000FD7A
  2836 0001:0000FD80  2837 0001:0000FD8C  2838 0001:0000FD93  2839 0001:0000FD99
  2840 0001:0000FDA8  2843 0001:0000FDB0  2844 0001:0000FDB4  2845 0001:0000FDBD
  2846 0001:0000FDC8  2849 0001:0000FDCC  2850 0001:0000FDD0  2851 0001:0000FDDB
  2852 0001:0000FDE4  2853 0001:0000FDEF  2860 0001:0000FDF4  2861 0001:0000FDFA
  2863 0001:0000FDFC  2864 0001:0000FE06  2866 0001:0000FE10  2867 0001:0000FE1A
  2868 0001:0000FE21  2869 0001:0000FE23  2864 0001:0000FE24  2870 0001:0000FE27
  2877 0001:0000FE30  2878 0001:0000FE3F  2879 0001:0000FE49  2881 0001:0000FE59
  2882 0001:0000FE65  2883 0001:0000FE6C  2884 0001:0000FE7F  2879 0001:0000FE83
  2885 0001:0000FE86  2893 0001:0000FE90  2894 0001:0000FE9B  2895 0001:0000FEA5
  2897 0001:0000FEAF  2898 0001:0000FEB9  2899 0001:0000FEC3  2900 0001:0000FED7
  2901 0001:0000FEE7  2902 0001:0000FEF7  2904 0001:0000FF05  2905 0001:0000FF0D
  2906 0001:0000FF17  2895 0001:0000FF18  2907 0001:0000FF1B  2915 0001:0000FF24
  2916 0001:0000FF33  2918 0001:0000FF41  2920 0001:0000FF4F  2921 0001:0000FF59
  2922 0001:0000FF63  2923 0001:0000FF93  2924 0001:0000FFA3  2925 0001:0000FFB3
  2926 0001:0000FFC3  2927 0001:0000FFD3  2928 0001:0000FFE3  2931 0001:0000FFF1
  2932 0001:0000FFF9  2933 0001:00010008  2918 0001:00010009  2934 0001:00010010
  2939 0001:00010018  2941 0001:00010024  2942 0001:00010029  2943 0001:0001002D
  2945 0001:00010034  2948 0001:0001003A  2949 0001:0001003D  2953 0001:00010040
  2954 0001:00010043  2956 0001:00010048  2958 0001:0001004B  2960 0001:00010056
  2964 0001:00010058  2965 0001:0001005B  2967 0001:00010060  2968 0001:00010063
  2970 0001:0001006E  2974 0001:00010070  2975 0001:00010073  2977 0001:00010078
  2978 0001:0001007B  2980 0001:00010086  2984 0001:00010088  2985 0001:0001008B
  2987 0001:00010090  2988 0001:00010093  2990 0001:0001009E  2994 0001:000100A0
  2995 0001:000100A3  2997 0001:000100A8  2998 0001:000100AB  3000 0001:000100B6
  3004 0001:000100B8  3007 0001:000100BE  3009 0001:000100CA  3010 0001:000100D4
  3013 0001:000100E6  3014 0001:000100ED  3017 0001:000100F4  3021 0001:000100F8
  3022 0001:000100FB  3024 0001:00010100  3025 0001:00010103  3027 0001:0001010E
  3031 0001:00010110  3032 0001:00010113  3034 0001:00010118  3037 0001:0001012A
  3039 0001:00010142  3041 0001:00010145  3045 0001:00010148  3046 0001:0001014B
  3047 0001:00010151  3048 0001:00010167  3049 0001:0001016A  3053 0001:0001016C
  3054 0001:0001016F  3056 0001:00010174  3059 0001:00010186  3061 0001:0001019E
  3063 0001:000101A1  3068 0001:000101A4  3069 0001:000101B5  3073 0001:000101B8
  3074 0001:000101BB  3075 0001:000101C3  3076 0001:000101CE  3080 0001:000101D0
  3081 0001:000101D3  3082 0001:000101DB  3083 0001:000101E6  3087 0001:000101E8
  3088 0001:000101EB  3089 0001:000101F3  3090 0001:000101FE  3094 0001:00010200
  3095 0001:00010203  3096 0001:0001020B  3097 0001:00010216  3105 0001:00010218
  3106 0001:0001022F  3107 0001:00010238  3108 0001:00010249  3109 0001:00010253
  3110 0001:0001025A  3114 0001:00010278  3115 0001:00010283  3116 0001:0001028C
  3117 0001:00010294  3118 0001:000102A0  3122 0001:000102B0  3123 0001:000102B6
  3125 0001:000102C1  3126 0001:000102CB  3129 0001:000102D5  3130 0001:000102E2
  3135 0001:000102E8  3136 0001:000102F1  3137 0001:000102FC  3138 0001:00010306
  3139 0001:0001030F  3143 0001:00010314  3144 0001:00010315  3145 0001:0001031C
  3146 0001:00010328  3150 0001:0001032C  3151 0001:0001032D  3152 0001:00010334
  3153 0001:00010340  3158 0001:00010344  3159 0001:00010345  3160 0001:0001034C
  3161 0001:00010359  3165 0001:0001035C  3166 0001:0001035D  3167 0001:00010364
  3168 0001:00010371  3174 0001:00010374  3175 0001:00010393  3177 0001:0001039D
  3178 0001:000103A8  3180 0001:000103B2  3181 0001:000103DB  3183 0001:000103F3
  3184 0001:00010429  3185 0001:00010441  3189 0001:0001046C  3190 0001:00010472
  3191 0001:00010478  3193 0001:00010484  3194 0001:0001048D  3202 0001:00010490
  3203 0001:000104A7  3204 0001:000104B1  3206 0001:000104B6  3207 0001:000104D0
  3208 0001:000104FD  3210 0001:0001050F  3215 0001:00010534  3216 0001:00010551
  3217 0001:00010566  3218 0001:00010587  3219 0001:00010591  3220 0001:0001059F
  3225 0001:000105C4  3227 0001:000105DC  3228 0001:000105E3  3229 0001:000105FE
  3230 0001:00010604  3231 0001:00010611  3233 0001:00010617  3235 0001:00010629
  3236 0001:00010667  3237 0001:0001066D  3240 0001:0001067C  3242 0001:00010686
  3247 0001:000106B0  3249 0001:000106C9  3250 0001:000106D0  3251 0001:000106EB
  3254 0001:000106F1  3255 0001:000106F4  3258 0001:00010703  3260 0001:0001070D
  3261 0001:0001071D  3264 0001:00010731  3265 0001:0001073B  3269 0001:00010749
  3270 0001:00010759  3272 0001:000107B8  3275 0001:000107BE  3276 0001:000107D4
  3280 0001:000107DE  3281 0001:000107EA  3282 0001:000107F6  3285 0001:00010820
  3286 0001:00010824  3287 0001:0001084D  3289 0001:00010850  3290 0001:00010857
  3291 0001:00010865  3292 0001:0001086E  3293 0001:00010875  3295 0001:0001087E
  3296 0001:00010885  3297 0001:0001088E  3300 0001:000108A3  3301 0001:000108AE
  3303 0001:000108BE  3307 0001:000108C4  3308 0001:000108C7  3310 0001:000108E6
  3317 0001:000108E8  3318 0001:00010905  3319 0001:0001090F  3321 0001:00010922
  3322 0001:0001092C  3326 0001:00010954  3327 0001:0001095C  3329 0001:00010965
  3330 0001:00010973  3332 0001:00010992  3333 0001:0001099D  3336 0001:000109AC
  3340 0001:000109B0  3341 0001:000109B6  3343 0001:000109BD  3344 0001:000109C1
  3345 0001:000109C9  3346 0001:000109CE  3348 0001:000109D2  3349 0001:000109D9
  3352 0001:000109E4  3357 0001:000109E8  3359 0001:000109ED  3360 0001:000109F0
  3361 0001:000109F6  3363 0001:000109FB  3368 0001:000109FC  3370 0001:00010A01
  3371 0001:00010A04  3372 0001:00010A0A  3374 0001:00010A0F  3378 0001:00010A10
  3379 0001:00010A16  3381 0001:00010A22  3382 0001:00010A2C  3383 0001:00010A32
  3385 0001:00010A39  3389 0001:00010A3C  3390 0001:00010A42  3392 0001:00010A4E
  3393 0001:00010A58  3394 0001:00010A5E  3396 0001:00010A65  3404 0001:00010A68
  3405 0001:00010A7D  3406 0001:00010A86  3407 0001:00010A89  3411 0001:00010AA4
  3412 0001:00010AA5  3413 0001:00010AAF  3417 0001:00010AB4  3418 0001:00010AB5
  3419 0001:00010ABD  3424 0001:00010AC4  3425 0001:00010AC6  3433 0001:00010AC8
  3434 0001:00010B00  3435 0001:00010B03  3437 0001:00010B0A  3438 0001:00010B3D
  3442 0001:00010BAC  3443 0001:00010BE9  3444 0001:00010BEC  3445 0001:00010C1B
  3448 0001:00010C7C  3449 0001:00010C8E  3450 0001:00010C97  3451 0001:00010C9B
  3459 0001:00010CB8  3460 0001:00010CBB  3461 0001:00010CC7  3463 0001:00010CCB
  3464 0001:00010CD9  3465 0001:00010CE9  3466 0001:00010CEE  3468 0001:00010CF3
  3472 0001:00010CF8  3473 0001:00010CFC  3475 0001:00010CFE  3476 0001:00010D07
  3477 0001:00010D0E  3479 0001:00010D13  3480 0001:00010D1F  3481 0001:00010D23
  3490 0001:00010D28  3491 0001:00010D49  3498 0001:00010D65  3499 0001:00010D69
  3501 0001:00010D82  3502 0001:00010D91  3503 0001:00010D9F  3505 0001:00010DA1
  3506 0001:00010DA8  3507 0001:00010DAF  3508 0001:00010DBA  3509 0001:00010DC5
  3523 0001:00010DF1  3525 0001:00010DF5  3526 0001:00010E00  3527 0001:00010E0B
  3530 0001:00010E0E  3531 0001:00010E16  3533 0001:00010E2F  3535 0001:00010E37
  3536 0001:00010E42  3538 0001:00010E59  3539 0001:00010E62  3542 0001:00010E72
  3548 0001:00010ED4  3549 0001:00010EF7  3552 0001:00010EF9  3554 0001:00010F28
  3550 0001:00010F29  3556 0001:00010F2E  3557 0001:00010F33  3560 0001:00010F35
  3566 0001:00010F60  3567 0001:00010F83  3570 0001:00010F85  3572 0001:00010FB4
  3568 0001:00010FB5  3574 0001:00010FBA  3575 0001:00010FBF  3578 0001:00010FC1
  3584 0001:00010FEC  3585 0001:0001100F  3588 0001:00011011  3590 0001:00011040
  3586 0001:00011041  3592 0001:00011046  3593 0001:0001104B  3596 0001:0001104D
  3602 0001:00011078  3603 0001:0001109B  3606 0001:0001109D  3608 0001:000110CC
  3604 0001:000110CD  3610 0001:000110D2  3611 0001:000110D7  3614 0001:000110D9
  3620 0001:00011104  3621 0001:00011127  3624 0001:00011129  3626 0001:00011158
  3622 0001:00011159  3628 0001:0001115E  3629 0001:00011163  3632 0001:00011165
  3640 0001:00011284  3641 0001:0001128A  3642 0001:0001129B  3651 0001:000112A0
  3652 0001:000112AA  3659 0001:000112D0  3660 0001:000112D6  3661 0001:000112E7
  3667 0001:0001131C  3668 0001:00011322  3669 0001:00011333  3676 0001:00011384
  3677 0001:0001138A  3678 0001:0001139B  3685 0001:000113E8  3686 0001:000113EE
  3687 0001:000113FF  3719 0001:00011404  3720 0001:0001140E  3721 0001:00011417
  3723 0001:00011426  3724 0001:00011428  3725 0001:00011437  3727 0001:00011439
  3731 0001:00011440  3732 0001:00011446  3733 0001:0001144C

Line numbers for CPort(omcom.bpl\cport\source\CPort.pas) segment .itext

  3737 0002:00000158

Line numbers for MiTeC_ToolHelp32(MiTeC_ToolHelp32.pas) segment .text

   438 0001:00000000

Line numbers for IpRtrMib(objects.bpl\IPHlpApi\Pas\IpRtrMib.pas) segment .text

  1062 0001:00000000

Line numbers for IpExport(objects.bpl\IPHlpApi\Pas\IpExport.pas) segment .text

   343 0001:00000000

Line numbers for IpTypes(objects.bpl\IPHlpApi\Pas\IpTypes.pas) segment .text

   228 0001:00000000

Line numbers for IpHlpApi(objects.bpl\IPHlpApi\Pas\IpHlpApi.pas) segment .text

   752 0001:00000000

Line numbers for BisComPort(omcom.bpl\BisComPort.pas) segment .text

    84 0001:00011CA0    85 0001:00011CB7    86 0001:00011CC0    87 0001:00011CD3
    88 0001:00011CDC    89 0001:00011CE6    90 0001:00011CF0    91 0001:00011CFD
    92 0001:00011D10    93 0001:00011D20    95 0001:00011D30    96 0001:00011D3D
    97 0001:00011D4A    98 0001:00011D57    99 0001:00011D64   100 0001:00011D71
   101 0001:00011D7E   102 0001:00011D8B   103 0001:00011D98   104 0001:00011DA5
   105 0001:00011DB2   108 0001:00011FBC   109 0001:00011FC7   110 0001:00011FCF
   111 0001:00011FDB   114 0001:00011FEC   115 0001:00011FED   116 0001:00011FF4
   117 0001:00012000   120 0001:00012004   121 0001:00012020   122 0001:00012048
   125 0001:0001206C   126 0001:00012088   127 0001:000120B0   130 0001:000120D4
   131 0001:000120DB   132 0001:000120EB   133 0001:000120F1   134 0001:000120FB
   135 0001:00012101   136 0001:0001210B   137 0001:00012111   138 0001:0001211B
   139 0001:00012121   140 0001:0001212B   141 0001:00012131   142 0001:0001213B
   143 0001:00012141   144 0001:0001214B   145 0001:00012151   146 0001:0001215B
   147 0001:00012161   148 0001:0001216B   151 0001:00012174   152 0001:0001217E
   153 0001:0001218C   156 0001:000121B4   158 0001:000121C4   161 0001:000121CC
   162 0001:000121D6   163 0001:000121E4   166 0001:0001220C   168 0001:0001221C
   172 0001:00012224   173 0001:0001222B   177 0001:0001222C   178 0001:00012236
   181 0001:00012238   182 0001:0001223E   183 0001:0001224B   187 0001:00012250
   188 0001:00012257   192 0001:00012258   193 0001:0001225F   197 0001:00012260
   198 0001:00012267   202 0001:00012268   203 0001:00012270   207 0001:00012274
   208 0001:0001227C   212 0001:00012280   213 0001:0001228B   217 0001:0001228C
   218 0001:00012294   222 0001:00012298   223 0001:000122A0

Line numbers for BisComPort(omcom.bpl\BisComPort.pas) segment .itext

   225 0002:000003C0

Line numbers for BisBarcodeScanner(omcom.bpl\BisBarcodeScanner.pas) segment .text

    34 0001:00012438    35 0001:0001244E    36 0001:00012457    37 0001:00012464
    38 0001:0001246B    39 0001:00012475    42 0001:00012494    43 0001:0001249F
    44 0001:000124AB    47 0001:000124BC    48 0001:000124BD    49 0001:000124C4
    50 0001:000124D0    55 0001:000124D4    56 0001:000124EE    57 0001:000124F9
    58 0001:0001251A    60 0001:0001252A    61 0001:00012551    62 0001:0001255E
    65 0001:00012569    68 0001:00012594    69 0001:00012597    70 0001:0001259E
    71 0001:000125A9

Line numbers for BisBarcodeScanner(omcom.bpl\BisBarcodeScanner.pas) segment .itext

    74 0002:000003C8

Line numbers for XAsync(XAsync.pas) segment .text

    76 0001:00012750    77 0001:0001276A    78 0001:00012775    79 0001:00012779
    80 0001:0001277E    81 0001:00012782    84 0001:000127A4    85 0001:000127A5
    86 0001:000127A8    87 0001:000127BE    93 0001:000127C0    94 0001:000127C6
    96 0001:000127C9    97 0001:000127D4    98 0001:000127EB    99 0001:000127EF
   100 0001:000127F5   102 0001:000127FB   103 0001:000127FE   105 0001:00012805
   106 0001:0001280E   108 0001:00012815   109 0001:0001281B   110 0001:0001282A
   112 0001:00012831   113 0001:00012835   115 0001:00012843   119 0001:00012848
   120 0001:0001284B   121 0001:00012859   122 0001:00012869   127 0001:0001286C
   128 0001:0001287A   129 0001:0001287F   132 0001:00012880   133 0001:00012886
   134 0001:00012894   136 0001:000128B9   138 0001:000128C0   141 0001:000128C8
   142 0001:000128CB   143 0001:000128E2   146 0001:000128E4   147 0001:000128FA
   148 0001:00012926   153 0001:00012948   154 0001:00012953   155 0001:00012960
   156 0001:0001296E   157 0001:00012971   158 0001:00012976   159 0001:00012985
   161 0001:00012988   162 0001:0001298D   163 0001:00012992   164 0001:0001299A
   165 0001:000129A4   168 0001:000129BB   169 0001:000129C3   171 0001:000129CD
   175 0001:000129DC   176 0001:000129E5   177 0001:000129EC   178 0001:000129EF
   179 0001:000129FC   180 0001:00012A02   181 0001:00012A10   183 0001:00012A25
   185 0001:00012A35   192 0001:00012A40   193 0001:00012A4D   194 0001:00012A54
   195 0001:00012A56   197 0001:00012A58   198 0001:00012A71   199 0001:00012A75
   200 0001:00012A78   201 0001:00012A80   202 0001:00012A97   204 0001:00012AA4
   205 0001:00012AAA   207 0001:00012AC9   208 0001:00012AD0   213 0001:00012ADC
   214 0001:00012AEC   215 0001:00012AF3   216 0001:00012AF5   218 0001:00012AF7
   219 0001:00012AFA   220 0001:00012B04   221 0001:00012B1B   223 0001:00012B30
   224 0001:00012B37   229 0001:00012B44   230 0001:00012B55   231 0001:00012B5C
   232 0001:00012B5E   234 0001:00012B60   235 0001:00012B75   236 0001:00012B7F
   238 0001:00012B97   239 0001:00012B9E   242 0001:00012BAC   243 0001:00012BB4
   244 0001:00012BBB   246 0001:00012BBD   247 0001:00012BC4   250 0001:00012BCA
   251 0001:00012BD6   253 0001:00012BE7   254 0001:00012BEF   255 0001:00012BF1
   248 0001:00012BF3   259 0001:00012BF9   260 0001:00012BFD   262 0001:00012C06
   263 0001:00012C0D   269 0001:00012C18   270 0001:00012C22   271 0001:00012C25
   272 0001:00012C2E   273 0001:00012C4E   274 0001:00012C5A   275 0001:00012C70
   276 0001:00012C73   277 0001:00012C7D   283 0001:00012C88   284 0001:00012C95
   285 0001:00012C98   286 0001:00012CA1   287 0001:00012CB3   288 0001:00012CBF
   289 0001:00012CD5   290 0001:00012CD8   291 0001:00012CE2   297 0001:00012CEC
   298 0001:00012CF6   299 0001:00012CF9   300 0001:00012D04   301 0001:00012D0D
   302 0001:00012D2D   303 0001:00012D39   304 0001:00012D4F   305 0001:00012D52
   306 0001:00012D5C   312 0001:00012D68   313 0001:00012D75   314 0001:00012D78
   315 0001:00012D81   316 0001:00012D93   317 0001:00012D9F   318 0001:00012DB5
   319 0001:00012DB8   320 0001:00012DC2   324 0001:00012DCC   325 0001:00012DD9
   326 0001:00012DDB   328 0001:00012DE6   329 0001:00012DE9   330 0001:00012DED
   332 0001:00012DFA

Line numbers for XAsync(XAsync.pas) segment .itext

   334 0002:000003D0

Line numbers for XComErr(XComErr.pas) segment .text

    74 0001:00012F4C    75 0001:00012F61    76 0001:00012F6A    77 0001:00012F70
    80 0001:00012F90    85 0001:00012F96    88 0001:00012FAA    97 0001:00012FB0
    98 0001:00012FD3    99 0001:00012FDA   105 0001:00013027

Line numbers for XComErr(XComErr.pas) segment .itext

   107 0002:000003D8

Line numbers for XComDrv(omcom.bpl\ouxcomm\source\XComDrv.pas) segment .text

   596 0001:00014AB4   597 0001:00014ABD   598 0001:00014AD2   601 0001:00014AD8
   602 0001:00014AE1   603 0001:00014B09   607 0001:00014B14   608 0001:00014B16
   612 0001:00014B18   613 0001:00014B35   614 0001:00014B3D   615 0001:00014B45
   616 0001:00014B66   619 0001:00014B8C   620 0001:00014B92   621 0001:00014BA0
   624 0001:00014BA4   625 0001:00014BC2   626 0001:00014BC9   625 0001:00014BD8
   627 0001:00014BDD   628 0001:00014C00   631 0001:00014C28   632 0001:00014C2E
   633 0001:00014C3C   636 0001:00014C40   637 0001:00014C5D   638 0001:00014C64
   637 0001:00014C8B   639 0001:00014C90   640 0001:00014CB3   643 0001:00014CE0
   644 0001:00014CE6   645 0001:00014CF4   648 0001:00014CF8   649 0001:00014D15
   650 0001:00014D1C   649 0001:00014D43   651 0001:00014D48   652 0001:00014D6B
   655 0001:00014D98   656 0001:00014D9E   657 0001:00014DA3   658 0001:00014DB8
   659 0001:00014DBF   663 0001:00014DC4   664 0001:00014DE5   665 0001:00014DEC
   664 0001:00014E0A   666 0001:00014E0F   667 0001:00014E14   668 0001:00014E18
   669 0001:00014E1C   671 0001:00014E23   672 0001:00014E2E   673 0001:00014E31
   670 0001:00014E33   674 0001:00014E42   675 0001:00014E69   679 0001:00014E94
   680 0001:00014E97   681 0001:00014EA5   682 0001:00014EAB   685 0001:00014EB0
   686 0001:00014EB6   687 0001:00014EBD   688 0001:00014ECA   707 0001:00014F3C
   708 0001:00014F51   709 0001:00014F5C   710 0001:00014F5F   711 0001:00014F6F
   712 0001:00014F80   713 0001:00014F87   716 0001:00014FA4   717 0001:00014FAF
   718 0001:00014FB8   719 0001:00014FBF   720 0001:00014FCB   727 0001:00014FDC
   728 0001:00014FE3   729 0001:00014FF3   730 0001:00015006   731 0001:0001500C
   733 0001:00015010   734 0001:00015025   735 0001:00015035   737 0001:00015038
   739 0001:00015054   740 0001:0001505D   741 0001:0001506C   745 0001:00015073
   746 0001:00015075   747 0001:00015083   748 0001:0001508D   749 0001:00015096
   753 0001:0001509C   754 0001:000150A8   755 0001:000150B4   760 0001:000150B8
   761 0001:000150CA   762 0001:000150D3   763 0001:000150D8   764 0001:000150E2
   765 0001:000150EC   768 0001:00015110   769 0001:0001511B   770 0001:00015124
   771 0001:00015130   775 0001:00015140   780 0001:00015144   781 0001:00015153
   784 0001:00015154   785 0001:0001515A   787 0001:00015161   788 0001:0001516C
   789 0001:00015179   791 0001:0001517C   794 0001:00015180   795 0001:00015194
   796 0001:0001519B   797 0001:000151B9   802 0001:000151DC   803 0001:000151F1
   804 0001:000151FA   805 0001:000151FD   806 0001:00015204   807 0001:00015209
   808 0001:0001520E   811 0001:0001522C   812 0001:0001522F   814 0001:00015234
   815 0001:00015237   816 0001:0001524F   818 0001:00015257   821 0001:0001525C
   822 0001:0001525F   824 0001:00015264   825 0001:00015267   826 0001:0001527F
   828 0001:00015287   831 0001:0001528C   832 0001:0001528F   834 0001:00015294
   835 0001:00015297   836 0001:000152AF   838 0001:000152B7   842 0001:000152BC
   843 0001:000152C2   844 0001:000152DF   846 0001:000152E9   847 0001:000152EC
   851 0001:000152F4   852 0001:000152FA   853 0001:00015317   855 0001:0001531E
   856 0001:00015321   860 0001:00015328   861 0001:0001532E   862 0001:0001534B
   864 0001:00015352   865 0001:00015355   868 0001:0001535C   869 0001:00015363
   871 0001:00015374   872 0001:00015380   873 0001:0001538A   874 0001:00015394
   875 0001:000153AC   877 0001:000153B6   878 0001:000153BF   883 0001:000153C4
   884 0001:000153D9   885 0001:000153E2   886 0001:000153E5   887 0001:000153EB
   888 0001:000153F1   889 0001:000153F7   890 0001:000153FD   899 0001:00015418
   900 0001:00015421   901 0001:0001542B   904 0001:00015464   906 0001:00015468
   907 0001:00015472   908 0001:0001547B   909 0001:00015481   910 0001:00015485
   911 0001:0001548C   912 0001:00015497   913 0001:00015499   914 0001:000154A2
   916 0001:000154A8   917 0001:000154AC   919 0001:000154B0   921 0001:000154B6
   922 0001:000154BA   925 0001:000154BC   926 0001:000154D8   927 0001:000154E0
   931 0001:000154E8   932 0001:000154F2   933 0001:000154F6   934 0001:00015513
   935 0001:0001551C   936 0001:00015523   937 0001:00015529   938 0001:00015530
   939 0001:00015537   940 0001:0001553D   942 0001:00015544   943 0001:0001554D
   944 0001:00015553   946 0001:00015557   949 0001:00015560   950 0001:00015567
   952 0001:00015578   953 0001:00015582   954 0001:0001558A   955 0001:00015597
   956 0001:000155A7   957 0001:000155BF   959 0001:000155C9   960 0001:000155D2
   965 0001:000155D8   966 0001:000155ED   967 0001:000155F6   968 0001:000155F9
   969 0001:000155FD   970 0001:00015601   971 0001:00015605   972 0001:00015609
   973 0001:0001560D   977 0001:00015628   978 0001:0001562C   979 0001:0001562E
   980 0001:0001564E   982 0001:00015653   983 0001:00015656   985 0001:0001565A
   987 0001:0001565F   988 0001:00015662   990 0001:00015666   992 0001:0001566B
   993 0001:0001566E   995 0001:00015672   997 0001:00015677   998 0001:0001567A
  1000 0001:0001567E  1002 0001:00015683  1003 0001:00015686  1006 0001:00015688
  1007 0001:000156A4  1008 0001:000156AC  1012 0001:000156B0  1013 0001:000156BA
  1014 0001:000156BC  1015 0001:000156D9  1016 0001:000156F9  1017 0001:00015700
  1018 0001:00015707  1019 0001:0001570E  1020 0001:00015715  1022 0001:0001571C
  1023 0001:0001573C  1024 0001:00015742  1025 0001:00015748  1026 0001:0001574E
  1027 0001:00015754  1029 0001:00015758  1032 0001:00015764  1033 0001:0001576B
  1035 0001:0001577C  1036 0001:0001578A  1037 0001:00015799  1038 0001:000157A8
  1039 0001:000157B7  1040 0001:000157C6  1041 0001:000157DE  1043 0001:000157E8
  1044 0001:000157F1  1049 0001:000157F8  1050 0001:0001580D  1051 0001:00015816
  1052 0001:00015819  1053 0001:00015820  1054 0001:00015825  1055 0001:0001582C
  1056 0001:00015831  1057 0001:00015838  1061 0001:00015854  1062 0001:00015858
  1063 0001:0001585A  1064 0001:0001587A  1066 0001:0001587F  1067 0001:00015882
  1069 0001:00015886  1071 0001:0001588B  1072 0001:0001588E  1074 0001:00015892
  1076 0001:00015897  1077 0001:0001589A  1079 0001:0001589E  1081 0001:000158A3
  1082 0001:000158A6  1084 0001:000158AA  1086 0001:000158AF  1087 0001:000158B2
  1090 0001:000158B4  1091 0001:000158D0  1092 0001:000158D8  1096 0001:000158DC
  1097 0001:000158E6  1098 0001:000158E8  1099 0001:00015905  1100 0001:00015925
  1101 0001:0001592A  1102 0001:00015930  1103 0001:00015936  1104 0001:0001593C
  1106 0001:00015942  1107 0001:00015962  1108 0001:00015967  1109 0001:0001596C
  1110 0001:00015971  1111 0001:00015976  1113 0001:00015979  1116 0001:00015984
  1117 0001:0001598B  1119 0001:0001599C  1120 0001:000159AA  1121 0001:000159B9
  1122 0001:000159C8  1123 0001:000159D7  1124 0001:000159E6  1125 0001:000159FE
  1127 0001:00015A08  1128 0001:00015A11  1134 0001:00015A18  1135 0001:00015A2A
  1136 0001:00015A33  1137 0001:00015A3A  1138 0001:00015A47  1139 0001:00015A4E
  1140 0001:00015A55  1141 0001:00015A5F  1142 0001:00015A64  1143 0001:00015A75
  1144 0001:00015A86  1145 0001:00015A97  1146 0001:00015AA8  1147 0001:00015AB0
  1148 0001:00015AB8  1149 0001:00015AC3  1150 0001:00015ACA  1151 0001:00015AD4
  1152 0001:00015ADE  1153 0001:00015AE8  1154 0001:00015AEC  1155 0001:00015AFE
  1156 0001:00015B06  1159 0001:00015B38  1160 0001:00015B43  1165 0001:00015B4E
  1166 0001:00015B59  1167 0001:00015B62  1169 0001:00015B69  1170 0001:00015B71
  1171 0001:00015B79  1172 0001:00015B81  1173 0001:00015B89  1174 0001:00015B90
  1175 0001:00015B9B  1176 0001:00015BA7  1179 0001:00015BB8  1180 0001:00015BD8
  1181 0001:00015BF0  1182 0001:00015BFB  1186 0001:00015C1C  1187 0001:00015C23
  1188 0001:00015C2A  1192 0001:00015C2C  1193 0001:00015C33  1194 0001:00015C3A
  1198 0001:00015C3C  1199 0001:00015C43  1200 0001:00015C4A  1204 0001:00015C4C
  1205 0001:00015C53  1206 0001:00015C5A  1209 0001:00015C5C  1210 0001:00015C5F
  1212 0001:00015C64  1213 0001:00015C67  1215 0001:00015C6C  1216 0001:00015C76
  1219 0001:00015C91  1222 0001:00015C94  1223 0001:00015C97  1225 0001:00015CA2
  1226 0001:00015CA5  1228 0001:00015CC0  1231 0001:00015CC4  1232 0001:00015CC7
  1234 0001:00015CCC  1235 0001:00015CCF  1237 0001:00015CD4  1238 0001:00015CDD
  1241 0001:00015CF8  1244 0001:00015CFC  1245 0001:00015D03  1247 0001:00015D15
  1248 0001:00015D1C  1250 0001:00015D37  1253 0001:00015D3C  1255 0001:00015D43
  1257 0001:00015D49  1258 0001:00015D4D  1260 0001:00015D51  1262 0001:00015D5D
  1263 0001:00015D63  1264 0001:00015D69  1267 0001:00015D6D  1269 0001:00015D7F
  1270 0001:00015D86  1272 0001:00015DA1  1275 0001:00015DA4  1276 0001:00015DAB
  1278 0001:00015DBD  1279 0001:00015DC4  1281 0001:00015DDF  1284 0001:00015DE4
  1285 0001:00015DEA  1287 0001:00015DFF  1288 0001:00015E09  1289 0001:00015E13
  1297 0001:00015E1D  1298 0001:00015E29  1299 0001:00015E35  1302 0001:00015E41
  1303 0001:00015E4B  1306 0001:00015E55  1307 0001:00015E5F  1309 0001:00015E69
  1310 0001:00015E6D  1313 0001:00015E74  1315 0001:00015E83  1316 0001:00015E8D
  1317 0001:00015E99  1318 0001:00015EA5  1319 0001:00015EB1  1320 0001:00015EBB
  1321 0001:00015EC7  1322 0001:00015ED3  1323 0001:00015EDF  1324 0001:00015EE9
  1325 0001:00015EF5  1326 0001:00015F01  1327 0001:00015F07  1328 0001:00015F13
  1329 0001:00015F1D  1330 0001:00015F29  1331 0001:00015F35  1332 0001:00015F41
  1333 0001:00015F4D  1334 0001:00015F59  1336 0001:00015F65  1339 0001:00015F80
  1340 0001:00015F87  1342 0001:00015F92  1343 0001:00015F98  1344 0001:00015F9E
  1346 0001:00015FA2  1348 0001:00015FB1  1349 0001:00015FB8  1350 0001:00015FCE
  1352 0001:00015FDE  1358 0001:00015FE4  1359 0001:00015FE8  1361 0001:00015FF9
  1362 0001:00016000  1363 0001:00016009  1364 0001:00016010  1366 0001:00016014
  1367 0001:00016017  1368 0001:00016019  1363 0001:0001601D  1370 0001:00016022
  1371 0001:00016025  1375 0001:00016028  1376 0001:0001602E  1377 0001:00016047
  1378 0001:0001604D  1379 0001:00016050  1380 0001:00016053  1384 0001:00016058
  1385 0001:0001605E  1386 0001:00016077  1387 0001:00016082  1388 0001:00016086
  1392 0001:0001608C  1393 0001:00016092  1394 0001:000160AB  1395 0001:000160B6
  1396 0001:000160BA  1400 0001:000160C0  1401 0001:000160C6  1402 0001:000160DF
  1403 0001:000160EA  1404 0001:000160EE  1416 0001:000160F4  1417 0001:000160FA
  1418 0001:00016113  1419 0001:0001611E  1420 0001:00016122  1425 0001:00016128
  1426 0001:00016133  1430 0001:00016134  1431 0001:0001613F  1434 0001:00016140
  1435 0001:00016146  1436 0001:00016153  1440 0001:00016158  1441 0001:00016161
  1444 0001:00016164  1446 0001:00016169  1445 0001:00016179  1447 0001:00016185
  1451 0001:00016188  1452 0001:000161A8  1454 0001:000161AF  1455 0001:000161B6
  1456 0001:000161BC  1457 0001:000161C0  1458 0001:000161C6  1459 0001:000161CA
  1460 0001:000161D0  1462 0001:000161D4  1463 0001:000161DA  1464 0001:000161DE
  1465 0001:000161E4  1466 0001:000161EB  1467 0001:000161F1  1469 0001:000161F8
  1470 0001:000161FE  1471 0001:00016205  1472 0001:0001620B  1474 0001:00016212
  1475 0001:00016220  1476 0001:00016226  1477 0001:0001622E  1478 0001:0001623A
  1479 0001:00016240  1480 0001:00016246  1481 0001:00016250  1482 0001:0001625A
  1483 0001:00016264  1484 0001:0001626E  1486 0001:00016278  1487 0001:0001627E
  1488 0001:00016282  1489 0001:00016288  1490 0001:0001628C  1491 0001:00016292
  1492 0001:00016299  1493 0001:0001629F  1494 0001:000162A6  1495 0001:000162AC
  1496 0001:000162B3  1497 0001:000162B9  1498 0001:000162C0  1499 0001:000162C6
  1501 0001:000162CA  1502 0001:000162DC  1503 0001:000162FA  1506 0001:00016320
  1507 0001:00016337  1508 0001:00016342  1509 0001:00016360  1510 0001:0001637E
  1514 0001:000163A4  1515 0001:000163C0  1517 0001:000163C3  1518 0001:000163C9
  1519 0001:000163CF  1520 0001:000163D5  1521 0001:000163DB  1523 0001:000163E1
  1524 0001:000163F6  1525 0001:00016414  1528 0001:00016438  1529 0001:00016455
  1530 0001:00016461  1532 0001:00016465  1533 0001:0001647F  1535 0001:00016484
  1536 0001:00016491  1537 0001:00016499  1538 0001:000164A0  1546 0001:000164D3
  1547 0001:000164DC  1549 0001:000164E0  1550 0001:00016517  1555 0001:00016519
  1557 0001:0001652D  1558 0001:00016534  1559 0001:0001653B  1560 0001:00016542
  1563 0001:00016580  1564 0001:00016596  1565 0001:000165A1  1566 0001:000165BD
  1567 0001:000165C4  1570 0001:000165E8  1571 0001:000165FF  1572 0001:00016601
  1573 0001:00016628  1575 0001:00016631  1576 0001:00016638  1578 0001:0001665F
  1581 0001:00016684  1582 0001:0001669A  1587 0001:000166A5  1588 0001:000166B0
  1589 0001:000166B9  1590 0001:000166C0  1591 0001:000166C8  1592 0001:000166D0
  1593 0001:000166DA  1594 0001:000166F4  1606 0001:00016718  1607 0001:0001671F
  1610 0001:00016720  1611 0001:00016723  1612 0001:0001673D  1615 0001:00016740
  1616 0001:00016746  1618 0001:00016751  1619 0001:0001675D  1621 0001:0001676C
  1624 0001:00016770  1625 0001:00016787  1626 0001:00016789  1628 0001:00016794
  1629 0001:000167A3  1630 0001:000167B6  1631 0001:000167D0  1634 0001:000167F4
  1635 0001:0001680B  1636 0001:0001680D  1637 0001:00016818  1638 0001:0001682B
  1639 0001:00016845  1642 0001:0001686C  1643 0001:0001686F  1644 0001:0001687A
  1645 0001:0001688B  1646 0001:0001688D  1651 0001:00016890  1652 0001:000168AD
  1654 0001:000168B8  1655 0001:000168CD  1658 0001:000168D3  1659 0001:000168DA
  1661 0001:000168F4  1665 0001:00016920  1666 0001:0001693D  1667 0001:0001693F
  1669 0001:0001694E  1670 0001:0001695B  1671 0001:000169E9  1672 0001:000169F0
  1673 0001:000169F7  1674 0001:000169FE  1675 0001:00016A05  1676 0001:00016A0C
  1677 0001:00016A13  1678 0001:00016A1A  1679 0001:00016A21  1680 0001:00016A28
  1681 0001:00016A2F  1682 0001:00016A36  1683 0001:00016A3D  1684 0001:00016A44
  1686 0001:00016A4B  1687 0001:00016A65  1693 0001:00016A8C  1694 0001:00016AAC
  1695 0001:00016AAE  1697 0001:00016AB9  1698 0001:00016ACA  1699 0001:00016AD3
  1700 0001:00016AD8  1702 0001:00016ADD  1703 0001:00016AF7  1709 0001:00016B20
  1710 0001:00016B42  1711 0001:00016B51  1712 0001:00016B61  1713 0001:00016B71
  1714 0001:00016B7C  1715 0001:00016B90  1716 0001:00016BAA  1717 0001:00016BB3
  1718 0001:00016BB6  1724 0001:00016BDC  1725 0001:00016BFE  1726 0001:00016C0D
  1727 0001:00016C1D  1728 0001:00016C2D  1729 0001:00016C38  1730 0001:00016C4C
  1731 0001:00016C66  1732 0001:00016C6F  1733 0001:00016C72  1738 0001:00016C98
  1739 0001:00016CBE  1741 0001:00016CC3  1743 0001:00016CCF  1744 0001:00016CE9
  1747 0001:00016CEE  1749 0001:00016CFA  1750 0001:00016D14  1753 0001:00016D19
  1755 0001:00016D23  1756 0001:00016D26  1757 0001:00016D2E  1759 0001:00016D38
  1760 0001:00016D51  1762 0001:00016D59  1763 0001:00016D61  1764 0001:00016D73
  1765 0001:00016D82  1767 0001:00016D86  1768 0001:00016D8F  1769 0001:00016D92
  1770 0001:00016D95  1771 0001:00016D98  1772 0001:00016DA2  1773 0001:00016DB0
  1775 0001:00016DDC  1779 0001:00016DEE  1781 0001:00016DF7  1782 0001:00016DFE
  1783 0001:00016E06  1757 0001:00016E11  1785 0001:00016E1B  1788 0001:00016E4C
  1789 0001:00016E4D  1790 0001:00016E5A  1793 0001:00016E5C  1794 0001:00016E63
  1795 0001:00016E77  1798 0001:00016E7C  1799 0001:00016E82  1800 0001:00016EA9
  1805 0001:00016EAC  1806 0001:00016ED2  1807 0001:00016ED7  1809 0001:00016EE3
  1810 0001:00016EFD  1813 0001:00016F02  1815 0001:00016F0E  1816 0001:00016F28
  1819 0001:00016F2D  1821 0001:00016F37  1822 0001:00016F3A  1823 0001:00016F42
  1825 0001:00016F4C  1826 0001:00016F58  1828 0001:00016F5C  1829 0001:00016F64
  1830 0001:00016F76  1831 0001:00016F7F  1832 0001:00016F82  1833 0001:00016F85
  1834 0001:00016F88  1835 0001:00016F92  1836 0001:00016FA0  1837 0001:00016FAE
  1839 0001:00016FC7  1843 0001:00016FD9  1844 0001:00016FE0  1845 0001:00016FE8
  1823 0001:00016FF3  1847 0001:00016FFD  1850 0001:0001702C  1851 0001:0001702D
  1852 0001:0001703A  1855 0001:0001703C  1856 0001:00017042  1857 0001:00017056
  1861 0001:0001705C  1862 0001:00017062  1863 0001:00017074  1864 0001:0001708F
  1865 0001:00017098  1866 0001:0001709D  1869 0001:000170A0  1870 0001:000170A9
  1871 0001:000170C0  1873 0001:000170C4  1874 0001:000170CD  1876 0001:000170E4
  1880 0001:000170E8  1881 0001:000170F3  1882 0001:00017108  1883 0001:00017119
  1882 0001:0001713D  1884 0001:00017140  1885 0001:0001714F  1886 0001:00017160
  1885 0001:00017184  1887 0001:00017187  1890 0001:00017190  1891 0001:00017199
  1892 0001:000171BB  1893 0001:000171DF  1894 0001:000171EF  1897 0001:000171F8
  1898 0001:000171F9  1899 0001:00017215  1903 0001:00017218  1904 0001:00017231
  1905 0001:0001723C  1906 0001:0001724F  1907 0001:00017269  1911 0001:0001728C
  1912 0001:000172A5  1913 0001:000172B0  1914 0001:000172C3  1915 0001:000172DD
  1919 0001:00017300  1920 0001:00017319  1921 0001:00017324  1922 0001:00017337
  1923 0001:00017351  1927 0001:00017374  1928 0001:0001738D  1929 0001:00017398
  1930 0001:000173AB  1931 0001:000173C5  1939 0001:000173E8  1940 0001:00017416
  1941 0001:0001741D  1943 0001:00017429  1944 0001:00017443  1946 0001:00017448
  1948 0001:00017454  1949 0001:0001746E  1951 0001:00017473  1952 0001:0001747D
  1953 0001:00017487  1954 0001:00017495  1955 0001:0001749D  1956 0001:000174A4
  1958 0001:000174A9  1960 0001:000174C0  1961 0001:000174D6  1962 0001:000174E8
  1964 0001:000174F5  1965 0001:000174FB  1966 0001:000174FD  1961 0001:00017503
  1967 0001:00017506  1968 0001:00017509  1970 0001:0001751D  1971 0001:00017522
  1972 0001:00017527  1973 0001:00017535  1975 0001:00017568  1977 0001:0001757A
  1980 0001:000175A8  1981 0001:000175B4  1983 0001:000175BC  1984 0001:000175C5
  1985 0001:000175DF  1987 0001:000175E3  1988 0001:000175EC  1990 0001:000175FB
  1991 0001:00017605  1992 0001:00017619  1995 0001:00017620  1996 0001:0001763A
  1997 0001:0001763C  1998 0001:0001764E  1999 0001:00017659  2001 0001:0001766D
  2002 0001:00017687  2006 0001:000176B0  2007 0001:000176B7  2010 0001:000176B8
  2011 0001:000176D9  2012 0001:000176DB  2014 0001:000176E6  2015 0001:000176F1
  2018 0001:0001770D  2019 0001:0001771E  2022 0001:0001772E  2023 0001:00017748
  2026 0001:0001777C  2027 0001:0001779D  2028 0001:0001779F  2030 0001:000177AA
  2031 0001:000177B5  2032 0001:000177D1  2034 0001:000177DC  2035 0001:000177FA
  2038 0001:0001780A  2039 0001:00017824  2042 0001:00017854  2043 0001:00017875
  2044 0001:00017877  2046 0001:00017882  2047 0001:0001788D  2049 0001:000178A9
  2051 0001:000178BC  2052 0001:000178D6  2055 0001:00017904  2056 0001:00017925
  2057 0001:00017927  2059 0001:00017932  2060 0001:0001793D  2062 0001:00017959
  2064 0001:00017969  2065 0001:00017983  2068 0001:000179B0  2069 0001:000179CA
  2070 0001:000179CC  2071 0001:000179D7  2073 0001:000179E8  2074 0001:00017A02
  2079 0001:00017A2C  2080 0001:00017A32  2081 0001:00017A3F  2083 0001:00017A54
  2084 0001:00017A69  2085 0001:00017A74  2081 0001:00017A75  2086 0001:00017A78
  2087 0001:00017A84  2088 0001:00017A8C  2089 0001:00017A93  2090 0001:00017AA8
  2095 0001:00017AB4  2096 0001:00017AC6  2097 0001:00017ACF  2098 0001:00017AD4
  2099 0001:00017ADC  2100 0001:00017AE3  2101 0001:00017AF0  2102 0001:00017AFD
  2103 0001:00017B04  2104 0001:00017B08  2107 0001:00017B48  2108 0001:00017B4F
  2110 0001:00017B60  2111 0001:00017B6D  2112 0001:00017B78  2113 0001:00017B7E
  2114 0001:00017B84  2115 0001:00017B8F  2116 0001:00017B95  2119 0001:00017B9E
  2120 0001:00017BA7  2124 0001:00017BAC  2127 0001:00017C43  2129 0001:00017C46
  2140 0001:00017CD0  2141 0001:00017CD6  2142 0001:00017CE1  2143 0001:00017CE8
  2144 0001:00017CEC  2145 0001:00017CFB  2146 0001:00017D0B  2148 0001:00017D1B
  2150 0001:00017D27  2155 0001:00017D40  2156 0001:00017D60  2157 0001:00017D63
  2159 0001:00017D75  2160 0001:00017D8B  2162 0001:00017D93  2163 0001:00017DA2
  2164 0001:00017DA9  2165 0001:00017DAF  2166 0001:00017DB6  2168 0001:00017DC3
  2169 0001:00017DC5  2170 0001:00017DC7  2165 0001:00017DCB  2171 0001:00017DD0
  2175 0001:00017E08  2176 0001:00017E0F  2178 0001:00017E16  2179 0001:00017E1E
  2181 0001:00017E2E  2177 0001:00017E2F  2182 0001:00017E3A  2186 0001:00017E40
  2187 0001:00017E45  2188 0001:00017E47  2189 0001:00017E50  2192 0001:00017E5A
  2196 0001:00017E8A  2195 0001:00017E98  2197 0001:00017EB2  2198 0001:00017EC0
  2204 0001:00017EC4  2202 0001:00017ED2  2205 0001:00017EF2  2206 0001:00017F00
  2208 0001:00017F04  2210 0001:00017F13  2190 0001:00017F14  2212 0001:00017F23
  2217 0001:00017F2C  2218 0001:00017F4A  2220 0001:00017F94  2222 0001:00017F9E
  2224 0001:00017FA6  2223 0001:00017FA8  2225 0001:00017FB5  2228 0001:00017FDC
  2229 0001:0001801C  2230 0001:00018044  2231 0001:00018046  2232 0001:0001804E
  2234 0001:00018064  2235 0001:00018073  2237 0001:00018078  2238 0001:000180AF
  2239 0001:000180B3  2241 0001:000180C2  2242 0001:000180C7  2245 0001:0001810C
  2246 0001:00018140  2247 0001:00018142  2248 0001:0001814A  2250 0001:00018165
  2252 0001:0001818E  2253 0001:0001819C  2254 0001:000181AB  2255 0001:000181BD
  2256 0001:000181D0  2259 0001:000181D5  2263 0001:0001821A  2264 0001:0001821B
  2265 0001:00018234  2257 0001:00018236  2268 0001:0001823A  2272 0001:00018270
  2273 0001:00018274  2274 0001:00018276  2275 0001:00018294  2276 0001:00018296
  2277 0001:000182A6  2278 0001:000182A8  2281 0001:000182C8  2282 0001:000182D7
  2283 0001:000182F1  2284 0001:0001830D  2289 0001:00018324  2290 0001:00018336
  2291 0001:0001833F  2292 0001:00018351  2295 0001:0001836C  2296 0001:00018377
  2297 0001:00018383  2298 0001:0001838E  2301 0001:0001839C  2302 0001:0001839F
  2303 0001:000183A6  2304 0001:000183AD  2305 0001:000183BA  2306 0001:000183C1
  2309 0001:000183C8  2310 0001:000183DE  2312 0001:000183E9  2313 0001:000183FB
  2314 0001:0001840B  2315 0001:00018414  2316 0001:0001842E  2320 0001:00018450
  2321 0001:0001845A  2322 0001:00018461  2325 0001:00018464  2326 0001:0001846D
  2327 0001:000184DF  2331 0001:000184E8  2332 0001:00018513  2333 0001:00018517
  2334 0001:0001853A  2335 0001:0001854A  2337 0001:00018556  2338 0001:00018565
  2339 0001:00018575  2340 0001:00018579  2341 0001:000185AB  2342 0001:000185B8
  2343 0001:000185C8  2344 0001:000185D5  2345 0001:000185DF  2346 0001:000185E9
  2347 0001:000185F7  2349 0001:00018612  2350 0001:0001861C  2352 0001:00018622
  2353 0001:0001862E  2354 0001:00018640  2355 0001:0001864C  2358 0001:0001865B
  2360 0001:0001866D  2363 0001:000186C4  2364 0001:000186E5  2365 0001:000186E7
  2366 0001:000186F2  2367 0001:00018711  2369 0001:00018748  2370 0001:00018767
  2374 0001:000187FD  2377 0001:00018840  2378 0001:0001886B  2379 0001:0001886F
  2381 0001:0001887B  2382 0001:00018895  2383 0001:0001889A  2385 0001:000188A6
  2386 0001:000188C0  2388 0001:000188C5  2389 0001:000188D7  2390 0001:000188E3
  2391 0001:000188E9  2393 0001:000188ED  2394 0001:000188F7  2395 0001:00018901
  2396 0001:0001890F  2399 0001:00018998  2401 0001:000189AA  2402 0001:000189B0
  2403 0001:000189BE  2405 0001:000189CA  2406 0001:000189DC  2407 0001:000189EB
  2409 0001:000189FD  2410 0001:00018A05  2413 0001:00018A11  2414 0001:00018A20
  2415 0001:00018A2A  2419 0001:00018A7C  2420 0001:00018AB5  2421 0001:00018AB9
  2423 0001:00018AC5  2424 0001:00018ADF  2425 0001:00018AE4  2427 0001:00018AF0
  2428 0001:00018B0A  2430 0001:00018B0F  2431 0001:00018B19  2432 0001:00018B23
  2433 0001:00018B31  2434 0001:00018B7B  2436 0001:00018B81  2437 0001:00018B8E
  2438 0001:00018BB0  2440 0001:00018BB6  2441 0001:00018BC3  2443 0001:00018BCD
  2445 0001:00018BE4  2447 0001:00018BF6  2450 0001:00018C48  2451 0001:00018C66
  2453 0001:00018C72  2454 0001:00018C74  2455 0001:00018C8E  2457 0001:00018C93
  2458 0001:00018C9D  2459 0001:00018CA7  2460 0001:00018CB5  2463 0001:00018D06
  2465 0001:00018D2A  2466 0001:00018D3A  2469 0001:00018D4F  2471 0001:00018D61
  2472 0001:00018D6E  2473 0001:00018D77  2476 0001:00018DB4  2477 0001:00018DB7
  2478 0001:00018DD3  2481 0001:00018DD8  2482 0001:00018DF5  2484 0001:00018E01
  2485 0001:00018E05  2486 0001:00018E1F  2488 0001:00018E24  2490 0001:00018E48
  2491 0001:00018E52  2492 0001:00018E56  2495 0001:00018E60  2496 0001:00018E6A
  2497 0001:00018E78  2500 0001:00018ECA  2503 0001:00018EDC  2504 0001:00018EEB
  2513 0001:00018F2C  2514 0001:00018F31  2515 0001:00018F38  2516 0001:00018F4F
  2517 0001:00018F6B  2521 0001:00018F70  2523 0001:00018FAA  2522 0001:00018FBB
  2524 0001:00018FCC  2525 0001:00018FD7  2526 0001:00019026  2530 0001:0001904E
  2531 0001:00019072  2528 0001:00019083  2533 0001:00019091  2534 0001:000190BA
  2535 0001:000190D1  2539 0001:00019110  2541 0001:0001911D  2540 0001:0001912E
  2543 0001:0001913C  2542 0001:00019151  2544 0001:00019166  2546 0001:00019168
  2547 0001:00019169  2548 0001:00019176  2550 0001:00019183  2551 0001:00019192
  2553 0001:00019193  2554 0001:00019197  2555 0001:000191A4  2560 0001:000191B4
  2561 0001:000191D0  2562 0001:000191D2  2563 0001:000191DB  2565 0001:000191F0
  2566 0001:000191FB  2569 0001:000191FE  2570 0001:00019221  2567 0001:00019222
  2572 0001:0001922F  2574 0001:00019233  2575 0001:00019244  2576 0001:0001924E
  2578 0001:00019268  2579 0001:00019276  2580 0001:00019280  2581 0001:0001928A
  2585 0001:0001928C  2587 0001:000192B4  2588 0001:000192DF  2590 0001:000192EF
  2591 0001:000192F9  2592 0001:00019304  2593 0001:0001930E  2594 0001:00019322
  2595 0001:0001932C  2597 0001:00019337  2598 0001:00019344  2599 0001:0001934E
  2600 0001:0001935F  2601 0001:00019371  2602 0001:0001937D  2603 0001:00019391
  2606 0001:000193C4  2607 0001:000193CC  2609 0001:000193E4  2611 0001:000193EF
  2612 0001:00019401  2613 0001:00019408  2614 0001:00019411  2616 0001:0001941A
  2618 0001:00019423  2619 0001:0001942A  2620 0001:00019435  2622 0001:0001943C
  2625 0001:00019443  2626 0001:00019470  2627 0001:0001947E  2628 0001:00019489
  2631 0001:0001948C  2632 0001:000194C1  2634 0001:000194CC  2636 0001:000194E3
  2637 0001:000194EA  2638 0001:000194F3  2640 0001:00019510  2641 0001:00019517
  2644 0001:0001951E  2645 0001:00019534  2646 0001:0001953B  2648 0001:00019551
  2649 0001:00019558  2650 0001:00019565  2652 0001:0001956C  2653 0001:00019580
  2654 0001:000195AF  2655 0001:000195B6  2658 0001:000195F4  2659 0001:000195FC
  2660 0001:00019606  2661 0001:00019614  2663 0001:00019640  2665 0001:00019658
  2668 0001:00019660  2669 0001:00019668  2670 0001:00019672  2671 0001:00019680
  2673 0001:000196AC  2675 0001:000196BE  2678 0001:000196C4  2679 0001:000196CA
  2680 0001:000196D6  2682 0001:000196E1  2683 0001:000196E8  2685 0001:00019702
  2688 0001:00019708  2689 0001:0001970B  2691 0001:00019716  2692 0001:0001972B
  2693 0001:00019732  2695 0001:0001974A  2698 0001:00019750  2699 0001:00019751
  2700 0001:0001976B  2703 0001:00019770  2704 0001:0001978C  2705 0001:00019796
  2706 0001:000197A4  2708 0001:000197E5  2710 0001:000197F7  2713 0001:00019824
  2714 0001:00019844  2715 0001:0001984E  2716 0001:0001985C  2717 0001:0001986B
  2720 0001:000198BC  2721 0001:000198C0  2724 0001:00019907  2726 0001:00019919
  2730 0001:00019970  2731 0001:00019993  2732 0001:000199A5  2733 0001:000199AF
  2734 0001:000199C3  2736 0001:000199CE  2737 0001:000199E8  2738 0001:000199ED
  2742 0001:00019A28  2743 0001:00019A42  2745 0001:00019A47  2746 0001:00019A56
  2747 0001:00019A60  2749 0001:00019A67  2750 0001:00019A73  2752 0001:00019A82
  2753 0001:00019AB1  2754 0001:00019AC4  2755 0001:00019AD8  2758 0001:00019B04
  2759 0001:00019B07  2760 0001:00019B23  2764 0001:00019B28  2765 0001:00019B49
  2766 0001:00019B4D  2769 0001:00019B68  2770 0001:00019B75  2771 0001:00019B7F
  2772 0001:00019B8E  2774 0001:00019B9B  2776 0001:00019BAB  2779 0001:00019BBA
  2780 0001:00019BEC  2783 0001:00019BF4  2784 0001:00019C00  2786 0001:00019C28
  2788 0001:00019C33  2791 0001:00019C35  2792 0001:00019C3F  2793 0001:00019C4D
  2794 0001:00019C60  2796 0001:00019C82  2798 0001:00019C94  2801 0001:00019CFC
  2802 0001:00019D1C  2804 0001:00019D28  2805 0001:00019D42  2807 0001:00019D47
  2808 0001:00019D53  2809 0001:00019D64  2811 0001:00019D70  2812 0001:00019D78
  2813 0001:00019D82  2814 0001:00019D8C  2815 0001:00019D9A  2816 0001:00019DA7
  2818 0001:00019DC1  2819 0001:00019DCB  2821 0001:00019DDD  2822 0001:00019DEC
  2824 0001:00019E0C  2825 0001:00019E14  2826 0001:00019E1E  2827 0001:00019E2C
  2830 0001:00019E68  2831 0001:00019E7C  2834 0001:00019E93  2837 0001:00019EA5
  2840 0001:00019EF4  2841 0001:00019F0A  2843 0001:00019F15  2844 0001:00019F2F
  2846 0001:00019F31  2848 0001:00019F3C  2849 0001:00019F4E  2850 0001:00019F5A
  2851 0001:00019F63  2853 0001:00019F6C  2857 0001:00019F90  2858 0001:00019FAD
  2859 0001:00019FB4  2861 0001:00019FD0  2862 0001:00019FE1  2863 0001:00019FF2
  2864 0001:0001A003  2865 0001:0001A016  2866 0001:0001A021  2867 0001:0001A03B
  2870 0001:0001A074  2871 0001:0001A078  2872 0001:0001A083  2874 0001:0001A092
  2875 0001:0001A099  2878 0001:0001A0A8  2879 0001:0001A0AC  2880 0001:0001A0B5
  2881 0001:0001A0C9  2882 0001:0001A0CC  2911 0001:0001A0D4  2912 0001:0001A0D7
  2913 0001:0001A0E5  2914 0001:0001A0EF  2916 0001:0001A108  2919 0001:0001A10F
  2921 0001:0001A114  2928 0001:0001A11C

Line numbers for XComDrv(omcom.bpl\ouxcomm\source\XComDrv.pas) segment .itext

  2924 0002:000003E0  2926 0002:000003E7

Line numbers for .omcom(omcom.dpk) segment .itext

    37 0002:000003E8

Bound resource files

U:\source\omcom.bpl\cport\source\CPortTrmSet.DFM
U:\source\omcom.bpl\cport\source\CPortImg.res
U:\source\omcom.bpl\cport\source\CPortSetup.DFM
omcom.res
omcom.drf


Program entry point at 0002:000003E8
