
 Start         Length     Name                   Class
 0001:30401000 0000309CH .text                   CODE
 0002:30405000 0000020CH .itext                  ICODE
 0003:30406000 0000004CH .data                   DATA
 0004:30407000 00000018H .bss                    BSS
 0005:00000000 00000000H .tls                    TLS


Detailed map of segments

 0001:00000000 00000106 C=CODE     S=.text    G=(none)   M=System   ACBP=A9
 0001:00000108 000001C3 C=CODE     S=.text    G=(none)   M=SysInit  ACBP=A9
 0001:000002CC 0000006C C=CODE     S=.text    G=(none)   M=Windows  ACBP=A9
 0001:00000338 0000000E C=CODE     S=.text    G=(none)   M=SysUtils ACBP=A9
 0001:00000348 00000046 C=CODE     S=.text    G=(none)   M=Classes  ACBP=A9
 0001:00000390 0000000E C=CODE     S=.text    G=(none)   M=TypInfo  ACBP=A9
 0001:000003A0 00000006 C=CODE     S=.text    G=(none)   M=Variants ACBP=A9
 0001:000003A8 00000006 C=CODE     S=.text    G=(none)   M=VarUtils ACBP=A9
 0001:000003B0 0000005E C=CODE     S=.text    G=(none)   M=Graphics ACBP=A9
 0001:00000410 00000006 C=CODE     S=.text    G=(none)   M=Registry ACBP=A9
 0001:00000418 00000006 C=CODE     S=.text    G=(none)   M=IniFiles ACBP=A9
 0001:00000420 00000156 C=CODE     S=.text    G=(none)   M=Controls ACBP=A9
 0001:00000578 00000006 C=CODE     S=.text    G=(none)   M=ActnList ACBP=A9
 0001:00000580 00000006 C=CODE     S=.text    G=(none)   M=ImgList  ACBP=A9
 0001:00000588 00000006 C=CODE     S=.text    G=(none)   M=CommCtrl ACBP=A9
 0001:00000590 00000006 C=CODE     S=.text    G=(none)   M=Themes   ACBP=A9
 0001:00000598 00000006 C=CODE     S=.text    G=(none)   M=Menus    ACBP=A9
 0001:000005A0 00000006 C=CODE     S=.text    G=(none)   M=UxTheme  ACBP=A9
 0001:000005A8 00000006 C=CODE     S=.text    G=(none)   M=MultiMon ACBP=A9
 0001:000005B0 00000006 C=CODE     S=.text    G=(none)   M=DwmApi   ACBP=A9
 0001:000005B8 00000006 C=CODE     S=.text    G=(none)   M=Forms    ACBP=A9
 0001:000005C0 00000006 C=CODE     S=.text    G=(none)   M=HelpIntfs ACBP=A9
 0001:000005C8 00000006 C=CODE     S=.text    G=(none)   M=Dialogs  ACBP=A9
 0001:000005D0 00000006 C=CODE     S=.text    G=(none)   M=Printers ACBP=A9
 0001:000005D8 00000006 C=CODE     S=.text    G=(none)   M=ExtCtrls ACBP=A9
 0001:000005E0 00000006 C=CODE     S=.text    G=(none)   M=GraphUtil ACBP=A9
 0001:000005E8 00000006 C=CODE     S=.text    G=(none)   M=Clipbrd  ACBP=A9
 0001:000005F0 00000006 C=CODE     S=.text    G=(none)   M=FlatSB   ACBP=A9
 0001:000005F8 00000006 C=CODE     S=.text    G=(none)   M=AxCtrls  ACBP=A9
 0001:00000600 00000006 C=CODE     S=.text    G=(none)   M=ComObj   ACBP=A9
 0001:00000608 00000016 C=CODE     S=.text    G=(none)   M=DesignIntf ACBP=A9
 0001:00000620 00000136 C=CODE     S=.text    G=(none)   M=DesignEditors ACBP=A9
 0001:00000758 00000006 C=CODE     S=.text    G=(none)   M=ToolsAPI ACBP=A9
 0001:00000760 00000006 C=CODE     S=.text    G=(none)   M=XMLIntf  ACBP=A9
 0001:00000768 00000006 C=CODE     S=.text    G=(none)   M=xmldom   ACBP=A9
 0001:00000770 00000006 C=CODE     S=.text    G=(none)   M=msxmldom ACBP=A9
 0001:00000778 00000006 C=CODE     S=.text    G=(none)   M=ComCtrls ACBP=A9
 0001:00000780 00000006 C=CODE     S=.text    G=(none)   M=ExtActns ACBP=A9
 0001:00000788 00000006 C=CODE     S=.text    G=(none)   M=ExtDlgs  ACBP=A9
 0001:00000790 00000006 C=CODE     S=.text    G=(none)   M=Buttons  ACBP=A9
 0001:00000798 00000006 C=CODE     S=.text    G=(none)   M=Mapi     ACBP=A9
 0001:000007A0 00000006 C=CODE     S=.text    G=(none)   M=DockForm ACBP=A9
 0001:000007A8 00000006 C=CODE     S=.text    G=(none)   M=IDEMessages ACBP=A9
 0001:000007B0 00000006 C=CODE     S=.text    G=(none)   M=DeskForm ACBP=A9
 0001:000007B8 00000006 C=CODE     S=.text    G=(none)   M=BaseDock ACBP=A9
 0001:000007C0 00000006 C=CODE     S=.text    G=(none)   M=PercentageDockTree ACBP=A9
 0001:000007C8 00000006 C=CODE     S=.text    G=(none)   M=CaptionedDockTree ACBP=A9
 0001:000007D0 00000006 C=CODE     S=.text    G=(none)   M=DockTabSet ACBP=A9
 0001:000007D8 00000006 C=CODE     S=.text    G=(none)   M=Tabs     ACBP=A9
 0001:000007E0 00000006 C=CODE     S=.text    G=(none)   M=DeskUtil ACBP=A9
 0001:000007E8 00000006 C=CODE     S=.text    G=(none)   M=ActnMan  ACBP=A9
 0001:000007F0 00000006 C=CODE     S=.text    G=(none)   M=ActnMenus ACBP=A9
 0001:000007F8 00000006 C=CODE     S=.text    G=(none)   M=XPStyleActnCtrls ACBP=A9
 0001:00000800 00000006 C=CODE     S=.text    G=(none)   M=Proxies  ACBP=A9
 0001:00000808 0000001E C=CODE     S=.text    G=(none)   M=VCLEditors ACBP=A9
 0001:00000828 00000006 C=CODE     S=.text    G=(none)   M=PropertyCategories ACBP=A9
 0001:00000830 0000000E C=CODE     S=.text    G=(none)   M=ColnEdit ACBP=A9
 0001:00000840 00000006 C=CODE     S=.text    G=(none)   M=ToolWnds ACBP=A9
 0001:00000848 00000006 C=CODE     S=.text    G=(none)   M=ComponentDesigner ACBP=A9
 0001:00000850 00000006 C=CODE     S=.text    G=(none)   M=IDEHelp  ACBP=A9
 0001:00000858 00000006 C=CODE     S=.text    G=(none)   M=StFilSys ACBP=A9
 0001:00000860 00000006 C=CODE     S=.text    G=(none)   M=WideStrings ACBP=A9
 0001:00000868 00000006 C=CODE     S=.text    G=(none)   M=TopLevels ACBP=A9
 0001:00000870 00000006 C=CODE     S=.text    G=(none)   M=TreeIntf ACBP=A9
 0001:00000878 00000006 C=CODE     S=.text    G=(none)   M=AppEvnts ACBP=A9
 0001:00000880 0000067E C=CODE     S=.text    G=(none)   M=VirtualTrees ACBP=A9
 0001:00000F00 00000026 C=CODE     S=.text    G=(none)   M=StrEdit  ACBP=A9
 0001:00000F28 00001D12 C=CODE     S=.text    G=(none)   M=VirtualTreesReg ACBP=A9
 0001:00002C3C 0000045F C=CODE     S=.text    G=(none)   M=.VirtualTreesD10D ACBP=A9
 0002:00000000 00000006 C=ICODE    S=.itext   G=(none)   M=System   ACBP=A9
 0002:00000008 00000011 C=ICODE    S=.itext   G=(none)   M=Windows  ACBP=A9
 0002:0000001C 00000006 C=ICODE    S=.itext   G=(none)   M=SysUtils ACBP=A9
 0002:00000024 00000006 C=ICODE    S=.itext   G=(none)   M=Classes  ACBP=A9
 0002:0000002C 00000006 C=ICODE    S=.itext   G=(none)   M=TypInfo  ACBP=A9
 0002:00000034 00000006 C=ICODE    S=.itext   G=(none)   M=Variants ACBP=A9
 0002:0000003C 00000006 C=ICODE    S=.itext   G=(none)   M=VarUtils ACBP=A9
 0002:00000044 00000006 C=ICODE    S=.itext   G=(none)   M=Graphics ACBP=A9
 0002:0000004C 00000006 C=ICODE    S=.itext   G=(none)   M=Registry ACBP=A9
 0002:00000054 00000006 C=ICODE    S=.itext   G=(none)   M=IniFiles ACBP=A9
 0002:0000005C 00000006 C=ICODE    S=.itext   G=(none)   M=Controls ACBP=A9
 0002:00000064 00000006 C=ICODE    S=.itext   G=(none)   M=ActnList ACBP=A9
 0002:0000006C 00000006 C=ICODE    S=.itext   G=(none)   M=Themes   ACBP=A9
 0002:00000074 00000006 C=ICODE    S=.itext   G=(none)   M=Menus    ACBP=A9
 0002:0000007C 00000006 C=ICODE    S=.itext   G=(none)   M=UxTheme  ACBP=A9
 0002:00000084 00000006 C=ICODE    S=.itext   G=(none)   M=MultiMon ACBP=A9
 0002:0000008C 00000006 C=ICODE    S=.itext   G=(none)   M=DwmApi   ACBP=A9
 0002:00000094 00000006 C=ICODE    S=.itext   G=(none)   M=Forms    ACBP=A9
 0002:0000009C 00000006 C=ICODE    S=.itext   G=(none)   M=HelpIntfs ACBP=A9
 0002:000000A4 00000006 C=ICODE    S=.itext   G=(none)   M=Dialogs  ACBP=A9
 0002:000000AC 00000006 C=ICODE    S=.itext   G=(none)   M=Printers ACBP=A9
 0002:000000B4 00000006 C=ICODE    S=.itext   G=(none)   M=ExtCtrls ACBP=A9
 0002:000000BC 00000006 C=ICODE    S=.itext   G=(none)   M=GraphUtil ACBP=A9
 0002:000000C4 00000006 C=ICODE    S=.itext   G=(none)   M=Clipbrd  ACBP=A9
 0002:000000CC 00000006 C=ICODE    S=.itext   G=(none)   M=FlatSB   ACBP=A9
 0002:000000D4 00000006 C=ICODE    S=.itext   G=(none)   M=AxCtrls  ACBP=A9
 0002:000000DC 00000006 C=ICODE    S=.itext   G=(none)   M=ComObj   ACBP=A9
 0002:000000E4 00000006 C=ICODE    S=.itext   G=(none)   M=DesignEditors ACBP=A9
 0002:000000EC 00000006 C=ICODE    S=.itext   G=(none)   M=ToolsAPI ACBP=A9
 0002:000000F4 00000006 C=ICODE    S=.itext   G=(none)   M=XMLIntf  ACBP=A9
 0002:000000FC 00000006 C=ICODE    S=.itext   G=(none)   M=xmldom   ACBP=A9
 0002:00000104 00000006 C=ICODE    S=.itext   G=(none)   M=msxmldom ACBP=A9
 0002:0000010C 00000006 C=ICODE    S=.itext   G=(none)   M=ComCtrls ACBP=A9
 0002:00000114 00000006 C=ICODE    S=.itext   G=(none)   M=ExtActns ACBP=A9
 0002:0000011C 00000006 C=ICODE    S=.itext   G=(none)   M=ExtDlgs  ACBP=A9
 0002:00000124 00000006 C=ICODE    S=.itext   G=(none)   M=Buttons  ACBP=A9
 0002:0000012C 00000006 C=ICODE    S=.itext   G=(none)   M=Mapi     ACBP=A9
 0002:00000134 00000006 C=ICODE    S=.itext   G=(none)   M=DockForm ACBP=A9
 0002:0000013C 00000006 C=ICODE    S=.itext   G=(none)   M=IDEMessages ACBP=A9
 0002:00000144 00000006 C=ICODE    S=.itext   G=(none)   M=DeskForm ACBP=A9
 0002:0000014C 00000006 C=ICODE    S=.itext   G=(none)   M=BaseDock ACBP=A9
 0002:00000154 00000006 C=ICODE    S=.itext   G=(none)   M=PercentageDockTree ACBP=A9
 0002:0000015C 00000006 C=ICODE    S=.itext   G=(none)   M=CaptionedDockTree ACBP=A9
 0002:00000164 00000006 C=ICODE    S=.itext   G=(none)   M=DockTabSet ACBP=A9
 0002:0000016C 00000006 C=ICODE    S=.itext   G=(none)   M=Tabs     ACBP=A9
 0002:00000174 00000006 C=ICODE    S=.itext   G=(none)   M=DeskUtil ACBP=A9
 0002:0000017C 00000006 C=ICODE    S=.itext   G=(none)   M=ActnMan  ACBP=A9
 0002:00000184 00000006 C=ICODE    S=.itext   G=(none)   M=ActnMenus ACBP=A9
 0002:0000018C 00000006 C=ICODE    S=.itext   G=(none)   M=XPStyleActnCtrls ACBP=A9
 0002:00000194 00000006 C=ICODE    S=.itext   G=(none)   M=Proxies  ACBP=A9
 0002:0000019C 00000006 C=ICODE    S=.itext   G=(none)   M=VCLEditors ACBP=A9
 0002:000001A4 00000006 C=ICODE    S=.itext   G=(none)   M=PropertyCategories ACBP=A9
 0002:000001AC 00000006 C=ICODE    S=.itext   G=(none)   M=ColnEdit ACBP=A9
 0002:000001B4 00000006 C=ICODE    S=.itext   G=(none)   M=ToolWnds ACBP=A9
 0002:000001BC 00000006 C=ICODE    S=.itext   G=(none)   M=ComponentDesigner ACBP=A9
 0002:000001C4 00000006 C=ICODE    S=.itext   G=(none)   M=IDEHelp  ACBP=A9
 0002:000001CC 00000006 C=ICODE    S=.itext   G=(none)   M=StFilSys ACBP=A9
 0002:000001D4 00000006 C=ICODE    S=.itext   G=(none)   M=WideStrings ACBP=A9
 0002:000001DC 00000006 C=ICODE    S=.itext   G=(none)   M=TopLevels ACBP=A9
 0002:000001E4 00000006 C=ICODE    S=.itext   G=(none)   M=TreeIntf ACBP=A9
 0002:000001EC 00000006 C=ICODE    S=.itext   G=(none)   M=AppEvnts ACBP=A9
 0002:000001F4 00000006 C=ICODE    S=.itext   G=(none)   M=VirtualTrees ACBP=A9
 0002:000001FC 00000008 C=ICODE    S=.itext   G=(none)   M=VirtualTreesReg ACBP=A9
 0002:00000204 00000005 C=ICODE    S=.itext   G=(none)   M=.VirtualTreesD10D ACBP=A9
 0003:00000000 0000002C C=DATA     S=.data    G=DGROUP   M=SysInit  ACBP=A9
 0004:00000000 0000000C C=BSS      S=.bss     G=DGROUP   M=SysInit  ACBP=A9
 0004:0000000C 00000008 C=BSS      S=.bss     G=DGROUP   M=Windows  ACBP=A9
 0004:00000014 00000004 C=BSS      S=.bss     G=DGROUP   M=VirtualTreesReg ACBP=A9


  Address             Publics by Name

 0002:00000204       .VirtualTreesD10D..VirtualTreesD10D
 0001:0000307C       .VirtualTreesD10D.@GetPackageInfoTable
 0001:00003084       .VirtualTreesD10D.@PackageLoad
 0001:00003090       .VirtualTreesD10D.@PackageUnload
 0001:00000588       CommCtrl.ImageList_DrawEx
 0001:00000250       SysInit.@InitPkg
 0001:000002B4       SysInit.@PackageLoad
 0001:000002C0       SysInit.@PackageUnload
 0001:00000140       SysInit.AllocTlsBuffer
 0001:000001FC       SysInit.ExitProcessTLS
 0001:000001C4       SysInit.ExitThreadTLS
 0001:00000108       SysInit.FreeLibrary
 0001:0000014C       SysInit.GetTlsSize
 0004:00000004       SysInit.HInstance
 0001:00000220       SysInit.InitializeModule
 0001:00000198       SysInit.InitProcessTLS
 0001:00000154       SysInit.InitThreadTLS
 0001:00000110       SysInit.LocalAlloc
 0001:00000118       SysInit.LocalFree
 0003:00000004       SysInit.Module
 0004:00000000       SysInit.ModuleIsLib
 0004:00000001       SysInit.ModuleIsPackage
 0001:00000120       SysInit.TlsAlloc
 0004:00000008       SysInit.tlsBuffer
 0001:00000128       SysInit.TlsFree
 0001:00000130       SysInit.TlsGetValue
 0003:00000000       SysInit.TlsIndex
 0005:00000000       SysInit.TlsLast
 0003:0000001C       SysInit.TlsProc
 0001:00000138       SysInit.TlsSetValue
 0001:0000022C       SysInit.UninitializeModule
 0004:00000014       VirtualTreesReg..2
 0001:00001768       VirtualTreesReg..TCheckImageKindProperty
 0001:000014BC       VirtualTreesReg..TClipboardElement
 0001:000015DC       VirtualTreesReg..TClipboardFormatsProperty
 0001:00000FDC       VirtualTreesReg..TVirtualTreeCast
 0001:00000F28       VirtualTreesReg..TVirtualTreeEditor
 0001:00001AC8       VirtualTreesReg.DrawBoolean
 0001:00002C0C       VirtualTreesReg.Finalization
 0001:00002078       VirtualTreesReg.Register
 0001:00001F1C       VirtualTreesReg.TCheckImageKindProperty.ListDrawValue
 0001:00002054       VirtualTreesReg.TCheckImageKindProperty.ListMeasureHeight
 0001:00002064       VirtualTreesReg.TCheckImageKindProperty.ListMeasureWidth
 0001:00001E8C       VirtualTreesReg.TCheckImageKindProperty.PropDrawName
 0001:00001E98       VirtualTreesReg.TCheckImageKindProperty.PropDrawValue
 0001:0000191C       VirtualTreesReg.TClipboardElement.AllEqual
 0001:0000189C       VirtualTreesReg.TClipboardElement.Create
 0001:00001990       VirtualTreesReg.TClipboardElement.GetAttributes
 0001:0000199C       VirtualTreesReg.TClipboardElement.GetName
 0001:000019B0       VirtualTreesReg.TClipboardElement.GetValue
 0001:000019E8       VirtualTreesReg.TClipboardElement.GetValues
 0001:00001B80       VirtualTreesReg.TClipboardElement.PropDrawName
 0001:00001B8C       VirtualTreesReg.TClipboardElement.PropDrawValue
 0001:00001A0C       VirtualTreesReg.TClipboardElement.SetValue
 0001:00001C08       VirtualTreesReg.TClipboardFormatsProperty.GetAttributes
 0001:00001C28       VirtualTreesReg.TClipboardFormatsProperty.GetProperties
 0001:00001CE4       VirtualTreesReg.TClipboardFormatsProperty.PropDrawName
 0001:00001E84       VirtualTreesReg.TClipboardFormatsProperty.PropDrawValue
 0001:0000182C       VirtualTreesReg.TVirtualTreeEditor.Edit
 0002:000001FC       VirtualTreesReg.VirtualTreesReg
 0004:0000000C       Windows..3
 0001:000002E4       Windows.DrawFrameControl
 0001:000002D4       Windows.ExtTextOut
 0001:000002F4       Windows.Finalization
 0001:000002CC       Windows.FreeLibrary
 0004:00000010       Windows.HtmlHelpModule
 0001:000002EC       Windows.InflateRect
 0001:000002DC       Windows.SetBkMode
 0002:00000008       Windows.Windows


  Address             Publics by Value

 0001:00000108       SysInit.FreeLibrary
 0001:00000110       SysInit.LocalAlloc
 0001:00000118       SysInit.LocalFree
 0001:00000120       SysInit.TlsAlloc
 0001:00000128       SysInit.TlsFree
 0001:00000130       SysInit.TlsGetValue
 0001:00000138       SysInit.TlsSetValue
 0001:00000140       SysInit.AllocTlsBuffer
 0001:0000014C       SysInit.GetTlsSize
 0001:00000154       SysInit.InitThreadTLS
 0001:00000198       SysInit.InitProcessTLS
 0001:000001C4       SysInit.ExitThreadTLS
 0001:000001FC       SysInit.ExitProcessTLS
 0001:00000220       SysInit.InitializeModule
 0001:0000022C       SysInit.UninitializeModule
 0001:00000250       SysInit.@InitPkg
 0001:000002B4       SysInit.@PackageLoad
 0001:000002C0       SysInit.@PackageUnload
 0001:000002CC       Windows.FreeLibrary
 0001:000002D4       Windows.ExtTextOut
 0001:000002DC       Windows.SetBkMode
 0001:000002E4       Windows.DrawFrameControl
 0001:000002EC       Windows.InflateRect
 0001:000002F4       Windows.Finalization
 0001:00000588       CommCtrl.ImageList_DrawEx
 0001:00000F28       VirtualTreesReg..TVirtualTreeEditor
 0001:00000FDC       VirtualTreesReg..TVirtualTreeCast
 0001:000014BC       VirtualTreesReg..TClipboardElement
 0001:000015DC       VirtualTreesReg..TClipboardFormatsProperty
 0001:00001768       VirtualTreesReg..TCheckImageKindProperty
 0001:0000182C       VirtualTreesReg.TVirtualTreeEditor.Edit
 0001:0000189C       VirtualTreesReg.TClipboardElement.Create
 0001:0000191C       VirtualTreesReg.TClipboardElement.AllEqual
 0001:00001990       VirtualTreesReg.TClipboardElement.GetAttributes
 0001:0000199C       VirtualTreesReg.TClipboardElement.GetName
 0001:000019B0       VirtualTreesReg.TClipboardElement.GetValue
 0001:000019E8       VirtualTreesReg.TClipboardElement.GetValues
 0001:00001A0C       VirtualTreesReg.TClipboardElement.SetValue
 0001:00001AC8       VirtualTreesReg.DrawBoolean
 0001:00001B80       VirtualTreesReg.TClipboardElement.PropDrawName
 0001:00001B8C       VirtualTreesReg.TClipboardElement.PropDrawValue
 0001:00001C08       VirtualTreesReg.TClipboardFormatsProperty.GetAttributes
 0001:00001C28       VirtualTreesReg.TClipboardFormatsProperty.GetProperties
 0001:00001CE4       VirtualTreesReg.TClipboardFormatsProperty.PropDrawName
 0001:00001E84       VirtualTreesReg.TClipboardFormatsProperty.PropDrawValue
 0001:00001E8C       VirtualTreesReg.TCheckImageKindProperty.PropDrawName
 0001:00001E98       VirtualTreesReg.TCheckImageKindProperty.PropDrawValue
 0001:00001F1C       VirtualTreesReg.TCheckImageKindProperty.ListDrawValue
 0001:00002054       VirtualTreesReg.TCheckImageKindProperty.ListMeasureHeight
 0001:00002064       VirtualTreesReg.TCheckImageKindProperty.ListMeasureWidth
 0001:00002078       VirtualTreesReg.Register
 0001:00002C0C       VirtualTreesReg.Finalization
 0001:0000307C       .VirtualTreesD10D.@GetPackageInfoTable
 0001:00003084       .VirtualTreesD10D.@PackageLoad
 0001:00003090       .VirtualTreesD10D.@PackageUnload
 0002:00000008       Windows.Windows
 0002:000001FC       VirtualTreesReg.VirtualTreesReg
 0002:00000204       .VirtualTreesD10D..VirtualTreesD10D
 0003:00000000       SysInit.TlsIndex
 0003:00000004       SysInit.Module
 0003:0000001C       SysInit.TlsProc
 0004:00000000       SysInit.ModuleIsLib
 0004:00000001       SysInit.ModuleIsPackage
 0004:00000004       SysInit.HInstance
 0004:00000008       SysInit.tlsBuffer
 0004:0000000C       Windows..3
 0004:00000010       Windows.HtmlHelpModule
 0004:00000014       VirtualTreesReg..2
 0005:00000000       SysInit.TlsLast


Line numbers for VirtualTreesReg(..\Design\VirtualTreesReg.pas) segment .text

   146 0001:0000182C   147 0001:00001843   148 0001:00001868   154 0001:0000189C
   155 0001:000018CA   156 0001:000018D5   157 0001:000018E0   170 0001:0000191C
   171 0001:00001924   172 0001:00001928   174 0001:0000192E   175 0001:00001937
   176 0001:0000194C   178 0001:0000195D   179 0001:00001966   176 0001:0000197D
   183 0001:00001980   184 0001:00001984   191 0001:00001990   192 0001:00001997
   198 0001:0000199C   199 0001:000019A2   200 0001:000019AC   209 0001:000019B0
   210 0001:000019B7   211 0001:000019C0   212 0001:000019E1   218 0001:000019E8
   219 0001:000019EB   220 0001:000019F9   221 0001:00001A08   231 0001:00001A0C
   232 0001:00001A17   234 0001:00001A27   236 0001:00001A40   237 0001:00001A4C
   238 0001:00001A56   234 0001:00001A59   242 0001:00001A5E   244 0001:00001A77
   245 0001:00001A83   246 0001:00001A98   247 0001:00001AA3   242 0001:00001AA6
   249 0001:00001AA9   250 0001:00001AB0   264 0001:00001AC8   267 0001:00001AD9
   269 0001:00001AE3   270 0001:00001AF0   272 0001:00001AFC   274 0001:00001B44
   275 0001:00001B51   276 0001:00001B53   277 0001:00001B59   278 0001:00001B5F
   280 0001:00001B74   288 0001:00001B80   289 0001:00001B83   290 0001:00001B88
   298 0001:00001B8C   299 0001:00001BA8   300 0001:00001BD2   308 0001:00001C08
   309 0001:00001C0C   310 0001:00001C1C   321 0001:00001C28   322 0001:00001C47
   323 0001:00001C56   324 0001:00001C61   325 0001:00001C70   326 0001:00001C8B
   325 0001:00001CBB   327 0001:00001CBE   340 0001:00001CE4   343 0001:00001D06
   344 0001:00001D13   345 0001:00001D1E   346 0001:00001D28   347 0001:00001D32
   348 0001:00001D3E   350 0001:00001D67   351 0001:00001D7B   352 0001:00001D88
   353 0001:00001D95   354 0001:00001DA2   355 0001:00001DB1   356 0001:00001DF6
   357 0001:00001E03   359 0001:00001E2A   365 0001:00001E84   367 0001:00001E87
   441 0001:00001E8C   442 0001:00001E8F   443 0001:00001E94   451 0001:00001E98
   452 0001:00001EB6   453 0001:00001EC6   456 0001:00001EE4   460 0001:00001EEF
   473 0001:00001F1C   474 0001:00001F2C   475 0001:00001F3E   477 0001:00001F4C
   478 0001:00001F59   479 0001:00001F71   481 0001:00001F8F   482 0001:00001FA2
   483 0001:00001FB0   485 0001:00001FB4   489 0001:00001FF7   491 0001:00002011
   493 0001:00002030   498 0001:0000204B   504 0001:00002054   505 0001:00002057
   506 0001:00002060   512 0001:00002064   513 0001:00002067   514 0001:00002074
   522 0001:00002078   523 0001:000020C1   524 0001:000020EB   525 0001:000020FB
   526 0001:0000210B   527 0001:0000211F   531 0001:00002133   536 0001:00002165
   557 0001:00002217   576 0001:000022C9   584 0001:00002313   588 0001:00002353
   599 0001:000023D6   615 0001:00002490   619 0001:000024C8   625 0001:00002508
   629 0001:0000253E

Line numbers for VirtualTreesReg(..\Design\VirtualTreesReg.pas) segment .itext

   633 0002:000001FC

Line numbers for .VirtualTreesD10D(VirtualTreesD10D.dpk) segment .itext

    37 0002:00000204

Bound resource files

VirtualTreesD10D.res
..\Design\VirtualTrees.dcr
VirtualTreesD10D.drf


Program entry point at 0002:00000204
