
 Start         Length     Name                   Class
 0001:00401000 0003E690H .text                   CODE
 0002:00440000 00000774H .itext                  ICODE
 0003:00441000 00000110H .data                   DATA
 0004:00442000 00000238H .bss                    BSS
 0005:00000000 00000000H .tls                    TLS


Detailed map of segments

 0001:00000000 0000019E C=CODE     S=.text    G=(none)   M=System   ACBP=A9
 0001:000001A0 000001C3 C=CODE     S=.text    G=(none)   M=SysInit  ACBP=A9
 0001:00000364 000000EE C=CODE     S=.text    G=(none)   M=Classes  ACBP=A9
 0001:00000454 0000000E C=CODE     S=.text    G=(none)   M=ActiveX  ACBP=A9
 0001:00000464 0000004C C=CODE     S=.text    G=(none)   M=Windows  ACBP=A9
 0001:000004B0 0000000E C=CODE     S=.text    G=(none)   M=TypInfo  ACBP=A9
 0001:000004C0 000000E6 C=CODE     S=.text    G=(none)   M=SysUtils ACBP=A9
 0001:000005A8 000000A6 C=CODE     S=.text    G=(none)   M=Variants ACBP=A9
 0001:00000650 00000006 C=CODE     S=.text    G=(none)   M=VarUtils ACBP=A9
 0001:00000658 0000000E C=CODE     S=.text    G=(none)   M=BisObject ACBP=A9
 0001:00000668 0000002E C=CODE     S=.text    G=(none)   M=Contnrs  ACBP=A9
 0001:00000698 0000003E C=CODE     S=.text    G=(none)   M=BisCoreObjects ACBP=A9
 0001:000006D8 00000006 C=CODE     S=.text    G=(none)   M=BisConfig ACBP=A9
 0001:000006E0 00000006 C=CODE     S=.text    G=(none)   M=IniFiles ACBP=A9
 0001:000006E8 0000003E C=CODE     S=.text    G=(none)   M=Graphics ACBP=A9
 0001:00000728 00000006 C=CODE     S=.text    G=(none)   M=Registry ACBP=A9
 0001:00000730 00000056 C=CODE     S=.text    G=(none)   M=BisUtils ACBP=A9
 0001:00000788 0000000E C=CODE     S=.text    G=(none)   M=BisVariants ACBP=A9
 0001:00000798 0000002E C=CODE     S=.text    G=(none)   M=BisCore  ACBP=A9
 0001:000007C8 00000066 C=CODE     S=.text    G=(none)   M=BisDataFm ACBP=A9
 0001:00000830 00000006 C=CODE     S=.text    G=(none)   M=BisLogger ACBP=A9
 0001:00000838 00000006 C=CODE     S=.text    G=(none)   M=DECUtil  ACBP=A9
 0001:00000840 00000006 C=CODE     S=.text    G=(none)   M=Hash     ACBP=A9
 0001:00000848 00000006 C=CODE     S=.text    G=(none)   M=Cipher   ACBP=A9
 0001:00000850 00000006 C=CODE     S=.text    G=(none)   M=Cipher1  ACBP=A9
 0001:00000858 00000006 C=CODE     S=.text    G=(none)   M=BisCryptUtils ACBP=A9
 0001:00000860 000000AE C=CODE     S=.text    G=(none)   M=DB       ACBP=A9
 0001:00000910 00000006 C=CODE     S=.text    G=(none)   M=WideStrings ACBP=A9
 0001:00000918 00000006 C=CODE     S=.text    G=(none)   M=FMTBcd   ACBP=A9
 0001:00000920 00000006 C=CODE     S=.text    G=(none)   M=SqlTimSt ACBP=A9
 0001:00000928 0000001E C=CODE     S=.text    G=(none)   M=DateUtils ACBP=A9
 0001:00000948 0000000E C=CODE     S=.text    G=(none)   M=ComObj   ACBP=A9
 0001:00000958 00000036 C=CODE     S=.text    G=(none)   M=kbmMemTable ACBP=A9
 0001:00000990 00000006 C=CODE     S=.text    G=(none)   M=StrUtils ACBP=A9
 0001:00000998 0000018E C=CODE     S=.text    G=(none)   M=Forms    ACBP=A9
 0001:00000B28 00000006 C=CODE     S=.text    G=(none)   M=HelpIntfs ACBP=A9
 0001:00000B30 00000006 C=CODE     S=.text    G=(none)   M=MultiMon ACBP=A9
 0001:00000B38 00000036 C=CODE     S=.text    G=(none)   M=ActnList ACBP=A9
 0001:00000B70 00000006 C=CODE     S=.text    G=(none)   M=Themes   ACBP=A9
 0001:00000B78 0000020E C=CODE     S=.text    G=(none)   M=Controls ACBP=A9
 0001:00000D88 0000000E C=CODE     S=.text    G=(none)   M=Menus    ACBP=A9
 0001:00000D98 00000006 C=CODE     S=.text    G=(none)   M=UxTheme  ACBP=A9
 0001:00000DA0 00000006 C=CODE     S=.text    G=(none)   M=DwmApi   ACBP=A9
 0001:00000DA8 00000016 C=CODE     S=.text    G=(none)   M=Dialogs  ACBP=A9
 0001:00000DC0 00000006 C=CODE     S=.text    G=(none)   M=ShellAPI ACBP=A9
 0001:00000DC8 000000AE C=CODE     S=.text    G=(none)   M=StdCtrls ACBP=A9
 0001:00000E78 00000006 C=CODE     S=.text    G=(none)   M=Printers ACBP=A9
 0001:00000E80 0000003E C=CODE     S=.text    G=(none)   M=ExtCtrls ACBP=A9
 0001:00000EC0 00000006 C=CODE     S=.text    G=(none)   M=GraphUtil ACBP=A9
 0001:00000EC8 00000006 C=CODE     S=.text    G=(none)   M=Clipbrd  ACBP=A9
 0001:00000ED0 00000006 C=CODE     S=.text    G=(none)   M=FlatSB   ACBP=A9
 0001:00000ED8 00000056 C=CODE     S=.text    G=(none)   M=BisDataSet ACBP=A9
 0001:00000F30 00000036 C=CODE     S=.text    G=(none)   M=BisParam ACBP=A9
 0001:00000F68 0000001E C=CODE     S=.text    G=(none)   M=BisFilterGroups ACBP=A9
 0001:00000F88 000000BE C=CODE     S=.text    G=(none)   M=BisParams ACBP=A9
 0001:00001048 00000006 C=CODE     S=.text    G=(none)   M=GIFImage ACBP=A9
 0001:00001050 00000006 C=CODE     S=.text    G=(none)   M=jpeg     ACBP=A9
 0001:00001058 00000036 C=CODE     S=.text    G=(none)   M=BisControls ACBP=A9
 0001:00001090 0000001E C=CODE     S=.text    G=(none)   M=Mask     ACBP=A9
 0001:000010B0 00000006 C=CODE     S=.text    G=(none)   M=RxRichEd ACBP=A9
 0001:000010B8 0000006E C=CODE     S=.text    G=(none)   M=ComCtrls ACBP=A9
 0001:00001128 00000006 C=CODE     S=.text    G=(none)   M=ExtActns ACBP=A9
 0001:00001130 00000006 C=CODE     S=.text    G=(none)   M=ExtDlgs  ACBP=A9
 0001:00001138 00000006 C=CODE     S=.text    G=(none)   M=Buttons  ACBP=A9
 0001:00001140 00000006 C=CODE     S=.text    G=(none)   M=Mapi     ACBP=A9
 0001:00001148 00000006 C=CODE     S=.text    G=(none)   M=OleCtnrs ACBP=A9
 0001:00001150 000000C6 C=CODE     S=.text    G=(none)   M=rxToolEdit ACBP=A9
 0001:00001218 00000006 C=CODE     S=.text    G=(none)   M=rxDateUtil ACBP=A9
 0001:00001220 00000006 C=CODE     S=.text    G=(none)   M=RXCtrls  ACBP=A9
 0001:00001228 00000006 C=CODE     S=.text    G=(none)   M=RxHook   ACBP=A9
 0001:00001230 00000006 C=CODE     S=.text    G=(none)   M=RXConst  ACBP=A9
 0001:00001238 00000006 C=CODE     S=.text    G=(none)   M=rxVclutils ACBP=A9
 0001:00001240 00000006 C=CODE     S=.text    G=(none)   M=RXProps  ACBP=A9
 0001:00001248 00000006 C=CODE     S=.text    G=(none)   M=rxAppUtils ACBP=A9
 0001:00001250 00000006 C=CODE     S=.text    G=(none)   M=RxPrgrss ACBP=A9
 0001:00001258 00000016 C=CODE     S=.text    G=(none)   M=DBCtrls  ACBP=A9
 0001:00001270 00000006 C=CODE     S=.text    G=(none)   M=DBPWDlg  ACBP=A9
 0001:00001278 00000006 C=CODE     S=.text    G=(none)   M=DBLogDlg ACBP=A9
 0001:00001280 00000006 C=CODE     S=.text    G=(none)   M=BisOrders ACBP=A9
 0001:00001288 0000004E C=CODE     S=.text    G=(none)   M=BisFieldNames ACBP=A9
 0001:000012D8 00000006 C=CODE     S=.text    G=(none)   M=BisIfaces ACBP=A9
 0001:000012E0 0000000E C=CODE     S=.text    G=(none)   M=BisPermissions ACBP=A9
 0001:000012F0 0000008E C=CODE     S=.text    G=(none)   M=BisDataEditFm ACBP=A9
 0001:00001380 000000EE C=CODE     S=.text    G=(none)   M=BisFm    ACBP=A9
 0001:00001470 000000FE C=CODE     S=.text    G=(none)   M=BisDataFrm ACBP=A9
 0001:00001570 0000004E C=CODE     S=.text    G=(none)   M=BisFrm   ACBP=A9
 0001:000015C0 00000016 C=CODE     S=.text    G=(none)   M=ActnMan  ACBP=A9
 0001:000015D8 00000006 C=CODE     S=.text    G=(none)   M=ActnMenus ACBP=A9
 0001:000015E0 00000006 C=CODE     S=.text    G=(none)   M=XPStyleActnCtrls ACBP=A9
 0001:000015E8 0000003E C=CODE     S=.text    G=(none)   M=DBGrids  ACBP=A9
 0001:00001628 00000016 C=CODE     S=.text    G=(none)   M=BisDialogs ACBP=A9
 0001:00001640 00000006 C=CODE     S=.text    G=(none)   M=SHDocVw  ACBP=A9
 0001:00001648 00000006 C=CODE     S=.text    G=(none)   M=OleServer ACBP=A9
 0001:00001650 0000000E C=CODE     S=.text    G=(none)   M=OleCtrls ACBP=A9
 0001:00001660 00000006 C=CODE     S=.text    G=(none)   M=AxCtrls  ACBP=A9
 0001:00001668 00000006 C=CODE     S=.text    G=(none)   M=BisFastReportClasses ACBP=A9
 0001:00001670 00000006 C=CODE     S=.text    G=(none)   M=frxClass ACBP=A9
 0001:00001678 00000006 C=CODE     S=.text    G=(none)   M=fs_iinterpreter ACBP=A9
 0001:00001680 00000006 C=CODE     S=.text    G=(none)   M=fs_iconst ACBP=A9
 0001:00001688 00000006 C=CODE     S=.text    G=(none)   M=fs_itools ACBP=A9
 0001:00001690 00000006 C=CODE     S=.text    G=(none)   M=frxRes   ACBP=A9
 0001:00001698 00000006 C=CODE     S=.text    G=(none)   M=frxDMPClass ACBP=A9
 0001:000016A0 00000006 C=CODE     S=.text    G=(none)   M=frxDsgnIntf ACBP=A9
 0001:000016A8 00000006 C=CODE     S=.text    G=(none)   M=fs_iinirtti ACBP=A9
 0001:000016B0 00000006 C=CODE     S=.text    G=(none)   M=fs_idialogsrtti ACBP=A9
 0001:000016B8 00000006 C=CODE     S=.text    G=(none)   M=fs_iclassesrtti ACBP=A9
 0001:000016C0 00000006 C=CODE     S=.text    G=(none)   M=fs_iformsrtti ACBP=A9
 0001:000016C8 00000006 C=CODE     S=.text    G=(none)   M=fs_igraphicsrtti ACBP=A9
 0001:000016D0 00000006 C=CODE     S=.text    G=(none)   M=fs_ijs   ACBP=A9
 0001:000016D8 00000006 C=CODE     S=.text    G=(none)   M=fs_ibasic ACBP=A9
 0001:000016E0 00000006 C=CODE     S=.text    G=(none)   M=fs_icpp  ACBP=A9
 0001:000016E8 00000006 C=CODE     S=.text    G=(none)   M=fs_ipascal ACBP=A9
 0001:000016F0 00000006 C=CODE     S=.text    G=(none)   M=frxClassRTTI ACBP=A9
 0001:000016F8 00000006 C=CODE     S=.text    G=(none)   M=frxPrinter ACBP=A9
 0001:00001700 00000006 C=CODE     S=.text    G=(none)   M=frxPreview ACBP=A9
 0001:00001708 00000006 C=CODE     S=.text    G=(none)   M=frxSearchDialog ACBP=A9
 0001:00001710 00000006 C=CODE     S=.text    G=(none)   M=frxrcClass ACBP=A9
 0001:00001718 00000006 C=CODE     S=.text    G=(none)   M=frxGraphicUtils ACBP=A9
 0001:00001720 00000006 C=CODE     S=.text    G=(none)   M=frxChm   ACBP=A9
 0001:00001728 00000006 C=CODE     S=.text    G=(none)   M=frxDesgn ACBP=A9
 0001:00001730 00000006 C=CODE     S=.text    G=(none)   M=Tabs     ACBP=A9
 0001:00001738 00000006 C=CODE     S=.text    G=(none)   M=frxDataTree ACBP=A9
 0001:00001740 00000006 C=CODE     S=.text    G=(none)   M=frxrcInsp ACBP=A9
 0001:00001748 00000006 C=CODE     S=.text    G=(none)   M=frxUnicodeCtrls ACBP=A9
 0001:00001750 00000006 C=CODE     S=.text    G=(none)   M=frxrcDesgn ACBP=A9
 0001:00001758 00000006 C=CODE     S=.text    G=(none)   M=frxStdWizard ACBP=A9
 0001:00001760 00000006 C=CODE     S=.text    G=(none)   M=CheckLst ACBP=A9
 0001:00001768 00000006 C=CODE     S=.text    G=(none)   M=frxDesgnEditors ACBP=A9
 0001:00001770 00000006 C=CODE     S=.text    G=(none)   M=frxEditFormat ACBP=A9
 0001:00001778 00000006 C=CODE     S=.text    G=(none)   M=BisFastReportControls ACBP=A9
 0001:00001780 00000006 C=CODE     S=.text    G=(none)   M=JclDebug ACBP=A9
 0001:00001788 00000006 C=CODE     S=.text    G=(none)   M=JclSysInfo ACBP=A9
 0001:00001790 00000006 C=CODE     S=.text    G=(none)   M=JclStrings ACBP=A9
 0001:00001798 00000006 C=CODE     S=.text    G=(none)   M=JclSysUtils ACBP=A9
 0001:000017A0 00000006 C=CODE     S=.text    G=(none)   M=JclWideStrings ACBP=A9
 0001:000017A8 00000006 C=CODE     S=.text    G=(none)   M=JclShell ACBP=A9
 0001:000017B0 00000006 C=CODE     S=.text    G=(none)   M=JclRegistry ACBP=A9
 0001:000017B8 00000006 C=CODE     S=.text    G=(none)   M=JclHookExcept ACBP=A9
 0001:000017C0 00000006 C=CODE     S=.text    G=(none)   M=BisTimedMsgFm ACBP=A9
 0001:000017C8 00000006 C=CODE     S=.text    G=(none)   M=BisServiceApplication ACBP=A9
 0001:000017D0 00000006 C=CODE     S=.text    G=(none)   M=BisSvcMgr ACBP=A9
 0001:000017D8 00000006 C=CODE     S=.text    G=(none)   M=SvcMgr   ACBP=A9
 0001:000017E0 00000006 C=CODE     S=.text    G=(none)   M=BisFastReportComponents ACBP=A9
 0001:000017E8 00000006 C=CODE     S=.text    G=(none)   M=frxCustomDB ACBP=A9
 0001:000017F0 00000006 C=CODE     S=.text    G=(none)   M=frxCustomDBRTTI ACBP=A9
 0001:000017F8 00000006 C=CODE     S=.text    G=(none)   M=fs_idbrtti ACBP=A9
 0001:00001800 00000006 C=CODE     S=.text    G=(none)   M=frxCustomDBEditor ACBP=A9
 0001:00001808 00000006 C=CODE     S=.text    G=(none)   M=frxConnWizard ACBP=A9
 0001:00001810 00000006 C=CODE     S=.text    G=(none)   M=frxrcExports ACBP=A9
 0001:00001818 00000006 C=CODE     S=.text    G=(none)   M=frxExportTXT ACBP=A9
 0001:00001820 00000006 C=CODE     S=.text    G=(none)   M=frxExportODF ACBP=A9
 0001:00001828 00000006 C=CODE     S=.text    G=(none)   M=frxNetUtils ACBP=A9
 0001:00001830 00000006 C=CODE     S=.text    G=(none)   M=frxGradient ACBP=A9
 0001:00001838 00000006 C=CODE     S=.text    G=(none)   M=frxGradientRTTI ACBP=A9
 0001:00001840 00000006 C=CODE     S=.text    G=(none)   M=frxDCtrl ACBP=A9
 0001:00001848 00000006 C=CODE     S=.text    G=(none)   M=frxDCtrlRTTI ACBP=A9
 0001:00001850 00000006 C=CODE     S=.text    G=(none)   M=frxBarcode ACBP=A9
 0001:00001858 00000006 C=CODE     S=.text    G=(none)   M=frxBarcod ACBP=A9
 0001:00001860 00000006 C=CODE     S=.text    G=(none)   M=frxBarcodeRTTI ACBP=A9
 0001:00001868 00000006 C=CODE     S=.text    G=(none)   M=frxBarcodeEditor ACBP=A9
 0001:00001870 00000006 C=CODE     S=.text    G=(none)   M=frxOLE   ACBP=A9
 0001:00001878 00000006 C=CODE     S=.text    G=(none)   M=frxOLEEditor ACBP=A9
 0001:00001880 00000006 C=CODE     S=.text    G=(none)   M=frxOLERTTI ACBP=A9
 0001:00001888 00000006 C=CODE     S=.text    G=(none)   M=frxRich  ACBP=A9
 0001:00001890 00000006 C=CODE     S=.text    G=(none)   M=frxRichEdit ACBP=A9
 0001:00001898 00000006 C=CODE     S=.text    G=(none)   M=frxRichEditor ACBP=A9
 0001:000018A0 00000006 C=CODE     S=.text    G=(none)   M=frxRichRTTI ACBP=A9
 0001:000018A8 00000006 C=CODE     S=.text    G=(none)   M=frxCross ACBP=A9
 0001:000018B0 00000006 C=CODE     S=.text    G=(none)   M=frxCrossRTTI ACBP=A9
 0001:000018B8 00000006 C=CODE     S=.text    G=(none)   M=frxCrossEditor ACBP=A9
 0001:000018C0 00000006 C=CODE     S=.text    G=(none)   M=frxChBox ACBP=A9
 0001:000018C8 00000006 C=CODE     S=.text    G=(none)   M=frxChBoxRTTI ACBP=A9
 0001:000018D0 00000006 C=CODE     S=.text    G=(none)   M=frxChart ACBP=A9
 0001:000018D8 00000006 C=CODE     S=.text    G=(none)   M=TeCanvas ACBP=A9
 0001:000018E0 00000006 C=CODE     S=.text    G=(none)   M=TeeConst ACBP=A9
 0001:000018E8 00000006 C=CODE     S=.text    G=(none)   M=TeeHtml  ACBP=A9
 0001:000018F0 00000006 C=CODE     S=.text    G=(none)   M=TeeProcs ACBP=A9
 0001:000018F8 00000006 C=CODE     S=.text    G=(none)   M=Chart    ACBP=A9
 0001:00001900 00000006 C=CODE     S=.text    G=(none)   M=TeEngine ACBP=A9
 0001:00001908 00000006 C=CODE     S=.text    G=(none)   M=frxChartEditor ACBP=A9
 0001:00001910 00000006 C=CODE     S=.text    G=(none)   M=TeeGally ACBP=A9
 0001:00001918 00000006 C=CODE     S=.text    G=(none)   M=TeeGalleryPanel ACBP=A9
 0001:00001920 00000006 C=CODE     S=.text    G=(none)   M=frxChartHelpers ACBP=A9
 0001:00001928 00000006 C=CODE     S=.text    G=(none)   M=ArrowCha ACBP=A9
 0001:00001930 00000006 C=CODE     S=.text    G=(none)   M=BubbleCh ACBP=A9
 0001:00001938 00000006 C=CODE     S=.text    G=(none)   M=TeeShape ACBP=A9
 0001:00001940 00000006 C=CODE     S=.text    G=(none)   M=GanttCh  ACBP=A9
 0001:00001948 00000006 C=CODE     S=.text    G=(none)   M=frxChartRTTI ACBP=A9
 0001:00001950 00000006 C=CODE     S=.text    G=(none)   M=fs_ichartrtti ACBP=A9
 0001:00001958 00000006 C=CODE     S=.text    G=(none)   M=AppEvnts ACBP=A9
 0001:00001960 00000006 C=CODE     S=.text    G=(none)   M=CustomizeDlg ACBP=A9
 0001:00001968 0000004E C=CODE     S=.text    G=(none)   M=BisMDIMainFm ACBP=A9
 0001:000019B8 00000056 C=CODE     S=.text    G=(none)   M=BisCallcConsts ACBP=A9
 0001:00001A10 00000686 C=CODE     S=.text    G=(none)   M=BisCallcMainFm ACBP=A9
 0001:00002098 0000001E C=CODE     S=.text    G=(none)   M=BisDataGridFm ACBP=A9
 0001:000020B8 0000007E C=CODE     S=.text    G=(none)   M=BisDataGridFrm ACBP=A9
 0001:00002138 0000001E C=CODE     S=.text    G=(none)   M=BisDBTree ACBP=A9
 0001:00002158 0000001E C=CODE     S=.text    G=(none)   M=VirtualTrees ACBP=A9
 0001:00002178 00000006 C=CODE     S=.text    G=(none)   M=VTAccessibilityFactory ACBP=A9
 0001:00002180 00000A7E C=CODE     S=.text    G=(none)   M=BisCallcHbookCurrencyEditFm ACBP=A9
 0001:00002C00 000004BE C=CODE     S=.text    G=(none)   M=BisCallcHbookCurrencyFm ACBP=A9
 0001:000030C0 00000B52 C=CODE     S=.text    G=(none)   M=BisCallcHbookVariantEditFm ACBP=A9
 0001:00003C14 000005F2 C=CODE     S=.text    G=(none)   M=BisCallcHbookVariantsFm ACBP=A9
 0001:00004208 00000026 C=CODE     S=.text    G=(none)   M=BisDataTreeFm ACBP=A9
 0001:00004230 0000122A C=CODE     S=.text    G=(none)   M=BisCallcHbookAgreementEditFm ACBP=A9
 0001:0000545C 000005E6 C=CODE     S=.text    G=(none)   M=BisCallcHbookAgreementsFm ACBP=A9
 0001:00005A44 00000B3A C=CODE     S=.text    G=(none)   M=BisCallcHbookAccountFirmEditFm ACBP=A9
 0001:00006580 000004EE C=CODE     S=.text    G=(none)   M=BisCallcHbookAccountFirmsFm ACBP=A9
 0001:00006A70 00000D1E C=CODE     S=.text    G=(none)   M=BisCallcHbookPatternEditFm ACBP=A9
 0001:00007790 000004BA C=CODE     S=.text    G=(none)   M=BisCallcHbookPatternsFm ACBP=A9
 0001:00007C4C 00000B7A C=CODE     S=.text    G=(none)   M=BisCallcHbookGroupEditFm ACBP=A9
 0001:000087C8 000005CE C=CODE     S=.text    G=(none)   M=BisCallcHbookGroupsFm ACBP=A9
 0001:00008D98 00000BBA C=CODE     S=.text    G=(none)   M=BisCallcHbookAccountGroupEditFm ACBP=A9
 0001:00009954 0000053E C=CODE     S=.text    G=(none)   M=BisCallcHbookAccountGroupsFm ACBP=A9
 0001:00009E94 00000BB2 C=CODE     S=.text    G=(none)   M=BisCallcHbookActionEditFm ACBP=A9
 0001:0000AA48 00000596 C=CODE     S=.text    G=(none)   M=BisCallcHbookActionsFm ACBP=A9
 0001:0000AFE0 00000BE2 C=CODE     S=.text    G=(none)   M=BisCallcHbookAccountActionEditFm ACBP=A9
 0001:0000BBC4 00000546 C=CODE     S=.text    G=(none)   M=BisCallcHbookAccountActionsFm ACBP=A9
 0001:0000C10C 00000C66 C=CODE     S=.text    G=(none)   M=BisCallcHbookResultEditFm ACBP=A9
 0001:0000CD74 0000056E C=CODE     S=.text    G=(none)   M=BisCallcHbookResultsFm ACBP=A9
 0001:0000D2E4 00000B7E C=CODE     S=.text    G=(none)   M=BisCallcHbookActionResultEditFm ACBP=A9
 0001:0000DE64 0000053A C=CODE     S=.text    G=(none)   M=BisCallcHbookActionResultsFm ACBP=A9
 0001:0000E3A0 00000B6A C=CODE     S=.text    G=(none)   M=BisCallcHbookStatusEditFm ACBP=A9
 0001:0000EF0C 000004FE C=CODE     S=.text    G=(none)   M=BisCallcHbookStatusesFm ACBP=A9
 0001:0000F40C 0000302E C=CODE     S=.text    G=(none)   M=BisCallcBiasFIO ACBP=A9
 0001:0001243C 0000166A C=CODE     S=.text    G=(none)   M=BisCallcHbookCaseEditFm ACBP=A9
 0001:00013AA8 0000069A C=CODE     S=.text    G=(none)   M=BisCallcHbookCasesFm ACBP=A9
 0001:00014144 00000FAA C=CODE     S=.text    G=(none)   M=BisCallcHbookDebtorHistoriesFm ACBP=A9
 0001:000150F0 00001C2A C=CODE     S=.text    G=(none)   M=BisCallcHbookDebtorEditFm ACBP=A9
 0001:00016D1C 00000986 C=CODE     S=.text    G=(none)   M=BisCallcHbookDebtorsFm ACBP=A9
 0001:000176A4 000009B2 C=CODE     S=.text    G=(none)   M=BisCallcHbookPlanEditFm ACBP=A9
 0001:00018058 00000486 C=CODE     S=.text    G=(none)   M=BisCallcHbookPlansFm ACBP=A9
 0001:000184E0 0000125A C=CODE     S=.text    G=(none)   M=BisCallcHbookDealEditFm ACBP=A9
 0001:0001973C 000006EE C=CODE     S=.text    G=(none)   M=BisCallcHbookDealsFm ACBP=A9
 0001:00019E2C 000015FE C=CODE     S=.text    G=(none)   M=BisCallcHbookPaymentEditFm ACBP=A9
 0001:0001B42C 0000074E C=CODE     S=.text    G=(none)   M=BisCallcHbookPaymentsFm ACBP=A9
 0001:0001BB7C 000011CE C=CODE     S=.text    G=(none)   M=BisCallcHbookTaskEditFm ACBP=A9
 0001:0001CD4C 00000772 C=CODE     S=.text    G=(none)   M=BisCallcHbookTasksFm ACBP=A9
 0001:0001D4C0 0000172A C=CODE     S=.text    G=(none)   M=BisCallcHbookTaskDocumentEditFm ACBP=A9
 0001:0001EBEC 0000075A C=CODE     S=.text    G=(none)   M=BisCallcHbookTaskDocumentsFm ACBP=A9
 0001:0001F348 00000616 C=CODE     S=.text    G=(none)   M=BisCallcTaskFrm ACBP=A9
 0001:0001F960 0000023A C=CODE     S=.text    G=(none)   M=BisCallcReadinessFm ACBP=A9
 0001:0001FB9C 00000306 C=CODE     S=.text    G=(none)   M=BisCallcTaskExecuteInfoFm ACBP=A9
 0001:0001FEA4 00002D96 C=CODE     S=.text    G=(none)   M=BisCallcTaskFm ACBP=A9
 0001:00022C3C 0000004E C=CODE     S=.text    G=(none)   M=BisTapi  ACBP=A9
 0001:00022C8C 00000006 C=CODE     S=.text    G=(none)   M=TAPISystem ACBP=A9
 0001:00022C94 0000099A C=CODE     S=.text    G=(none)   M=BisCallcDealFrameTasksFrm ACBP=A9
 0001:00023630 0000102E C=CODE     S=.text    G=(none)   M=BisCallcDealFramePaymentsFrm ACBP=A9
 0001:00024660 00001312 C=CODE     S=.text    G=(none)   M=BisCallcDealFrameDocumentsFrm ACBP=A9
 0001:00025974 0000000E C=CODE     S=.text    G=(none)   M=BisCodec ACBP=A9
 0001:00025984 00000006 C=CODE     S=.text    G=(none)   M=ACS_Classes ACBP=A9
 0001:0002598C 00000006 C=CODE     S=.text    G=(none)   M=ACS_Tags ACBP=A9
 0001:00025994 00006622 C=CODE     S=.text    G=(none)   M=BisCallcDealFrm ACBP=A9
 0001:0002BFB8 000004D6 C=CODE     S=.text    G=(none)   M=BisCallcTaskOperatorFm ACBP=A9
 0001:0002C490 00000772 C=CODE     S=.text    G=(none)   M=BisCallcDealsFrameTasksFilterFm ACBP=A9
 0001:0002CC04 00000622 C=CODE     S=.text    G=(none)   M=BisCallcDealEditFm ACBP=A9
 0001:0002D228 00002DE2 C=CODE     S=.text    G=(none)   M=BisCallcDealsFrameTasksFrm ACBP=A9
 0001:0003000C 00000FAA C=CODE     S=.text    G=(none)   M=BisCallcDealsFrm ACBP=A9
 0001:00030FB8 0000040A C=CODE     S=.text    G=(none)   M=BisCallcTaskLeaderFm ACBP=A9
 0001:000313C4 00000402 C=CODE     S=.text    G=(none)   M=BisCallcTaskClerkFm ACBP=A9
 0001:000317C8 00000412 C=CODE     S=.text    G=(none)   M=BisCallcTaskManagerFm ACBP=A9
 0001:00031BDC 00000BB6 C=CODE     S=.text    G=(none)   M=BisCallcHbookPlanActionEditFm ACBP=A9
 0001:00032794 00000552 C=CODE     S=.text    G=(none)   M=BisCallcHbookPlanActionsFm ACBP=A9
 0001:00032CE8 00000036 C=CODE     S=.text    G=(none)   M=BisXmlDocument ACBP=A9
 0001:00032D20 00000006 C=CODE     S=.text    G=(none)   M=ALfcnString ACBP=A9
 0001:00032D28 00000006 C=CODE     S=.text    G=(none)   M=ALCPUID  ACBP=A9
 0001:00032D30 00000006 C=CODE     S=.text    G=(none)   M=ALFcnHTML ACBP=A9
 0001:00032D38 0000518E C=CODE     S=.text    G=(none)   M=BisCallcImportFm ACBP=A9
 0001:00037EC8 00000BD6 C=CODE     S=.text    G=(none)   M=BisCallcHbookActionReportEditFm ACBP=A9
 0001:00038AA0 00000536 C=CODE     S=.text    G=(none)   M=BisCallcHbookActionReportsFm ACBP=A9
 0001:00038FD8 0000099E C=CODE     S=.text    G=(none)   M=BisCallcTakeBellFilterFm ACBP=A9
 0001:00039978 000034EE C=CODE     S=.text    G=(none)   M=BisCallcTakeBellFrm ACBP=A9
 0001:0003CE68 00000582 C=CODE     S=.text    G=(none)   M=BisCallcTakeBellFm ACBP=A9
 0001:0003D3EC 000001B2 C=CODE     S=.text    G=(none)   M=BisCallc ACBP=A9
 0001:0003D5A0 000010EF C=CODE     S=.text    G=(none)   M=.imcallc ACBP=A9
 0002:00000000 00000006 C=ICODE    S=.itext   G=(none)   M=System   ACBP=A9
 0002:00000008 00000006 C=ICODE    S=.itext   G=(none)   M=Classes  ACBP=A9
 0002:00000010 00000011 C=ICODE    S=.itext   G=(none)   M=Windows  ACBP=A9
 0002:00000024 00000006 C=ICODE    S=.itext   G=(none)   M=TypInfo  ACBP=A9
 0002:0000002C 00000006 C=ICODE    S=.itext   G=(none)   M=SysUtils ACBP=A9
 0002:00000034 00000006 C=ICODE    S=.itext   G=(none)   M=Variants ACBP=A9
 0002:0000003C 00000006 C=ICODE    S=.itext   G=(none)   M=VarUtils ACBP=A9
 0002:00000044 00000006 C=ICODE    S=.itext   G=(none)   M=IniFiles ACBP=A9
 0002:0000004C 00000006 C=ICODE    S=.itext   G=(none)   M=Graphics ACBP=A9
 0002:00000054 00000006 C=ICODE    S=.itext   G=(none)   M=Registry ACBP=A9
 0002:0000005C 00000006 C=ICODE    S=.itext   G=(none)   M=BisUtils ACBP=A9
 0002:00000064 00000006 C=ICODE    S=.itext   G=(none)   M=BisCore  ACBP=A9
 0002:0000006C 00000006 C=ICODE    S=.itext   G=(none)   M=DECUtil  ACBP=A9
 0002:00000074 00000006 C=ICODE    S=.itext   G=(none)   M=Hash     ACBP=A9
 0002:0000007C 00000006 C=ICODE    S=.itext   G=(none)   M=Cipher   ACBP=A9
 0002:00000084 00000006 C=ICODE    S=.itext   G=(none)   M=Cipher1  ACBP=A9
 0002:0000008C 00000006 C=ICODE    S=.itext   G=(none)   M=BisCryptUtils ACBP=A9
 0002:00000094 00000006 C=ICODE    S=.itext   G=(none)   M=DB       ACBP=A9
 0002:0000009C 00000006 C=ICODE    S=.itext   G=(none)   M=WideStrings ACBP=A9
 0002:000000A4 00000006 C=ICODE    S=.itext   G=(none)   M=FMTBcd   ACBP=A9
 0002:000000AC 00000006 C=ICODE    S=.itext   G=(none)   M=SqlTimSt ACBP=A9
 0002:000000B4 00000006 C=ICODE    S=.itext   G=(none)   M=ComObj   ACBP=A9
 0002:000000BC 00000006 C=ICODE    S=.itext   G=(none)   M=kbmMemTable ACBP=A9
 0002:000000C4 00000006 C=ICODE    S=.itext   G=(none)   M=Forms    ACBP=A9
 0002:000000CC 00000006 C=ICODE    S=.itext   G=(none)   M=HelpIntfs ACBP=A9
 0002:000000D4 00000006 C=ICODE    S=.itext   G=(none)   M=MultiMon ACBP=A9
 0002:000000DC 00000006 C=ICODE    S=.itext   G=(none)   M=ActnList ACBP=A9
 0002:000000E4 00000006 C=ICODE    S=.itext   G=(none)   M=Themes   ACBP=A9
 0002:000000EC 00000006 C=ICODE    S=.itext   G=(none)   M=Controls ACBP=A9
 0002:000000F4 00000006 C=ICODE    S=.itext   G=(none)   M=Menus    ACBP=A9
 0002:000000FC 00000006 C=ICODE    S=.itext   G=(none)   M=UxTheme  ACBP=A9
 0002:00000104 00000006 C=ICODE    S=.itext   G=(none)   M=DwmApi   ACBP=A9
 0002:0000010C 00000006 C=ICODE    S=.itext   G=(none)   M=Dialogs  ACBP=A9
 0002:00000114 00000006 C=ICODE    S=.itext   G=(none)   M=Printers ACBP=A9
 0002:0000011C 00000006 C=ICODE    S=.itext   G=(none)   M=ExtCtrls ACBP=A9
 0002:00000124 00000006 C=ICODE    S=.itext   G=(none)   M=GraphUtil ACBP=A9
 0002:0000012C 00000006 C=ICODE    S=.itext   G=(none)   M=Clipbrd  ACBP=A9
 0002:00000134 00000006 C=ICODE    S=.itext   G=(none)   M=FlatSB   ACBP=A9
 0002:0000013C 00000006 C=ICODE    S=.itext   G=(none)   M=GIFImage ACBP=A9
 0002:00000144 00000006 C=ICODE    S=.itext   G=(none)   M=jpeg     ACBP=A9
 0002:0000014C 00000006 C=ICODE    S=.itext   G=(none)   M=RxRichEd ACBP=A9
 0002:00000154 00000006 C=ICODE    S=.itext   G=(none)   M=ComCtrls ACBP=A9
 0002:0000015C 00000006 C=ICODE    S=.itext   G=(none)   M=ExtActns ACBP=A9
 0002:00000164 00000006 C=ICODE    S=.itext   G=(none)   M=ExtDlgs  ACBP=A9
 0002:0000016C 00000006 C=ICODE    S=.itext   G=(none)   M=Buttons  ACBP=A9
 0002:00000174 00000006 C=ICODE    S=.itext   G=(none)   M=Mapi     ACBP=A9
 0002:0000017C 00000006 C=ICODE    S=.itext   G=(none)   M=OleCtnrs ACBP=A9
 0002:00000184 00000006 C=ICODE    S=.itext   G=(none)   M=rxToolEdit ACBP=A9
 0002:0000018C 00000006 C=ICODE    S=.itext   G=(none)   M=rxDateUtil ACBP=A9
 0002:00000194 00000006 C=ICODE    S=.itext   G=(none)   M=RXCtrls  ACBP=A9
 0002:0000019C 00000006 C=ICODE    S=.itext   G=(none)   M=RxHook   ACBP=A9
 0002:000001A4 00000006 C=ICODE    S=.itext   G=(none)   M=RXConst  ACBP=A9
 0002:000001AC 00000006 C=ICODE    S=.itext   G=(none)   M=rxVclutils ACBP=A9
 0002:000001B4 00000006 C=ICODE    S=.itext   G=(none)   M=RXProps  ACBP=A9
 0002:000001BC 00000006 C=ICODE    S=.itext   G=(none)   M=rxAppUtils ACBP=A9
 0002:000001C4 00000006 C=ICODE    S=.itext   G=(none)   M=RxPrgrss ACBP=A9
 0002:000001CC 00000006 C=ICODE    S=.itext   G=(none)   M=DBCtrls  ACBP=A9
 0002:000001D4 00000006 C=ICODE    S=.itext   G=(none)   M=DBPWDlg  ACBP=A9
 0002:000001DC 00000006 C=ICODE    S=.itext   G=(none)   M=DBLogDlg ACBP=A9
 0002:000001E4 00000006 C=ICODE    S=.itext   G=(none)   M=ActnMan  ACBP=A9
 0002:000001EC 00000006 C=ICODE    S=.itext   G=(none)   M=ActnMenus ACBP=A9
 0002:000001F4 00000006 C=ICODE    S=.itext   G=(none)   M=XPStyleActnCtrls ACBP=A9
 0002:000001FC 00000006 C=ICODE    S=.itext   G=(none)   M=OleServer ACBP=A9
 0002:00000204 00000006 C=ICODE    S=.itext   G=(none)   M=OleCtrls ACBP=A9
 0002:0000020C 00000006 C=ICODE    S=.itext   G=(none)   M=AxCtrls  ACBP=A9
 0002:00000214 00000006 C=ICODE    S=.itext   G=(none)   M=BisFastReportClasses ACBP=A9
 0002:0000021C 00000006 C=ICODE    S=.itext   G=(none)   M=frxClass ACBP=A9
 0002:00000224 00000006 C=ICODE    S=.itext   G=(none)   M=fs_iinterpreter ACBP=A9
 0002:0000022C 00000006 C=ICODE    S=.itext   G=(none)   M=fs_iconst ACBP=A9
 0002:00000234 00000006 C=ICODE    S=.itext   G=(none)   M=fs_itools ACBP=A9
 0002:0000023C 00000006 C=ICODE    S=.itext   G=(none)   M=frxRes   ACBP=A9
 0002:00000244 00000006 C=ICODE    S=.itext   G=(none)   M=frxDMPClass ACBP=A9
 0002:0000024C 00000006 C=ICODE    S=.itext   G=(none)   M=frxDsgnIntf ACBP=A9
 0002:00000254 00000006 C=ICODE    S=.itext   G=(none)   M=fs_iinirtti ACBP=A9
 0002:0000025C 00000006 C=ICODE    S=.itext   G=(none)   M=fs_idialogsrtti ACBP=A9
 0002:00000264 00000006 C=ICODE    S=.itext   G=(none)   M=fs_iclassesrtti ACBP=A9
 0002:0000026C 00000006 C=ICODE    S=.itext   G=(none)   M=fs_iformsrtti ACBP=A9
 0002:00000274 00000006 C=ICODE    S=.itext   G=(none)   M=fs_igraphicsrtti ACBP=A9
 0002:0000027C 00000006 C=ICODE    S=.itext   G=(none)   M=fs_ijs   ACBP=A9
 0002:00000284 00000006 C=ICODE    S=.itext   G=(none)   M=fs_ibasic ACBP=A9
 0002:0000028C 00000006 C=ICODE    S=.itext   G=(none)   M=fs_icpp  ACBP=A9
 0002:00000294 00000006 C=ICODE    S=.itext   G=(none)   M=fs_ipascal ACBP=A9
 0002:0000029C 00000006 C=ICODE    S=.itext   G=(none)   M=frxClassRTTI ACBP=A9
 0002:000002A4 00000006 C=ICODE    S=.itext   G=(none)   M=frxPrinter ACBP=A9
 0002:000002AC 00000006 C=ICODE    S=.itext   G=(none)   M=frxPreview ACBP=A9
 0002:000002B4 00000006 C=ICODE    S=.itext   G=(none)   M=frxSearchDialog ACBP=A9
 0002:000002BC 00000006 C=ICODE    S=.itext   G=(none)   M=frxrcClass ACBP=A9
 0002:000002C4 00000006 C=ICODE    S=.itext   G=(none)   M=frxGraphicUtils ACBP=A9
 0002:000002CC 00000006 C=ICODE    S=.itext   G=(none)   M=frxChm   ACBP=A9
 0002:000002D4 00000006 C=ICODE    S=.itext   G=(none)   M=frxDesgn ACBP=A9
 0002:000002DC 00000006 C=ICODE    S=.itext   G=(none)   M=Tabs     ACBP=A9
 0002:000002E4 00000006 C=ICODE    S=.itext   G=(none)   M=frxDataTree ACBP=A9
 0002:000002EC 00000006 C=ICODE    S=.itext   G=(none)   M=frxrcInsp ACBP=A9
 0002:000002F4 00000006 C=ICODE    S=.itext   G=(none)   M=frxUnicodeCtrls ACBP=A9
 0002:000002FC 00000006 C=ICODE    S=.itext   G=(none)   M=frxrcDesgn ACBP=A9
 0002:00000304 00000006 C=ICODE    S=.itext   G=(none)   M=frxStdWizard ACBP=A9
 0002:0000030C 00000006 C=ICODE    S=.itext   G=(none)   M=CheckLst ACBP=A9
 0002:00000314 00000006 C=ICODE    S=.itext   G=(none)   M=frxDesgnEditors ACBP=A9
 0002:0000031C 00000006 C=ICODE    S=.itext   G=(none)   M=frxEditFormat ACBP=A9
 0002:00000324 00000006 C=ICODE    S=.itext   G=(none)   M=BisFastReportControls ACBP=A9
 0002:0000032C 00000006 C=ICODE    S=.itext   G=(none)   M=JclDebug ACBP=A9
 0002:00000334 00000006 C=ICODE    S=.itext   G=(none)   M=JclSysInfo ACBP=A9
 0002:0000033C 00000006 C=ICODE    S=.itext   G=(none)   M=JclStrings ACBP=A9
 0002:00000344 00000006 C=ICODE    S=.itext   G=(none)   M=JclSysUtils ACBP=A9
 0002:0000034C 00000006 C=ICODE    S=.itext   G=(none)   M=JclWideStrings ACBP=A9
 0002:00000354 00000006 C=ICODE    S=.itext   G=(none)   M=JclShell ACBP=A9
 0002:0000035C 00000006 C=ICODE    S=.itext   G=(none)   M=JclRegistry ACBP=A9
 0002:00000364 00000006 C=ICODE    S=.itext   G=(none)   M=JclHookExcept ACBP=A9
 0002:0000036C 00000006 C=ICODE    S=.itext   G=(none)   M=BisTimedMsgFm ACBP=A9
 0002:00000374 00000006 C=ICODE    S=.itext   G=(none)   M=BisServiceApplication ACBP=A9
 0002:0000037C 00000006 C=ICODE    S=.itext   G=(none)   M=BisSvcMgr ACBP=A9
 0002:00000384 00000006 C=ICODE    S=.itext   G=(none)   M=SvcMgr   ACBP=A9
 0002:0000038C 00000006 C=ICODE    S=.itext   G=(none)   M=BisFastReportComponents ACBP=A9
 0002:00000394 00000006 C=ICODE    S=.itext   G=(none)   M=frxCustomDB ACBP=A9
 0002:0000039C 00000006 C=ICODE    S=.itext   G=(none)   M=frxCustomDBRTTI ACBP=A9
 0002:000003A4 00000006 C=ICODE    S=.itext   G=(none)   M=fs_idbrtti ACBP=A9
 0002:000003AC 00000006 C=ICODE    S=.itext   G=(none)   M=frxCustomDBEditor ACBP=A9
 0002:000003B4 00000006 C=ICODE    S=.itext   G=(none)   M=frxConnWizard ACBP=A9
 0002:000003BC 00000006 C=ICODE    S=.itext   G=(none)   M=frxrcExports ACBP=A9
 0002:000003C4 00000006 C=ICODE    S=.itext   G=(none)   M=frxExportTXT ACBP=A9
 0002:000003CC 00000006 C=ICODE    S=.itext   G=(none)   M=frxExportODF ACBP=A9
 0002:000003D4 00000006 C=ICODE    S=.itext   G=(none)   M=frxNetUtils ACBP=A9
 0002:000003DC 00000006 C=ICODE    S=.itext   G=(none)   M=frxGradient ACBP=A9
 0002:000003E4 00000006 C=ICODE    S=.itext   G=(none)   M=frxGradientRTTI ACBP=A9
 0002:000003EC 00000006 C=ICODE    S=.itext   G=(none)   M=frxDCtrl ACBP=A9
 0002:000003F4 00000006 C=ICODE    S=.itext   G=(none)   M=frxDCtrlRTTI ACBP=A9
 0002:000003FC 00000006 C=ICODE    S=.itext   G=(none)   M=frxBarcode ACBP=A9
 0002:00000404 00000006 C=ICODE    S=.itext   G=(none)   M=frxBarcod ACBP=A9
 0002:0000040C 00000006 C=ICODE    S=.itext   G=(none)   M=frxBarcodeRTTI ACBP=A9
 0002:00000414 00000006 C=ICODE    S=.itext   G=(none)   M=frxBarcodeEditor ACBP=A9
 0002:0000041C 00000006 C=ICODE    S=.itext   G=(none)   M=frxOLE   ACBP=A9
 0002:00000424 00000006 C=ICODE    S=.itext   G=(none)   M=frxOLEEditor ACBP=A9
 0002:0000042C 00000006 C=ICODE    S=.itext   G=(none)   M=frxOLERTTI ACBP=A9
 0002:00000434 00000006 C=ICODE    S=.itext   G=(none)   M=frxRich  ACBP=A9
 0002:0000043C 00000006 C=ICODE    S=.itext   G=(none)   M=frxRichEdit ACBP=A9
 0002:00000444 00000006 C=ICODE    S=.itext   G=(none)   M=frxRichEditor ACBP=A9
 0002:0000044C 00000006 C=ICODE    S=.itext   G=(none)   M=frxRichRTTI ACBP=A9
 0002:00000454 00000006 C=ICODE    S=.itext   G=(none)   M=frxCross ACBP=A9
 0002:0000045C 00000006 C=ICODE    S=.itext   G=(none)   M=frxCrossRTTI ACBP=A9
 0002:00000464 00000006 C=ICODE    S=.itext   G=(none)   M=frxCrossEditor ACBP=A9
 0002:0000046C 00000006 C=ICODE    S=.itext   G=(none)   M=frxChBox ACBP=A9
 0002:00000474 00000006 C=ICODE    S=.itext   G=(none)   M=frxChBoxRTTI ACBP=A9
 0002:0000047C 00000006 C=ICODE    S=.itext   G=(none)   M=frxChart ACBP=A9
 0002:00000484 00000006 C=ICODE    S=.itext   G=(none)   M=TeCanvas ACBP=A9
 0002:0000048C 00000006 C=ICODE    S=.itext   G=(none)   M=TeeConst ACBP=A9
 0002:00000494 00000006 C=ICODE    S=.itext   G=(none)   M=TeeHtml  ACBP=A9
 0002:0000049C 00000006 C=ICODE    S=.itext   G=(none)   M=TeeProcs ACBP=A9
 0002:000004A4 00000006 C=ICODE    S=.itext   G=(none)   M=Chart    ACBP=A9
 0002:000004AC 00000006 C=ICODE    S=.itext   G=(none)   M=TeEngine ACBP=A9
 0002:000004B4 00000006 C=ICODE    S=.itext   G=(none)   M=frxChartEditor ACBP=A9
 0002:000004BC 00000006 C=ICODE    S=.itext   G=(none)   M=TeeGally ACBP=A9
 0002:000004C4 00000006 C=ICODE    S=.itext   G=(none)   M=TeeGalleryPanel ACBP=A9
 0002:000004CC 00000006 C=ICODE    S=.itext   G=(none)   M=frxChartHelpers ACBP=A9
 0002:000004D4 00000006 C=ICODE    S=.itext   G=(none)   M=ArrowCha ACBP=A9
 0002:000004DC 00000006 C=ICODE    S=.itext   G=(none)   M=BubbleCh ACBP=A9
 0002:000004E4 00000006 C=ICODE    S=.itext   G=(none)   M=TeeShape ACBP=A9
 0002:000004EC 00000006 C=ICODE    S=.itext   G=(none)   M=GanttCh  ACBP=A9
 0002:000004F4 00000006 C=ICODE    S=.itext   G=(none)   M=frxChartRTTI ACBP=A9
 0002:000004FC 00000006 C=ICODE    S=.itext   G=(none)   M=fs_ichartrtti ACBP=A9
 0002:00000504 00000006 C=ICODE    S=.itext   G=(none)   M=AppEvnts ACBP=A9
 0002:0000050C 00000006 C=ICODE    S=.itext   G=(none)   M=CustomizeDlg ACBP=A9
 0002:00000514 00000008 C=ICODE    S=.itext   G=(none)   M=BisCallcConsts ACBP=A9
 0002:0000051C 00000008 C=ICODE    S=.itext   G=(none)   M=BisCallcMainFm ACBP=A9
 0002:00000524 00000006 C=ICODE    S=.itext   G=(none)   M=VirtualTrees ACBP=A9
 0002:0000052C 00000006 C=ICODE    S=.itext   G=(none)   M=VTAccessibilityFactory ACBP=A9
 0002:00000534 00000008 C=ICODE    S=.itext   G=(none)   M=BisCallcHbookCurrencyEditFm ACBP=A9
 0002:0000053C 00000008 C=ICODE    S=.itext   G=(none)   M=BisCallcHbookCurrencyFm ACBP=A9
 0002:00000544 00000008 C=ICODE    S=.itext   G=(none)   M=BisCallcHbookVariantEditFm ACBP=A9
 0002:0000054C 00000008 C=ICODE    S=.itext   G=(none)   M=BisCallcHbookVariantsFm ACBP=A9
 0002:00000554 00000008 C=ICODE    S=.itext   G=(none)   M=BisCallcHbookAgreementEditFm ACBP=A9
 0002:0000055C 00000008 C=ICODE    S=.itext   G=(none)   M=BisCallcHbookAgreementsFm ACBP=A9
 0002:00000564 00000008 C=ICODE    S=.itext   G=(none)   M=BisCallcHbookAccountFirmEditFm ACBP=A9
 0002:0000056C 00000008 C=ICODE    S=.itext   G=(none)   M=BisCallcHbookAccountFirmsFm ACBP=A9
 0002:00000574 00000008 C=ICODE    S=.itext   G=(none)   M=BisCallcHbookPatternEditFm ACBP=A9
 0002:0000057C 00000008 C=ICODE    S=.itext   G=(none)   M=BisCallcHbookPatternsFm ACBP=A9
 0002:00000584 00000008 C=ICODE    S=.itext   G=(none)   M=BisCallcHbookGroupEditFm ACBP=A9
 0002:0000058C 00000008 C=ICODE    S=.itext   G=(none)   M=BisCallcHbookGroupsFm ACBP=A9
 0002:00000594 00000008 C=ICODE    S=.itext   G=(none)   M=BisCallcHbookAccountGroupEditFm ACBP=A9
 0002:0000059C 00000008 C=ICODE    S=.itext   G=(none)   M=BisCallcHbookAccountGroupsFm ACBP=A9
 0002:000005A4 00000008 C=ICODE    S=.itext   G=(none)   M=BisCallcHbookActionEditFm ACBP=A9
 0002:000005AC 00000008 C=ICODE    S=.itext   G=(none)   M=BisCallcHbookActionsFm ACBP=A9
 0002:000005B4 00000008 C=ICODE    S=.itext   G=(none)   M=BisCallcHbookAccountActionEditFm ACBP=A9
 0002:000005BC 00000008 C=ICODE    S=.itext   G=(none)   M=BisCallcHbookAccountActionsFm ACBP=A9
 0002:000005C4 00000008 C=ICODE    S=.itext   G=(none)   M=BisCallcHbookResultEditFm ACBP=A9
 0002:000005CC 00000008 C=ICODE    S=.itext   G=(none)   M=BisCallcHbookResultsFm ACBP=A9
 0002:000005D4 00000008 C=ICODE    S=.itext   G=(none)   M=BisCallcHbookActionResultEditFm ACBP=A9
 0002:000005DC 00000008 C=ICODE    S=.itext   G=(none)   M=BisCallcHbookActionResultsFm ACBP=A9
 0002:000005E4 00000008 C=ICODE    S=.itext   G=(none)   M=BisCallcHbookStatusEditFm ACBP=A9
 0002:000005EC 00000008 C=ICODE    S=.itext   G=(none)   M=BisCallcHbookStatusesFm ACBP=A9
 0002:000005F4 00000008 C=ICODE    S=.itext   G=(none)   M=BisCallcBiasFIO ACBP=A9
 0002:000005FC 00000008 C=ICODE    S=.itext   G=(none)   M=BisCallcHbookCaseEditFm ACBP=A9
 0002:00000604 00000008 C=ICODE    S=.itext   G=(none)   M=BisCallcHbookCasesFm ACBP=A9
 0002:0000060C 00000008 C=ICODE    S=.itext   G=(none)   M=BisCallcHbookDebtorHistoriesFm ACBP=A9
 0002:00000614 00000008 C=ICODE    S=.itext   G=(none)   M=BisCallcHbookDebtorEditFm ACBP=A9
 0002:0000061C 00000008 C=ICODE    S=.itext   G=(none)   M=BisCallcHbookDebtorsFm ACBP=A9
 0002:00000624 00000008 C=ICODE    S=.itext   G=(none)   M=BisCallcHbookPlanEditFm ACBP=A9
 0002:0000062C 00000008 C=ICODE    S=.itext   G=(none)   M=BisCallcHbookPlansFm ACBP=A9
 0002:00000634 00000008 C=ICODE    S=.itext   G=(none)   M=BisCallcHbookDealEditFm ACBP=A9
 0002:0000063C 00000008 C=ICODE    S=.itext   G=(none)   M=BisCallcHbookDealsFm ACBP=A9
 0002:00000644 00000008 C=ICODE    S=.itext   G=(none)   M=BisCallcHbookPaymentEditFm ACBP=A9
 0002:0000064C 00000008 C=ICODE    S=.itext   G=(none)   M=BisCallcHbookPaymentsFm ACBP=A9
 0002:00000654 00000008 C=ICODE    S=.itext   G=(none)   M=BisCallcHbookTaskEditFm ACBP=A9
 0002:0000065C 00000008 C=ICODE    S=.itext   G=(none)   M=BisCallcHbookTasksFm ACBP=A9
 0002:00000664 00000008 C=ICODE    S=.itext   G=(none)   M=BisCallcHbookTaskDocumentEditFm ACBP=A9
 0002:0000066C 00000008 C=ICODE    S=.itext   G=(none)   M=BisCallcHbookTaskDocumentsFm ACBP=A9
 0002:00000674 00000008 C=ICODE    S=.itext   G=(none)   M=BisCallcTaskFrm ACBP=A9
 0002:0000067C 00000008 C=ICODE    S=.itext   G=(none)   M=BisCallcReadinessFm ACBP=A9
 0002:00000684 00000008 C=ICODE    S=.itext   G=(none)   M=BisCallcTaskExecuteInfoFm ACBP=A9
 0002:0000068C 00000008 C=ICODE    S=.itext   G=(none)   M=BisCallcTaskFm ACBP=A9
 0002:00000694 00000006 C=ICODE    S=.itext   G=(none)   M=TAPISystem ACBP=A9
 0002:0000069C 00000008 C=ICODE    S=.itext   G=(none)   M=BisCallcDealFrameTasksFrm ACBP=A9
 0002:000006A4 00000008 C=ICODE    S=.itext   G=(none)   M=BisCallcDealFramePaymentsFrm ACBP=A9
 0002:000006AC 00000008 C=ICODE    S=.itext   G=(none)   M=BisCallcDealFrameDocumentsFrm ACBP=A9
 0002:000006B4 00000006 C=ICODE    S=.itext   G=(none)   M=ACS_Classes ACBP=A9
 0002:000006BC 00000006 C=ICODE    S=.itext   G=(none)   M=ACS_Tags ACBP=A9
 0002:000006C4 00000008 C=ICODE    S=.itext   G=(none)   M=BisCallcDealFrm ACBP=A9
 0002:000006CC 00000008 C=ICODE    S=.itext   G=(none)   M=BisCallcTaskOperatorFm ACBP=A9
 0002:000006D4 00000008 C=ICODE    S=.itext   G=(none)   M=BisCallcDealsFrameTasksFilterFm ACBP=A9
 0002:000006DC 00000008 C=ICODE    S=.itext   G=(none)   M=BisCallcDealEditFm ACBP=A9
 0002:000006E4 00000008 C=ICODE    S=.itext   G=(none)   M=BisCallcDealsFrameTasksFrm ACBP=A9
 0002:000006EC 00000008 C=ICODE    S=.itext   G=(none)   M=BisCallcDealsFrm ACBP=A9
 0002:000006F4 00000008 C=ICODE    S=.itext   G=(none)   M=BisCallcTaskLeaderFm ACBP=A9
 0002:000006FC 00000008 C=ICODE    S=.itext   G=(none)   M=BisCallcTaskClerkFm ACBP=A9
 0002:00000704 00000008 C=ICODE    S=.itext   G=(none)   M=BisCallcTaskManagerFm ACBP=A9
 0002:0000070C 00000008 C=ICODE    S=.itext   G=(none)   M=BisCallcHbookPlanActionEditFm ACBP=A9
 0002:00000714 00000008 C=ICODE    S=.itext   G=(none)   M=BisCallcHbookPlanActionsFm ACBP=A9
 0002:0000071C 00000006 C=ICODE    S=.itext   G=(none)   M=ALfcnString ACBP=A9
 0002:00000724 00000006 C=ICODE    S=.itext   G=(none)   M=ALCPUID  ACBP=A9
 0002:0000072C 00000006 C=ICODE    S=.itext   G=(none)   M=ALFcnHTML ACBP=A9
 0002:00000734 00000008 C=ICODE    S=.itext   G=(none)   M=BisCallcImportFm ACBP=A9
 0002:0000073C 00000008 C=ICODE    S=.itext   G=(none)   M=BisCallcHbookActionReportEditFm ACBP=A9
 0002:00000744 00000008 C=ICODE    S=.itext   G=(none)   M=BisCallcHbookActionReportsFm ACBP=A9
 0002:0000074C 00000008 C=ICODE    S=.itext   G=(none)   M=BisCallcTakeBellFilterFm ACBP=A9
 0002:00000754 00000008 C=ICODE    S=.itext   G=(none)   M=BisCallcTakeBellFrm ACBP=A9
 0002:0000075C 00000008 C=ICODE    S=.itext   G=(none)   M=BisCallcTakeBellFm ACBP=A9
 0002:00000764 00000008 C=ICODE    S=.itext   G=(none)   M=BisCallc ACBP=A9
 0002:0000076C 00000005 C=ICODE    S=.itext   G=(none)   M=.imcallc ACBP=A9
 0003:00000000 00000030 C=DATA     S=.data    G=DGROUP   M=SysInit  ACBP=A9
 0003:00000030 00000004 C=DATA     S=.data    G=DGROUP   M=BisCallcMainFm ACBP=A9
 0003:00000034 000000B0 C=DATA     S=.data    G=DGROUP   M=BisCallcBiasFIO ACBP=A9
 0004:00000000 0000000C C=BSS      S=.bss     G=DGROUP   M=SysInit  ACBP=A9
 0004:0000000C 00000008 C=BSS      S=.bss     G=DGROUP   M=Windows  ACBP=A9
 0004:00000014 00000004 C=BSS      S=.bss     G=DGROUP   M=BisCallcConsts ACBP=A9
 0004:00000018 00000008 C=BSS      S=.bss     G=DGROUP   M=BisCallcMainFm ACBP=A9
 0004:00000020 00000008 C=BSS      S=.bss     G=DGROUP   M=BisCallcHbookCurrencyEditFm ACBP=A9
 0004:00000028 00000008 C=BSS      S=.bss     G=DGROUP   M=BisCallcHbookCurrencyFm ACBP=A9
 0004:00000030 00000008 C=BSS      S=.bss     G=DGROUP   M=BisCallcHbookVariantEditFm ACBP=A9
 0004:00000038 00000008 C=BSS      S=.bss     G=DGROUP   M=BisCallcHbookVariantsFm ACBP=A9
 0004:00000040 00000008 C=BSS      S=.bss     G=DGROUP   M=BisCallcHbookAgreementEditFm ACBP=A9
 0004:00000048 00000008 C=BSS      S=.bss     G=DGROUP   M=BisCallcHbookAgreementsFm ACBP=A9
 0004:00000050 00000008 C=BSS      S=.bss     G=DGROUP   M=BisCallcHbookAccountFirmEditFm ACBP=A9
 0004:00000058 00000008 C=BSS      S=.bss     G=DGROUP   M=BisCallcHbookAccountFirmsFm ACBP=A9
 0004:00000060 00000008 C=BSS      S=.bss     G=DGROUP   M=BisCallcHbookPatternEditFm ACBP=A9
 0004:00000068 00000008 C=BSS      S=.bss     G=DGROUP   M=BisCallcHbookPatternsFm ACBP=A9
 0004:00000070 00000008 C=BSS      S=.bss     G=DGROUP   M=BisCallcHbookGroupEditFm ACBP=A9
 0004:00000078 00000008 C=BSS      S=.bss     G=DGROUP   M=BisCallcHbookGroupsFm ACBP=A9
 0004:00000080 00000008 C=BSS      S=.bss     G=DGROUP   M=BisCallcHbookAccountGroupEditFm ACBP=A9
 0004:00000088 00000008 C=BSS      S=.bss     G=DGROUP   M=BisCallcHbookAccountGroupsFm ACBP=A9
 0004:00000090 00000008 C=BSS      S=.bss     G=DGROUP   M=BisCallcHbookActionEditFm ACBP=A9
 0004:00000098 00000008 C=BSS      S=.bss     G=DGROUP   M=BisCallcHbookActionsFm ACBP=A9
 0004:000000A0 00000008 C=BSS      S=.bss     G=DGROUP   M=BisCallcHbookAccountActionEditFm ACBP=A9
 0004:000000A8 00000008 C=BSS      S=.bss     G=DGROUP   M=BisCallcHbookAccountActionsFm ACBP=A9
 0004:000000B0 00000008 C=BSS      S=.bss     G=DGROUP   M=BisCallcHbookResultEditFm ACBP=A9
 0004:000000B8 00000008 C=BSS      S=.bss     G=DGROUP   M=BisCallcHbookResultsFm ACBP=A9
 0004:000000C0 00000008 C=BSS      S=.bss     G=DGROUP   M=BisCallcHbookActionResultEditFm ACBP=A9
 0004:000000C8 00000008 C=BSS      S=.bss     G=DGROUP   M=BisCallcHbookActionResultsFm ACBP=A9
 0004:000000D0 00000008 C=BSS      S=.bss     G=DGROUP   M=BisCallcHbookStatusEditFm ACBP=A9
 0004:000000D8 00000008 C=BSS      S=.bss     G=DGROUP   M=BisCallcHbookStatusesFm ACBP=A9
 0004:000000E0 00000035 C=BSS      S=.bss     G=DGROUP   M=BisCallcBiasFIO ACBP=A9
 0004:00000118 00000008 C=BSS      S=.bss     G=DGROUP   M=BisCallcHbookCaseEditFm ACBP=A9
 0004:00000120 00000008 C=BSS      S=.bss     G=DGROUP   M=BisCallcHbookCasesFm ACBP=A9
 0004:00000128 00000008 C=BSS      S=.bss     G=DGROUP   M=BisCallcHbookDebtorHistoriesFm ACBP=A9
 0004:00000130 00000008 C=BSS      S=.bss     G=DGROUP   M=BisCallcHbookDebtorEditFm ACBP=A9
 0004:00000138 00000008 C=BSS      S=.bss     G=DGROUP   M=BisCallcHbookDebtorsFm ACBP=A9
 0004:00000140 00000008 C=BSS      S=.bss     G=DGROUP   M=BisCallcHbookPlanEditFm ACBP=A9
 0004:00000148 00000008 C=BSS      S=.bss     G=DGROUP   M=BisCallcHbookPlansFm ACBP=A9
 0004:00000150 00000008 C=BSS      S=.bss     G=DGROUP   M=BisCallcHbookDealEditFm ACBP=A9
 0004:00000158 00000008 C=BSS      S=.bss     G=DGROUP   M=BisCallcHbookDealsFm ACBP=A9
 0004:00000160 00000008 C=BSS      S=.bss     G=DGROUP   M=BisCallcHbookPaymentEditFm ACBP=A9
 0004:00000168 00000008 C=BSS      S=.bss     G=DGROUP   M=BisCallcHbookPaymentsFm ACBP=A9
 0004:00000170 00000008 C=BSS      S=.bss     G=DGROUP   M=BisCallcHbookTaskEditFm ACBP=A9
 0004:00000178 00000008 C=BSS      S=.bss     G=DGROUP   M=BisCallcHbookTasksFm ACBP=A9
 0004:00000180 00000008 C=BSS      S=.bss     G=DGROUP   M=BisCallcHbookTaskDocumentEditFm ACBP=A9
 0004:00000188 00000008 C=BSS      S=.bss     G=DGROUP   M=BisCallcHbookTaskDocumentsFm ACBP=A9
 0004:00000190 00000004 C=BSS      S=.bss     G=DGROUP   M=BisCallcTaskFrm ACBP=A9
 0004:00000194 00000008 C=BSS      S=.bss     G=DGROUP   M=BisCallcReadinessFm ACBP=A9
 0004:0000019C 00000008 C=BSS      S=.bss     G=DGROUP   M=BisCallcTaskExecuteInfoFm ACBP=A9
 0004:000001A4 00000008 C=BSS      S=.bss     G=DGROUP   M=BisCallcTaskFm ACBP=A9
 0004:000001AC 00000004 C=BSS      S=.bss     G=DGROUP   M=BisCallcDealFrameTasksFrm ACBP=A9
 0004:000001B0 00000004 C=BSS      S=.bss     G=DGROUP   M=BisCallcDealFramePaymentsFrm ACBP=A9
 0004:000001B4 00000004 C=BSS      S=.bss     G=DGROUP   M=BisCallcDealFrameDocumentsFrm ACBP=A9
 0004:000001B8 00000004 C=BSS      S=.bss     G=DGROUP   M=BisCallcDealFrm ACBP=A9
 0004:000001BC 00000008 C=BSS      S=.bss     G=DGROUP   M=BisCallcTaskOperatorFm ACBP=A9
 0004:000001C4 00000008 C=BSS      S=.bss     G=DGROUP   M=BisCallcDealsFrameTasksFilterFm ACBP=A9
 0004:000001CC 00000008 C=BSS      S=.bss     G=DGROUP   M=BisCallcDealEditFm ACBP=A9
 0004:000001D4 00000004 C=BSS      S=.bss     G=DGROUP   M=BisCallcDealsFrameTasksFrm ACBP=A9
 0004:000001D8 00000008 C=BSS      S=.bss     G=DGROUP   M=BisCallcDealsFrm ACBP=A9
 0004:000001E0 00000008 C=BSS      S=.bss     G=DGROUP   M=BisCallcTaskLeaderFm ACBP=A9
 0004:000001E8 00000008 C=BSS      S=.bss     G=DGROUP   M=BisCallcTaskClerkFm ACBP=A9
 0004:000001F0 00000008 C=BSS      S=.bss     G=DGROUP   M=BisCallcTaskManagerFm ACBP=A9
 0004:000001F8 00000008 C=BSS      S=.bss     G=DGROUP   M=BisCallcHbookPlanActionEditFm ACBP=A9
 0004:00000200 00000008 C=BSS      S=.bss     G=DGROUP   M=BisCallcHbookPlanActionsFm ACBP=A9
 0004:00000208 00000008 C=BSS      S=.bss     G=DGROUP   M=BisCallcImportFm ACBP=A9
 0004:00000210 00000008 C=BSS      S=.bss     G=DGROUP   M=BisCallcHbookActionReportEditFm ACBP=A9
 0004:00000218 00000008 C=BSS      S=.bss     G=DGROUP   M=BisCallcHbookActionReportsFm ACBP=A9
 0004:00000220 00000008 C=BSS      S=.bss     G=DGROUP   M=BisCallcTakeBellFilterFm ACBP=A9
 0004:00000228 00000004 C=BSS      S=.bss     G=DGROUP   M=BisCallcTakeBellFrm ACBP=A9
 0004:0000022C 00000008 C=BSS      S=.bss     G=DGROUP   M=BisCallcTakeBellFm ACBP=A9
 0004:00000234 00000004 C=BSS      S=.bss     G=DGROUP   M=BisCallc ACBP=A9


  Address             Publics by Name

 0002:0000076C       .imcallc..imcallc
 0001:0003E670       .imcallc.@GetPackageInfoTable
 0001:0003E678       .imcallc.@PackageLoad
 0001:0003E684       .imcallc.@PackageUnload
 0004:00000234       BisCallc..1
 0002:00000764       BisCallc.BisCallc
 0001:0003D570       BisCallc.Finalization
 0001:0003D3EC       BisCallc.InitIfaceModule
 0004:000000E0       BisCallcBiasFIO..1
 0001:0000F48C       BisCallcBiasFIO..EDeclenError
 0004:000000E4       BisCallcBiasFIO.aEnd
 0002:000005F4       BisCallcBiasFIO.BisCallcBiasFIO
 0001:0000F718       BisCallcBiasFIO.ClearEndings
 0003:00000054       BisCallcBiasFIO.Consonant
 0001:0000F72C       BisCallcBiasFIO.CountSyllable
 0001:00011BC0       BisCallcBiasFIO.CreateDeclenError
 0003:000000D4       BisCallcBiasFIO.DeclenErrorMap
 0001:0000FD3C       BisCallcBiasFIO.ExtractWord
 0001:000123E0       BisCallcBiasFIO.Finalization
 0004:000000FC       BisCallcBiasFIO.FirstNameMExeptions
 0004:00000110       BisCallcBiasFIO.FirstNameMExeptionsPresent
 0004:0000010C       BisCallcBiasFIO.FirstNameParallelForms
 0004:00000114       BisCallcBiasFIO.FirstNameParallelFormsPresent
 0004:00000100       BisCallcBiasFIO.FirstNameWExeptions
 0004:00000111       BisCallcBiasFIO.FirstNameWExeptionsPresent
 0004:00000108       BisCallcBiasFIO.FirstPartLastNameExeptions
 0004:00000113       BisCallcBiasFIO.FirstPartLastNameExeptionsPresent
 0001:00012334       BisCallcBiasFIO.GetAccusativeCase
 0001:000122D0       BisCallcBiasFIO.GetAccusativeCase
 0001:00012224       BisCallcBiasFIO.GetDativeCase
 0001:000121C0       BisCallcBiasFIO.GetDativeCase
 0001:00011BFC       BisCallcBiasFIO.GetFIO
 0001:0001208C       BisCallcBiasFIO.GetFIOFromStr
 0001:000112B0       BisCallcBiasFIO.GetFirstNameM
 0001:00011664       BisCallcBiasFIO.GetFirstNameW
 0001:00012138       BisCallcBiasFIO.GetGenitiveCase
 0001:0001219C       BisCallcBiasFIO.GetGenitiveCase
 0001:00012248       BisCallcBiasFIO.GetInstrumentalCase
 0001:000122AC       BisCallcBiasFIO.GetInstrumentalCase
 0001:0000FF54       BisCallcBiasFIO.GetLastNameM
 0001:00010C1C       BisCallcBiasFIO.GetLastNameW
 0001:0001193C       BisCallcBiasFIO.GetMiddleNameM
 0001:00011A2C       BisCallcBiasFIO.GetMiddleNameW
 0001:000123BC       BisCallcBiasFIO.GetPrepositionalCase
 0001:00012358       BisCallcBiasFIO.GetPrepositionalCase
 0001:0000F4F8       BisCallcBiasFIO.GetSex
 0003:000000B4       BisCallcBiasFIO.GKX
 0003:00000094       BisCallcBiasFIO.HardSibilant
 0001:0000F5FC       BisCallcBiasFIO.IsFeminine
 0001:0000F5AC       BisCallcBiasFIO.IsMale
 0001:0000F4E8       BisCallcBiasFIO.IsRangeInt
 0004:00000104       BisCallcBiasFIO.LastNameExeptions
 0004:00000112       BisCallcBiasFIO.LastNameExeptionsPresent
 0001:0000F7BC       BisCallcBiasFIO.NameParallelForm
 0001:0000F98C       BisCallcBiasFIO.NonDeclension
 0001:0000F8B8       BisCallcBiasFIO.Proper
 0001:0000FE9C       BisCallcBiasFIO.SeparateFIO
 0001:0000F64C       BisCallcBiasFIO.SetEndings
 0003:00000074       BisCallcBiasFIO.SoftSibilant
 0001:00011FB8       BisCallcBiasFIO.TrimCharForOne
 0003:00000034       BisCallcBiasFIO.Vocalic
 0004:00000014       BisCallcConsts..1
 0002:00000514       BisCallcConsts.BisCallcConsts
 0001:000019E0       BisCallcConsts.Finalization
 0004:000001D0       BisCallcDealEditFm..3
 0001:0002CC04       BisCallcDealEditFm..TBisCallcDealEditForm
 0001:0002CDFC       BisCallcDealEditFm..TBisCallcDealEditFormIface
 0002:000006DC       BisCallcDealEditFm.BisCallcDealEditFm
 0004:000001CC       BisCallcDealEditFm.BisCallcDealEditForm
 0001:0002D1F8       BisCallcDealEditFm.Finalization
 0001:0002D168       BisCallcDealEditFm.TBisCallcDealEditForm.BeforeShow
 0001:0002D1BC       BisCallcDealEditFm.TBisCallcDealEditForm.ChangesArePresent
 0001:0002D1CC       BisCallcDealEditFm.TBisCallcDealEditForm.CheckParams
 0001:0002D07C       BisCallcDealEditFm.TBisCallcDealEditForm.Create
 0001:0002D11C       BisCallcDealEditFm.TBisCallcDealEditForm.Destroy
 0001:0002D1F0       BisCallcDealEditFm.TBisCallcDealEditForm.FrameDebtorParamsChange
 0001:0002D14C       BisCallcDealEditFm.TBisCallcDealEditForm.Init
 0001:0002D1DC       BisCallcDealEditFm.TBisCallcDealEditForm.SaveChanges
 0001:0002CF50       BisCallcDealEditFm.TBisCallcDealEditFormIface.Create
 0001:0002D000       BisCallcDealEditFm.TBisCallcDealEditFormIface.CreateForm
 0001:0002CFF4       BisCallcDealEditFm.TBisCallcDealEditFormIface.GetLastForm
 0004:000001B4       BisCallcDealFrameDocumentsFrm..7
 0001:00024A54       BisCallcDealFrameDocumentsFrm..TBisCallcDealFrameDocumentDeleteFormIface
 0001:00024660       BisCallcDealFrameDocumentsFrm..TBisCallcDealFrameDocumentEditFormIface
 0001:000247AC       BisCallcDealFrameDocumentsFrm..TBisCallcDealFrameDocumentInsertFormIface
 0001:00024D10       BisCallcDealFrameDocumentsFrm..TBisCallcDealFrameDocumentsFrame
 0001:00024900       BisCallcDealFrameDocumentsFrm..TBisCallcDealFrameDocumentUpdateFormIface
 0001:00024BA8       BisCallcDealFrameDocumentsFrm..TBisCallcDealFrameDocumentViewingFormIface
 0002:000006AC       BisCallcDealFrameDocumentsFrm.BisCallcDealFrameDocumentsFrm
 0001:00025944       BisCallcDealFrameDocumentsFrm.Finalization
 0001:000255C0       BisCallcDealFrameDocumentsFrm.TBisCallcDealFrameDocumentDeleteFormIface.Create
 0001:00025454       BisCallcDealFrameDocumentsFrm.TBisCallcDealFrameDocumentEditFormIface.Create
 0001:000254B8       BisCallcDealFrameDocumentsFrm.TBisCallcDealFrameDocumentInsertFormIface.Create
 0001:00024FA8       BisCallcDealFrameDocumentsFrm.TBisCallcDealFrameDocumentsFrame.Create
 0001:000252F8       BisCallcDealFrameDocumentsFrm.TBisCallcDealFrameDocumentsFrame.CreateIface
 0001:00025254       BisCallcDealFrameDocumentsFrm.TBisCallcDealFrameDocumentsFrame.GetDocumentTypeName
 0001:0002553C       BisCallcDealFrameDocumentsFrm.TBisCallcDealFrameDocumentUpdateFormIface.Create
 0001:00025644       BisCallcDealFrameDocumentsFrm.TBisCallcDealFrameDocumentViewingFormIface.Create
 0001:000256A4       BisCallcDealFrameDocumentsFrm.TBisCallcDealFrameDocumentViewingFormIface.Execute
 0004:000001B0       BisCallcDealFramePaymentsFrm..7
 0001:00023A1C       BisCallcDealFramePaymentsFrm..TBisCallcDealFramePaymentDeleteFormIface
 0001:00023630       BisCallcDealFramePaymentsFrm..TBisCallcDealFramePaymentEditFormIface
 0001:0002377C       BisCallcDealFramePaymentsFrm..TBisCallcDealFramePaymentInsertFormIface
 0001:00023CBC       BisCallcDealFramePaymentsFrm..TBisCallcDealFramePaymentsFrame
 0001:000238CC       BisCallcDealFramePaymentsFrm..TBisCallcDealFramePaymentUpdateFormIface
 0001:00023B6C       BisCallcDealFramePaymentsFrm..TBisCallcDealFramePaymentViewingFormIface
 0002:000006A4       BisCallcDealFramePaymentsFrm.BisCallcDealFramePaymentsFrm
 0001:00024630       BisCallcDealFramePaymentsFrm.Finalization
 0001:00024554       BisCallcDealFramePaymentsFrm.TBisCallcDealFramePaymentDeleteFormIface.Create
 0001:000243CC       BisCallcDealFramePaymentsFrm.TBisCallcDealFramePaymentEditFormIface.Create
 0001:0002445C       BisCallcDealFramePaymentsFrm.TBisCallcDealFramePaymentInsertFormIface.Create
 0001:00023F4C       BisCallcDealFramePaymentsFrm.TBisCallcDealFramePaymentsFrame.Create
 0001:00024300       BisCallcDealFramePaymentsFrm.TBisCallcDealFramePaymentsFrame.CreateIface
 0001:00024244       BisCallcDealFramePaymentsFrm.TBisCallcDealFramePaymentsFrame.Destroy
 0001:0002426C       BisCallcDealFramePaymentsFrm.TBisCallcDealFramePaymentsFrame.GetStateName
 0001:000244D8       BisCallcDealFramePaymentsFrm.TBisCallcDealFramePaymentUpdateFormIface.Create
 0001:000245D0       BisCallcDealFramePaymentsFrm.TBisCallcDealFramePaymentViewingFormIface.Create
 0004:000001AC       BisCallcDealFrameTasksFrm..4
 0001:00022DDC       BisCallcDealFrameTasksFrm..TBisCallcDealFrameTaskDeleteFormIface
 0001:00022F24       BisCallcDealFrameTasksFrm..TBisCallcDealFrameTasksFrame
 0001:00022C94       BisCallcDealFrameTasksFrm..TBisCallcDealFrameTaskViewingFormIface
 0002:0000069C       BisCallcDealFrameTasksFrm.BisCallcDealFrameTasksFrm
 0001:00023600       BisCallcDealFrameTasksFrm.Finalization
 0001:000235A0       BisCallcDealFrameTasksFrm.TBisCallcDealFrameTaskDeleteFormIface.Create
 0001:000231C4       BisCallcDealFrameTasksFrm.TBisCallcDealFrameTasksFrame.Create
 0001:00023514       BisCallcDealFrameTasksFrm.TBisCallcDealFrameTasksFrame.Destroy
 0001:0002353C       BisCallcDealFrameTasksFrm.TBisCallcDealFrameTaskViewingFormIface.Create
 0004:000001B8       BisCallcDealFrm..3
 0001:00025A9C       BisCallcDealFrm..TBisCallcDealFrame
 0001:00025994       BisCallcDealFrm..TBisCallcDealFrameTapi
 0001:00029838       BisCallcDealFrm.Add
 0002:000006C4       BisCallcDealFrm.BisCallcDealFrm
 0001:0002AF28       BisCallcDealFrm.CheckDebtorControls
 0001:0002BF88       BisCallcDealFrm.Finalization
 0001:000298E8       BisCallcDealFrm.GetValue
 0001:0002B414       BisCallcDealFrm.SaveDebtor
 0001:0002A32C       BisCallcDealFrm.SearchAndReplace
 0001:000299C8       BisCallcDealFrm.SetCases
 0001:00028268       BisCallcDealFrm.TBisCallcDealFrame.ButtonDebtorClick
 0001:0002816C       BisCallcDealFrm.TBisCallcDealFrame.ButtonFirmClick
 0001:00028FD0       BisCallcDealFrm.TBisCallcDealFrame.ButtonPhoneHomeClick
 0001:0002A454       BisCallcDealFrm.TBisCallcDealFrame.ChangePatternVars
 0001:0002B3D8       BisCallcDealFrm.TBisCallcDealFrame.CheckControls
 0001:000265E0       BisCallcDealFrm.TBisCallcDealFrame.Create
 0001:000271C4       BisCallcDealFrm.TBisCallcDealFrame.DebtorParamsChange
 0001:0002715C       BisCallcDealFrm.TBisCallcDealFrame.Destroy
 0001:00028ADC       BisCallcDealFrm.TBisCallcDealFrame.EditPhoneHomeChange
 0001:00028FA8       BisCallcDealFrm.TBisCallcDealFrame.FramePaymentAfterEditFormExecute
 0001:0002B4D8       BisCallcDealFrm.TBisCallcDealFrame.GenerateJournal
 0001:000285CC       BisCallcDealFrm.TBisCallcDealFrame.GetPhoneControlsByButton
 0001:000286A4       BisCallcDealFrm.TBisCallcDealFrame.Init
 0001:00027F90       BisCallcDealFrm.TBisCallcDealFrame.LabelDebtorClick
 0001:00028300       BisCallcDealFrm.TBisCallcDealFrame.PageControlChange
 0001:000289FC       BisCallcDealFrm.TBisCallcDealFrame.PhoneControlsDisabled
 0001:000286DC       BisCallcDealFrm.TBisCallcDealFrame.PhoneControlsFirstState
 0001:00028A44       BisCallcDealFrm.TBisCallcDealFrame.PreparePhoneNumber
 0001:0002AC94       BisCallcDealFrm.TBisCallcDealFrame.ReadOnlyControls
 0001:00028060       BisCallcDealFrm.TBisCallcDealFrame.RefreshControls
 0001:000271E8       BisCallcDealFrm.TBisCallcDealFrame.RefreshDeal
 0001:00028D04       BisCallcDealFrm.TBisCallcDealFrame.RefreshDebts
 0001:00027DC8       BisCallcDealFrm.TBisCallcDealFrame.RefreshHistories
 0001:0002B4B0       BisCallcDealFrm.TBisCallcDealFrame.SaveChanges
 0001:0002ADB0       BisCallcDealFrm.TBisCallcDealFrame.SetDealNum
 0001:0002AEBC       BisCallcDealFrm.TBisCallcDealFrame.SetDebtorEdited
 0001:00029300       BisCallcDealFrm.TBisCallcDealFrame.TapiAfterRecord
 0001:0002929C       BisCallcDealFrm.TBisCallcDealFrame.TapiConnect
 0001:000292E8       BisCallcDealFrm.TBisCallcDealFrame.TapiDisconnect
 0001:000280B4       BisCallcDealFrm.TBisCallcDealFrame.VisibleControls
 0001:000265C4       BisCallcDealFrm.TBisCallcDealFrameTapi.EmptyControlLinks
 0004:000001C8       BisCallcDealsFrameTasksFilterFm..3
 0001:0002C490       BisCallcDealsFrameTasksFilterFm..TBisCallcDealsFrameTasksFilterForm
 0001:0002C7C4       BisCallcDealsFrameTasksFilterFm..TBisCallcDealsFrameTasksFilterFormIface
 0002:000006D4       BisCallcDealsFrameTasksFilterFm.BisCallcDealsFrameTasksFilterFm
 0004:000001C4       BisCallcDealsFrameTasksFilterFm.BisCallcDealsFrameTasksFilterForm
 0001:0002CBD4       BisCallcDealsFrameTasksFilterFm.Finalization
 0001:0002C914       BisCallcDealsFrameTasksFilterFm.TBisCallcDealsFrameTasksFilterFormIface.Create
 0004:000001D4       BisCallcDealsFrameTasksFrm..3
 0001:0002D4A8       BisCallcDealsFrameTasksFrm..TBisCallcDealsFrameTasksFrame
 0001:0002D228       BisCallcDealsFrameTasksFrm..TBisCallcDealsFrameTasksFrameTasksFrame
 0002:000006E4       BisCallcDealsFrameTasksFrm.BisCallcDealsFrameTasksFrm
 0001:0002FFDC       BisCallcDealsFrameTasksFrm.Finalization
 0001:0002EEE4       BisCallcDealsFrameTasksFrm.TBisCallcDealsFrameTasksFrame.ActionCheckingAllExecute
 0001:0002EEEC       BisCallcDealsFrameTasksFrm.TBisCallcDealsFrameTasksFrame.ActionCheckingAllUpdate
 0001:0002EF08       BisCallcDealsFrameTasksFrm.TBisCallcDealsFrameTasksFrame.ActionCheckingExecute
 0001:0002EF10       BisCallcDealsFrameTasksFrm.TBisCallcDealsFrameTasksFrame.ActionCheckingUpdate
 0001:0002EF2C       BisCallcDealsFrameTasksFrm.TBisCallcDealsFrameTasksFrame.ActionUnCheckingAllExecute
 0001:0002EF34       BisCallcDealsFrameTasksFrm.TBisCallcDealsFrameTasksFrame.ActionUnCheckingAllUpdate
 0001:0002EF50       BisCallcDealsFrameTasksFrm.TBisCallcDealsFrameTasksFrame.ActionUnCheckingExecute
 0001:0002EF58       BisCallcDealsFrameTasksFrm.TBisCallcDealsFrameTasksFrame.ActionUnCheckingUpdate
 0001:0002E514       BisCallcDealsFrameTasksFrm.TBisCallcDealsFrameTasksFrame.BeforeIfaceExecute
 0001:0002EF74       BisCallcDealsFrameTasksFrm.TBisCallcDealsFrameTasksFrame.CanChecking
 0001:0002F01C       BisCallcDealsFrameTasksFrm.TBisCallcDealsFrameTasksFrame.CanCheckingAll
 0001:0002EFC8       BisCallcDealsFrameTasksFrm.TBisCallcDealsFrameTasksFrame.CanUnChecking
 0001:0002F070       BisCallcDealsFrameTasksFrm.TBisCallcDealsFrameTasksFrame.CanUnCheckingAll
 0001:0002EFAC       BisCallcDealsFrameTasksFrm.TBisCallcDealsFrameTasksFrame.Checking
 0001:0002F054       BisCallcDealsFrameTasksFrm.TBisCallcDealsFrameTasksFrame.CheckingAll
 0001:0002F668       BisCallcDealsFrameTasksFrm.TBisCallcDealsFrameTasksFrame.CheckingSelected
 0001:0002DCD4       BisCallcDealsFrameTasksFrm.TBisCallcDealsFrameTasksFrame.Create
 0001:0002E208       BisCallcDealsFrameTasksFrm.TBisCallcDealsFrameTasksFrame.Destroy
 0001:0002E24C       BisCallcDealsFrameTasksFrm.TBisCallcDealsFrameTasksFrame.DoTaskChecked
 0001:0002FAC0       BisCallcDealsFrameTasksFrm.TBisCallcDealsFrameTasksFrame.ExecuteTask
 0001:0002E708       BisCallcDealsFrameTasksFrm.TBisCallcDealsFrameTasksFrame.GetTasksVisible
 0001:0002E720       BisCallcDealsFrameTasksFrm.TBisCallcDealsFrameTasksFrame.GridClick
 0001:0002E8E4       BisCallcDealsFrameTasksFrm.TBisCallcDealsFrameTasksFrame.GridKeyDown
 0001:0002E6D8       BisCallcDealsFrameTasksFrm.TBisCallcDealsFrameTasksFrame.IfaceFilterAfterExecute
 0001:0002E914       BisCallcDealsFrameTasksFrm.TBisCallcDealsFrameTasksFrame.Init
 0001:0002F0C4       BisCallcDealsFrameTasksFrm.TBisCallcDealsFrameTasksFrame.LockTask
 0001:0002E930       BisCallcDealsFrameTasksFrm.TBisCallcDealsFrameTasksFrame.OpenRecords
 0001:0002E26C       BisCallcDealsFrameTasksFrm.TBisCallcDealsFrameTasksFrame.ProviderAfterScroll
 0001:0002E330       BisCallcDealsFrameTasksFrm.TBisCallcDealsFrameTasksFrame.RefreshGroups
 0001:0002E714       BisCallcDealsFrameTasksFrm.TBisCallcDealsFrameTasksFrame.SetTasksVisible
 0001:0002F000       BisCallcDealsFrameTasksFrm.TBisCallcDealsFrameTasksFrame.UnChecking
 0001:0002F0A8       BisCallcDealsFrameTasksFrm.TBisCallcDealsFrameTasksFrame.UnCheckingAll
 0001:0002F2E8       BisCallcDealsFrameTasksFrm.TBisCallcDealsFrameTasksFrame.UnLockTask
 0001:0002F48C       BisCallcDealsFrameTasksFrm.TBisCallcDealsFrameTasksFrame.UnLockTasks
 0001:0002D960       BisCallcDealsFrameTasksFrm.TBisCallcDealsFrameTasksFrameTasksFrame.Create
 0001:0002DCAC       BisCallcDealsFrameTasksFrm.TBisCallcDealsFrameTasksFrameTasksFrame.Destroy
 0004:000001DC       BisCallcDealsFrm..4
 0001:00030164       BisCallcDealsFrm..TBisCallcDealsFrame
 0001:0003000C       BisCallcDealsFrm..TBisCallcDealsFrameSheet
 0001:000300B0       BisCallcDealsFrm..TBisCallcDealsFrameSheets
 0004:000001D8       BisCallcDealsFrm.BisCallcDealsFrame
 0002:000006EC       BisCallcDealsFrm.BisCallcDealsFrm
 0001:00030F88       BisCallcDealsFrm.Finalization
 0001:000304AC       BisCallcDealsFrm.TBisCallcDealsFrame.Create
 0001:00030544       BisCallcDealsFrm.TBisCallcDealsFrame.Destroy
 0001:000305E8       BisCallcDealsFrm.TBisCallcDealsFrame.ExecuteTask
 0001:00030E44       BisCallcDealsFrm.TBisCallcDealsFrame.GetTasksVisible
 0001:000306C0       BisCallcDealsFrm.TBisCallcDealsFrame.Init
 0001:00030AB4       BisCallcDealsFrm.TBisCallcDealsFrame.PageControlChange
 0001:000306DC       BisCallcDealsFrm.TBisCallcDealsFrame.RefreshControls
 0001:000306F0       BisCallcDealsFrm.TBisCallcDealsFrame.RefreshDeals
 0001:000307A0       BisCallcDealsFrm.TBisCallcDealsFrame.RefreshReports
 0001:00030B10       BisCallcDealsFrm.TBisCallcDealsFrame.ReportGetParamValue
 0001:00030E50       BisCallcDealsFrm.TBisCallcDealsFrame.SetTasksVisible
 0001:00030E5C       BisCallcDealsFrm.TBisCallcDealsFrame.TasksFrameTaskChecked
 0001:00030368       BisCallcDealsFrm.TBisCallcDealsFrameSheet.Create
 0001:000303B0       BisCallcDealsFrm.TBisCallcDealsFrameSheet.Destroy
 0001:000303E8       BisCallcDealsFrm.TBisCallcDealsFrameSheets.Add
 0001:00030450       BisCallcDealsFrm.TBisCallcDealsFrameSheets.GetItem
 0001:00030464       BisCallcDealsFrm.TBisCallcDealsFrameSheets.SetEnabled
 0004:000000A4       BisCallcHbookAccountActionEditFm..6
 0001:0000B6B0       BisCallcHbookAccountActionEditFm..TBisCallcHbookAccountActionDeleteFormIface
 0001:0000AFE0       BisCallcHbookAccountActionEditFm..TBisCallcHbookAccountActionEditForm
 0001:0000B2AC       BisCallcHbookAccountActionEditFm..TBisCallcHbookAccountActionEditFormIface
 0001:0000B400       BisCallcHbookAccountActionEditFm..TBisCallcHbookAccountActionInsertFormIface
 0001:0000B558       BisCallcHbookAccountActionEditFm..TBisCallcHbookAccountActionUpdateFormIface
 0002:000005B4       BisCallcHbookAccountActionEditFm.BisCallcHbookAccountActionEditFm
 0004:000000A0       BisCallcHbookAccountActionEditFm.BisCallcHbookAccountActionEditForm
 0001:0000BB94       BisCallcHbookAccountActionEditFm.Finalization
 0001:0000BB34       BisCallcHbookAccountActionEditFm.TBisCallcHbookAccountActionDeleteFormIface.Create
 0001:0000B808       BisCallcHbookAccountActionEditFm.TBisCallcHbookAccountActionEditFormIface.Create
 0001:0000BA74       BisCallcHbookAccountActionEditFm.TBisCallcHbookAccountActionInsertFormIface.Create
 0001:0000BAD4       BisCallcHbookAccountActionEditFm.TBisCallcHbookAccountActionUpdateFormIface.Create
 0004:000000AC       BisCallcHbookAccountActionsFm..3
 0001:0000BBC4       BisCallcHbookAccountActionsFm..TBisCallcHbookAccountActionsForm
 0001:0000BDC8       BisCallcHbookAccountActionsFm..TBisCallcHbookAccountActionsFormIface
 0004:000000A8       BisCallcHbookAccountActionsFm.BiCallcHbookAccountActionsForm
 0002:000005BC       BisCallcHbookAccountActionsFm.BisCallcHbookAccountActionsFm
 0001:0000C0DC       BisCallcHbookAccountActionsFm.Finalization
 0001:0000BF14       BisCallcHbookAccountActionsFm.TBisCallcHbookAccountActionsFormIface.Create
 0004:00000054       BisCallcHbookAccountFirmEditFm..6
 0001:000060D0       BisCallcHbookAccountFirmEditFm..TBisCallcHbookAccountFirmDeleteFormIface
 0001:00005A44       BisCallcHbookAccountFirmEditFm..TBisCallcHbookAccountFirmEditForm
 0001:00005CDC       BisCallcHbookAccountFirmEditFm..TBisCallcHbookAccountFirmEditFormIface
 0001:00005E28       BisCallcHbookAccountFirmEditFm..TBisCallcHbookAccountFirmInsertFormIface
 0001:00005F7C       BisCallcHbookAccountFirmEditFm..TBisCallcHbookAccountFirmUpdateFormIface
 0002:00000564       BisCallcHbookAccountFirmEditFm.BisCallcHbookAccountFirmEditFm
 0004:00000050       BisCallcHbookAccountFirmEditFm.BisCallcHbookAccountFirmEditForm
 0001:00006550       BisCallcHbookAccountFirmEditFm.Finalization
 0001:000064F4       BisCallcHbookAccountFirmEditFm.TBisCallcHbookAccountFirmDeleteFormIface.Create
 0001:00006224       BisCallcHbookAccountFirmEditFm.TBisCallcHbookAccountFirmEditFormIface.Create
 0001:0000643C       BisCallcHbookAccountFirmEditFm.TBisCallcHbookAccountFirmInsertFormIface.Create
 0001:00006498       BisCallcHbookAccountFirmEditFm.TBisCallcHbookAccountFirmUpdateFormIface.Create
 0004:0000005C       BisCallcHbookAccountFirmsFm..3
 0001:00006580       BisCallcHbookAccountFirmsFm..TBisCallcHbookAccountFirmsForm
 0001:0000677C       BisCallcHbookAccountFirmsFm..TBisCallcHbookAccountFirmsFormIface
 0004:00000058       BisCallcHbookAccountFirmsFm.BiCallcHbookAccountFirmsForm
 0002:0000056C       BisCallcHbookAccountFirmsFm.BisCallcHbookAccountFirmsFm
 0001:00006A40       BisCallcHbookAccountFirmsFm.Finalization
 0001:000068C0       BisCallcHbookAccountFirmsFm.TBisCallcHbookAccountFirmsFormIface.Create
 0004:00000084       BisCallcHbookAccountGroupEditFm..6
 0001:00009454       BisCallcHbookAccountGroupEditFm..TBisCallcHbookAccountGroupDeleteFormIface
 0001:00008D98       BisCallcHbookAccountGroupEditFm..TBisCallcHbookAccountGroupEditForm
 0001:0000905C       BisCallcHbookAccountGroupEditFm..TBisCallcHbookAccountGroupEditFormIface
 0001:000091AC       BisCallcHbookAccountGroupEditFm..TBisCallcHbookAccountGroupInsertFormIface
 0001:00009300       BisCallcHbookAccountGroupEditFm..TBisCallcHbookAccountGroupUpdateFormIface
 0002:00000594       BisCallcHbookAccountGroupEditFm.BisCallcHbookAccountGroupEditFm
 0004:00000080       BisCallcHbookAccountGroupEditFm.BisCallcHbookAccountGroupEditForm
 0001:00009924       BisCallcHbookAccountGroupEditFm.Finalization
 0001:000098C8       BisCallcHbookAccountGroupEditFm.TBisCallcHbookAccountGroupDeleteFormIface.Create
 0001:000095A8       BisCallcHbookAccountGroupEditFm.TBisCallcHbookAccountGroupEditFormIface.Create
 0001:00009810       BisCallcHbookAccountGroupEditFm.TBisCallcHbookAccountGroupInsertFormIface.Create
 0001:0000986C       BisCallcHbookAccountGroupEditFm.TBisCallcHbookAccountGroupUpdateFormIface.Create
 0004:0000008C       BisCallcHbookAccountGroupsFm..3
 0001:00009954       BisCallcHbookAccountGroupsFm..TBisCallcHbookAccountGroupsForm
 0001:00009B54       BisCallcHbookAccountGroupsFm..TBisCallcHbookAccountGroupsFormIface
 0004:00000088       BisCallcHbookAccountGroupsFm.BiCallcHbookAccountGroupsForm
 0002:0000059C       BisCallcHbookAccountGroupsFm.BisCallcHbookAccountGroupsFm
 0001:00009E64       BisCallcHbookAccountGroupsFm.Finalization
 0001:00009C9C       BisCallcHbookAccountGroupsFm.TBisCallcHbookAccountGroupsFormIface.Create
 0004:00000094       BisCallcHbookActionEditFm..6
 0001:0000A4EC       BisCallcHbookActionEditFm..TBisCallcHbookActionDeleteFormIface
 0001:00009E94       BisCallcHbookActionEditFm..TBisCallcHbookActionEditForm
 0001:0000A12C       BisCallcHbookActionEditFm..TBisCallcHbookActionEditFormIface
 0001:0000A26C       BisCallcHbookActionEditFm..TBisCallcHbookActionInsertFormIface
 0001:0000A3AC       BisCallcHbookActionEditFm..TBisCallcHbookActionUpdateFormIface
 0002:000005A4       BisCallcHbookActionEditFm.BisCallcHbookActionEditFm
 0004:00000090       BisCallcHbookActionEditFm.BisCallcHbookActionEditForm
 0001:0000AA18       BisCallcHbookActionEditFm.Finalization
 0001:0000A62C       BisCallcHbookActionEditFm.GetPurposeByIndex
 0001:0000A920       BisCallcHbookActionEditFm.TBisCallcHbookActionDeleteFormIface.Create
 0001:0000A978       BisCallcHbookActionEditFm.TBisCallcHbookActionEditForm.Create
 0001:0000A6E0       BisCallcHbookActionEditFm.TBisCallcHbookActionEditFormIface.Create
 0001:0000A870       BisCallcHbookActionEditFm.TBisCallcHbookActionInsertFormIface.Create
 0001:0000A8C8       BisCallcHbookActionEditFm.TBisCallcHbookActionUpdateFormIface.Create
 0004:00000214       BisCallcHbookActionReportEditFm..6
 0001:00038584       BisCallcHbookActionReportEditFm..TBisCallcHbookActionReportDeleteFormIface
 0001:00037EC8       BisCallcHbookActionReportEditFm..TBisCallcHbookActionReportEditForm
 0001:0003818C       BisCallcHbookActionReportEditFm..TBisCallcHbookActionReportEditFormIface
 0001:000382DC       BisCallcHbookActionReportEditFm..TBisCallcHbookActionReportInsertFormIface
 0001:00038430       BisCallcHbookActionReportEditFm..TBisCallcHbookActionReportUpdateFormIface
 0002:0000073C       BisCallcHbookActionReportEditFm.BisCallcHbookActionReportEditFm
 0004:00000210       BisCallcHbookActionReportEditFm.BisCallcHbookActionReportEditForm
 0001:00038A70       BisCallcHbookActionReportEditFm.Finalization
 0001:00038A14       BisCallcHbookActionReportEditFm.TBisCallcHbookActionReportDeleteFormIface.Create
 0001:000386D8       BisCallcHbookActionReportEditFm.TBisCallcHbookActionReportEditFormIface.Create
 0001:0003895C       BisCallcHbookActionReportEditFm.TBisCallcHbookActionReportInsertFormIface.Create
 0001:000389B8       BisCallcHbookActionReportEditFm.TBisCallcHbookActionReportUpdateFormIface.Create
 0004:0000021C       BisCallcHbookActionReportsFm..3
 0001:00038AA0       BisCallcHbookActionReportsFm..TBisCallcHbookActionReportsForm
 0001:00038CA0       BisCallcHbookActionReportsFm..TBisCallcHbookActionReportsFormIface
 0004:00000218       BisCallcHbookActionReportsFm.BiCallcHbookActionReportsForm
 0002:00000744       BisCallcHbookActionReportsFm.BisCallcHbookActionReportsFm
 0001:00038FA8       BisCallcHbookActionReportsFm.Finalization
 0001:00038DE8       BisCallcHbookActionReportsFm.TBisCallcHbookActionReportsFormIface.Create
 0004:000000C4       BisCallcHbookActionResultEditFm..6
 0001:0000D9A0       BisCallcHbookActionResultEditFm..TBisCallcHbookActionResultDeleteFormIface
 0001:0000D2E4       BisCallcHbookActionResultEditFm..TBisCallcHbookActionResultEditForm
 0001:0000D5A8       BisCallcHbookActionResultEditFm..TBisCallcHbookActionResultEditFormIface
 0001:0000D6F8       BisCallcHbookActionResultEditFm..TBisCallcHbookActionResultInsertFormIface
 0001:0000D84C       BisCallcHbookActionResultEditFm..TBisCallcHbookActionResultUpdateFormIface
 0002:000005D4       BisCallcHbookActionResultEditFm.BisCallcHbookActionResultEditFm
 0004:000000C0       BisCallcHbookActionResultEditFm.BisCallcHbookActionResultEditForm
 0001:0000DE34       BisCallcHbookActionResultEditFm.Finalization
 0001:0000DDD8       BisCallcHbookActionResultEditFm.TBisCallcHbookActionResultDeleteFormIface.Create
 0001:0000DAF4       BisCallcHbookActionResultEditFm.TBisCallcHbookActionResultEditFormIface.Create
 0001:0000DD20       BisCallcHbookActionResultEditFm.TBisCallcHbookActionResultInsertFormIface.Create
 0001:0000DD7C       BisCallcHbookActionResultEditFm.TBisCallcHbookActionResultUpdateFormIface.Create
 0004:000000CC       BisCallcHbookActionResultsFm..3
 0001:0000DE64       BisCallcHbookActionResultsFm..TBisCallcHbookActionResultsForm
 0001:0000E064       BisCallcHbookActionResultsFm..TBisCallcHbookActionResultsFormIface
 0004:000000C8       BisCallcHbookActionResultsFm.BiCallcHbookActionResultsForm
 0002:000005DC       BisCallcHbookActionResultsFm.BisCallcHbookActionResultsFm
 0001:0000E370       BisCallcHbookActionResultsFm.Finalization
 0001:0000E1AC       BisCallcHbookActionResultsFm.TBisCallcHbookActionResultsFormIface.Create
 0004:0000009C       BisCallcHbookActionsFm..3
 0001:0000AA48       BisCallcHbookActionsFm..TBisCallcHbookActionsForm
 0001:0000AC38       BisCallcHbookActionsFm..TBisCallcHbookActionsFormIface
 0002:000005AC       BisCallcHbookActionsFm.BisCallcHbookActionsFm
 0004:00000098       BisCallcHbookActionsFm.BisCallcHbookActionsForm
 0001:0000AFB0       BisCallcHbookActionsFm.Finalization
 0001:0000AD6C       BisCallcHbookActionsFm.TBisCallcHbookActionsFormIface.Create
 0001:0000AF18       BisCallcHbookActionsFm.TBisCallcHbookActionsFormIface.GetPurposeName
 0004:00000044       BisCallcHbookAgreementEditFm..7
 0001:00004AA8       BisCallcHbookAgreementEditFm..TBisCallcHbookAgreementDeleteFormIface
 0001:00004230       BisCallcHbookAgreementEditFm..TBisCallcHbookAgreementEditForm
 0001:00004574       BisCallcHbookAgreementEditFm..TBisCallcHbookAgreementEditFormIface
 0001:00004808       BisCallcHbookAgreementEditFm..TBisCallcHbookAgreementInsertChildFormIface
 0001:000046BC       BisCallcHbookAgreementEditFm..TBisCallcHbookAgreementInsertFormIface
 0001:0000495C       BisCallcHbookAgreementEditFm..TBisCallcHbookAgreementUpdateFormIface
 0002:00000554       BisCallcHbookAgreementEditFm.BisCallcHbookAgreementEditFm
 0004:00000040       BisCallcHbookAgreementEditFm.BisCallcHbookAgreementEditForm
 0001:0000542C       BisCallcHbookAgreementEditFm.Finalization
 0001:00005388       BisCallcHbookAgreementEditFm.TBisCallcHbookAgreementDeleteFormIface.Create
 0001:000053E0       BisCallcHbookAgreementEditFm.TBisCallcHbookAgreementEditForm.Create
 0001:00004BF4       BisCallcHbookAgreementEditFm.TBisCallcHbookAgreementEditFormIface.Create
 0001:00005164       BisCallcHbookAgreementEditFm.TBisCallcHbookAgreementInsertChildFormIface.Create
 0001:000051EC       BisCallcHbookAgreementEditFm.TBisCallcHbookAgreementInsertChildFormIface.CreateForm
 0001:00004FC0       BisCallcHbookAgreementEditFm.TBisCallcHbookAgreementInsertFormIface.Create
 0001:00005018       BisCallcHbookAgreementEditFm.TBisCallcHbookAgreementInsertFormIface.CreateForm
 0001:00005330       BisCallcHbookAgreementEditFm.TBisCallcHbookAgreementUpdateFormIface.Create
 0004:0000004C       BisCallcHbookAgreementsFm..3
 0001:0000545C       BisCallcHbookAgreementsFm..TBisCallcHbookAgreementsForm
 0001:00005654       BisCallcHbookAgreementsFm..TBisCallcHbookAgreementsFormIface
 0002:0000055C       BisCallcHbookAgreementsFm.BisCallcHbookAgreementsFm
 0004:00000048       BisCallcHbookAgreementsFm.BisCallcHbookAgreementsForm
 0001:00005A14       BisCallcHbookAgreementsFm.Finalization
 0001:00005794       BisCallcHbookAgreementsFm.TBisCallcHbookAgreementsFormIface.Create
 0004:0000011C       BisCallcHbookCaseEditFm..6
 0001:00012CD0       BisCallcHbookCaseEditFm..TBisCallcHbookCaseDeleteFormIface
 0001:0001243C       BisCallcHbookCaseEditFm..TBisCallcHbookCaseEditForm
 0001:00012920       BisCallcHbookCaseEditFm..TBisCallcHbookCaseEditFormIface
 0001:00012A58       BisCallcHbookCaseEditFm..TBisCallcHbookCaseInsertFormIface
 0001:00012B94       BisCallcHbookCaseEditFm..TBisCallcHbookCaseUpdateFormIface
 0002:000005FC       BisCallcHbookCaseEditFm.BisCallcHbookCaseEditFm
 0004:00000118       BisCallcHbookCaseEditFm.BisCallcHbookCaseEditForm
 0001:00013A78       BisCallcHbookCaseEditFm.Finalization
 0001:000134A8       BisCallcHbookCaseEditFm.TBisCallcHbookCaseDeleteFormIface.Create
 0001:00013A24       BisCallcHbookCaseEditFm.TBisCallcHbookCaseEditForm.ButtonBiasClick
 0001:00013604       BisCallcHbookCaseEditFm.TBisCallcHbookCaseEditForm.ButtonDpClick
 0001:0001391C       BisCallcHbookCaseEditFm.TBisCallcHbookCaseEditForm.ButtonPpClick
 0001:000134FC       BisCallcHbookCaseEditFm.TBisCallcHbookCaseEditForm.ButtonRpClick
 0001:00013814       BisCallcHbookCaseEditFm.TBisCallcHbookCaseEditForm.ButtonTpClick
 0001:0001370C       BisCallcHbookCaseEditFm.TBisCallcHbookCaseEditForm.ButtonVpClick
 0001:00012E0C       BisCallcHbookCaseEditFm.TBisCallcHbookCaseEditFormIface.Create
 0001:00013400       BisCallcHbookCaseEditFm.TBisCallcHbookCaseInsertFormIface.Create
 0001:00013454       BisCallcHbookCaseEditFm.TBisCallcHbookCaseUpdateFormIface.Create
 0004:00000124       BisCallcHbookCasesFm..3
 0001:00013AA8       BisCallcHbookCasesFm..TBiCallcHbookCasesForm
 0001:00013C90       BisCallcHbookCasesFm..TBisCallcHbookCasesFormIface
 0004:00000120       BisCallcHbookCasesFm.BiCallcHbookCasesForm
 0002:00000604       BisCallcHbookCasesFm.BisCallcHbookCasesFm
 0001:00014114       BisCallcHbookCasesFm.Finalization
 0001:00013DC0       BisCallcHbookCasesFm.TBisCallcHbookCasesFormIface.Create
 0004:00000024       BisCallcHbookCurrencyEditFm..6
 0001:000027EC       BisCallcHbookCurrencyEditFm..TBisCallcHbookCurrencyDeleteFormIface
 0001:00002180       BisCallcHbookCurrencyEditFm..TBisCallcHbookCurrencyEditForm
 0001:00002418       BisCallcHbookCurrencyEditFm..TBisCallcHbookCurrencyEditFormIface
 0001:0000255C       BisCallcHbookCurrencyEditFm..TBisCallcHbookCurrencyInsertFormIface
 0001:000026A4       BisCallcHbookCurrencyEditFm..TBisCallcHbookCurrencyUpdateFormIface
 0002:00000534       BisCallcHbookCurrencyEditFm.BisCallcHbookCurrencyEditFm
 0004:00000020       BisCallcHbookCurrencyEditFm.BisCallcHbookCurrencyEditForm
 0001:00002BD0       BisCallcHbookCurrencyEditFm.Finalization
 0001:00002B78       BisCallcHbookCurrencyEditFm.TBisCallcHbookCurrencyDeleteFormIface.Create
 0001:00002934       BisCallcHbookCurrencyEditFm.TBisCallcHbookCurrencyEditFormIface.Create
 0001:00002AC8       BisCallcHbookCurrencyEditFm.TBisCallcHbookCurrencyInsertFormIface.Create
 0001:00002B20       BisCallcHbookCurrencyEditFm.TBisCallcHbookCurrencyUpdateFormIface.Create
 0004:0000002C       BisCallcHbookCurrencyFm..3
 0001:00002C00       BisCallcHbookCurrencyFm..TBiCallcHbookCurrencyForm
 0001:00002DF0       BisCallcHbookCurrencyFm..TBisCallcHbookCurrencyFormIface
 0004:00000028       BisCallcHbookCurrencyFm.BiCallcHbookCurrencyForm
 0002:0000053C       BisCallcHbookCurrencyFm.BisCallcHbookCurrencyFm
 0001:00003090       BisCallcHbookCurrencyFm.Finalization
 0001:00002F28       BisCallcHbookCurrencyFm.TBisCallcHbookCurrencyFormIface.Create
 0004:00000154       BisCallcHbookDealEditFm..6
 0001:00018D50       BisCallcHbookDealEditFm..TBisCallcHbookDealDeleteFormIface
 0001:000184E0       BisCallcHbookDealEditFm..TBisCallcHbookDealEditForm
 0001:000189A0       BisCallcHbookDealEditFm..TBisCallcHbookDealEditFormIface
 0001:00018AD8       BisCallcHbookDealEditFm..TBisCallcHbookDealInsertFormIface
 0001:00018C14       BisCallcHbookDealEditFm..TBisCallcHbookDealUpdateFormIface
 0002:00000634       BisCallcHbookDealEditFm.BisCallcHbookDealEditFm
 0004:00000150       BisCallcHbookDealEditFm.BisCallcHbookDealEditForm
 0001:0001970C       BisCallcHbookDealEditFm.Finalization
 0001:00019638       BisCallcHbookDealEditFm.TBisCallcHbookDealDeleteFormIface.Create
 0001:000196D8       BisCallcHbookDealEditFm.TBisCallcHbookDealEditForm.BeforeShow
 0001:0001968C       BisCallcHbookDealEditFm.TBisCallcHbookDealEditForm.Create
 0001:00018E8C       BisCallcHbookDealEditFm.TBisCallcHbookDealEditFormIface.Create
 0001:00019590       BisCallcHbookDealEditFm.TBisCallcHbookDealInsertFormIface.Create
 0001:000195E4       BisCallcHbookDealEditFm.TBisCallcHbookDealUpdateFormIface.Create
 0004:0000015C       BisCallcHbookDealsFm..3
 0001:0001973C       BisCallcHbookDealsFm..TBiCallcHbookDealsForm
 0001:00019924       BisCallcHbookDealsFm..TBisCallcHbookDealsFormIface
 0004:00000158       BisCallcHbookDealsFm.BiCallcHbookDealsForm
 0002:0000063C       BisCallcHbookDealsFm.BisCallcHbookDealsFm
 0001:00019DFC       BisCallcHbookDealsFm.Finalization
 0001:00019A54       BisCallcHbookDealsFm.TBisCallcHbookDealsFormIface.Create
 0004:00000134       BisCallcHbookDebtorEditFm..6
 0001:00015AE8       BisCallcHbookDebtorEditFm..TBisCallcHbookDebtorDeleteFormIface
 0001:000150F0       BisCallcHbookDebtorEditFm..TBisCallcHbookDebtorEditForm
 0001:00015728       BisCallcHbookDebtorEditFm..TBisCallcHbookDebtorEditFormIface
 0001:00015868       BisCallcHbookDebtorEditFm..TBisCallcHbookDebtorInsertFormIface
 0001:000159A8       BisCallcHbookDebtorEditFm..TBisCallcHbookDebtorUpdateFormIface
 0002:00000614       BisCallcHbookDebtorEditFm.BisCallcHbookDebtorEditFm
 0004:00000130       BisCallcHbookDebtorEditFm.BisCallcHbookDebtorEditForm
 0001:00016CEC       BisCallcHbookDebtorEditFm.Finalization
 0001:00015C28       BisCallcHbookDebtorEditFm.GetDebtorTypeByIndex
 0001:00015C90       BisCallcHbookDebtorEditFm.GetSexByIndex
 0001:00016740       BisCallcHbookDebtorEditFm.TBisCallcHbookDebtorDeleteFormIface.Create
 0001:000169B4       BisCallcHbookDebtorEditFm.TBisCallcHbookDebtorEditForm.BeforeShow
 0001:000168A8       BisCallcHbookDebtorEditFm.TBisCallcHbookDebtorEditForm.ChangeParam
 0001:00016798       BisCallcHbookDebtorEditFm.TBisCallcHbookDebtorEditForm.Create
 0001:00016BE8       BisCallcHbookDebtorEditFm.TBisCallcHbookDebtorEditForm.LabelClick
 0001:00015CE4       BisCallcHbookDebtorEditFm.TBisCallcHbookDebtorEditFormIface.Create
 0001:00016690       BisCallcHbookDebtorEditFm.TBisCallcHbookDebtorInsertFormIface.Create
 0001:000166E8       BisCallcHbookDebtorEditFm.TBisCallcHbookDebtorUpdateFormIface.Create
 0004:0000012C       BisCallcHbookDebtorHistoriesFm..4
 0001:000143B8       BisCallcHbookDebtorHistoriesFm..TBisCallcHbookDebtorHistorieDeleteFormIface
 0001:00014144       BisCallcHbookDebtorHistoriesFm..TBisCallcHbookDebtorHistoriesForm
 0001:0001450C       BisCallcHbookDebtorHistoriesFm..TBisCallcHbookDebtorHistoriesFormIface
 0002:0000060C       BisCallcHbookDebtorHistoriesFm.BisCallcHbookDebtorHistoriesFm
 0004:00000128       BisCallcHbookDebtorHistoriesFm.BisCallcHbookDebtorHistoriesForm
 0001:000150C0       BisCallcHbookDebtorHistoriesFm.Finalization
 0001:0001466C       BisCallcHbookDebtorHistoriesFm.GetDebtorFIO
 0001:00014BC4       BisCallcHbookDebtorHistoriesFm.GetDebtorHistoryExists
 0001:000148E4       BisCallcHbookDebtorHistoriesFm.SelectDebtorHistory
 0001:00014D90       BisCallcHbookDebtorHistoriesFm.TBisCallcHbookDebtorHistorieDeleteFormIface.Execute
 0001:00015068       BisCallcHbookDebtorHistoriesFm.TBisCallcHbookDebtorHistoriesForm.Create
 0001:00014F34       BisCallcHbookDebtorHistoriesFm.TBisCallcHbookDebtorHistoriesFormIface.Create
 0001:00014F74       BisCallcHbookDebtorHistoriesFm.TBisCallcHbookDebtorHistoriesFormIface.CreateForm
 0004:0000013C       BisCallcHbookDebtorsFm..3
 0001:00016D1C       BisCallcHbookDebtorsFm..TBisCallcHbookDebtorsForm
 0001:00016F0C       BisCallcHbookDebtorsFm..TBisCallcHbookDebtorsFormIface
 0002:0000061C       BisCallcHbookDebtorsFm.BisCallcHbookDebtorsFm
 0004:00000138       BisCallcHbookDebtorsFm.BisCallcHbookDebtorsForm
 0001:00017674       BisCallcHbookDebtorsFm.Finalization
 0001:00017040       BisCallcHbookDebtorsFm.TBisCallcHbookDebtorsFormIface.Create
 0001:00017544       BisCallcHbookDebtorsFm.TBisCallcHbookDebtorsFormIface.GetDebtorTypeName
 0001:000175E4       BisCallcHbookDebtorsFm.TBisCallcHbookDebtorsFormIface.GetSexName
 0004:00000074       BisCallcHbookGroupEditFm..6
 0001:000082E4       BisCallcHbookGroupEditFm..TBisCallcHbookGroupDeleteFormIface
 0001:00007C4C       BisCallcHbookGroupEditFm..TBisCallcHbookGroupEditForm
 0001:00007F28       BisCallcHbookGroupEditFm..TBisCallcHbookGroupEditFormIface
 0001:00008064       BisCallcHbookGroupEditFm..TBisCallcHbookGroupInsertFormIface
 0001:000081A4       BisCallcHbookGroupEditFm..TBisCallcHbookGroupUpdateFormIface
 0002:00000584       BisCallcHbookGroupEditFm.BisCallcHbookGroupEditFm
 0004:00000070       BisCallcHbookGroupEditFm.BisCallcHbookGroupEditForm
 0001:00008798       BisCallcHbookGroupEditFm.Finalization
 0001:00008744       BisCallcHbookGroupEditFm.TBisCallcHbookGroupDeleteFormIface.Create
 0001:00008424       BisCallcHbookGroupEditFm.TBisCallcHbookGroupEditFormIface.Create
 0001:0000869C       BisCallcHbookGroupEditFm.TBisCallcHbookGroupInsertFormIface.Create
 0001:000086F0       BisCallcHbookGroupEditFm.TBisCallcHbookGroupUpdateFormIface.Create
 0004:0000007C       BisCallcHbookGroupsFm..3
 0001:000087C8       BisCallcHbookGroupsFm..TBisCallcHbookGroupsForm
 0001:00008A20       BisCallcHbookGroupsFm..TBisCallcHbookGroupsFormIface
 0002:0000058C       BisCallcHbookGroupsFm.BisCallcHbookGroupsFm
 0004:00000078       BisCallcHbookGroupsFm.BisCallcHbookGroupsForm
 0001:00008D68       BisCallcHbookGroupsFm.Finalization
 0001:00008D10       BisCallcHbookGroupsFm.TBisCallcHbookGroupsForm.Create
 0001:00008B54       BisCallcHbookGroupsFm.TBisCallcHbookGroupsFormIface.Create
 0004:00000064       BisCallcHbookPatternEditFm..6
 0001:00007184       BisCallcHbookPatternEditFm..TBisCallcHbookPatternDeleteFormIface
 0001:00006A70       BisCallcHbookPatternEditFm..TBisCallcHbookPatternEditForm
 0001:00006DB4       BisCallcHbookPatternEditFm..TBisCallcHbookPatternEditFormIface
 0001:00006EF4       BisCallcHbookPatternEditFm..TBisCallcHbookPatternInsertFormIface
 0001:0000703C       BisCallcHbookPatternEditFm..TBisCallcHbookPatternUpdateFormIface
 0002:00000574       BisCallcHbookPatternEditFm.BisCallcHbookPatternEditFm
 0004:00000060       BisCallcHbookPatternEditFm.BisCallcHbookPatternEditForm
 0001:00007760       BisCallcHbookPatternEditFm.Finalization
 0001:0000750C       BisCallcHbookPatternEditFm.TBisCallcHbookPatternDeleteFormIface.Create
 0001:00007724       BisCallcHbookPatternEditFm.TBisCallcHbookPatternEditForm.ButtonClearClick
 0001:000075D8       BisCallcHbookPatternEditFm.TBisCallcHbookPatternEditForm.ButtonLoadClick
 0001:0000766C       BisCallcHbookPatternEditFm.TBisCallcHbookPatternEditForm.ButtonSaveClick
 0001:00007564       BisCallcHbookPatternEditFm.TBisCallcHbookPatternEditForm.ChangeParam
 0001:000072CC       BisCallcHbookPatternEditFm.TBisCallcHbookPatternEditFormIface.Create
 0001:0000745C       BisCallcHbookPatternEditFm.TBisCallcHbookPatternInsertFormIface.Create
 0001:000074B4       BisCallcHbookPatternEditFm.TBisCallcHbookPatternUpdateFormIface.Create
 0004:0000006C       BisCallcHbookPatternsFm..3
 0001:00007790       BisCallcHbookPatternsFm..TBisCallcHbookPatternsForm
 0001:00007980       BisCallcHbookPatternsFm..TBisCallcHbookPatternsFormIface
 0002:0000057C       BisCallcHbookPatternsFm.BisCallcHbookPatternsFm
 0004:00000068       BisCallcHbookPatternsFm.BisCallcHbookPatternsForm
 0001:00007C1C       BisCallcHbookPatternsFm.Finalization
 0001:00007AB8       BisCallcHbookPatternsFm.TBisCallcHbookPatternsFormIface.Create
 0004:00000164       BisCallcHbookPaymentEditFm..6
 0001:0001A584       BisCallcHbookPaymentEditFm..TBisCallcHbookPaymentDeleteFormIface
 0001:00019E2C       BisCallcHbookPaymentEditFm..TBisCallcHbookPaymentEditForm
 0001:0001A1B4       BisCallcHbookPaymentEditFm..TBisCallcHbookPaymentEditFormIface
 0001:0001A2F4       BisCallcHbookPaymentEditFm..TBisCallcHbookPaymentInsertFormIface
 0001:0001A43C       BisCallcHbookPaymentEditFm..TBisCallcHbookPaymentUpdateFormIface
 0002:00000644       BisCallcHbookPaymentEditFm.BisCallcHbookPaymentEditFm
 0004:00000160       BisCallcHbookPaymentEditFm.BisCallcHbookPaymentEditForm
 0001:0001B3FC       BisCallcHbookPaymentEditFm.Finalization
 0001:0001A6CC       BisCallcHbookPaymentEditFm.GetStateByIndex
 0001:0001ABA0       BisCallcHbookPaymentEditFm.TBisCallcHbookPaymentDeleteFormIface.Create
 0001:0001B274       BisCallcHbookPaymentEditFm.TBisCallcHbookPaymentEditForm.BeforeShow
 0001:0001B0DC       BisCallcHbookPaymentEditFm.TBisCallcHbookPaymentEditForm.ChangeParam
 0001:0001ABF8       BisCallcHbookPaymentEditFm.TBisCallcHbookPaymentEditForm.Create
 0001:0001AD40       BisCallcHbookPaymentEditFm.TBisCallcHbookPaymentEditForm.GetDealInfo
 0001:0001AF3C       BisCallcHbookPaymentEditFm.TBisCallcHbookPaymentEditForm.UpdateLabelCurrentDebt
 0001:0001B014       BisCallcHbookPaymentEditFm.TBisCallcHbookPaymentEditForm.UpdateLabelInitialDebt
 0001:0001AAEC       BisCallcHbookPaymentEditFm.TBisCallcHbookPaymentEditFormIface.AccountIdChange
 0001:0001A728       BisCallcHbookPaymentEditFm.TBisCallcHbookPaymentEditFormIface.Create
 0001:0001AAE0       BisCallcHbookPaymentEditFm.TBisCallcHbookPaymentEditFormIface.GetLastForm
 0001:0001AAF0       BisCallcHbookPaymentEditFm.TBisCallcHbookPaymentInsertFormIface.Create
 0001:0001AB48       BisCallcHbookPaymentEditFm.TBisCallcHbookPaymentUpdateFormIface.Create
 0004:0000016C       BisCallcHbookPaymentsFm..3
 0001:0001B42C       BisCallcHbookPaymentsFm..TBiCallcHbookPaymentsForm
 0001:0001B688       BisCallcHbookPaymentsFm..TBisCallcHbookPaymentsFormIface
 0004:00000168       BisCallcHbookPaymentsFm.BiCallcHbookPaymentsForm
 0002:0000064C       BisCallcHbookPaymentsFm.BisCallcHbookPaymentsFm
 0001:0001BB4C       BisCallcHbookPaymentsFm.Finalization
 0001:0001BAF4       BisCallcHbookPaymentsFm.TBiCallcHbookPaymentsForm.Create
 0001:0001B7C0       BisCallcHbookPaymentsFm.TBisCallcHbookPaymentsFormIface.Create
 0001:0001BA60       BisCallcHbookPaymentsFm.TBisCallcHbookPaymentsFormIface.GetStateName
 0004:000001FC       BisCallcHbookPlanActionEditFm..6
 0001:0003229C       BisCallcHbookPlanActionEditFm..TBisCallcHbookPlanActionDeleteFormIface
 0001:00031BDC       BisCallcHbookPlanActionEditFm..TBisCallcHbookPlanActionEditForm
 0001:00031EB8       BisCallcHbookPlanActionEditFm..TBisCallcHbookPlanActionEditFormIface
 0001:00032004       BisCallcHbookPlanActionEditFm..TBisCallcHbookPlanActionInsertFormIface
 0001:00032150       BisCallcHbookPlanActionEditFm..TBisCallcHbookPlanActionUpdateFormIface
 0002:0000070C       BisCallcHbookPlanActionEditFm.BisCallcHbookPlanActionEditFm
 0004:000001F8       BisCallcHbookPlanActionEditFm.BisCallcHbookPlanActionEditForm
 0001:00032764       BisCallcHbookPlanActionEditFm.Finalization
 0001:00032708       BisCallcHbookPlanActionEditFm.TBisCallcHbookPlanActionDeleteFormIface.Create
 0001:000323E8       BisCallcHbookPlanActionEditFm.TBisCallcHbookPlanActionEditFormIface.Create
 0001:00032650       BisCallcHbookPlanActionEditFm.TBisCallcHbookPlanActionInsertFormIface.Create
 0001:000326AC       BisCallcHbookPlanActionEditFm.TBisCallcHbookPlanActionUpdateFormIface.Create
 0004:00000204       BisCallcHbookPlanActionsFm..3
 0001:00032794       BisCallcHbookPlanActionsFm..TBisCallcHbookPlanActionsForm
 0001:00032990       BisCallcHbookPlanActionsFm..TBisCallcHbookPlanActionsFormIface
 0004:00000200       BisCallcHbookPlanActionsFm.BiCallcHbookPlanActionsForm
 0002:00000714       BisCallcHbookPlanActionsFm.BisCallcHbookPlanActionsFm
 0001:00032CB8       BisCallcHbookPlanActionsFm.Finalization
 0001:00032AD0       BisCallcHbookPlanActionsFm.TBisCallcHbookPlanActionsFormIface.Create
 0004:00000144       BisCallcHbookPlanEditFm..6
 0001:00017CB8       BisCallcHbookPlanEditFm..TBisCallcHbookPlanDeleteFormIface
 0001:000176A4       BisCallcHbookPlanEditFm..TBisCallcHbookPlanEditForm
 0001:00017908       BisCallcHbookPlanEditFm..TBisCallcHbookPlanEditFormIface
 0001:00017A40       BisCallcHbookPlanEditFm..TBisCallcHbookPlanInsertFormIface
 0001:00017B7C       BisCallcHbookPlanEditFm..TBisCallcHbookPlanUpdateFormIface
 0002:00000624       BisCallcHbookPlanEditFm.BisCallcHbookPlanEditFm
 0004:00000140       BisCallcHbookPlanEditFm.BisCallcHbookPlanEditForm
 0001:00018028       BisCallcHbookPlanEditFm.Finalization
 0001:00017FD4       BisCallcHbookPlanEditFm.TBisCallcHbookPlanDeleteFormIface.Create
 0001:00017DF4       BisCallcHbookPlanEditFm.TBisCallcHbookPlanEditFormIface.Create
 0001:00017F2C       BisCallcHbookPlanEditFm.TBisCallcHbookPlanInsertFormIface.Create
 0001:00017F80       BisCallcHbookPlanEditFm.TBisCallcHbookPlanUpdateFormIface.Create
 0004:0000014C       BisCallcHbookPlansFm..3
 0001:00018058       BisCallcHbookPlansFm..TBisCallcHbookPlansForm
 0001:00018240       BisCallcHbookPlansFm..TBisCallcHbookPlansFormIface
 0002:0000062C       BisCallcHbookPlansFm.BisCallcHbookPlansFm
 0004:00000148       BisCallcHbookPlansFm.BisCallcHbookPlansForm
 0001:000184B0       BisCallcHbookPlansFm.Finalization
 0001:00018370       BisCallcHbookPlansFm.TBisCallcHbookPlansFormIface.Create
 0004:000000B4       BisCallcHbookResultEditFm..6
 0001:0000C7F4       BisCallcHbookResultEditFm..TBisCallcHbookResultDeleteFormIface
 0001:0000C10C       BisCallcHbookResultEditFm..TBisCallcHbookResultEditForm
 0001:0000C434       BisCallcHbookResultEditFm..TBisCallcHbookResultEditFormIface
 0001:0000C574       BisCallcHbookResultEditFm..TBisCallcHbookResultInsertFormIface
 0001:0000C6B4       BisCallcHbookResultEditFm..TBisCallcHbookResultUpdateFormIface
 0002:000005C4       BisCallcHbookResultEditFm.BisCallcHbookResultEditFm
 0004:000000B0       BisCallcHbookResultEditFm.BisCallcHbookResultEditForm
 0001:0000CD44       BisCallcHbookResultEditFm.Finalization
 0001:0000CCEC       BisCallcHbookResultEditFm.TBisCallcHbookResultDeleteFormIface.Create
 0001:0000C934       BisCallcHbookResultEditFm.TBisCallcHbookResultEditFormIface.Create
 0001:0000CC3C       BisCallcHbookResultEditFm.TBisCallcHbookResultInsertFormIface.Create
 0001:0000CC94       BisCallcHbookResultEditFm.TBisCallcHbookResultUpdateFormIface.Create
 0004:000000BC       BisCallcHbookResultsFm..3
 0001:0000CD74       BisCallcHbookResultsFm..TBisCallcHbookResultsForm
 0001:0000CF64       BisCallcHbookResultsFm..TBisCallcHbookResultsFormIface
 0002:000005CC       BisCallcHbookResultsFm.BisCallcHbookResultsFm
 0004:000000B8       BisCallcHbookResultsFm.BisCallcHbookResultsForm
 0001:0000D2B4       BisCallcHbookResultsFm.Finalization
 0001:0000D098       BisCallcHbookResultsFm.TBisCallcHbookResultsFormIface.Create
 0004:000000D4       BisCallcHbookStatusEditFm..6
 0001:0000EA44       BisCallcHbookStatusEditFm..TBisCallcHbookStatusDeleteFormIface
 0001:0000E3A0       BisCallcHbookStatusEditFm..TBisCallcHbookStatusEditForm
 0001:0000E684       BisCallcHbookStatusEditFm..TBisCallcHbookStatusEditFormIface
 0001:0000E7C4       BisCallcHbookStatusEditFm..TBisCallcHbookStatusInsertFormIface
 0001:0000E904       BisCallcHbookStatusEditFm..TBisCallcHbookStatusUpdateFormIface
 0002:000005E4       BisCallcHbookStatusEditFm.BisCallcHbookStatusEditFm
 0004:000000D0       BisCallcHbookStatusEditFm.BisCallcHbookStatusEditForm
 0001:0000EEDC       BisCallcHbookStatusEditFm.Finalization
 0001:0000EE84       BisCallcHbookStatusEditFm.TBisCallcHbookStatusDeleteFormIface.Create
 0001:0000EB84       BisCallcHbookStatusEditFm.TBisCallcHbookStatusEditFormIface.Create
 0001:0000EDD4       BisCallcHbookStatusEditFm.TBisCallcHbookStatusInsertFormIface.Create
 0001:0000EE2C       BisCallcHbookStatusEditFm.TBisCallcHbookStatusUpdateFormIface.Create
 0004:000000DC       BisCallcHbookStatusesFm..3
 0001:0000EF0C       BisCallcHbookStatusesFm..TBiCallcHbookStatusesForm
 0001:0000F0FC       BisCallcHbookStatusesFm..TBisCallcHbookStatusesFormIface
 0004:000000D8       BisCallcHbookStatusesFm.BiCallcHbookStatusesForm
 0002:000005EC       BisCallcHbookStatusesFm.BisCallcHbookStatusesFm
 0001:0000F3DC       BisCallcHbookStatusesFm.Finalization
 0001:0000F234       BisCallcHbookStatusesFm.TBisCallcHbookStatusesFormIface.Create
 0004:00000184       BisCallcHbookTaskDocumentEditFm..6
 0001:0001DD5C       BisCallcHbookTaskDocumentEditFm..TBisCallcHbookTaskDocumentDeleteFormIface
 0001:0001D540       BisCallcHbookTaskDocumentEditFm..TBisCallcHbookTaskDocumentEditForm
 0001:0001D964       BisCallcHbookTaskDocumentEditFm..TBisCallcHbookTaskDocumentEditFormIface
 0001:0001DAB4       BisCallcHbookTaskDocumentEditFm..TBisCallcHbookTaskDocumentInsertFormIface
 0001:0001DC08       BisCallcHbookTaskDocumentEditFm..TBisCallcHbookTaskDocumentUpdateFormIface
 0002:00000664       BisCallcHbookTaskDocumentEditFm.BisCallcHbookTaskDocumentEditFm
 0004:00000180       BisCallcHbookTaskDocumentEditFm.BisCallcHbookTaskDocumentEditForm
 0001:0001EBBC       BisCallcHbookTaskDocumentEditFm.Finalization
 0001:0001DEB0       BisCallcHbookTaskDocumentEditFm.GetDocumentTypeByIndex
 0001:0001E598       BisCallcHbookTaskDocumentEditFm.TBisCallcHbookTaskDocumentDeleteFormIface.Create
 0001:0001E6CC       BisCallcHbookTaskDocumentEditFm.TBisCallcHbookTaskDocumentEditForm.BeforeShow
 0001:0001EAB4       BisCallcHbookTaskDocumentEditFm.TBisCallcHbookTaskDocumentEditForm.ButtonClearClick
 0001:0001E88C       BisCallcHbookTaskDocumentEditFm.TBisCallcHbookTaskDocumentEditForm.ButtonLoadClick
 0001:0001E9C4       BisCallcHbookTaskDocumentEditFm.TBisCallcHbookTaskDocumentEditForm.ButtonSaveClick
 0001:0001E754       BisCallcHbookTaskDocumentEditFm.TBisCallcHbookTaskDocumentEditForm.ChangeParam
 0001:0001EAF4       BisCallcHbookTaskDocumentEditFm.TBisCallcHbookTaskDocumentEditForm.CheckParam
 0001:0001E5F4       BisCallcHbookTaskDocumentEditFm.TBisCallcHbookTaskDocumentEditForm.Create
 0001:0001DF8C       BisCallcHbookTaskDocumentEditFm.TBisCallcHbookTaskDocumentEditFormIface.Create
 0001:0001E320       BisCallcHbookTaskDocumentEditFm.TBisCallcHbookTaskDocumentEditFormIface.DocumentIdChange
 0001:0001E4E0       BisCallcHbookTaskDocumentEditFm.TBisCallcHbookTaskDocumentInsertFormIface.Create
 0001:0001E53C       BisCallcHbookTaskDocumentEditFm.TBisCallcHbookTaskDocumentUpdateFormIface.Create
 0004:0000018C       BisCallcHbookTaskDocumentsFm..3
 0001:0001EBEC       BisCallcHbookTaskDocumentsFm..TBiCallcHbookTaskDocumentsForm
 0001:0001EE5C       BisCallcHbookTaskDocumentsFm..TBisCallcHbookTaskDocumentsFormIface
 0004:00000188       BisCallcHbookTaskDocumentsFm.BiCallcHbookTaskDocumentsForm
 0002:0000066C       BisCallcHbookTaskDocumentsFm.BisCallcHbookTaskDocumentsFm
 0001:0001F318       BisCallcHbookTaskDocumentsFm.Finalization
 0001:0001F2C0       BisCallcHbookTaskDocumentsFm.TBiCallcHbookTaskDocumentsForm.Create
 0001:0001EFA4       BisCallcHbookTaskDocumentsFm.TBisCallcHbookTaskDocumentsFormIface.Create
 0001:0001F21C       BisCallcHbookTaskDocumentsFm.TBisCallcHbookTaskDocumentsFormIface.GetDocumentTypeName
 0004:00000174       BisCallcHbookTaskEditFm..6
 0001:0001C378       BisCallcHbookTaskEditFm..TBisCallcHbookTaskDeleteFormIface
 0001:0001BB7C       BisCallcHbookTaskEditFm..TBisCallcHbookTaskEditForm
 0001:0001BFC8       BisCallcHbookTaskEditFm..TBisCallcHbookTaskEditFormIface
 0001:0001C100       BisCallcHbookTaskEditFm..TBisCallcHbookTaskInsertFormIface
 0001:0001C23C       BisCallcHbookTaskEditFm..TBisCallcHbookTaskUpdateFormIface
 0002:00000654       BisCallcHbookTaskEditFm.BisCallcHbookTaskEditFm
 0004:00000170       BisCallcHbookTaskEditFm.BisCallcHbookTaskEditForm
 0001:0001CD1C       BisCallcHbookTaskEditFm.Finalization
 0001:0001CB40       BisCallcHbookTaskEditFm.TBisCallcHbookTaskDeleteFormIface.Create
 0001:0001CBCC       BisCallcHbookTaskEditFm.TBisCallcHbookTaskEditForm.BeforeShow
 0001:0001CB94       BisCallcHbookTaskEditFm.TBisCallcHbookTaskEditForm.Create
 0001:0001C4B4       BisCallcHbookTaskEditFm.TBisCallcHbookTaskEditFormIface.Create
 0001:0001CA98       BisCallcHbookTaskEditFm.TBisCallcHbookTaskInsertFormIface.Create
 0001:0001CAEC       BisCallcHbookTaskEditFm.TBisCallcHbookTaskUpdateFormIface.Create
 0004:0000017C       BisCallcHbookTasksFm..3
 0001:0001CD4C       BisCallcHbookTasksFm..TBiCallcHbookTasksForm
 0001:0001CFA4       BisCallcHbookTasksFm..TBisCallcHbookTasksFormIface
 0004:00000178       BisCallcHbookTasksFm.BiCallcHbookTasksForm
 0002:0000065C       BisCallcHbookTasksFm.BisCallcHbookTasksFm
 0001:0001D490       BisCallcHbookTasksFm.Finalization
 0001:0001D438       BisCallcHbookTasksFm.TBiCallcHbookTasksForm.Create
 0001:0001D0D4       BisCallcHbookTasksFm.TBisCallcHbookTasksFormIface.Create
 0004:00000034       BisCallcHbookVariantEditFm..6
 0001:00003760       BisCallcHbookVariantEditFm..TBisCallcHbookVariantDeleteFormIface
 0001:000030C0       BisCallcHbookVariantEditFm..TBisCallcHbookVariantEditForm
 0001:00003390       BisCallcHbookVariantEditFm..TBisCallcHbookVariantEditFormIface
 0001:000034D0       BisCallcHbookVariantEditFm..TBisCallcHbookVariantInsertFormIface
 0001:00003618       BisCallcHbookVariantEditFm..TBisCallcHbookVariantUpdateFormIface
 0002:00000544       BisCallcHbookVariantEditFm.BisCallcHbookVariantEditFm
 0004:00000030       BisCallcHbookVariantEditFm.BisCallcHbookVariantEditForm
 0001:00003BE4       BisCallcHbookVariantEditFm.Finalization
 0001:00003B8C       BisCallcHbookVariantEditFm.TBisCallcHbookVariantDeleteFormIface.Create
 0001:000038A8       BisCallcHbookVariantEditFm.TBisCallcHbookVariantEditFormIface.Create
 0001:00003ADC       BisCallcHbookVariantEditFm.TBisCallcHbookVariantInsertFormIface.Create
 0001:00003B34       BisCallcHbookVariantEditFm.TBisCallcHbookVariantUpdateFormIface.Create
 0004:0000003C       BisCallcHbookVariantsFm..3
 0001:00003C14       BisCallcHbookVariantsFm..TBiCallcHbookVariantsForm
 0001:00003E70       BisCallcHbookVariantsFm..TBisCallcHbookVariantsFormIface
 0004:00000038       BisCallcHbookVariantsFm.BiCallcHbookVariantsForm
 0002:0000054C       BisCallcHbookVariantsFm.BisCallcHbookVariantsFm
 0001:000041D8       BisCallcHbookVariantsFm.Finalization
 0001:00004180       BisCallcHbookVariantsFm.TBiCallcHbookVariantsForm.Create
 0001:00003FA8       BisCallcHbookVariantsFm.TBisCallcHbookVariantsFormIface.Create
 0004:0000020C       BisCallcImportFm..3
 0001:00032D38       BisCallcImportFm..TBisCallcImportForm
 0001:0003346C       BisCallcImportFm..TBisCallcImportFormIface
 0002:00000734       BisCallcImportFm.BisCallcImportFm
 0004:00000208       BisCallcImportFm.BisCallcImportForm
 0001:00037E98       BisCallcImportFm.Finalization
 0001:00033A08       BisCallcImportFm.Required
 0001:00035460       BisCallcImportFm.TBisCallcImportForm.Bias
 0001:000348AC       BisCallcImportFm.TBisCallcImportForm.ButtonAgreementClick
 0001:00034DDC       BisCallcImportFm.TBisCallcImportForm.ButtonFileClick
 0001:00034B04       BisCallcImportFm.TBisCallcImportForm.ButtonGroupClick
 0001:00035248       BisCallcImportFm.TBisCallcImportForm.ButtonImportClick
 0001:00034C74       BisCallcImportFm.TBisCallcImportForm.ButtonPlanClick
 0001:0003500C       BisCallcImportFm.TBisCallcImportForm.CheckGrid
 0001:000335D8       BisCallcImportFm.TBisCallcImportForm.Create
 0001:00033A0C       BisCallcImportFm.TBisCallcImportForm.CreateFields
 0001:000345D8       BisCallcImportFm.TBisCallcImportForm.CreateFieldsPayaments
 0001:00033A00       BisCallcImportFm.TBisCallcImportForm.DBMemoValueExit
 0001:00033794       BisCallcImportFm.TBisCallcImportForm.Destroy
 0001:00033904       BisCallcImportFm.TBisCallcImportForm.FormClose
 0001:00033908       BisCallcImportFm.TBisCallcImportForm.GridColEnter
 0001:000339DC       BisCallcImportFm.TBisCallcImportForm.GridColExit
 0001:00035B00       BisCallcImportFm.TBisCallcImportForm.Import
 0001:00036A90       BisCallcImportFm.TBisCallcImportForm.LoadFromExcel
 0001:000363C0       BisCallcImportFm.TBisCallcImportForm.LoadFromXml
 0001:00034EBC       BisCallcImportFm.TBisCallcImportForm.MenuItemClearClick
 0001:00034F10       BisCallcImportFm.TBisCallcImportForm.MenuItemDeleteClick
 0001:00037C70       BisCallcImportFm.TBisCallcImportForm.MenuItemLoadClick
 0001:00034F5C       BisCallcImportFm.TBisCallcImportForm.MenuItemRefreshClick
 0001:00037AC8       BisCallcImportFm.TBisCallcImportForm.MenuItemSaveClick
 0001:00033820       BisCallcImportFm.TBisCallcImportForm.PopupActionBarPopup
 0001:000338FC       BisCallcImportFm.TBisCallcImportForm.ProviderAfterInsert
 0001:000337EC       BisCallcImportFm.TBisCallcImportForm.UpdateImportButton
 0001:00037A1C       BisCallcImportFm.TBisCallcImportForm.UpdateStatusBar
 0001:0003358C       BisCallcImportFm.TBisCallcImportFormIface.Create
 0004:0000001C       BisCallcMainFm..3
 0001:00001A10       BisCallcMainFm..TBisCallcMainForm
 0001:00001CAC       BisCallcMainFm..TBisCallcMainFormIface
 0002:0000051C       BisCallcMainFm.BisCallcMainFm
 0004:00000018       BisCallcMainFm.BisCallcMainForm
 0001:00002068       BisCallcMainFm.Finalization
 0003:00000030       BisCallcMainFm.MainIface
 0001:00001E04       BisCallcMainFm.TBisCallcMainForm.Create
 0001:00001E40       BisCallcMainFm.TBisCallcMainForm.RefreshMenus
 0001:00001DC4       BisCallcMainFm.TBisCallcMainFormIface.Create
 0004:00000198       BisCallcReadinessFm..2
 0001:0001F960       BisCallcReadinessFm..TBisCallcReadinessForm
 0002:0000067C       BisCallcReadinessFm.BisCallcReadinessFm
 0004:00000194       BisCallcReadinessFm.BisCallcReadinessForm
 0001:0001FB6C       BisCallcReadinessFm.Finalization
 0004:00000224       BisCallcTakeBellFilterFm..5
 0001:00039148       BisCallcTakeBellFilterFm..TBisCallcStatusInfo
 0001:00039204       BisCallcTakeBellFilterFm..TBisCallcTakeBellFilterForm
 0001:00039434       BisCallcTakeBellFilterFm..TBisCallcTakeBellFilterFormIface
 0001:00038FD8       BisCallcTakeBellFilterFm..TRadioGroup
 0002:0000074C       BisCallcTakeBellFilterFm.BisCallcTakeBellFilterFm
 0004:00000220       BisCallcTakeBellFilterFm.BisCallcTakeBellFilterForm
 0001:00039948       BisCallcTakeBellFilterFm.Finalization
 0001:00039610       BisCallcTakeBellFilterFm.TBisCallcTakeBellFilterForm.ChangesArePresent
 0001:000395D4       BisCallcTakeBellFilterFm.TBisCallcTakeBellFilterForm.Create
 0001:00039624       BisCallcTakeBellFilterFm.TBisCallcTakeBellFilterForm.RefreshStatuses
 0001:00039570       BisCallcTakeBellFilterFm.TBisCallcTakeBellFilterFormIface.Create
 0004:00000230       BisCallcTakeBellFm..3
 0001:0003CE68       BisCallcTakeBellFm..TBisCallcTakeBellForm
 0001:0003D04C       BisCallcTakeBellFm..TBisCallcTakeBellFormIface
 0002:0000075C       BisCallcTakeBellFm.BisCallcTakeBellFm
 0004:0000022C       BisCallcTakeBellFm.BisCallcTakeBellForm
 0001:0003D3BC       BisCallcTakeBellFm.Finalization
 0001:0003D340       BisCallcTakeBellFm.TBisCallcTakeBellForm.Create
 0001:0003D38C       BisCallcTakeBellFm.TBisCallcTakeBellForm.Destroy
 0001:0003D3B4       BisCallcTakeBellFm.TBisCallcTakeBellForm.GetDataFrameClass
 0001:0003D330       BisCallcTakeBellFm.TBisCallcTakeBellFormIface.CanApplyGroup
 0001:0003D320       BisCallcTakeBellFm.TBisCallcTakeBellFormIface.CanApplyPlan
 0001:0003D1F0       BisCallcTakeBellFm.TBisCallcTakeBellFormIface.Create
 0001:0003D2A0       BisCallcTakeBellFm.TBisCallcTakeBellFormIface.CreateForm
 0001:0003D2F8       BisCallcTakeBellFm.TBisCallcTakeBellFormIface.Init
 0004:00000228       BisCallcTakeBellFrm..5
 0001:00039E28       BisCallcTakeBellFrm..TBisCallcTakeBellFrame
 0001:00039CF0       BisCallcTakeBellFrm..TBisCallcTakeBellUpdateFormIface
 0001:00039978       BisCallcTakeBellFrm..TEdit
 0001:00039B08       BisCallcTakeBellFrm..TNewEditDate
 0002:00000754       BisCallcTakeBellFrm.BisCallcTakeBellFrm
 0001:0003CE38       BisCallcTakeBellFrm.Finalization
 0001:0003A580       BisCallcTakeBellFrm.Locked
 0001:0003C6FC       BisCallcTakeBellFrm.TBisCallcTakeBellFrame.ActionApplyGroupExecute
 0001:0003C704       BisCallcTakeBellFrm.TBisCallcTakeBellFrame.ActionApplyGroupUpdate
 0001:0003C720       BisCallcTakeBellFrm.TBisCallcTakeBellFrame.ActionApplyPlanExecute
 0001:0003C728       BisCallcTakeBellFrm.TBisCallcTakeBellFrame.ActionApplyPlanUpdate
 0001:0003CB48       BisCallcTakeBellFrm.TBisCallcTakeBellFrame.ApplyGroup
 0001:0003C818       BisCallcTakeBellFrm.TBisCallcTakeBellFrame.ApplyPlan
 0001:0003B55C       BisCallcTakeBellFrm.TBisCallcTakeBellFrame.BeforeIfaceExecute
 0001:0003B710       BisCallcTakeBellFrm.TBisCallcTakeBellFrame.ButtonActionNameClick
 0001:0003B894       BisCallcTakeBellFrm.TBisCallcTakeBellFrame.ButtonAgreementNumClick
 0001:0003CB00       BisCallcTakeBellFrm.TBisCallcTakeBellFrame.CanApplyGroup
 0001:0003C744       BisCallcTakeBellFrm.TBisCallcTakeBellFrame.CanApplyPlan
 0001:0003C78C       BisCallcTakeBellFrm.TBisCallcTakeBellFrame.CanUpdateRecord
 0001:0003B468       BisCallcTakeBellFrm.TBisCallcTakeBellFrame.Closed
 0001:0003C7B8       BisCallcTakeBellFrm.TBisCallcTakeBellFrame.ComboBoxStatusChange
 0001:0003C7C4       BisCallcTakeBellFrm.TBisCallcTakeBellFrame.ComboBoxStatusEnter
 0001:0003A904       BisCallcTakeBellFrm.TBisCallcTakeBellFrame.Create
 0001:0003AF84       BisCallcTakeBellFrm.TBisCallcTakeBellFrame.CreateBeginEditDateExit
 0001:0003AF28       BisCallcTakeBellFrm.TBisCallcTakeBellFrame.Destroy
 0001:0003B3C4       BisCallcTakeBellFrm.TBisCallcTakeBellFrame.Locked
 0001:0003BB84       BisCallcTakeBellFrm.TBisCallcTakeBellFrame.OpenRecords
 0001:0003AFFC       BisCallcTakeBellFrm.TBisCallcTakeBellFrame.RefreshActions
 0001:0003B1E0       BisCallcTakeBellFrm.TBisCallcTakeBellFrame.RefreshGroups
 0001:0003BA20       BisCallcTakeBellFrm.TBisCallcTakeBellFrame.TakeBellFilterFormIfaceAfterExecute
 0001:0003BB70       BisCallcTakeBellFrm.TBisCallcTakeBellFrame.TakeBellUpdateFormIfaceAfterExecute
 0001:0003A6EC       BisCallcTakeBellFrm.TBisCallcTakeBellUpdateFormIface.Execute
 0001:0003A470       BisCallcTakeBellFrm.TEdit.CNKeyDown
 0001:0003A54C       BisCallcTakeBellFrm.TNewEditDate.CNKeyDown
 0004:000001EC       BisCallcTaskClerkFm..3
 0001:000313C4       BisCallcTaskClerkFm..TBisCallcTaskClerkForm
 0001:000315AC       BisCallcTaskClerkFm..TBisCallcTaskClerkFormIface
 0002:000006FC       BisCallcTaskClerkFm.BisCallcTaskClerkFm
 0004:000001E8       BisCallcTaskClerkFm.BisCallcTaskClerkForm
 0001:00031798       BisCallcTaskClerkFm.Finalization
 0001:0003171C       BisCallcTaskClerkFm.TBisCallcTaskClerkForm.Create
 0001:00031788       BisCallcTaskClerkFm.TBisCallcTaskClerkForm.GetFrame
 0001:00031790       BisCallcTaskClerkFm.TBisCallcTaskClerkForm.GetFrameClass
 0001:000316D4       BisCallcTaskClerkFm.TBisCallcTaskClerkFormIface.Create
 0004:000001A0       BisCallcTaskExecuteInfoFm..2
 0001:0001FB9C       BisCallcTaskExecuteInfoFm..TBisTaskExecuteForm
 0002:00000684       BisCallcTaskExecuteInfoFm.BisCallcTaskExecuteInfoFm
 0004:0000019C       BisCallcTaskExecuteInfoFm.BisTaskExecuteForm
 0001:0001FE74       BisCallcTaskExecuteInfoFm.Finalization
 0001:0001FE2C       BisCallcTaskExecuteInfoFm.TBisTaskExecuteForm.FormCreate
 0004:000001A8       BisCallcTaskFm..4
 0001:0001FFD0       BisCallcTaskFm..TBisCallcTaskForm
 0001:00020464       BisCallcTaskFm..TBisCallcTaskFormIface
 0001:0001FF08       BisCallcTaskFm..TBisCallcTaskFormResultInfo
 0002:0000068C       BisCallcTaskFm.BisCallcTaskFm
 0004:000001A4       BisCallcTaskFm.BisCallcTaskForm
 0001:00022C0C       BisCallcTaskFm.Finalization
 0001:00022978       BisCallcTaskFm.TBisCallcTaskForm.BeforeShow
 0001:00022994       BisCallcTaskFm.TBisCallcTaskForm.ButtonDescriptionClick
 0001:00022B48       BisCallcTaskFm.TBisCallcTaskForm.ButtonExecuteClick
 0001:0002098C       BisCallcTaskFm.TBisCallcTaskForm.CanShow
 0001:00022B1C       BisCallcTaskFm.TBisCallcTaskForm.CheckControls
 0001:0002285C       BisCallcTaskFm.TBisCallcTaskForm.ComboBoxResultChange
 0001:00020748       BisCallcTaskFm.TBisCallcTaskForm.Create
 0001:000208FC       BisCallcTaskFm.TBisCallcTaskForm.Destroy
 0001:00022118       BisCallcTaskFm.TBisCallcTaskForm.EnableControls
 0001:00022758       BisCallcTaskFm.TBisCallcTaskForm.EnableNextDateControls
 0001:00021274       BisCallcTaskFm.TBisCallcTaskForm.ExecuteTask
 0001:0002191C       BisCallcTaskFm.TBisCallcTaskForm.FirstState
 0001:000226FC       BisCallcTaskFm.TBisCallcTaskForm.FormClose
 0001:00022044       BisCallcTaskFm.TBisCallcTaskForm.FrameChangeControls
 0001:00020968       BisCallcTaskFm.TBisCallcTaskForm.GetFrameClass
 0001:00020970       BisCallcTaskFm.TBisCallcTaskForm.Init
 0001:00020A24       BisCallcTaskFm.TBisCallcTaskForm.LockTask
 0001:000209B4       BisCallcTaskFm.TBisCallcTaskForm.Readiness
 0001:00021F8C       BisCallcTaskFm.TBisCallcTaskForm.RefreshControls
 0001:00020DA4       BisCallcTaskFm.TBisCallcTaskForm.RefreshResults
 0001:00021A84       BisCallcTaskFm.TBisCallcTaskForm.RefreshTask
 0001:00022494       BisCallcTaskFm.TBisCallcTaskForm.RefreshTime
 0001:00022474       BisCallcTaskFm.TBisCallcTaskForm.ResetTime
 0001:00022480       BisCallcTaskFm.TBisCallcTaskForm.SetOnlyOneTask
 0001:00020A10       BisCallcTaskFm.TBisCallcTaskForm.TaskExists
 0001:00022970       BisCallcTaskFm.TBisCallcTaskForm.TimerRefreshTimer
 0001:00022700       BisCallcTaskFm.TBisCallcTaskForm.TimerTimeTimer
 0001:00020CA8       BisCallcTaskFm.TBisCallcTaskForm.UnLockTask
 0001:00022928       BisCallcTaskFm.TBisCallcTaskForm.UpdateButton
 0001:0002261C       BisCallcTaskFm.TBisCallcTaskForm.VisibleControls
 0001:00020598       BisCallcTaskFm.TBisCallcTaskFormIface.Create
 0001:00020644       BisCallcTaskFm.TBisCallcTaskFormIface.CreateForm
 0001:00020734       BisCallcTaskFm.TBisCallcTaskFormIface.GetFormClass
 0001:0002073C       BisCallcTaskFm.TBisCallcTaskFormIface.GetLastForm
 0004:00000190       BisCallcTaskFrm..2
 0001:0001F3A8       BisCallcTaskFrm..TBisCallcTaskFrame
 0002:00000674       BisCallcTaskFrm.BisCallcTaskFrm
 0001:0001F930       BisCallcTaskFrm.Finalization
 0001:0001F92C       BisCallcTaskFrm.TBisCallcTaskFrame.CheckControls
 0001:0001F58C       BisCallcTaskFrm.TBisCallcTaskFrame.Create
 0001:0001F610       BisCallcTaskFrm.TBisCallcTaskFrame.DealExists
 0001:0001F624       BisCallcTaskFrm.TBisCallcTaskFrame.ExecuteTask
 0001:0001F90C       BisCallcTaskFrm.TBisCallcTaskFrame.RefreshControls
 0001:0001F910       BisCallcTaskFrm.TBisCallcTaskFrame.SaveChanges
 0001:0001F914       BisCallcTaskFrm.TBisCallcTaskFrame.SetDealNum
 0004:000001E4       BisCallcTaskLeaderFm..3
 0001:00030FB8       BisCallcTaskLeaderFm..TBisCallcTaskLeaderForm
 0001:000311A4       BisCallcTaskLeaderFm..TBisCallcTaskLeaderFormIface
 0002:000006F4       BisCallcTaskLeaderFm.BisCallcTaskLeaderFm
 0004:000001E0       BisCallcTaskLeaderFm.BisCallcTaskLeaderForm
 0001:00031394       BisCallcTaskLeaderFm.Finalization
 0001:00031318       BisCallcTaskLeaderFm.TBisCallcTaskLeaderForm.Create
 0001:00031384       BisCallcTaskLeaderFm.TBisCallcTaskLeaderForm.GetFrame
 0001:0003138C       BisCallcTaskLeaderFm.TBisCallcTaskLeaderForm.GetFrameClass
 0001:000312D0       BisCallcTaskLeaderFm.TBisCallcTaskLeaderFormIface.Create
 0004:000001F4       BisCallcTaskManagerFm..3
 0001:000317C8       BisCallcTaskManagerFm..TBisCallcTaskManagerForm
 0001:000319B8       BisCallcTaskManagerFm..TBisCallcTaskManagerFormIface
 0002:00000704       BisCallcTaskManagerFm.BisCallcTaskManagerFm
 0004:000001F0       BisCallcTaskManagerFm.BisCallcTaskManagerForm
 0001:00031BAC       BisCallcTaskManagerFm.Finalization
 0001:00031B30       BisCallcTaskManagerFm.TBisCallcTaskManagerForm.Create
 0001:00031B9C       BisCallcTaskManagerFm.TBisCallcTaskManagerForm.GetFrame
 0001:00031BA4       BisCallcTaskManagerFm.TBisCallcTaskManagerForm.GetFrameClass
 0001:00031AE8       BisCallcTaskManagerFm.TBisCallcTaskManagerFormIface.Create
 0004:000001C0       BisCallcTaskOperatorFm..3
 0001:0002BFB8       BisCallcTaskOperatorFm..TBisCallcTaskOperatorForm
 0001:0002C1AC       BisCallcTaskOperatorFm..TBisCallcTaskOperatorFormIface
 0002:000006CC       BisCallcTaskOperatorFm.BisCallcTaskOperatorFm
 0004:000001BC       BisCallcTaskOperatorFm.BisCallcTaskOperatorForm
 0001:0002C460       BisCallcTaskOperatorFm.Finalization
 0001:0002C40C       BisCallcTaskOperatorFm.TBisCallcTaskOperatorForm.Create
 0001:0002C450       BisCallcTaskOperatorFm.TBisCallcTaskOperatorForm.GetFrame
 0001:0002C458       BisCallcTaskOperatorFm.TBisCallcTaskOperatorForm.GetFrameClass
 0001:0002C320       BisCallcTaskOperatorFm.TBisCallcTaskOperatorFormIface.Create
 0001:0002C3A0       BisCallcTaskOperatorFm.TBisCallcTaskOperatorFormIface.CreateForm
 0001:0002C394       BisCallcTaskOperatorFm.TBisCallcTaskOperatorFormIface.GetLastForm
 0001:0002C3F0       BisCallcTaskOperatorFm.TBisCallcTaskOperatorFormIface.Init
 0001:00000DC0       ShellAPI.ShellExecute
 0001:000002E8       SysInit.@InitPkg
 0001:0000034C       SysInit.@PackageLoad
 0001:00000358       SysInit.@PackageUnload
 0001:000001D8       SysInit.AllocTlsBuffer
 0001:00000294       SysInit.ExitProcessTLS
 0001:0000025C       SysInit.ExitThreadTLS
 0001:000001A0       SysInit.FreeLibrary
 0001:000001E4       SysInit.GetTlsSize
 0004:00000004       SysInit.HInstance
 0001:000002B8       SysInit.InitializeModule
 0001:00000230       SysInit.InitProcessTLS
 0001:000001EC       SysInit.InitThreadTLS
 0001:000001A8       SysInit.LocalAlloc
 0001:000001B0       SysInit.LocalFree
 0003:00000008       SysInit.Module
 0004:00000000       SysInit.ModuleIsLib
 0004:00000001       SysInit.ModuleIsPackage
 0003:00000004       SysInit.PtrToNil
 0001:000001B8       SysInit.TlsAlloc
 0004:00000008       SysInit.tlsBuffer
 0001:000001C0       SysInit.TlsFree
 0001:000001C8       SysInit.TlsGetValue
 0003:00000000       SysInit.TlsIndex
 0005:00000000       SysInit.TlsLast
 0003:00000020       SysInit.TlsProc
 0001:000001D0       SysInit.TlsSetValue
 0001:000002C4       SysInit.UninitializeModule
 0004:0000000C       Windows..3
 0001:0000046C       Windows.Finalization
 0001:00000464       Windows.FreeLibrary
 0004:00000010       Windows.HtmlHelpModule
 0002:00000010       Windows.Windows


  Address             Publics by Value

 0001:000001A0       SysInit.FreeLibrary
 0001:000001A8       SysInit.LocalAlloc
 0001:000001B0       SysInit.LocalFree
 0001:000001B8       SysInit.TlsAlloc
 0001:000001C0       SysInit.TlsFree
 0001:000001C8       SysInit.TlsGetValue
 0001:000001D0       SysInit.TlsSetValue
 0001:000001D8       SysInit.AllocTlsBuffer
 0001:000001E4       SysInit.GetTlsSize
 0001:000001EC       SysInit.InitThreadTLS
 0001:00000230       SysInit.InitProcessTLS
 0001:0000025C       SysInit.ExitThreadTLS
 0001:00000294       SysInit.ExitProcessTLS
 0001:000002B8       SysInit.InitializeModule
 0001:000002C4       SysInit.UninitializeModule
 0001:000002E8       SysInit.@InitPkg
 0001:0000034C       SysInit.@PackageLoad
 0001:00000358       SysInit.@PackageUnload
 0001:00000464       Windows.FreeLibrary
 0001:0000046C       Windows.Finalization
 0001:00000DC0       ShellAPI.ShellExecute
 0001:000019E0       BisCallcConsts.Finalization
 0001:00001A10       BisCallcMainFm..TBisCallcMainForm
 0001:00001CAC       BisCallcMainFm..TBisCallcMainFormIface
 0001:00001DC4       BisCallcMainFm.TBisCallcMainFormIface.Create
 0001:00001E04       BisCallcMainFm.TBisCallcMainForm.Create
 0001:00001E40       BisCallcMainFm.TBisCallcMainForm.RefreshMenus
 0001:00002068       BisCallcMainFm.Finalization
 0001:00002180       BisCallcHbookCurrencyEditFm..TBisCallcHbookCurrencyEditForm
 0001:00002418       BisCallcHbookCurrencyEditFm..TBisCallcHbookCurrencyEditFormIface
 0001:0000255C       BisCallcHbookCurrencyEditFm..TBisCallcHbookCurrencyInsertFormIface
 0001:000026A4       BisCallcHbookCurrencyEditFm..TBisCallcHbookCurrencyUpdateFormIface
 0001:000027EC       BisCallcHbookCurrencyEditFm..TBisCallcHbookCurrencyDeleteFormIface
 0001:00002934       BisCallcHbookCurrencyEditFm.TBisCallcHbookCurrencyEditFormIface.Create
 0001:00002AC8       BisCallcHbookCurrencyEditFm.TBisCallcHbookCurrencyInsertFormIface.Create
 0001:00002B20       BisCallcHbookCurrencyEditFm.TBisCallcHbookCurrencyUpdateFormIface.Create
 0001:00002B78       BisCallcHbookCurrencyEditFm.TBisCallcHbookCurrencyDeleteFormIface.Create
 0001:00002BD0       BisCallcHbookCurrencyEditFm.Finalization
 0001:00002C00       BisCallcHbookCurrencyFm..TBiCallcHbookCurrencyForm
 0001:00002DF0       BisCallcHbookCurrencyFm..TBisCallcHbookCurrencyFormIface
 0001:00002F28       BisCallcHbookCurrencyFm.TBisCallcHbookCurrencyFormIface.Create
 0001:00003090       BisCallcHbookCurrencyFm.Finalization
 0001:000030C0       BisCallcHbookVariantEditFm..TBisCallcHbookVariantEditForm
 0001:00003390       BisCallcHbookVariantEditFm..TBisCallcHbookVariantEditFormIface
 0001:000034D0       BisCallcHbookVariantEditFm..TBisCallcHbookVariantInsertFormIface
 0001:00003618       BisCallcHbookVariantEditFm..TBisCallcHbookVariantUpdateFormIface
 0001:00003760       BisCallcHbookVariantEditFm..TBisCallcHbookVariantDeleteFormIface
 0001:000038A8       BisCallcHbookVariantEditFm.TBisCallcHbookVariantEditFormIface.Create
 0001:00003ADC       BisCallcHbookVariantEditFm.TBisCallcHbookVariantInsertFormIface.Create
 0001:00003B34       BisCallcHbookVariantEditFm.TBisCallcHbookVariantUpdateFormIface.Create
 0001:00003B8C       BisCallcHbookVariantEditFm.TBisCallcHbookVariantDeleteFormIface.Create
 0001:00003BE4       BisCallcHbookVariantEditFm.Finalization
 0001:00003C14       BisCallcHbookVariantsFm..TBiCallcHbookVariantsForm
 0001:00003E70       BisCallcHbookVariantsFm..TBisCallcHbookVariantsFormIface
 0001:00003FA8       BisCallcHbookVariantsFm.TBisCallcHbookVariantsFormIface.Create
 0001:00004180       BisCallcHbookVariantsFm.TBiCallcHbookVariantsForm.Create
 0001:000041D8       BisCallcHbookVariantsFm.Finalization
 0001:00004230       BisCallcHbookAgreementEditFm..TBisCallcHbookAgreementEditForm
 0001:00004574       BisCallcHbookAgreementEditFm..TBisCallcHbookAgreementEditFormIface
 0001:000046BC       BisCallcHbookAgreementEditFm..TBisCallcHbookAgreementInsertFormIface
 0001:00004808       BisCallcHbookAgreementEditFm..TBisCallcHbookAgreementInsertChildFormIface
 0001:0000495C       BisCallcHbookAgreementEditFm..TBisCallcHbookAgreementUpdateFormIface
 0001:00004AA8       BisCallcHbookAgreementEditFm..TBisCallcHbookAgreementDeleteFormIface
 0001:00004BF4       BisCallcHbookAgreementEditFm.TBisCallcHbookAgreementEditFormIface.Create
 0001:00004FC0       BisCallcHbookAgreementEditFm.TBisCallcHbookAgreementInsertFormIface.Create
 0001:00005018       BisCallcHbookAgreementEditFm.TBisCallcHbookAgreementInsertFormIface.CreateForm
 0001:00005164       BisCallcHbookAgreementEditFm.TBisCallcHbookAgreementInsertChildFormIface.Create
 0001:000051EC       BisCallcHbookAgreementEditFm.TBisCallcHbookAgreementInsertChildFormIface.CreateForm
 0001:00005330       BisCallcHbookAgreementEditFm.TBisCallcHbookAgreementUpdateFormIface.Create
 0001:00005388       BisCallcHbookAgreementEditFm.TBisCallcHbookAgreementDeleteFormIface.Create
 0001:000053E0       BisCallcHbookAgreementEditFm.TBisCallcHbookAgreementEditForm.Create
 0001:0000542C       BisCallcHbookAgreementEditFm.Finalization
 0001:0000545C       BisCallcHbookAgreementsFm..TBisCallcHbookAgreementsForm
 0001:00005654       BisCallcHbookAgreementsFm..TBisCallcHbookAgreementsFormIface
 0001:00005794       BisCallcHbookAgreementsFm.TBisCallcHbookAgreementsFormIface.Create
 0001:00005A14       BisCallcHbookAgreementsFm.Finalization
 0001:00005A44       BisCallcHbookAccountFirmEditFm..TBisCallcHbookAccountFirmEditForm
 0001:00005CDC       BisCallcHbookAccountFirmEditFm..TBisCallcHbookAccountFirmEditFormIface
 0001:00005E28       BisCallcHbookAccountFirmEditFm..TBisCallcHbookAccountFirmInsertFormIface
 0001:00005F7C       BisCallcHbookAccountFirmEditFm..TBisCallcHbookAccountFirmUpdateFormIface
 0001:000060D0       BisCallcHbookAccountFirmEditFm..TBisCallcHbookAccountFirmDeleteFormIface
 0001:00006224       BisCallcHbookAccountFirmEditFm.TBisCallcHbookAccountFirmEditFormIface.Create
 0001:0000643C       BisCallcHbookAccountFirmEditFm.TBisCallcHbookAccountFirmInsertFormIface.Create
 0001:00006498       BisCallcHbookAccountFirmEditFm.TBisCallcHbookAccountFirmUpdateFormIface.Create
 0001:000064F4       BisCallcHbookAccountFirmEditFm.TBisCallcHbookAccountFirmDeleteFormIface.Create
 0001:00006550       BisCallcHbookAccountFirmEditFm.Finalization
 0001:00006580       BisCallcHbookAccountFirmsFm..TBisCallcHbookAccountFirmsForm
 0001:0000677C       BisCallcHbookAccountFirmsFm..TBisCallcHbookAccountFirmsFormIface
 0001:000068C0       BisCallcHbookAccountFirmsFm.TBisCallcHbookAccountFirmsFormIface.Create
 0001:00006A40       BisCallcHbookAccountFirmsFm.Finalization
 0001:00006A70       BisCallcHbookPatternEditFm..TBisCallcHbookPatternEditForm
 0001:00006DB4       BisCallcHbookPatternEditFm..TBisCallcHbookPatternEditFormIface
 0001:00006EF4       BisCallcHbookPatternEditFm..TBisCallcHbookPatternInsertFormIface
 0001:0000703C       BisCallcHbookPatternEditFm..TBisCallcHbookPatternUpdateFormIface
 0001:00007184       BisCallcHbookPatternEditFm..TBisCallcHbookPatternDeleteFormIface
 0001:000072CC       BisCallcHbookPatternEditFm.TBisCallcHbookPatternEditFormIface.Create
 0001:0000745C       BisCallcHbookPatternEditFm.TBisCallcHbookPatternInsertFormIface.Create
 0001:000074B4       BisCallcHbookPatternEditFm.TBisCallcHbookPatternUpdateFormIface.Create
 0001:0000750C       BisCallcHbookPatternEditFm.TBisCallcHbookPatternDeleteFormIface.Create
 0001:00007564       BisCallcHbookPatternEditFm.TBisCallcHbookPatternEditForm.ChangeParam
 0001:000075D8       BisCallcHbookPatternEditFm.TBisCallcHbookPatternEditForm.ButtonLoadClick
 0001:0000766C       BisCallcHbookPatternEditFm.TBisCallcHbookPatternEditForm.ButtonSaveClick
 0001:00007724       BisCallcHbookPatternEditFm.TBisCallcHbookPatternEditForm.ButtonClearClick
 0001:00007760       BisCallcHbookPatternEditFm.Finalization
 0001:00007790       BisCallcHbookPatternsFm..TBisCallcHbookPatternsForm
 0001:00007980       BisCallcHbookPatternsFm..TBisCallcHbookPatternsFormIface
 0001:00007AB8       BisCallcHbookPatternsFm.TBisCallcHbookPatternsFormIface.Create
 0001:00007C1C       BisCallcHbookPatternsFm.Finalization
 0001:00007C4C       BisCallcHbookGroupEditFm..TBisCallcHbookGroupEditForm
 0001:00007F28       BisCallcHbookGroupEditFm..TBisCallcHbookGroupEditFormIface
 0001:00008064       BisCallcHbookGroupEditFm..TBisCallcHbookGroupInsertFormIface
 0001:000081A4       BisCallcHbookGroupEditFm..TBisCallcHbookGroupUpdateFormIface
 0001:000082E4       BisCallcHbookGroupEditFm..TBisCallcHbookGroupDeleteFormIface
 0001:00008424       BisCallcHbookGroupEditFm.TBisCallcHbookGroupEditFormIface.Create
 0001:0000869C       BisCallcHbookGroupEditFm.TBisCallcHbookGroupInsertFormIface.Create
 0001:000086F0       BisCallcHbookGroupEditFm.TBisCallcHbookGroupUpdateFormIface.Create
 0001:00008744       BisCallcHbookGroupEditFm.TBisCallcHbookGroupDeleteFormIface.Create
 0001:00008798       BisCallcHbookGroupEditFm.Finalization
 0001:000087C8       BisCallcHbookGroupsFm..TBisCallcHbookGroupsForm
 0001:00008A20       BisCallcHbookGroupsFm..TBisCallcHbookGroupsFormIface
 0001:00008B54       BisCallcHbookGroupsFm.TBisCallcHbookGroupsFormIface.Create
 0001:00008D10       BisCallcHbookGroupsFm.TBisCallcHbookGroupsForm.Create
 0001:00008D68       BisCallcHbookGroupsFm.Finalization
 0001:00008D98       BisCallcHbookAccountGroupEditFm..TBisCallcHbookAccountGroupEditForm
 0001:0000905C       BisCallcHbookAccountGroupEditFm..TBisCallcHbookAccountGroupEditFormIface
 0001:000091AC       BisCallcHbookAccountGroupEditFm..TBisCallcHbookAccountGroupInsertFormIface
 0001:00009300       BisCallcHbookAccountGroupEditFm..TBisCallcHbookAccountGroupUpdateFormIface
 0001:00009454       BisCallcHbookAccountGroupEditFm..TBisCallcHbookAccountGroupDeleteFormIface
 0001:000095A8       BisCallcHbookAccountGroupEditFm.TBisCallcHbookAccountGroupEditFormIface.Create
 0001:00009810       BisCallcHbookAccountGroupEditFm.TBisCallcHbookAccountGroupInsertFormIface.Create
 0001:0000986C       BisCallcHbookAccountGroupEditFm.TBisCallcHbookAccountGroupUpdateFormIface.Create
 0001:000098C8       BisCallcHbookAccountGroupEditFm.TBisCallcHbookAccountGroupDeleteFormIface.Create
 0001:00009924       BisCallcHbookAccountGroupEditFm.Finalization
 0001:00009954       BisCallcHbookAccountGroupsFm..TBisCallcHbookAccountGroupsForm
 0001:00009B54       BisCallcHbookAccountGroupsFm..TBisCallcHbookAccountGroupsFormIface
 0001:00009C9C       BisCallcHbookAccountGroupsFm.TBisCallcHbookAccountGroupsFormIface.Create
 0001:00009E64       BisCallcHbookAccountGroupsFm.Finalization
 0001:00009E94       BisCallcHbookActionEditFm..TBisCallcHbookActionEditForm
 0001:0000A12C       BisCallcHbookActionEditFm..TBisCallcHbookActionEditFormIface
 0001:0000A26C       BisCallcHbookActionEditFm..TBisCallcHbookActionInsertFormIface
 0001:0000A3AC       BisCallcHbookActionEditFm..TBisCallcHbookActionUpdateFormIface
 0001:0000A4EC       BisCallcHbookActionEditFm..TBisCallcHbookActionDeleteFormIface
 0001:0000A62C       BisCallcHbookActionEditFm.GetPurposeByIndex
 0001:0000A6E0       BisCallcHbookActionEditFm.TBisCallcHbookActionEditFormIface.Create
 0001:0000A870       BisCallcHbookActionEditFm.TBisCallcHbookActionInsertFormIface.Create
 0001:0000A8C8       BisCallcHbookActionEditFm.TBisCallcHbookActionUpdateFormIface.Create
 0001:0000A920       BisCallcHbookActionEditFm.TBisCallcHbookActionDeleteFormIface.Create
 0001:0000A978       BisCallcHbookActionEditFm.TBisCallcHbookActionEditForm.Create
 0001:0000AA18       BisCallcHbookActionEditFm.Finalization
 0001:0000AA48       BisCallcHbookActionsFm..TBisCallcHbookActionsForm
 0001:0000AC38       BisCallcHbookActionsFm..TBisCallcHbookActionsFormIface
 0001:0000AD6C       BisCallcHbookActionsFm.TBisCallcHbookActionsFormIface.Create
 0001:0000AF18       BisCallcHbookActionsFm.TBisCallcHbookActionsFormIface.GetPurposeName
 0001:0000AFB0       BisCallcHbookActionsFm.Finalization
 0001:0000AFE0       BisCallcHbookAccountActionEditFm..TBisCallcHbookAccountActionEditForm
 0001:0000B2AC       BisCallcHbookAccountActionEditFm..TBisCallcHbookAccountActionEditFormIface
 0001:0000B400       BisCallcHbookAccountActionEditFm..TBisCallcHbookAccountActionInsertFormIface
 0001:0000B558       BisCallcHbookAccountActionEditFm..TBisCallcHbookAccountActionUpdateFormIface
 0001:0000B6B0       BisCallcHbookAccountActionEditFm..TBisCallcHbookAccountActionDeleteFormIface
 0001:0000B808       BisCallcHbookAccountActionEditFm.TBisCallcHbookAccountActionEditFormIface.Create
 0001:0000BA74       BisCallcHbookAccountActionEditFm.TBisCallcHbookAccountActionInsertFormIface.Create
 0001:0000BAD4       BisCallcHbookAccountActionEditFm.TBisCallcHbookAccountActionUpdateFormIface.Create
 0001:0000BB34       BisCallcHbookAccountActionEditFm.TBisCallcHbookAccountActionDeleteFormIface.Create
 0001:0000BB94       BisCallcHbookAccountActionEditFm.Finalization
 0001:0000BBC4       BisCallcHbookAccountActionsFm..TBisCallcHbookAccountActionsForm
 0001:0000BDC8       BisCallcHbookAccountActionsFm..TBisCallcHbookAccountActionsFormIface
 0001:0000BF14       BisCallcHbookAccountActionsFm.TBisCallcHbookAccountActionsFormIface.Create
 0001:0000C0DC       BisCallcHbookAccountActionsFm.Finalization
 0001:0000C10C       BisCallcHbookResultEditFm..TBisCallcHbookResultEditForm
 0001:0000C434       BisCallcHbookResultEditFm..TBisCallcHbookResultEditFormIface
 0001:0000C574       BisCallcHbookResultEditFm..TBisCallcHbookResultInsertFormIface
 0001:0000C6B4       BisCallcHbookResultEditFm..TBisCallcHbookResultUpdateFormIface
 0001:0000C7F4       BisCallcHbookResultEditFm..TBisCallcHbookResultDeleteFormIface
 0001:0000C934       BisCallcHbookResultEditFm.TBisCallcHbookResultEditFormIface.Create
 0001:0000CC3C       BisCallcHbookResultEditFm.TBisCallcHbookResultInsertFormIface.Create
 0001:0000CC94       BisCallcHbookResultEditFm.TBisCallcHbookResultUpdateFormIface.Create
 0001:0000CCEC       BisCallcHbookResultEditFm.TBisCallcHbookResultDeleteFormIface.Create
 0001:0000CD44       BisCallcHbookResultEditFm.Finalization
 0001:0000CD74       BisCallcHbookResultsFm..TBisCallcHbookResultsForm
 0001:0000CF64       BisCallcHbookResultsFm..TBisCallcHbookResultsFormIface
 0001:0000D098       BisCallcHbookResultsFm.TBisCallcHbookResultsFormIface.Create
 0001:0000D2B4       BisCallcHbookResultsFm.Finalization
 0001:0000D2E4       BisCallcHbookActionResultEditFm..TBisCallcHbookActionResultEditForm
 0001:0000D5A8       BisCallcHbookActionResultEditFm..TBisCallcHbookActionResultEditFormIface
 0001:0000D6F8       BisCallcHbookActionResultEditFm..TBisCallcHbookActionResultInsertFormIface
 0001:0000D84C       BisCallcHbookActionResultEditFm..TBisCallcHbookActionResultUpdateFormIface
 0001:0000D9A0       BisCallcHbookActionResultEditFm..TBisCallcHbookActionResultDeleteFormIface
 0001:0000DAF4       BisCallcHbookActionResultEditFm.TBisCallcHbookActionResultEditFormIface.Create
 0001:0000DD20       BisCallcHbookActionResultEditFm.TBisCallcHbookActionResultInsertFormIface.Create
 0001:0000DD7C       BisCallcHbookActionResultEditFm.TBisCallcHbookActionResultUpdateFormIface.Create
 0001:0000DDD8       BisCallcHbookActionResultEditFm.TBisCallcHbookActionResultDeleteFormIface.Create
 0001:0000DE34       BisCallcHbookActionResultEditFm.Finalization
 0001:0000DE64       BisCallcHbookActionResultsFm..TBisCallcHbookActionResultsForm
 0001:0000E064       BisCallcHbookActionResultsFm..TBisCallcHbookActionResultsFormIface
 0001:0000E1AC       BisCallcHbookActionResultsFm.TBisCallcHbookActionResultsFormIface.Create
 0001:0000E370       BisCallcHbookActionResultsFm.Finalization
 0001:0000E3A0       BisCallcHbookStatusEditFm..TBisCallcHbookStatusEditForm
 0001:0000E684       BisCallcHbookStatusEditFm..TBisCallcHbookStatusEditFormIface
 0001:0000E7C4       BisCallcHbookStatusEditFm..TBisCallcHbookStatusInsertFormIface
 0001:0000E904       BisCallcHbookStatusEditFm..TBisCallcHbookStatusUpdateFormIface
 0001:0000EA44       BisCallcHbookStatusEditFm..TBisCallcHbookStatusDeleteFormIface
 0001:0000EB84       BisCallcHbookStatusEditFm.TBisCallcHbookStatusEditFormIface.Create
 0001:0000EDD4       BisCallcHbookStatusEditFm.TBisCallcHbookStatusInsertFormIface.Create
 0001:0000EE2C       BisCallcHbookStatusEditFm.TBisCallcHbookStatusUpdateFormIface.Create
 0001:0000EE84       BisCallcHbookStatusEditFm.TBisCallcHbookStatusDeleteFormIface.Create
 0001:0000EEDC       BisCallcHbookStatusEditFm.Finalization
 0001:0000EF0C       BisCallcHbookStatusesFm..TBiCallcHbookStatusesForm
 0001:0000F0FC       BisCallcHbookStatusesFm..TBisCallcHbookStatusesFormIface
 0001:0000F234       BisCallcHbookStatusesFm.TBisCallcHbookStatusesFormIface.Create
 0001:0000F3DC       BisCallcHbookStatusesFm.Finalization
 0001:0000F48C       BisCallcBiasFIO..EDeclenError
 0001:0000F4E8       BisCallcBiasFIO.IsRangeInt
 0001:0000F4F8       BisCallcBiasFIO.GetSex
 0001:0000F5AC       BisCallcBiasFIO.IsMale
 0001:0000F5FC       BisCallcBiasFIO.IsFeminine
 0001:0000F64C       BisCallcBiasFIO.SetEndings
 0001:0000F718       BisCallcBiasFIO.ClearEndings
 0001:0000F72C       BisCallcBiasFIO.CountSyllable
 0001:0000F7BC       BisCallcBiasFIO.NameParallelForm
 0001:0000F8B8       BisCallcBiasFIO.Proper
 0001:0000F98C       BisCallcBiasFIO.NonDeclension
 0001:0000FD3C       BisCallcBiasFIO.ExtractWord
 0001:0000FE9C       BisCallcBiasFIO.SeparateFIO
 0001:0000FF54       BisCallcBiasFIO.GetLastNameM
 0001:00010C1C       BisCallcBiasFIO.GetLastNameW
 0001:000112B0       BisCallcBiasFIO.GetFirstNameM
 0001:00011664       BisCallcBiasFIO.GetFirstNameW
 0001:0001193C       BisCallcBiasFIO.GetMiddleNameM
 0001:00011A2C       BisCallcBiasFIO.GetMiddleNameW
 0001:00011BC0       BisCallcBiasFIO.CreateDeclenError
 0001:00011BFC       BisCallcBiasFIO.GetFIO
 0001:00011FB8       BisCallcBiasFIO.TrimCharForOne
 0001:0001208C       BisCallcBiasFIO.GetFIOFromStr
 0001:00012138       BisCallcBiasFIO.GetGenitiveCase
 0001:0001219C       BisCallcBiasFIO.GetGenitiveCase
 0001:000121C0       BisCallcBiasFIO.GetDativeCase
 0001:00012224       BisCallcBiasFIO.GetDativeCase
 0001:00012248       BisCallcBiasFIO.GetInstrumentalCase
 0001:000122AC       BisCallcBiasFIO.GetInstrumentalCase
 0001:000122D0       BisCallcBiasFIO.GetAccusativeCase
 0001:00012334       BisCallcBiasFIO.GetAccusativeCase
 0001:00012358       BisCallcBiasFIO.GetPrepositionalCase
 0001:000123BC       BisCallcBiasFIO.GetPrepositionalCase
 0001:000123E0       BisCallcBiasFIO.Finalization
 0001:0001243C       BisCallcHbookCaseEditFm..TBisCallcHbookCaseEditForm
 0001:00012920       BisCallcHbookCaseEditFm..TBisCallcHbookCaseEditFormIface
 0001:00012A58       BisCallcHbookCaseEditFm..TBisCallcHbookCaseInsertFormIface
 0001:00012B94       BisCallcHbookCaseEditFm..TBisCallcHbookCaseUpdateFormIface
 0001:00012CD0       BisCallcHbookCaseEditFm..TBisCallcHbookCaseDeleteFormIface
 0001:00012E0C       BisCallcHbookCaseEditFm.TBisCallcHbookCaseEditFormIface.Create
 0001:00013400       BisCallcHbookCaseEditFm.TBisCallcHbookCaseInsertFormIface.Create
 0001:00013454       BisCallcHbookCaseEditFm.TBisCallcHbookCaseUpdateFormIface.Create
 0001:000134A8       BisCallcHbookCaseEditFm.TBisCallcHbookCaseDeleteFormIface.Create
 0001:000134FC       BisCallcHbookCaseEditFm.TBisCallcHbookCaseEditForm.ButtonRpClick
 0001:00013604       BisCallcHbookCaseEditFm.TBisCallcHbookCaseEditForm.ButtonDpClick
 0001:0001370C       BisCallcHbookCaseEditFm.TBisCallcHbookCaseEditForm.ButtonVpClick
 0001:00013814       BisCallcHbookCaseEditFm.TBisCallcHbookCaseEditForm.ButtonTpClick
 0001:0001391C       BisCallcHbookCaseEditFm.TBisCallcHbookCaseEditForm.ButtonPpClick
 0001:00013A24       BisCallcHbookCaseEditFm.TBisCallcHbookCaseEditForm.ButtonBiasClick
 0001:00013A78       BisCallcHbookCaseEditFm.Finalization
 0001:00013AA8       BisCallcHbookCasesFm..TBiCallcHbookCasesForm
 0001:00013C90       BisCallcHbookCasesFm..TBisCallcHbookCasesFormIface
 0001:00013DC0       BisCallcHbookCasesFm.TBisCallcHbookCasesFormIface.Create
 0001:00014114       BisCallcHbookCasesFm.Finalization
 0001:00014144       BisCallcHbookDebtorHistoriesFm..TBisCallcHbookDebtorHistoriesForm
 0001:000143B8       BisCallcHbookDebtorHistoriesFm..TBisCallcHbookDebtorHistorieDeleteFormIface
 0001:0001450C       BisCallcHbookDebtorHistoriesFm..TBisCallcHbookDebtorHistoriesFormIface
 0001:0001466C       BisCallcHbookDebtorHistoriesFm.GetDebtorFIO
 0001:000148E4       BisCallcHbookDebtorHistoriesFm.SelectDebtorHistory
 0001:00014BC4       BisCallcHbookDebtorHistoriesFm.GetDebtorHistoryExists
 0001:00014D90       BisCallcHbookDebtorHistoriesFm.TBisCallcHbookDebtorHistorieDeleteFormIface.Execute
 0001:00014F34       BisCallcHbookDebtorHistoriesFm.TBisCallcHbookDebtorHistoriesFormIface.Create
 0001:00014F74       BisCallcHbookDebtorHistoriesFm.TBisCallcHbookDebtorHistoriesFormIface.CreateForm
 0001:00015068       BisCallcHbookDebtorHistoriesFm.TBisCallcHbookDebtorHistoriesForm.Create
 0001:000150C0       BisCallcHbookDebtorHistoriesFm.Finalization
 0001:000150F0       BisCallcHbookDebtorEditFm..TBisCallcHbookDebtorEditForm
 0001:00015728       BisCallcHbookDebtorEditFm..TBisCallcHbookDebtorEditFormIface
 0001:00015868       BisCallcHbookDebtorEditFm..TBisCallcHbookDebtorInsertFormIface
 0001:000159A8       BisCallcHbookDebtorEditFm..TBisCallcHbookDebtorUpdateFormIface
 0001:00015AE8       BisCallcHbookDebtorEditFm..TBisCallcHbookDebtorDeleteFormIface
 0001:00015C28       BisCallcHbookDebtorEditFm.GetDebtorTypeByIndex
 0001:00015C90       BisCallcHbookDebtorEditFm.GetSexByIndex
 0001:00015CE4       BisCallcHbookDebtorEditFm.TBisCallcHbookDebtorEditFormIface.Create
 0001:00016690       BisCallcHbookDebtorEditFm.TBisCallcHbookDebtorInsertFormIface.Create
 0001:000166E8       BisCallcHbookDebtorEditFm.TBisCallcHbookDebtorUpdateFormIface.Create
 0001:00016740       BisCallcHbookDebtorEditFm.TBisCallcHbookDebtorDeleteFormIface.Create
 0001:00016798       BisCallcHbookDebtorEditFm.TBisCallcHbookDebtorEditForm.Create
 0001:000168A8       BisCallcHbookDebtorEditFm.TBisCallcHbookDebtorEditForm.ChangeParam
 0001:000169B4       BisCallcHbookDebtorEditFm.TBisCallcHbookDebtorEditForm.BeforeShow
 0001:00016BE8       BisCallcHbookDebtorEditFm.TBisCallcHbookDebtorEditForm.LabelClick
 0001:00016CEC       BisCallcHbookDebtorEditFm.Finalization
 0001:00016D1C       BisCallcHbookDebtorsFm..TBisCallcHbookDebtorsForm
 0001:00016F0C       BisCallcHbookDebtorsFm..TBisCallcHbookDebtorsFormIface
 0001:00017040       BisCallcHbookDebtorsFm.TBisCallcHbookDebtorsFormIface.Create
 0001:00017544       BisCallcHbookDebtorsFm.TBisCallcHbookDebtorsFormIface.GetDebtorTypeName
 0001:000175E4       BisCallcHbookDebtorsFm.TBisCallcHbookDebtorsFormIface.GetSexName
 0001:00017674       BisCallcHbookDebtorsFm.Finalization
 0001:000176A4       BisCallcHbookPlanEditFm..TBisCallcHbookPlanEditForm
 0001:00017908       BisCallcHbookPlanEditFm..TBisCallcHbookPlanEditFormIface
 0001:00017A40       BisCallcHbookPlanEditFm..TBisCallcHbookPlanInsertFormIface
 0001:00017B7C       BisCallcHbookPlanEditFm..TBisCallcHbookPlanUpdateFormIface
 0001:00017CB8       BisCallcHbookPlanEditFm..TBisCallcHbookPlanDeleteFormIface
 0001:00017DF4       BisCallcHbookPlanEditFm.TBisCallcHbookPlanEditFormIface.Create
 0001:00017F2C       BisCallcHbookPlanEditFm.TBisCallcHbookPlanInsertFormIface.Create
 0001:00017F80       BisCallcHbookPlanEditFm.TBisCallcHbookPlanUpdateFormIface.Create
 0001:00017FD4       BisCallcHbookPlanEditFm.TBisCallcHbookPlanDeleteFormIface.Create
 0001:00018028       BisCallcHbookPlanEditFm.Finalization
 0001:00018058       BisCallcHbookPlansFm..TBisCallcHbookPlansForm
 0001:00018240       BisCallcHbookPlansFm..TBisCallcHbookPlansFormIface
 0001:00018370       BisCallcHbookPlansFm.TBisCallcHbookPlansFormIface.Create
 0001:000184B0       BisCallcHbookPlansFm.Finalization
 0001:000184E0       BisCallcHbookDealEditFm..TBisCallcHbookDealEditForm
 0001:000189A0       BisCallcHbookDealEditFm..TBisCallcHbookDealEditFormIface
 0001:00018AD8       BisCallcHbookDealEditFm..TBisCallcHbookDealInsertFormIface
 0001:00018C14       BisCallcHbookDealEditFm..TBisCallcHbookDealUpdateFormIface
 0001:00018D50       BisCallcHbookDealEditFm..TBisCallcHbookDealDeleteFormIface
 0001:00018E8C       BisCallcHbookDealEditFm.TBisCallcHbookDealEditFormIface.Create
 0001:00019590       BisCallcHbookDealEditFm.TBisCallcHbookDealInsertFormIface.Create
 0001:000195E4       BisCallcHbookDealEditFm.TBisCallcHbookDealUpdateFormIface.Create
 0001:00019638       BisCallcHbookDealEditFm.TBisCallcHbookDealDeleteFormIface.Create
 0001:0001968C       BisCallcHbookDealEditFm.TBisCallcHbookDealEditForm.Create
 0001:000196D8       BisCallcHbookDealEditFm.TBisCallcHbookDealEditForm.BeforeShow
 0001:0001970C       BisCallcHbookDealEditFm.Finalization
 0001:0001973C       BisCallcHbookDealsFm..TBiCallcHbookDealsForm
 0001:00019924       BisCallcHbookDealsFm..TBisCallcHbookDealsFormIface
 0001:00019A54       BisCallcHbookDealsFm.TBisCallcHbookDealsFormIface.Create
 0001:00019DFC       BisCallcHbookDealsFm.Finalization
 0001:00019E2C       BisCallcHbookPaymentEditFm..TBisCallcHbookPaymentEditForm
 0001:0001A1B4       BisCallcHbookPaymentEditFm..TBisCallcHbookPaymentEditFormIface
 0001:0001A2F4       BisCallcHbookPaymentEditFm..TBisCallcHbookPaymentInsertFormIface
 0001:0001A43C       BisCallcHbookPaymentEditFm..TBisCallcHbookPaymentUpdateFormIface
 0001:0001A584       BisCallcHbookPaymentEditFm..TBisCallcHbookPaymentDeleteFormIface
 0001:0001A6CC       BisCallcHbookPaymentEditFm.GetStateByIndex
 0001:0001A728       BisCallcHbookPaymentEditFm.TBisCallcHbookPaymentEditFormIface.Create
 0001:0001AAE0       BisCallcHbookPaymentEditFm.TBisCallcHbookPaymentEditFormIface.GetLastForm
 0001:0001AAEC       BisCallcHbookPaymentEditFm.TBisCallcHbookPaymentEditFormIface.AccountIdChange
 0001:0001AAF0       BisCallcHbookPaymentEditFm.TBisCallcHbookPaymentInsertFormIface.Create
 0001:0001AB48       BisCallcHbookPaymentEditFm.TBisCallcHbookPaymentUpdateFormIface.Create
 0001:0001ABA0       BisCallcHbookPaymentEditFm.TBisCallcHbookPaymentDeleteFormIface.Create
 0001:0001ABF8       BisCallcHbookPaymentEditFm.TBisCallcHbookPaymentEditForm.Create
 0001:0001AD40       BisCallcHbookPaymentEditFm.TBisCallcHbookPaymentEditForm.GetDealInfo
 0001:0001AF3C       BisCallcHbookPaymentEditFm.TBisCallcHbookPaymentEditForm.UpdateLabelCurrentDebt
 0001:0001B014       BisCallcHbookPaymentEditFm.TBisCallcHbookPaymentEditForm.UpdateLabelInitialDebt
 0001:0001B0DC       BisCallcHbookPaymentEditFm.TBisCallcHbookPaymentEditForm.ChangeParam
 0001:0001B274       BisCallcHbookPaymentEditFm.TBisCallcHbookPaymentEditForm.BeforeShow
 0001:0001B3FC       BisCallcHbookPaymentEditFm.Finalization
 0001:0001B42C       BisCallcHbookPaymentsFm..TBiCallcHbookPaymentsForm
 0001:0001B688       BisCallcHbookPaymentsFm..TBisCallcHbookPaymentsFormIface
 0001:0001B7C0       BisCallcHbookPaymentsFm.TBisCallcHbookPaymentsFormIface.Create
 0001:0001BA60       BisCallcHbookPaymentsFm.TBisCallcHbookPaymentsFormIface.GetStateName
 0001:0001BAF4       BisCallcHbookPaymentsFm.TBiCallcHbookPaymentsForm.Create
 0001:0001BB4C       BisCallcHbookPaymentsFm.Finalization
 0001:0001BB7C       BisCallcHbookTaskEditFm..TBisCallcHbookTaskEditForm
 0001:0001BFC8       BisCallcHbookTaskEditFm..TBisCallcHbookTaskEditFormIface
 0001:0001C100       BisCallcHbookTaskEditFm..TBisCallcHbookTaskInsertFormIface
 0001:0001C23C       BisCallcHbookTaskEditFm..TBisCallcHbookTaskUpdateFormIface
 0001:0001C378       BisCallcHbookTaskEditFm..TBisCallcHbookTaskDeleteFormIface
 0001:0001C4B4       BisCallcHbookTaskEditFm.TBisCallcHbookTaskEditFormIface.Create
 0001:0001CA98       BisCallcHbookTaskEditFm.TBisCallcHbookTaskInsertFormIface.Create
 0001:0001CAEC       BisCallcHbookTaskEditFm.TBisCallcHbookTaskUpdateFormIface.Create
 0001:0001CB40       BisCallcHbookTaskEditFm.TBisCallcHbookTaskDeleteFormIface.Create
 0001:0001CB94       BisCallcHbookTaskEditFm.TBisCallcHbookTaskEditForm.Create
 0001:0001CBCC       BisCallcHbookTaskEditFm.TBisCallcHbookTaskEditForm.BeforeShow
 0001:0001CD1C       BisCallcHbookTaskEditFm.Finalization
 0001:0001CD4C       BisCallcHbookTasksFm..TBiCallcHbookTasksForm
 0001:0001CFA4       BisCallcHbookTasksFm..TBisCallcHbookTasksFormIface
 0001:0001D0D4       BisCallcHbookTasksFm.TBisCallcHbookTasksFormIface.Create
 0001:0001D438       BisCallcHbookTasksFm.TBiCallcHbookTasksForm.Create
 0001:0001D490       BisCallcHbookTasksFm.Finalization
 0001:0001D540       BisCallcHbookTaskDocumentEditFm..TBisCallcHbookTaskDocumentEditForm
 0001:0001D964       BisCallcHbookTaskDocumentEditFm..TBisCallcHbookTaskDocumentEditFormIface
 0001:0001DAB4       BisCallcHbookTaskDocumentEditFm..TBisCallcHbookTaskDocumentInsertFormIface
 0001:0001DC08       BisCallcHbookTaskDocumentEditFm..TBisCallcHbookTaskDocumentUpdateFormIface
 0001:0001DD5C       BisCallcHbookTaskDocumentEditFm..TBisCallcHbookTaskDocumentDeleteFormIface
 0001:0001DEB0       BisCallcHbookTaskDocumentEditFm.GetDocumentTypeByIndex
 0001:0001DF8C       BisCallcHbookTaskDocumentEditFm.TBisCallcHbookTaskDocumentEditFormIface.Create
 0001:0001E320       BisCallcHbookTaskDocumentEditFm.TBisCallcHbookTaskDocumentEditFormIface.DocumentIdChange
 0001:0001E4E0       BisCallcHbookTaskDocumentEditFm.TBisCallcHbookTaskDocumentInsertFormIface.Create
 0001:0001E53C       BisCallcHbookTaskDocumentEditFm.TBisCallcHbookTaskDocumentUpdateFormIface.Create
 0001:0001E598       BisCallcHbookTaskDocumentEditFm.TBisCallcHbookTaskDocumentDeleteFormIface.Create
 0001:0001E5F4       BisCallcHbookTaskDocumentEditFm.TBisCallcHbookTaskDocumentEditForm.Create
 0001:0001E6CC       BisCallcHbookTaskDocumentEditFm.TBisCallcHbookTaskDocumentEditForm.BeforeShow
 0001:0001E754       BisCallcHbookTaskDocumentEditFm.TBisCallcHbookTaskDocumentEditForm.ChangeParam
 0001:0001E88C       BisCallcHbookTaskDocumentEditFm.TBisCallcHbookTaskDocumentEditForm.ButtonLoadClick
 0001:0001E9C4       BisCallcHbookTaskDocumentEditFm.TBisCallcHbookTaskDocumentEditForm.ButtonSaveClick
 0001:0001EAB4       BisCallcHbookTaskDocumentEditFm.TBisCallcHbookTaskDocumentEditForm.ButtonClearClick
 0001:0001EAF4       BisCallcHbookTaskDocumentEditFm.TBisCallcHbookTaskDocumentEditForm.CheckParam
 0001:0001EBBC       BisCallcHbookTaskDocumentEditFm.Finalization
 0001:0001EBEC       BisCallcHbookTaskDocumentsFm..TBiCallcHbookTaskDocumentsForm
 0001:0001EE5C       BisCallcHbookTaskDocumentsFm..TBisCallcHbookTaskDocumentsFormIface
 0001:0001EFA4       BisCallcHbookTaskDocumentsFm.TBisCallcHbookTaskDocumentsFormIface.Create
 0001:0001F21C       BisCallcHbookTaskDocumentsFm.TBisCallcHbookTaskDocumentsFormIface.GetDocumentTypeName
 0001:0001F2C0       BisCallcHbookTaskDocumentsFm.TBiCallcHbookTaskDocumentsForm.Create
 0001:0001F318       BisCallcHbookTaskDocumentsFm.Finalization
 0001:0001F3A8       BisCallcTaskFrm..TBisCallcTaskFrame
 0001:0001F58C       BisCallcTaskFrm.TBisCallcTaskFrame.Create
 0001:0001F610       BisCallcTaskFrm.TBisCallcTaskFrame.DealExists
 0001:0001F624       BisCallcTaskFrm.TBisCallcTaskFrame.ExecuteTask
 0001:0001F90C       BisCallcTaskFrm.TBisCallcTaskFrame.RefreshControls
 0001:0001F910       BisCallcTaskFrm.TBisCallcTaskFrame.SaveChanges
 0001:0001F914       BisCallcTaskFrm.TBisCallcTaskFrame.SetDealNum
 0001:0001F92C       BisCallcTaskFrm.TBisCallcTaskFrame.CheckControls
 0001:0001F930       BisCallcTaskFrm.Finalization
 0001:0001F960       BisCallcReadinessFm..TBisCallcReadinessForm
 0001:0001FB6C       BisCallcReadinessFm.Finalization
 0001:0001FB9C       BisCallcTaskExecuteInfoFm..TBisTaskExecuteForm
 0001:0001FE2C       BisCallcTaskExecuteInfoFm.TBisTaskExecuteForm.FormCreate
 0001:0001FE74       BisCallcTaskExecuteInfoFm.Finalization
 0001:0001FF08       BisCallcTaskFm..TBisCallcTaskFormResultInfo
 0001:0001FFD0       BisCallcTaskFm..TBisCallcTaskForm
 0001:00020464       BisCallcTaskFm..TBisCallcTaskFormIface
 0001:00020598       BisCallcTaskFm.TBisCallcTaskFormIface.Create
 0001:00020644       BisCallcTaskFm.TBisCallcTaskFormIface.CreateForm
 0001:00020734       BisCallcTaskFm.TBisCallcTaskFormIface.GetFormClass
 0001:0002073C       BisCallcTaskFm.TBisCallcTaskFormIface.GetLastForm
 0001:00020748       BisCallcTaskFm.TBisCallcTaskForm.Create
 0001:000208FC       BisCallcTaskFm.TBisCallcTaskForm.Destroy
 0001:00020968       BisCallcTaskFm.TBisCallcTaskForm.GetFrameClass
 0001:00020970       BisCallcTaskFm.TBisCallcTaskForm.Init
 0001:0002098C       BisCallcTaskFm.TBisCallcTaskForm.CanShow
 0001:000209B4       BisCallcTaskFm.TBisCallcTaskForm.Readiness
 0001:00020A10       BisCallcTaskFm.TBisCallcTaskForm.TaskExists
 0001:00020A24       BisCallcTaskFm.TBisCallcTaskForm.LockTask
 0001:00020CA8       BisCallcTaskFm.TBisCallcTaskForm.UnLockTask
 0001:00020DA4       BisCallcTaskFm.TBisCallcTaskForm.RefreshResults
 0001:00021274       BisCallcTaskFm.TBisCallcTaskForm.ExecuteTask
 0001:0002191C       BisCallcTaskFm.TBisCallcTaskForm.FirstState
 0001:00021A84       BisCallcTaskFm.TBisCallcTaskForm.RefreshTask
 0001:00021F8C       BisCallcTaskFm.TBisCallcTaskForm.RefreshControls
 0001:00022044       BisCallcTaskFm.TBisCallcTaskForm.FrameChangeControls
 0001:00022118       BisCallcTaskFm.TBisCallcTaskForm.EnableControls
 0001:00022474       BisCallcTaskFm.TBisCallcTaskForm.ResetTime
 0001:00022480       BisCallcTaskFm.TBisCallcTaskForm.SetOnlyOneTask
 0001:00022494       BisCallcTaskFm.TBisCallcTaskForm.RefreshTime
 0001:0002261C       BisCallcTaskFm.TBisCallcTaskForm.VisibleControls
 0001:000226FC       BisCallcTaskFm.TBisCallcTaskForm.FormClose
 0001:00022700       BisCallcTaskFm.TBisCallcTaskForm.TimerTimeTimer
 0001:00022758       BisCallcTaskFm.TBisCallcTaskForm.EnableNextDateControls
 0001:0002285C       BisCallcTaskFm.TBisCallcTaskForm.ComboBoxResultChange
 0001:00022928       BisCallcTaskFm.TBisCallcTaskForm.UpdateButton
 0001:00022970       BisCallcTaskFm.TBisCallcTaskForm.TimerRefreshTimer
 0001:00022978       BisCallcTaskFm.TBisCallcTaskForm.BeforeShow
 0001:00022994       BisCallcTaskFm.TBisCallcTaskForm.ButtonDescriptionClick
 0001:00022B1C       BisCallcTaskFm.TBisCallcTaskForm.CheckControls
 0001:00022B48       BisCallcTaskFm.TBisCallcTaskForm.ButtonExecuteClick
 0001:00022C0C       BisCallcTaskFm.Finalization
 0001:00022C94       BisCallcDealFrameTasksFrm..TBisCallcDealFrameTaskViewingFormIface
 0001:00022DDC       BisCallcDealFrameTasksFrm..TBisCallcDealFrameTaskDeleteFormIface
 0001:00022F24       BisCallcDealFrameTasksFrm..TBisCallcDealFrameTasksFrame
 0001:000231C4       BisCallcDealFrameTasksFrm.TBisCallcDealFrameTasksFrame.Create
 0001:00023514       BisCallcDealFrameTasksFrm.TBisCallcDealFrameTasksFrame.Destroy
 0001:0002353C       BisCallcDealFrameTasksFrm.TBisCallcDealFrameTaskViewingFormIface.Create
 0001:000235A0       BisCallcDealFrameTasksFrm.TBisCallcDealFrameTaskDeleteFormIface.Create
 0001:00023600       BisCallcDealFrameTasksFrm.Finalization
 0001:00023630       BisCallcDealFramePaymentsFrm..TBisCallcDealFramePaymentEditFormIface
 0001:0002377C       BisCallcDealFramePaymentsFrm..TBisCallcDealFramePaymentInsertFormIface
 0001:000238CC       BisCallcDealFramePaymentsFrm..TBisCallcDealFramePaymentUpdateFormIface
 0001:00023A1C       BisCallcDealFramePaymentsFrm..TBisCallcDealFramePaymentDeleteFormIface
 0001:00023B6C       BisCallcDealFramePaymentsFrm..TBisCallcDealFramePaymentViewingFormIface
 0001:00023CBC       BisCallcDealFramePaymentsFrm..TBisCallcDealFramePaymentsFrame
 0001:00023F4C       BisCallcDealFramePaymentsFrm.TBisCallcDealFramePaymentsFrame.Create
 0001:00024244       BisCallcDealFramePaymentsFrm.TBisCallcDealFramePaymentsFrame.Destroy
 0001:0002426C       BisCallcDealFramePaymentsFrm.TBisCallcDealFramePaymentsFrame.GetStateName
 0001:00024300       BisCallcDealFramePaymentsFrm.TBisCallcDealFramePaymentsFrame.CreateIface
 0001:000243CC       BisCallcDealFramePaymentsFrm.TBisCallcDealFramePaymentEditFormIface.Create
 0001:0002445C       BisCallcDealFramePaymentsFrm.TBisCallcDealFramePaymentInsertFormIface.Create
 0001:000244D8       BisCallcDealFramePaymentsFrm.TBisCallcDealFramePaymentUpdateFormIface.Create
 0001:00024554       BisCallcDealFramePaymentsFrm.TBisCallcDealFramePaymentDeleteFormIface.Create
 0001:000245D0       BisCallcDealFramePaymentsFrm.TBisCallcDealFramePaymentViewingFormIface.Create
 0001:00024630       BisCallcDealFramePaymentsFrm.Finalization
 0001:00024660       BisCallcDealFrameDocumentsFrm..TBisCallcDealFrameDocumentEditFormIface
 0001:000247AC       BisCallcDealFrameDocumentsFrm..TBisCallcDealFrameDocumentInsertFormIface
 0001:00024900       BisCallcDealFrameDocumentsFrm..TBisCallcDealFrameDocumentUpdateFormIface
 0001:00024A54       BisCallcDealFrameDocumentsFrm..TBisCallcDealFrameDocumentDeleteFormIface
 0001:00024BA8       BisCallcDealFrameDocumentsFrm..TBisCallcDealFrameDocumentViewingFormIface
 0001:00024D10       BisCallcDealFrameDocumentsFrm..TBisCallcDealFrameDocumentsFrame
 0001:00024FA8       BisCallcDealFrameDocumentsFrm.TBisCallcDealFrameDocumentsFrame.Create
 0001:00025254       BisCallcDealFrameDocumentsFrm.TBisCallcDealFrameDocumentsFrame.GetDocumentTypeName
 0001:000252F8       BisCallcDealFrameDocumentsFrm.TBisCallcDealFrameDocumentsFrame.CreateIface
 0001:00025454       BisCallcDealFrameDocumentsFrm.TBisCallcDealFrameDocumentEditFormIface.Create
 0001:000254B8       BisCallcDealFrameDocumentsFrm.TBisCallcDealFrameDocumentInsertFormIface.Create
 0001:0002553C       BisCallcDealFrameDocumentsFrm.TBisCallcDealFrameDocumentUpdateFormIface.Create
 0001:000255C0       BisCallcDealFrameDocumentsFrm.TBisCallcDealFrameDocumentDeleteFormIface.Create
 0001:00025644       BisCallcDealFrameDocumentsFrm.TBisCallcDealFrameDocumentViewingFormIface.Create
 0001:000256A4       BisCallcDealFrameDocumentsFrm.TBisCallcDealFrameDocumentViewingFormIface.Execute
 0001:00025944       BisCallcDealFrameDocumentsFrm.Finalization
 0001:00025994       BisCallcDealFrm..TBisCallcDealFrameTapi
 0001:00025A9C       BisCallcDealFrm..TBisCallcDealFrame
 0001:000265C4       BisCallcDealFrm.TBisCallcDealFrameTapi.EmptyControlLinks
 0001:000265E0       BisCallcDealFrm.TBisCallcDealFrame.Create
 0001:0002715C       BisCallcDealFrm.TBisCallcDealFrame.Destroy
 0001:000271C4       BisCallcDealFrm.TBisCallcDealFrame.DebtorParamsChange
 0001:000271E8       BisCallcDealFrm.TBisCallcDealFrame.RefreshDeal
 0001:00027DC8       BisCallcDealFrm.TBisCallcDealFrame.RefreshHistories
 0001:00027F90       BisCallcDealFrm.TBisCallcDealFrame.LabelDebtorClick
 0001:00028060       BisCallcDealFrm.TBisCallcDealFrame.RefreshControls
 0001:000280B4       BisCallcDealFrm.TBisCallcDealFrame.VisibleControls
 0001:0002816C       BisCallcDealFrm.TBisCallcDealFrame.ButtonFirmClick
 0001:00028268       BisCallcDealFrm.TBisCallcDealFrame.ButtonDebtorClick
 0001:00028300       BisCallcDealFrm.TBisCallcDealFrame.PageControlChange
 0001:000285CC       BisCallcDealFrm.TBisCallcDealFrame.GetPhoneControlsByButton
 0001:000286A4       BisCallcDealFrm.TBisCallcDealFrame.Init
 0001:000286DC       BisCallcDealFrm.TBisCallcDealFrame.PhoneControlsFirstState
 0001:000289FC       BisCallcDealFrm.TBisCallcDealFrame.PhoneControlsDisabled
 0001:00028A44       BisCallcDealFrm.TBisCallcDealFrame.PreparePhoneNumber
 0001:00028ADC       BisCallcDealFrm.TBisCallcDealFrame.EditPhoneHomeChange
 0001:00028D04       BisCallcDealFrm.TBisCallcDealFrame.RefreshDebts
 0001:00028FA8       BisCallcDealFrm.TBisCallcDealFrame.FramePaymentAfterEditFormExecute
 0001:00028FD0       BisCallcDealFrm.TBisCallcDealFrame.ButtonPhoneHomeClick
 0001:0002929C       BisCallcDealFrm.TBisCallcDealFrame.TapiConnect
 0001:000292E8       BisCallcDealFrm.TBisCallcDealFrame.TapiDisconnect
 0001:00029300       BisCallcDealFrm.TBisCallcDealFrame.TapiAfterRecord
 0001:00029838       BisCallcDealFrm.Add
 0001:000298E8       BisCallcDealFrm.GetValue
 0001:000299C8       BisCallcDealFrm.SetCases
 0001:0002A32C       BisCallcDealFrm.SearchAndReplace
 0001:0002A454       BisCallcDealFrm.TBisCallcDealFrame.ChangePatternVars
 0001:0002AC94       BisCallcDealFrm.TBisCallcDealFrame.ReadOnlyControls
 0001:0002ADB0       BisCallcDealFrm.TBisCallcDealFrame.SetDealNum
 0001:0002AEBC       BisCallcDealFrm.TBisCallcDealFrame.SetDebtorEdited
 0001:0002AF28       BisCallcDealFrm.CheckDebtorControls
 0001:0002B3D8       BisCallcDealFrm.TBisCallcDealFrame.CheckControls
 0001:0002B414       BisCallcDealFrm.SaveDebtor
 0001:0002B4B0       BisCallcDealFrm.TBisCallcDealFrame.SaveChanges
 0001:0002B4D8       BisCallcDealFrm.TBisCallcDealFrame.GenerateJournal
 0001:0002BF88       BisCallcDealFrm.Finalization
 0001:0002BFB8       BisCallcTaskOperatorFm..TBisCallcTaskOperatorForm
 0001:0002C1AC       BisCallcTaskOperatorFm..TBisCallcTaskOperatorFormIface
 0001:0002C320       BisCallcTaskOperatorFm.TBisCallcTaskOperatorFormIface.Create
 0001:0002C394       BisCallcTaskOperatorFm.TBisCallcTaskOperatorFormIface.GetLastForm
 0001:0002C3A0       BisCallcTaskOperatorFm.TBisCallcTaskOperatorFormIface.CreateForm
 0001:0002C3F0       BisCallcTaskOperatorFm.TBisCallcTaskOperatorFormIface.Init
 0001:0002C40C       BisCallcTaskOperatorFm.TBisCallcTaskOperatorForm.Create
 0001:0002C450       BisCallcTaskOperatorFm.TBisCallcTaskOperatorForm.GetFrame
 0001:0002C458       BisCallcTaskOperatorFm.TBisCallcTaskOperatorForm.GetFrameClass
 0001:0002C460       BisCallcTaskOperatorFm.Finalization
 0001:0002C490       BisCallcDealsFrameTasksFilterFm..TBisCallcDealsFrameTasksFilterForm
 0001:0002C7C4       BisCallcDealsFrameTasksFilterFm..TBisCallcDealsFrameTasksFilterFormIface
 0001:0002C914       BisCallcDealsFrameTasksFilterFm.TBisCallcDealsFrameTasksFilterFormIface.Create
 0001:0002CBD4       BisCallcDealsFrameTasksFilterFm.Finalization
 0001:0002CC04       BisCallcDealEditFm..TBisCallcDealEditForm
 0001:0002CDFC       BisCallcDealEditFm..TBisCallcDealEditFormIface
 0001:0002CF50       BisCallcDealEditFm.TBisCallcDealEditFormIface.Create
 0001:0002CFF4       BisCallcDealEditFm.TBisCallcDealEditFormIface.GetLastForm
 0001:0002D000       BisCallcDealEditFm.TBisCallcDealEditFormIface.CreateForm
 0001:0002D07C       BisCallcDealEditFm.TBisCallcDealEditForm.Create
 0001:0002D11C       BisCallcDealEditFm.TBisCallcDealEditForm.Destroy
 0001:0002D14C       BisCallcDealEditFm.TBisCallcDealEditForm.Init
 0001:0002D168       BisCallcDealEditFm.TBisCallcDealEditForm.BeforeShow
 0001:0002D1BC       BisCallcDealEditFm.TBisCallcDealEditForm.ChangesArePresent
 0001:0002D1CC       BisCallcDealEditFm.TBisCallcDealEditForm.CheckParams
 0001:0002D1DC       BisCallcDealEditFm.TBisCallcDealEditForm.SaveChanges
 0001:0002D1F0       BisCallcDealEditFm.TBisCallcDealEditForm.FrameDebtorParamsChange
 0001:0002D1F8       BisCallcDealEditFm.Finalization
 0001:0002D228       BisCallcDealsFrameTasksFrm..TBisCallcDealsFrameTasksFrameTasksFrame
 0001:0002D4A8       BisCallcDealsFrameTasksFrm..TBisCallcDealsFrameTasksFrame
 0001:0002D960       BisCallcDealsFrameTasksFrm.TBisCallcDealsFrameTasksFrameTasksFrame.Create
 0001:0002DCAC       BisCallcDealsFrameTasksFrm.TBisCallcDealsFrameTasksFrameTasksFrame.Destroy
 0001:0002DCD4       BisCallcDealsFrameTasksFrm.TBisCallcDealsFrameTasksFrame.Create
 0001:0002E208       BisCallcDealsFrameTasksFrm.TBisCallcDealsFrameTasksFrame.Destroy
 0001:0002E24C       BisCallcDealsFrameTasksFrm.TBisCallcDealsFrameTasksFrame.DoTaskChecked
 0001:0002E26C       BisCallcDealsFrameTasksFrm.TBisCallcDealsFrameTasksFrame.ProviderAfterScroll
 0001:0002E330       BisCallcDealsFrameTasksFrm.TBisCallcDealsFrameTasksFrame.RefreshGroups
 0001:0002E514       BisCallcDealsFrameTasksFrm.TBisCallcDealsFrameTasksFrame.BeforeIfaceExecute
 0001:0002E6D8       BisCallcDealsFrameTasksFrm.TBisCallcDealsFrameTasksFrame.IfaceFilterAfterExecute
 0001:0002E708       BisCallcDealsFrameTasksFrm.TBisCallcDealsFrameTasksFrame.GetTasksVisible
 0001:0002E714       BisCallcDealsFrameTasksFrm.TBisCallcDealsFrameTasksFrame.SetTasksVisible
 0001:0002E720       BisCallcDealsFrameTasksFrm.TBisCallcDealsFrameTasksFrame.GridClick
 0001:0002E8E4       BisCallcDealsFrameTasksFrm.TBisCallcDealsFrameTasksFrame.GridKeyDown
 0001:0002E914       BisCallcDealsFrameTasksFrm.TBisCallcDealsFrameTasksFrame.Init
 0001:0002E930       BisCallcDealsFrameTasksFrm.TBisCallcDealsFrameTasksFrame.OpenRecords
 0001:0002EEE4       BisCallcDealsFrameTasksFrm.TBisCallcDealsFrameTasksFrame.ActionCheckingAllExecute
 0001:0002EEEC       BisCallcDealsFrameTasksFrm.TBisCallcDealsFrameTasksFrame.ActionCheckingAllUpdate
 0001:0002EF08       BisCallcDealsFrameTasksFrm.TBisCallcDealsFrameTasksFrame.ActionCheckingExecute
 0001:0002EF10       BisCallcDealsFrameTasksFrm.TBisCallcDealsFrameTasksFrame.ActionCheckingUpdate
 0001:0002EF2C       BisCallcDealsFrameTasksFrm.TBisCallcDealsFrameTasksFrame.ActionUnCheckingAllExecute
 0001:0002EF34       BisCallcDealsFrameTasksFrm.TBisCallcDealsFrameTasksFrame.ActionUnCheckingAllUpdate
 0001:0002EF50       BisCallcDealsFrameTasksFrm.TBisCallcDealsFrameTasksFrame.ActionUnCheckingExecute
 0001:0002EF58       BisCallcDealsFrameTasksFrm.TBisCallcDealsFrameTasksFrame.ActionUnCheckingUpdate
 0001:0002EF74       BisCallcDealsFrameTasksFrm.TBisCallcDealsFrameTasksFrame.CanChecking
 0001:0002EFAC       BisCallcDealsFrameTasksFrm.TBisCallcDealsFrameTasksFrame.Checking
 0001:0002EFC8       BisCallcDealsFrameTasksFrm.TBisCallcDealsFrameTasksFrame.CanUnChecking
 0001:0002F000       BisCallcDealsFrameTasksFrm.TBisCallcDealsFrameTasksFrame.UnChecking
 0001:0002F01C       BisCallcDealsFrameTasksFrm.TBisCallcDealsFrameTasksFrame.CanCheckingAll
 0001:0002F054       BisCallcDealsFrameTasksFrm.TBisCallcDealsFrameTasksFrame.CheckingAll
 0001:0002F070       BisCallcDealsFrameTasksFrm.TBisCallcDealsFrameTasksFrame.CanUnCheckingAll
 0001:0002F0A8       BisCallcDealsFrameTasksFrm.TBisCallcDealsFrameTasksFrame.UnCheckingAll
 0001:0002F0C4       BisCallcDealsFrameTasksFrm.TBisCallcDealsFrameTasksFrame.LockTask
 0001:0002F2E8       BisCallcDealsFrameTasksFrm.TBisCallcDealsFrameTasksFrame.UnLockTask
 0001:0002F48C       BisCallcDealsFrameTasksFrm.TBisCallcDealsFrameTasksFrame.UnLockTasks
 0001:0002F668       BisCallcDealsFrameTasksFrm.TBisCallcDealsFrameTasksFrame.CheckingSelected
 0001:0002FAC0       BisCallcDealsFrameTasksFrm.TBisCallcDealsFrameTasksFrame.ExecuteTask
 0001:0002FFDC       BisCallcDealsFrameTasksFrm.Finalization
 0001:0003000C       BisCallcDealsFrm..TBisCallcDealsFrameSheet
 0001:000300B0       BisCallcDealsFrm..TBisCallcDealsFrameSheets
 0001:00030164       BisCallcDealsFrm..TBisCallcDealsFrame
 0001:00030368       BisCallcDealsFrm.TBisCallcDealsFrameSheet.Create
 0001:000303B0       BisCallcDealsFrm.TBisCallcDealsFrameSheet.Destroy
 0001:000303E8       BisCallcDealsFrm.TBisCallcDealsFrameSheets.Add
 0001:00030450       BisCallcDealsFrm.TBisCallcDealsFrameSheets.GetItem
 0001:00030464       BisCallcDealsFrm.TBisCallcDealsFrameSheets.SetEnabled
 0001:000304AC       BisCallcDealsFrm.TBisCallcDealsFrame.Create
 0001:00030544       BisCallcDealsFrm.TBisCallcDealsFrame.Destroy
 0001:000305E8       BisCallcDealsFrm.TBisCallcDealsFrame.ExecuteTask
 0001:000306C0       BisCallcDealsFrm.TBisCallcDealsFrame.Init
 0001:000306DC       BisCallcDealsFrm.TBisCallcDealsFrame.RefreshControls
 0001:000306F0       BisCallcDealsFrm.TBisCallcDealsFrame.RefreshDeals
 0001:000307A0       BisCallcDealsFrm.TBisCallcDealsFrame.RefreshReports
 0001:00030AB4       BisCallcDealsFrm.TBisCallcDealsFrame.PageControlChange
 0001:00030B10       BisCallcDealsFrm.TBisCallcDealsFrame.ReportGetParamValue
 0001:00030E44       BisCallcDealsFrm.TBisCallcDealsFrame.GetTasksVisible
 0001:00030E50       BisCallcDealsFrm.TBisCallcDealsFrame.SetTasksVisible
 0001:00030E5C       BisCallcDealsFrm.TBisCallcDealsFrame.TasksFrameTaskChecked
 0001:00030F88       BisCallcDealsFrm.Finalization
 0001:00030FB8       BisCallcTaskLeaderFm..TBisCallcTaskLeaderForm
 0001:000311A4       BisCallcTaskLeaderFm..TBisCallcTaskLeaderFormIface
 0001:000312D0       BisCallcTaskLeaderFm.TBisCallcTaskLeaderFormIface.Create
 0001:00031318       BisCallcTaskLeaderFm.TBisCallcTaskLeaderForm.Create
 0001:00031384       BisCallcTaskLeaderFm.TBisCallcTaskLeaderForm.GetFrame
 0001:0003138C       BisCallcTaskLeaderFm.TBisCallcTaskLeaderForm.GetFrameClass
 0001:00031394       BisCallcTaskLeaderFm.Finalization
 0001:000313C4       BisCallcTaskClerkFm..TBisCallcTaskClerkForm
 0001:000315AC       BisCallcTaskClerkFm..TBisCallcTaskClerkFormIface
 0001:000316D4       BisCallcTaskClerkFm.TBisCallcTaskClerkFormIface.Create
 0001:0003171C       BisCallcTaskClerkFm.TBisCallcTaskClerkForm.Create
 0001:00031788       BisCallcTaskClerkFm.TBisCallcTaskClerkForm.GetFrame
 0001:00031790       BisCallcTaskClerkFm.TBisCallcTaskClerkForm.GetFrameClass
 0001:00031798       BisCallcTaskClerkFm.Finalization
 0001:000317C8       BisCallcTaskManagerFm..TBisCallcTaskManagerForm
 0001:000319B8       BisCallcTaskManagerFm..TBisCallcTaskManagerFormIface
 0001:00031AE8       BisCallcTaskManagerFm.TBisCallcTaskManagerFormIface.Create
 0001:00031B30       BisCallcTaskManagerFm.TBisCallcTaskManagerForm.Create
 0001:00031B9C       BisCallcTaskManagerFm.TBisCallcTaskManagerForm.GetFrame
 0001:00031BA4       BisCallcTaskManagerFm.TBisCallcTaskManagerForm.GetFrameClass
 0001:00031BAC       BisCallcTaskManagerFm.Finalization
 0001:00031BDC       BisCallcHbookPlanActionEditFm..TBisCallcHbookPlanActionEditForm
 0001:00031EB8       BisCallcHbookPlanActionEditFm..TBisCallcHbookPlanActionEditFormIface
 0001:00032004       BisCallcHbookPlanActionEditFm..TBisCallcHbookPlanActionInsertFormIface
 0001:00032150       BisCallcHbookPlanActionEditFm..TBisCallcHbookPlanActionUpdateFormIface
 0001:0003229C       BisCallcHbookPlanActionEditFm..TBisCallcHbookPlanActionDeleteFormIface
 0001:000323E8       BisCallcHbookPlanActionEditFm.TBisCallcHbookPlanActionEditFormIface.Create
 0001:00032650       BisCallcHbookPlanActionEditFm.TBisCallcHbookPlanActionInsertFormIface.Create
 0001:000326AC       BisCallcHbookPlanActionEditFm.TBisCallcHbookPlanActionUpdateFormIface.Create
 0001:00032708       BisCallcHbookPlanActionEditFm.TBisCallcHbookPlanActionDeleteFormIface.Create
 0001:00032764       BisCallcHbookPlanActionEditFm.Finalization
 0001:00032794       BisCallcHbookPlanActionsFm..TBisCallcHbookPlanActionsForm
 0001:00032990       BisCallcHbookPlanActionsFm..TBisCallcHbookPlanActionsFormIface
 0001:00032AD0       BisCallcHbookPlanActionsFm.TBisCallcHbookPlanActionsFormIface.Create
 0001:00032CB8       BisCallcHbookPlanActionsFm.Finalization
 0001:00032D38       BisCallcImportFm..TBisCallcImportForm
 0001:0003346C       BisCallcImportFm..TBisCallcImportFormIface
 0001:0003358C       BisCallcImportFm.TBisCallcImportFormIface.Create
 0001:000335D8       BisCallcImportFm.TBisCallcImportForm.Create
 0001:00033794       BisCallcImportFm.TBisCallcImportForm.Destroy
 0001:000337EC       BisCallcImportFm.TBisCallcImportForm.UpdateImportButton
 0001:00033820       BisCallcImportFm.TBisCallcImportForm.PopupActionBarPopup
 0001:000338FC       BisCallcImportFm.TBisCallcImportForm.ProviderAfterInsert
 0001:00033904       BisCallcImportFm.TBisCallcImportForm.FormClose
 0001:00033908       BisCallcImportFm.TBisCallcImportForm.GridColEnter
 0001:000339DC       BisCallcImportFm.TBisCallcImportForm.GridColExit
 0001:00033A00       BisCallcImportFm.TBisCallcImportForm.DBMemoValueExit
 0001:00033A08       BisCallcImportFm.Required
 0001:00033A0C       BisCallcImportFm.TBisCallcImportForm.CreateFields
 0001:000345D8       BisCallcImportFm.TBisCallcImportForm.CreateFieldsPayaments
 0001:000348AC       BisCallcImportFm.TBisCallcImportForm.ButtonAgreementClick
 0001:00034B04       BisCallcImportFm.TBisCallcImportForm.ButtonGroupClick
 0001:00034C74       BisCallcImportFm.TBisCallcImportForm.ButtonPlanClick
 0001:00034DDC       BisCallcImportFm.TBisCallcImportForm.ButtonFileClick
 0001:00034EBC       BisCallcImportFm.TBisCallcImportForm.MenuItemClearClick
 0001:00034F10       BisCallcImportFm.TBisCallcImportForm.MenuItemDeleteClick
 0001:00034F5C       BisCallcImportFm.TBisCallcImportForm.MenuItemRefreshClick
 0001:0003500C       BisCallcImportFm.TBisCallcImportForm.CheckGrid
 0001:00035248       BisCallcImportFm.TBisCallcImportForm.ButtonImportClick
 0001:00035460       BisCallcImportFm.TBisCallcImportForm.Bias
 0001:00035B00       BisCallcImportFm.TBisCallcImportForm.Import
 0001:000363C0       BisCallcImportFm.TBisCallcImportForm.LoadFromXml
 0001:00036A90       BisCallcImportFm.TBisCallcImportForm.LoadFromExcel
 0001:00037A1C       BisCallcImportFm.TBisCallcImportForm.UpdateStatusBar
 0001:00037AC8       BisCallcImportFm.TBisCallcImportForm.MenuItemSaveClick
 0001:00037C70       BisCallcImportFm.TBisCallcImportForm.MenuItemLoadClick
 0001:00037E98       BisCallcImportFm.Finalization
 0001:00037EC8       BisCallcHbookActionReportEditFm..TBisCallcHbookActionReportEditForm
 0001:0003818C       BisCallcHbookActionReportEditFm..TBisCallcHbookActionReportEditFormIface
 0001:000382DC       BisCallcHbookActionReportEditFm..TBisCallcHbookActionReportInsertFormIface
 0001:00038430       BisCallcHbookActionReportEditFm..TBisCallcHbookActionReportUpdateFormIface
 0001:00038584       BisCallcHbookActionReportEditFm..TBisCallcHbookActionReportDeleteFormIface
 0001:000386D8       BisCallcHbookActionReportEditFm.TBisCallcHbookActionReportEditFormIface.Create
 0001:0003895C       BisCallcHbookActionReportEditFm.TBisCallcHbookActionReportInsertFormIface.Create
 0001:000389B8       BisCallcHbookActionReportEditFm.TBisCallcHbookActionReportUpdateFormIface.Create
 0001:00038A14       BisCallcHbookActionReportEditFm.TBisCallcHbookActionReportDeleteFormIface.Create
 0001:00038A70       BisCallcHbookActionReportEditFm.Finalization
 0001:00038AA0       BisCallcHbookActionReportsFm..TBisCallcHbookActionReportsForm
 0001:00038CA0       BisCallcHbookActionReportsFm..TBisCallcHbookActionReportsFormIface
 0001:00038DE8       BisCallcHbookActionReportsFm.TBisCallcHbookActionReportsFormIface.Create
 0001:00038FA8       BisCallcHbookActionReportsFm.Finalization
 0001:00038FD8       BisCallcTakeBellFilterFm..TRadioGroup
 0001:00039148       BisCallcTakeBellFilterFm..TBisCallcStatusInfo
 0001:00039204       BisCallcTakeBellFilterFm..TBisCallcTakeBellFilterForm
 0001:00039434       BisCallcTakeBellFilterFm..TBisCallcTakeBellFilterFormIface
 0001:00039570       BisCallcTakeBellFilterFm.TBisCallcTakeBellFilterFormIface.Create
 0001:000395D4       BisCallcTakeBellFilterFm.TBisCallcTakeBellFilterForm.Create
 0001:00039610       BisCallcTakeBellFilterFm.TBisCallcTakeBellFilterForm.ChangesArePresent
 0001:00039624       BisCallcTakeBellFilterFm.TBisCallcTakeBellFilterForm.RefreshStatuses
 0001:00039948       BisCallcTakeBellFilterFm.Finalization
 0001:00039978       BisCallcTakeBellFrm..TEdit
 0001:00039B08       BisCallcTakeBellFrm..TNewEditDate
 0001:00039CF0       BisCallcTakeBellFrm..TBisCallcTakeBellUpdateFormIface
 0001:00039E28       BisCallcTakeBellFrm..TBisCallcTakeBellFrame
 0001:0003A470       BisCallcTakeBellFrm.TEdit.CNKeyDown
 0001:0003A54C       BisCallcTakeBellFrm.TNewEditDate.CNKeyDown
 0001:0003A580       BisCallcTakeBellFrm.Locked
 0001:0003A6EC       BisCallcTakeBellFrm.TBisCallcTakeBellUpdateFormIface.Execute
 0001:0003A904       BisCallcTakeBellFrm.TBisCallcTakeBellFrame.Create
 0001:0003AF28       BisCallcTakeBellFrm.TBisCallcTakeBellFrame.Destroy
 0001:0003AF84       BisCallcTakeBellFrm.TBisCallcTakeBellFrame.CreateBeginEditDateExit
 0001:0003AFFC       BisCallcTakeBellFrm.TBisCallcTakeBellFrame.RefreshActions
 0001:0003B1E0       BisCallcTakeBellFrm.TBisCallcTakeBellFrame.RefreshGroups
 0001:0003B3C4       BisCallcTakeBellFrm.TBisCallcTakeBellFrame.Locked
 0001:0003B468       BisCallcTakeBellFrm.TBisCallcTakeBellFrame.Closed
 0001:0003B55C       BisCallcTakeBellFrm.TBisCallcTakeBellFrame.BeforeIfaceExecute
 0001:0003B710       BisCallcTakeBellFrm.TBisCallcTakeBellFrame.ButtonActionNameClick
 0001:0003B894       BisCallcTakeBellFrm.TBisCallcTakeBellFrame.ButtonAgreementNumClick
 0001:0003BA20       BisCallcTakeBellFrm.TBisCallcTakeBellFrame.TakeBellFilterFormIfaceAfterExecute
 0001:0003BB70       BisCallcTakeBellFrm.TBisCallcTakeBellFrame.TakeBellUpdateFormIfaceAfterExecute
 0001:0003BB84       BisCallcTakeBellFrm.TBisCallcTakeBellFrame.OpenRecords
 0001:0003C6FC       BisCallcTakeBellFrm.TBisCallcTakeBellFrame.ActionApplyGroupExecute
 0001:0003C704       BisCallcTakeBellFrm.TBisCallcTakeBellFrame.ActionApplyGroupUpdate
 0001:0003C720       BisCallcTakeBellFrm.TBisCallcTakeBellFrame.ActionApplyPlanExecute
 0001:0003C728       BisCallcTakeBellFrm.TBisCallcTakeBellFrame.ActionApplyPlanUpdate
 0001:0003C744       BisCallcTakeBellFrm.TBisCallcTakeBellFrame.CanApplyPlan
 0001:0003C78C       BisCallcTakeBellFrm.TBisCallcTakeBellFrame.CanUpdateRecord
 0001:0003C7B8       BisCallcTakeBellFrm.TBisCallcTakeBellFrame.ComboBoxStatusChange
 0001:0003C7C4       BisCallcTakeBellFrm.TBisCallcTakeBellFrame.ComboBoxStatusEnter
 0001:0003C818       BisCallcTakeBellFrm.TBisCallcTakeBellFrame.ApplyPlan
 0001:0003CB00       BisCallcTakeBellFrm.TBisCallcTakeBellFrame.CanApplyGroup
 0001:0003CB48       BisCallcTakeBellFrm.TBisCallcTakeBellFrame.ApplyGroup
 0001:0003CE38       BisCallcTakeBellFrm.Finalization
 0001:0003CE68       BisCallcTakeBellFm..TBisCallcTakeBellForm
 0001:0003D04C       BisCallcTakeBellFm..TBisCallcTakeBellFormIface
 0001:0003D1F0       BisCallcTakeBellFm.TBisCallcTakeBellFormIface.Create
 0001:0003D2A0       BisCallcTakeBellFm.TBisCallcTakeBellFormIface.CreateForm
 0001:0003D2F8       BisCallcTakeBellFm.TBisCallcTakeBellFormIface.Init
 0001:0003D320       BisCallcTakeBellFm.TBisCallcTakeBellFormIface.CanApplyPlan
 0001:0003D330       BisCallcTakeBellFm.TBisCallcTakeBellFormIface.CanApplyGroup
 0001:0003D340       BisCallcTakeBellFm.TBisCallcTakeBellForm.Create
 0001:0003D38C       BisCallcTakeBellFm.TBisCallcTakeBellForm.Destroy
 0001:0003D3B4       BisCallcTakeBellFm.TBisCallcTakeBellForm.GetDataFrameClass
 0001:0003D3BC       BisCallcTakeBellFm.Finalization
 0001:0003D3EC       BisCallc.InitIfaceModule
 0001:0003D570       BisCallc.Finalization
 0001:0003E670       .imcallc.@GetPackageInfoTable
 0001:0003E678       .imcallc.@PackageLoad
 0001:0003E684       .imcallc.@PackageUnload
 0002:00000010       Windows.Windows
 0002:00000514       BisCallcConsts.BisCallcConsts
 0002:0000051C       BisCallcMainFm.BisCallcMainFm
 0002:00000534       BisCallcHbookCurrencyEditFm.BisCallcHbookCurrencyEditFm
 0002:0000053C       BisCallcHbookCurrencyFm.BisCallcHbookCurrencyFm
 0002:00000544       BisCallcHbookVariantEditFm.BisCallcHbookVariantEditFm
 0002:0000054C       BisCallcHbookVariantsFm.BisCallcHbookVariantsFm
 0002:00000554       BisCallcHbookAgreementEditFm.BisCallcHbookAgreementEditFm
 0002:0000055C       BisCallcHbookAgreementsFm.BisCallcHbookAgreementsFm
 0002:00000564       BisCallcHbookAccountFirmEditFm.BisCallcHbookAccountFirmEditFm
 0002:0000056C       BisCallcHbookAccountFirmsFm.BisCallcHbookAccountFirmsFm
 0002:00000574       BisCallcHbookPatternEditFm.BisCallcHbookPatternEditFm
 0002:0000057C       BisCallcHbookPatternsFm.BisCallcHbookPatternsFm
 0002:00000584       BisCallcHbookGroupEditFm.BisCallcHbookGroupEditFm
 0002:0000058C       BisCallcHbookGroupsFm.BisCallcHbookGroupsFm
 0002:00000594       BisCallcHbookAccountGroupEditFm.BisCallcHbookAccountGroupEditFm
 0002:0000059C       BisCallcHbookAccountGroupsFm.BisCallcHbookAccountGroupsFm
 0002:000005A4       BisCallcHbookActionEditFm.BisCallcHbookActionEditFm
 0002:000005AC       BisCallcHbookActionsFm.BisCallcHbookActionsFm
 0002:000005B4       BisCallcHbookAccountActionEditFm.BisCallcHbookAccountActionEditFm
 0002:000005BC       BisCallcHbookAccountActionsFm.BisCallcHbookAccountActionsFm
 0002:000005C4       BisCallcHbookResultEditFm.BisCallcHbookResultEditFm
 0002:000005CC       BisCallcHbookResultsFm.BisCallcHbookResultsFm
 0002:000005D4       BisCallcHbookActionResultEditFm.BisCallcHbookActionResultEditFm
 0002:000005DC       BisCallcHbookActionResultsFm.BisCallcHbookActionResultsFm
 0002:000005E4       BisCallcHbookStatusEditFm.BisCallcHbookStatusEditFm
 0002:000005EC       BisCallcHbookStatusesFm.BisCallcHbookStatusesFm
 0002:000005F4       BisCallcBiasFIO.BisCallcBiasFIO
 0002:000005FC       BisCallcHbookCaseEditFm.BisCallcHbookCaseEditFm
 0002:00000604       BisCallcHbookCasesFm.BisCallcHbookCasesFm
 0002:0000060C       BisCallcHbookDebtorHistoriesFm.BisCallcHbookDebtorHistoriesFm
 0002:00000614       BisCallcHbookDebtorEditFm.BisCallcHbookDebtorEditFm
 0002:0000061C       BisCallcHbookDebtorsFm.BisCallcHbookDebtorsFm
 0002:00000624       BisCallcHbookPlanEditFm.BisCallcHbookPlanEditFm
 0002:0000062C       BisCallcHbookPlansFm.BisCallcHbookPlansFm
 0002:00000634       BisCallcHbookDealEditFm.BisCallcHbookDealEditFm
 0002:0000063C       BisCallcHbookDealsFm.BisCallcHbookDealsFm
 0002:00000644       BisCallcHbookPaymentEditFm.BisCallcHbookPaymentEditFm
 0002:0000064C       BisCallcHbookPaymentsFm.BisCallcHbookPaymentsFm
 0002:00000654       BisCallcHbookTaskEditFm.BisCallcHbookTaskEditFm
 0002:0000065C       BisCallcHbookTasksFm.BisCallcHbookTasksFm
 0002:00000664       BisCallcHbookTaskDocumentEditFm.BisCallcHbookTaskDocumentEditFm
 0002:0000066C       BisCallcHbookTaskDocumentsFm.BisCallcHbookTaskDocumentsFm
 0002:00000674       BisCallcTaskFrm.BisCallcTaskFrm
 0002:0000067C       BisCallcReadinessFm.BisCallcReadinessFm
 0002:00000684       BisCallcTaskExecuteInfoFm.BisCallcTaskExecuteInfoFm
 0002:0000068C       BisCallcTaskFm.BisCallcTaskFm
 0002:0000069C       BisCallcDealFrameTasksFrm.BisCallcDealFrameTasksFrm
 0002:000006A4       BisCallcDealFramePaymentsFrm.BisCallcDealFramePaymentsFrm
 0002:000006AC       BisCallcDealFrameDocumentsFrm.BisCallcDealFrameDocumentsFrm
 0002:000006C4       BisCallcDealFrm.BisCallcDealFrm
 0002:000006CC       BisCallcTaskOperatorFm.BisCallcTaskOperatorFm
 0002:000006D4       BisCallcDealsFrameTasksFilterFm.BisCallcDealsFrameTasksFilterFm
 0002:000006DC       BisCallcDealEditFm.BisCallcDealEditFm
 0002:000006E4       BisCallcDealsFrameTasksFrm.BisCallcDealsFrameTasksFrm
 0002:000006EC       BisCallcDealsFrm.BisCallcDealsFrm
 0002:000006F4       BisCallcTaskLeaderFm.BisCallcTaskLeaderFm
 0002:000006FC       BisCallcTaskClerkFm.BisCallcTaskClerkFm
 0002:00000704       BisCallcTaskManagerFm.BisCallcTaskManagerFm
 0002:0000070C       BisCallcHbookPlanActionEditFm.BisCallcHbookPlanActionEditFm
 0002:00000714       BisCallcHbookPlanActionsFm.BisCallcHbookPlanActionsFm
 0002:00000734       BisCallcImportFm.BisCallcImportFm
 0002:0000073C       BisCallcHbookActionReportEditFm.BisCallcHbookActionReportEditFm
 0002:00000744       BisCallcHbookActionReportsFm.BisCallcHbookActionReportsFm
 0002:0000074C       BisCallcTakeBellFilterFm.BisCallcTakeBellFilterFm
 0002:00000754       BisCallcTakeBellFrm.BisCallcTakeBellFrm
 0002:0000075C       BisCallcTakeBellFm.BisCallcTakeBellFm
 0002:00000764       BisCallc.BisCallc
 0002:0000076C       .imcallc..imcallc
 0003:00000000       SysInit.TlsIndex
 0003:00000004       SysInit.PtrToNil
 0003:00000008       SysInit.Module
 0003:00000020       SysInit.TlsProc
 0003:00000030       BisCallcMainFm.MainIface
 0003:00000034       BisCallcBiasFIO.Vocalic
 0003:00000054       BisCallcBiasFIO.Consonant
 0003:00000074       BisCallcBiasFIO.SoftSibilant
 0003:00000094       BisCallcBiasFIO.HardSibilant
 0003:000000B4       BisCallcBiasFIO.GKX
 0003:000000D4       BisCallcBiasFIO.DeclenErrorMap
 0004:00000000       SysInit.ModuleIsLib
 0004:00000001       SysInit.ModuleIsPackage
 0004:00000004       SysInit.HInstance
 0004:00000008       SysInit.tlsBuffer
 0004:0000000C       Windows..3
 0004:00000010       Windows.HtmlHelpModule
 0004:00000014       BisCallcConsts..1
 0004:00000018       BisCallcMainFm.BisCallcMainForm
 0004:0000001C       BisCallcMainFm..3
 0004:00000020       BisCallcHbookCurrencyEditFm.BisCallcHbookCurrencyEditForm
 0004:00000024       BisCallcHbookCurrencyEditFm..6
 0004:00000028       BisCallcHbookCurrencyFm.BiCallcHbookCurrencyForm
 0004:0000002C       BisCallcHbookCurrencyFm..3
 0004:00000030       BisCallcHbookVariantEditFm.BisCallcHbookVariantEditForm
 0004:00000034       BisCallcHbookVariantEditFm..6
 0004:00000038       BisCallcHbookVariantsFm.BiCallcHbookVariantsForm
 0004:0000003C       BisCallcHbookVariantsFm..3
 0004:00000040       BisCallcHbookAgreementEditFm.BisCallcHbookAgreementEditForm
 0004:00000044       BisCallcHbookAgreementEditFm..7
 0004:00000048       BisCallcHbookAgreementsFm.BisCallcHbookAgreementsForm
 0004:0000004C       BisCallcHbookAgreementsFm..3
 0004:00000050       BisCallcHbookAccountFirmEditFm.BisCallcHbookAccountFirmEditForm
 0004:00000054       BisCallcHbookAccountFirmEditFm..6
 0004:00000058       BisCallcHbookAccountFirmsFm.BiCallcHbookAccountFirmsForm
 0004:0000005C       BisCallcHbookAccountFirmsFm..3
 0004:00000060       BisCallcHbookPatternEditFm.BisCallcHbookPatternEditForm
 0004:00000064       BisCallcHbookPatternEditFm..6
 0004:00000068       BisCallcHbookPatternsFm.BisCallcHbookPatternsForm
 0004:0000006C       BisCallcHbookPatternsFm..3
 0004:00000070       BisCallcHbookGroupEditFm.BisCallcHbookGroupEditForm
 0004:00000074       BisCallcHbookGroupEditFm..6
 0004:00000078       BisCallcHbookGroupsFm.BisCallcHbookGroupsForm
 0004:0000007C       BisCallcHbookGroupsFm..3
 0004:00000080       BisCallcHbookAccountGroupEditFm.BisCallcHbookAccountGroupEditForm
 0004:00000084       BisCallcHbookAccountGroupEditFm..6
 0004:00000088       BisCallcHbookAccountGroupsFm.BiCallcHbookAccountGroupsForm
 0004:0000008C       BisCallcHbookAccountGroupsFm..3
 0004:00000090       BisCallcHbookActionEditFm.BisCallcHbookActionEditForm
 0004:00000094       BisCallcHbookActionEditFm..6
 0004:00000098       BisCallcHbookActionsFm.BisCallcHbookActionsForm
 0004:0000009C       BisCallcHbookActionsFm..3
 0004:000000A0       BisCallcHbookAccountActionEditFm.BisCallcHbookAccountActionEditForm
 0004:000000A4       BisCallcHbookAccountActionEditFm..6
 0004:000000A8       BisCallcHbookAccountActionsFm.BiCallcHbookAccountActionsForm
 0004:000000AC       BisCallcHbookAccountActionsFm..3
 0004:000000B0       BisCallcHbookResultEditFm.BisCallcHbookResultEditForm
 0004:000000B4       BisCallcHbookResultEditFm..6
 0004:000000B8       BisCallcHbookResultsFm.BisCallcHbookResultsForm
 0004:000000BC       BisCallcHbookResultsFm..3
 0004:000000C0       BisCallcHbookActionResultEditFm.BisCallcHbookActionResultEditForm
 0004:000000C4       BisCallcHbookActionResultEditFm..6
 0004:000000C8       BisCallcHbookActionResultsFm.BiCallcHbookActionResultsForm
 0004:000000CC       BisCallcHbookActionResultsFm..3
 0004:000000D0       BisCallcHbookStatusEditFm.BisCallcHbookStatusEditForm
 0004:000000D4       BisCallcHbookStatusEditFm..6
 0004:000000D8       BisCallcHbookStatusesFm.BiCallcHbookStatusesForm
 0004:000000DC       BisCallcHbookStatusesFm..3
 0004:000000E0       BisCallcBiasFIO..1
 0004:000000E4       BisCallcBiasFIO.aEnd
 0004:000000FC       BisCallcBiasFIO.FirstNameMExeptions
 0004:00000100       BisCallcBiasFIO.FirstNameWExeptions
 0004:00000104       BisCallcBiasFIO.LastNameExeptions
 0004:00000108       BisCallcBiasFIO.FirstPartLastNameExeptions
 0004:0000010C       BisCallcBiasFIO.FirstNameParallelForms
 0004:00000110       BisCallcBiasFIO.FirstNameMExeptionsPresent
 0004:00000111       BisCallcBiasFIO.FirstNameWExeptionsPresent
 0004:00000112       BisCallcBiasFIO.LastNameExeptionsPresent
 0004:00000113       BisCallcBiasFIO.FirstPartLastNameExeptionsPresent
 0004:00000114       BisCallcBiasFIO.FirstNameParallelFormsPresent
 0004:00000118       BisCallcHbookCaseEditFm.BisCallcHbookCaseEditForm
 0004:0000011C       BisCallcHbookCaseEditFm..6
 0004:00000120       BisCallcHbookCasesFm.BiCallcHbookCasesForm
 0004:00000124       BisCallcHbookCasesFm..3
 0004:00000128       BisCallcHbookDebtorHistoriesFm.BisCallcHbookDebtorHistoriesForm
 0004:0000012C       BisCallcHbookDebtorHistoriesFm..4
 0004:00000130       BisCallcHbookDebtorEditFm.BisCallcHbookDebtorEditForm
 0004:00000134       BisCallcHbookDebtorEditFm..6
 0004:00000138       BisCallcHbookDebtorsFm.BisCallcHbookDebtorsForm
 0004:0000013C       BisCallcHbookDebtorsFm..3
 0004:00000140       BisCallcHbookPlanEditFm.BisCallcHbookPlanEditForm
 0004:00000144       BisCallcHbookPlanEditFm..6
 0004:00000148       BisCallcHbookPlansFm.BisCallcHbookPlansForm
 0004:0000014C       BisCallcHbookPlansFm..3
 0004:00000150       BisCallcHbookDealEditFm.BisCallcHbookDealEditForm
 0004:00000154       BisCallcHbookDealEditFm..6
 0004:00000158       BisCallcHbookDealsFm.BiCallcHbookDealsForm
 0004:0000015C       BisCallcHbookDealsFm..3
 0004:00000160       BisCallcHbookPaymentEditFm.BisCallcHbookPaymentEditForm
 0004:00000164       BisCallcHbookPaymentEditFm..6
 0004:00000168       BisCallcHbookPaymentsFm.BiCallcHbookPaymentsForm
 0004:0000016C       BisCallcHbookPaymentsFm..3
 0004:00000170       BisCallcHbookTaskEditFm.BisCallcHbookTaskEditForm
 0004:00000174       BisCallcHbookTaskEditFm..6
 0004:00000178       BisCallcHbookTasksFm.BiCallcHbookTasksForm
 0004:0000017C       BisCallcHbookTasksFm..3
 0004:00000180       BisCallcHbookTaskDocumentEditFm.BisCallcHbookTaskDocumentEditForm
 0004:00000184       BisCallcHbookTaskDocumentEditFm..6
 0004:00000188       BisCallcHbookTaskDocumentsFm.BiCallcHbookTaskDocumentsForm
 0004:0000018C       BisCallcHbookTaskDocumentsFm..3
 0004:00000190       BisCallcTaskFrm..2
 0004:00000194       BisCallcReadinessFm.BisCallcReadinessForm
 0004:00000198       BisCallcReadinessFm..2
 0004:0000019C       BisCallcTaskExecuteInfoFm.BisTaskExecuteForm
 0004:000001A0       BisCallcTaskExecuteInfoFm..2
 0004:000001A4       BisCallcTaskFm.BisCallcTaskForm
 0004:000001A8       BisCallcTaskFm..4
 0004:000001AC       BisCallcDealFrameTasksFrm..4
 0004:000001B0       BisCallcDealFramePaymentsFrm..7
 0004:000001B4       BisCallcDealFrameDocumentsFrm..7
 0004:000001B8       BisCallcDealFrm..3
 0004:000001BC       BisCallcTaskOperatorFm.BisCallcTaskOperatorForm
 0004:000001C0       BisCallcTaskOperatorFm..3
 0004:000001C4       BisCallcDealsFrameTasksFilterFm.BisCallcDealsFrameTasksFilterForm
 0004:000001C8       BisCallcDealsFrameTasksFilterFm..3
 0004:000001CC       BisCallcDealEditFm.BisCallcDealEditForm
 0004:000001D0       BisCallcDealEditFm..3
 0004:000001D4       BisCallcDealsFrameTasksFrm..3
 0004:000001D8       BisCallcDealsFrm.BisCallcDealsFrame
 0004:000001DC       BisCallcDealsFrm..4
 0004:000001E0       BisCallcTaskLeaderFm.BisCallcTaskLeaderForm
 0004:000001E4       BisCallcTaskLeaderFm..3
 0004:000001E8       BisCallcTaskClerkFm.BisCallcTaskClerkForm
 0004:000001EC       BisCallcTaskClerkFm..3
 0004:000001F0       BisCallcTaskManagerFm.BisCallcTaskManagerForm
 0004:000001F4       BisCallcTaskManagerFm..3
 0004:000001F8       BisCallcHbookPlanActionEditFm.BisCallcHbookPlanActionEditForm
 0004:000001FC       BisCallcHbookPlanActionEditFm..6
 0004:00000200       BisCallcHbookPlanActionsFm.BiCallcHbookPlanActionsForm
 0004:00000204       BisCallcHbookPlanActionsFm..3
 0004:00000208       BisCallcImportFm.BisCallcImportForm
 0004:0000020C       BisCallcImportFm..3
 0004:00000210       BisCallcHbookActionReportEditFm.BisCallcHbookActionReportEditForm
 0004:00000214       BisCallcHbookActionReportEditFm..6
 0004:00000218       BisCallcHbookActionReportsFm.BiCallcHbookActionReportsForm
 0004:0000021C       BisCallcHbookActionReportsFm..3
 0004:00000220       BisCallcTakeBellFilterFm.BisCallcTakeBellFilterForm
 0004:00000224       BisCallcTakeBellFilterFm..5
 0004:00000228       BisCallcTakeBellFrm..5
 0004:0000022C       BisCallcTakeBellFm.BisCallcTakeBellForm
 0004:00000230       BisCallcTakeBellFm..3
 0004:00000234       BisCallc..1
 0005:00000000       SysInit.TlsLast


Line numbers for BisCallcConsts(imcallc.bpl\BisCallcConsts.pas) segment .itext

    17 0002:00000514

Line numbers for BisCallcMainFm(imcallc.bpl\BisCallcMainFm.pas) segment .text

    51 0001:00001DC4    52 0001:00001DD6    53 0001:00001DDF    54 0001:00001DE7
    59 0001:00001E04    60 0001:00001E16    61 0001:00001E1F    62 0001:00001E26
    76 0001:00001E40    77 0001:00001E45    78 0001:00001E4D    80 0001:00001E55
    81 0001:00001E69    82 0001:00001E70    83 0001:00001E78    85 0001:00001E7F
    86 0001:00001E95    87 0001:00001E99    88 0001:00001EB0    89 0001:00001EB4
    90 0001:00001EC2    94 0001:00001ECF    95 0001:00001EE5    96 0001:00001EED
    97 0001:00001F04    98 0001:00001F08    99 0001:00001F16   101 0001:00001F23
   102 0001:00001F3E   103 0001:00001F42   104 0001:00001F50   106 0001:00001F5D
   107 0001:00001F78   108 0001:00001F7C   109 0001:00001F8A   111 0001:00001F97
   112 0001:00001FB2   113 0001:00001FB6   114 0001:00001FC4   118 0001:00001FD1
   122 0001:00001FDF

Line numbers for BisCallcMainFm(imcallc.bpl\BisCallcMainFm.pas) segment .itext

   124 0002:0000051C

Line numbers for BisCallcHbookCurrencyEditFm(imcallc.bpl\BisCallcHbookCurrencyEditFm.pas) segment .text

    54 0001:00002934    55 0001:00002947    56 0001:00002950    57 0001:00002958
    58 0001:0000295B    59 0001:00002973    60 0001:0000298D    61 0001:000029A5
    63 0001:000029BD    68 0001:00002AC8    69 0001:00002ADA    70 0001:00002AE3
    71 0001:00002AF0    76 0001:00002B20    77 0001:00002B32    78 0001:00002B3B
    79 0001:00002B48    84 0001:00002B78    85 0001:00002B8A    86 0001:00002B93
    87 0001:00002BA0

Line numbers for BisCallcHbookCurrencyEditFm(imcallc.bpl\BisCallcHbookCurrencyEditFm.pas) segment .itext

    89 0002:00000534

Line numbers for BisCallcHbookCurrencyFm(imcallc.bpl\BisCallcHbookCurrencyFm.pas) segment .text

    34 0001:00002F28    35 0001:00002F3F    36 0001:00002F48    37 0001:00002F50
    38 0001:00002F5D    39 0001:00002F68    40 0001:00002F73    41 0001:00002F7A
    42 0001:00002F7E    43 0001:00002F8E    44 0001:00002F91    45 0001:00002F9D
    46 0001:00002FB3    47 0001:00002FC9    49 0001:00002FD5    50 0001:00002FE4

Line numbers for BisCallcHbookCurrencyFm(imcallc.bpl\BisCallcHbookCurrencyFm.pas) segment .itext

    52 0002:0000053C

Line numbers for BisCallcHbookVariantEditFm(imcallc.bpl\BisCallcHbookVariantEditFm.pas) segment .text

    58 0001:000038A8    59 0001:000038BB    60 0001:000038C4    61 0001:000038CC
    62 0001:000038CF    63 0001:000038E7    64 0001:00003901    66 0001:00003932
    67 0001:0000394A    69 0001:00003964    74 0001:00003ADC    75 0001:00003AEE
    76 0001:00003AF7    77 0001:00003B04    82 0001:00003B34    83 0001:00003B46
    84 0001:00003B4F    85 0001:00003B5C    90 0001:00003B8C    91 0001:00003B9E
    92 0001:00003BA7    93 0001:00003BB4

Line numbers for BisCallcHbookVariantEditFm(imcallc.bpl\BisCallcHbookVariantEditFm.pas) segment .itext

    95 0002:00000544

Line numbers for BisCallcHbookVariantsFm(imcallc.bpl\BisCallcHbookVariantsFm.pas) segment .text

    38 0001:00003FA8    39 0001:00003FBF    40 0001:00003FC8    41 0001:00003FD0
    42 0001:00003FDD    43 0001:00003FE8    44 0001:00003FF3    45 0001:00003FFA
    46 0001:00003FFE    47 0001:0000400E    48 0001:00004011    49 0001:0000401D
    50 0001:00004029    51 0001:00004035    52 0001:0000404B    53 0001:0000405E
    55 0001:00004074    56 0001:00004083    57 0001:00004092    62 0001:00004180
    63 0001:00004192    64 0001:0000419B    65 0001:000041A6    67 0001:000041BE

Line numbers for BisCallcHbookVariantsFm(imcallc.bpl\BisCallcHbookVariantsFm.pas) segment .itext

    69 0002:0000054C

Line numbers for BisCallcHbookAgreementEditFm(imcallc.bpl\BisCallcHbookAgreementEditFm.pas) segment .text

    75 0001:00004BF4    76 0001:00004C1A    77 0001:00004C23    78 0001:00004C2B
    79 0001:00004C2E    80 0001:00004C46    82 0001:00004C7A    83 0001:00004C94
    85 0001:00004CD0    87 0001:00004D01    88 0001:00004D19    90 0001:00004D31
    95 0001:00004FC0    96 0001:00004FD2    97 0001:00004FDB    98 0001:00004FE8
   101 0001:00005018   102 0001:00005038   103 0001:00005041   104 0001:00005049
   105 0001:0000506B   106 0001:00005078   107 0001:000050A7   111 0001:000050D6
   116 0001:00005164   117 0001:00005176   118 0001:0000517F   119 0001:0000518C
   120 0001:00005199   123 0001:000051EC   124 0001:0000520C   125 0001:00005215
   126 0001:0000521D   127 0001:0000523F   128 0001:0000524C   129 0001:0000527B
   133 0001:000052AA   138 0001:00005330   139 0001:00005342   140 0001:0000534B
   141 0001:00005358   146 0001:00005388   147 0001:0000539A   148 0001:000053A3
   149 0001:000053B0   154 0001:000053E0   155 0001:000053F2   156 0001:000053FB
   157 0001:00005412

Line numbers for BisCallcHbookAgreementEditFm(imcallc.bpl\BisCallcHbookAgreementEditFm.pas) segment .itext

   159 0002:00000554

Line numbers for BisCallcHbookAgreementsFm(imcallc.bpl\BisCallcHbookAgreementsFm.pas) segment .text

    35 0001:00005794    36 0001:000057AB    37 0001:000057B4    38 0001:000057BC
    39 0001:000057CD    40 0001:000057DE    41 0001:000057E9    42 0001:000057F4
    43 0001:000057FB    44 0001:000057FF    45 0001:0000580F    46 0001:00005812
    47 0001:0000581E    48 0001:0000582A    49 0001:00005836    50 0001:00005842
    51 0001:0000584E    52 0001:00005861    53 0001:00005877    54 0001:0000588A
    55 0001:0000589D    57 0001:000058B0

Line numbers for BisCallcHbookAgreementsFm(imcallc.bpl\BisCallcHbookAgreementsFm.pas) segment .itext

    59 0002:0000055C

Line numbers for BisCallcHbookAccountFirmEditFm(imcallc.bpl\BisCallcHbookAccountFirmEditFm.pas) segment .text

    55 0001:00006224    56 0001:0000624E    57 0001:00006257    58 0001:0000625F
    60 0001:00006262    61 0001:000062A5    64 0001:000062EB    69 0001:0000643C
    70 0001:0000644E    71 0001:00006457    72 0001:00006464    77 0001:00006498
    78 0001:000064AA    79 0001:000064B3    80 0001:000064C0    85 0001:000064F4
    86 0001:00006506    87 0001:0000650F    88 0001:0000651C

Line numbers for BisCallcHbookAccountFirmEditFm(imcallc.bpl\BisCallcHbookAccountFirmEditFm.pas) segment .itext

    91 0002:00000564

Line numbers for BisCallcHbookAccountFirmsFm(imcallc.bpl\BisCallcHbookAccountFirmsFm.pas) segment .text

    34 0001:000068C0    35 0001:000068D7    36 0001:000068E0    37 0001:000068E8
    38 0001:000068F5    39 0001:00006900    40 0001:0000690B    41 0001:00006912
    42 0001:00006916    43 0001:00006926    44 0001:00006929    45 0001:00006935
    46 0001:00006941    47 0001:00006957    49 0001:0000696D    50 0001:0000697C
    51 0001:0000698B

Line numbers for BisCallcHbookAccountFirmsFm(imcallc.bpl\BisCallcHbookAccountFirmsFm.pas) segment .itext

    53 0002:0000056C

Line numbers for BisCallcHbookPatternEditFm(imcallc.bpl\BisCallcHbookPatternEditFm.pas) segment .text

    62 0001:000072CC    63 0001:000072DF    64 0001:000072E8    65 0001:000072F0
    66 0001:000072F3    67 0001:0000730B    68 0001:00007325    69 0001:0000733D
    71 0001:00007355    76 0001:0000745C    77 0001:0000746E    78 0001:00007477
    79 0001:00007484    84 0001:000074B4    85 0001:000074C6    86 0001:000074CF
    87 0001:000074DC    92 0001:0000750C    93 0001:0000751E    94 0001:00007527
    95 0001:00007534   103 0001:00007564   104 0001:0000756A   105 0001:00007573
   106 0001:00007584   107 0001:0000758D   108 0001:0000759A   109 0001:000075AA
   111 0001:000075C2   117 0001:000075D8   118 0001:000075EF   119 0001:00007607
   120 0001:0000760B   121 0001:0000761A   122 0001:00007632   125 0001:00007639
   130 0001:0000766C   131 0001:00007685   132 0001:0000769D   133 0001:000076A1
   134 0001:000076C2   135 0001:000076D1   137 0001:000076E9   142 0001:00007724
   143 0001:00007727   144 0001:0000773D   145 0001:00007741   146 0001:00007746
   148 0001:0000774D

Line numbers for BisCallcHbookPatternEditFm(imcallc.bpl\BisCallcHbookPatternEditFm.pas) segment .itext

   150 0002:00000574

Line numbers for BisCallcHbookPatternsFm(imcallc.bpl\BisCallcHbookPatternsFm.pas) segment .text

    34 0001:00007AB8    35 0001:00007ACF    36 0001:00007AD8    37 0001:00007AE0
    38 0001:00007AED    39 0001:00007AF8    40 0001:00007B03    41 0001:00007B0A
    42 0001:00007B0E    43 0001:00007B1E    44 0001:00007B21    45 0001:00007B2D
    46 0001:00007B39    47 0001:00007B4F    49 0001:00007B65    50 0001:00007B74

Line numbers for BisCallcHbookPatternsFm(imcallc.bpl\BisCallcHbookPatternsFm.pas) segment .itext

    52 0002:0000057C

Line numbers for BisCallcHbookGroupEditFm(imcallc.bpl\BisCallcHbookGroupEditFm.pas) segment .text

    59 0001:00008424    60 0001:00008437    61 0001:00008440    62 0001:00008448
    63 0001:0000844B    64 0001:00008463    66 0001:00008497    67 0001:000084B1
    68 0001:000084C9    71 0001:000084FA    76 0001:0000869C    77 0001:000086AE
    78 0001:000086B7    79 0001:000086C4    84 0001:000086F0    85 0001:00008702
    86 0001:0000870B    87 0001:00008718    92 0001:00008744    93 0001:00008756
    94 0001:0000875F    95 0001:0000876C

Line numbers for BisCallcHbookGroupEditFm(imcallc.bpl\BisCallcHbookGroupEditFm.pas) segment .itext

    97 0002:00000584

Line numbers for BisCallcHbookGroupsFm(imcallc.bpl\BisCallcHbookGroupsFm.pas) segment .text

    39 0001:00008B54    40 0001:00008B6B    41 0001:00008B74    42 0001:00008B7C
    43 0001:00008B89    44 0001:00008B94    45 0001:00008B9F    46 0001:00008BA6
    47 0001:00008BAA    48 0001:00008BBA    49 0001:00008BBD    50 0001:00008BC9
    51 0001:00008BD5    52 0001:00008BE1    53 0001:00008BED    54 0001:00008BF9
    55 0001:00008C0F    57 0001:00008C25    62 0001:00008D10    63 0001:00008D22
    64 0001:00008D2B    65 0001:00008D36    67 0001:00008D4E

Line numbers for BisCallcHbookGroupsFm(imcallc.bpl\BisCallcHbookGroupsFm.pas) segment .itext

    69 0002:0000058C

Line numbers for BisCallcHbookAccountGroupEditFm(imcallc.bpl\BisCallcHbookAccountGroupEditFm.pas) segment .text

    57 0001:000095A8    58 0001:000095D4    59 0001:000095DD    60 0001:000095E5
    62 0001:000095E8    63 0001:0000962B    65 0001:00009666    67 0001:0000967E
    72 0001:00009810    73 0001:00009822    74 0001:0000982B    75 0001:00009838
    80 0001:0000986C    81 0001:0000987E    82 0001:00009887    83 0001:00009894
    88 0001:000098C8    89 0001:000098DA    90 0001:000098E3    91 0001:000098F0

Line numbers for BisCallcHbookAccountGroupEditFm(imcallc.bpl\BisCallcHbookAccountGroupEditFm.pas) segment .itext

    94 0002:00000594

Line numbers for BisCallcHbookAccountGroupsFm(imcallc.bpl\BisCallcHbookAccountGroupsFm.pas) segment .text

    34 0001:00009C9C    35 0001:00009CB3    36 0001:00009CBC    37 0001:00009CC4
    38 0001:00009CD1    39 0001:00009CDC    40 0001:00009CE7    41 0001:00009CEE
    42 0001:00009CF2    43 0001:00009D02    44 0001:00009D05    45 0001:00009D11
    46 0001:00009D1D    47 0001:00009D33    48 0001:00009D49    50 0001:00009D5C
    51 0001:00009D6B    52 0001:00009D7A    53 0001:00009D89

Line numbers for BisCallcHbookAccountGroupsFm(imcallc.bpl\BisCallcHbookAccountGroupsFm.pas) segment .itext

    55 0002:0000059C

Line numbers for BisCallcHbookActionEditFm(imcallc.bpl\BisCallcHbookActionEditFm.pas) segment .text

    54 0001:0000A62C    55 0001:0000A632    56 0001:0000A639    57 0001:0000A648
    58 0001:0000A657    59 0001:0000A666    60 0001:0000A675    62 0001:0000A681
    67 0001:0000A6E0    68 0001:0000A6F3    69 0001:0000A6FC    70 0001:0000A704
    71 0001:0000A707    72 0001:0000A71F    73 0001:0000A739    74 0001:0000A751
    76 0001:0000A769    81 0001:0000A870    82 0001:0000A882    83 0001:0000A88B
    84 0001:0000A898    89 0001:0000A8C8    90 0001:0000A8DA    91 0001:0000A8E3
    92 0001:0000A8F0    97 0001:0000A920    98 0001:0000A932    99 0001:0000A93B
   100 0001:0000A948   107 0001:0000A978   108 0001:0000A99E   109 0001:0000A9A7
   110 0001:0000A9B5   111 0001:0000A9B7   112 0001:0000A9D5   110 0001:0000A9D6
   113 0001:0000A9DB

Line numbers for BisCallcHbookActionEditFm(imcallc.bpl\BisCallcHbookActionEditFm.pas) segment .itext

   115 0002:000005A4

Line numbers for BisCallcHbookActionsFm(imcallc.bpl\BisCallcHbookActionsFm.pas) segment .text

    37 0001:0000AD6C    38 0001:0000AD83    39 0001:0000AD8C    40 0001:0000AD94
    41 0001:0000ADA1    42 0001:0000ADAC    43 0001:0000ADB7    44 0001:0000ADBE
    45 0001:0000ADC2    46 0001:0000ADD2    47 0001:0000ADD5    48 0001:0000ADE1
    49 0001:0000ADED    50 0001:0000AE03    51 0001:0000AE19    53 0001:0000AE36
    54 0001:0000AE45    59 0001:0000AF18    60 0001:0000AF34    61 0001:0000AF3B
    62 0001:0000AF54    63 0001:0000AF65    64 0001:0000AF6F

Line numbers for BisCallcHbookActionsFm(imcallc.bpl\BisCallcHbookActionsFm.pas) segment .itext

    66 0002:000005AC

Line numbers for BisCallcHbookAccountActionEditFm(imcallc.bpl\BisCallcHbookAccountActionEditFm.pas) segment .text

    57 0001:0000B808    58 0001:0000B834    59 0001:0000B83D    60 0001:0000B845
    62 0001:0000B848    63 0001:0000B88B    65 0001:0000B8C6    67 0001:0000B8DE
    72 0001:0000BA74    73 0001:0000BA86    74 0001:0000BA8F    75 0001:0000BA9C
    80 0001:0000BAD4    81 0001:0000BAE6    82 0001:0000BAEF    83 0001:0000BAFC
    88 0001:0000BB34    89 0001:0000BB46    90 0001:0000BB4F    91 0001:0000BB5C

Line numbers for BisCallcHbookAccountActionEditFm(imcallc.bpl\BisCallcHbookAccountActionEditFm.pas) segment .itext

    94 0002:000005B4

Line numbers for BisCallcHbookAccountActionsFm(imcallc.bpl\BisCallcHbookAccountActionsFm.pas) segment .text

    34 0001:0000BF14    35 0001:0000BF2B    36 0001:0000BF34    37 0001:0000BF3C
    38 0001:0000BF49    39 0001:0000BF54    40 0001:0000BF5F    41 0001:0000BF66
    42 0001:0000BF6A    43 0001:0000BF7A    44 0001:0000BF7D    45 0001:0000BF89
    46 0001:0000BF95    47 0001:0000BFAB    48 0001:0000BFC1    50 0001:0000BFD4
    51 0001:0000BFE3    52 0001:0000BFF2    53 0001:0000C001

Line numbers for BisCallcHbookAccountActionsFm(imcallc.bpl\BisCallcHbookAccountActionsFm.pas) segment .itext

    55 0002:000005BC

Line numbers for BisCallcHbookResultEditFm(imcallc.bpl\BisCallcHbookResultEditFm.pas) segment .text

    62 0001:0000C934    63 0001:0000C947    64 0001:0000C950    65 0001:0000C958
    66 0001:0000C95B    67 0001:0000C973    68 0001:0000C98D    69 0001:0000C9A5
    70 0001:0000C9BD    72 0001:0000C9EE    73 0001:0000CA06    74 0001:0000CA17
    76 0001:0000CA28    81 0001:0000CC3C    82 0001:0000CC4E    83 0001:0000CC57
    84 0001:0000CC64    89 0001:0000CC94    90 0001:0000CCA6    91 0001:0000CCAF
    92 0001:0000CCBC    97 0001:0000CCEC    98 0001:0000CCFE    99 0001:0000CD07
   100 0001:0000CD14

Line numbers for BisCallcHbookResultEditFm(imcallc.bpl\BisCallcHbookResultEditFm.pas) segment .itext

   104 0002:000005C4

Line numbers for BisCallcHbookResultsFm(imcallc.bpl\BisCallcHbookResultsFm.pas) segment .text

    34 0001:0000D098    35 0001:0000D0AF    36 0001:0000D0B8    37 0001:0000D0C0
    38 0001:0000D0CD    39 0001:0000D0D8    40 0001:0000D0E3    41 0001:0000D0EA
    42 0001:0000D0EE    43 0001:0000D0FE    44 0001:0000D101    45 0001:0000D10D
    46 0001:0000D119    47 0001:0000D125    48 0001:0000D131    49 0001:0000D13D
    50 0001:0000D149    51 0001:0000D15F    52 0001:0000D175    54 0001:0000D18B

Line numbers for BisCallcHbookResultsFm(imcallc.bpl\BisCallcHbookResultsFm.pas) segment .itext

    56 0002:000005CC

Line numbers for BisCallcHbookActionResultEditFm(imcallc.bpl\BisCallcHbookActionResultEditFm.pas) segment .text

    57 0001:0000DAF4    58 0001:0000DB0B    59 0001:0000DB14    60 0001:0000DB1C
    62 0001:0000DB1F    63 0001:0000DB5A    65 0001:0000DB95    67 0001:0000DBAD
    72 0001:0000DD20    73 0001:0000DD32    74 0001:0000DD3B    75 0001:0000DD48
    80 0001:0000DD7C    81 0001:0000DD8E    82 0001:0000DD97    83 0001:0000DDA4
    88 0001:0000DDD8    89 0001:0000DDEA    90 0001:0000DDF3    91 0001:0000DE00

Line numbers for BisCallcHbookActionResultEditFm(imcallc.bpl\BisCallcHbookActionResultEditFm.pas) segment .itext

    94 0002:000005D4

Line numbers for BisCallcHbookActionResultsFm(imcallc.bpl\BisCallcHbookActionResultsFm.pas) segment .text

    34 0001:0000E1AC    35 0001:0000E1C3    36 0001:0000E1CC    37 0001:0000E1D4
    38 0001:0000E1E1    39 0001:0000E1EC    40 0001:0000E1F7    41 0001:0000E1FE
    42 0001:0000E202    43 0001:0000E212    44 0001:0000E215    45 0001:0000E221
    46 0001:0000E22D    47 0001:0000E243    48 0001:0000E259    50 0001:0000E26C
    51 0001:0000E27B    52 0001:0000E28A    53 0001:0000E299

Line numbers for BisCallcHbookActionResultsFm(imcallc.bpl\BisCallcHbookActionResultsFm.pas) segment .itext

    55 0002:000005DC

Line numbers for BisCallcHbookStatusEditFm(imcallc.bpl\BisCallcHbookStatusEditFm.pas) segment .text

    58 0001:0000EB84    59 0001:0000EB97    60 0001:0000EBA0    61 0001:0000EBA8
    62 0001:0000EBAB    63 0001:0000EBC3    64 0001:0000EBDD    65 0001:0000EBF5
    66 0001:0000EC0F    67 0001:0000EC27    69 0001:0000EC3F    74 0001:0000EDD4
    75 0001:0000EDE6    76 0001:0000EDEF    77 0001:0000EDFC    82 0001:0000EE2C
    83 0001:0000EE3E    84 0001:0000EE47    85 0001:0000EE54    90 0001:0000EE84
    91 0001:0000EE96    92 0001:0000EE9F    93 0001:0000EEAC

Line numbers for BisCallcHbookStatusEditFm(imcallc.bpl\BisCallcHbookStatusEditFm.pas) segment .itext

    95 0002:000005E4

Line numbers for BisCallcHbookStatusesFm(imcallc.bpl\BisCallcHbookStatusesFm.pas) segment .text

    34 0001:0000F234    35 0001:0000F24B    36 0001:0000F254    37 0001:0000F25C
    38 0001:0000F269    39 0001:0000F274    40 0001:0000F27F    41 0001:0000F286
    42 0001:0000F28A    43 0001:0000F29A    44 0001:0000F29D    45 0001:0000F2A9
    46 0001:0000F2B5    47 0001:0000F2C1    48 0001:0000F2CD    49 0001:0000F2E3
    51 0001:0000F2F9    52 0001:0000F308

Line numbers for BisCallcHbookStatusesFm(imcallc.bpl\BisCallcHbookStatusesFm.pas) segment .itext

    54 0002:000005EC

Line numbers for BisCallcBiasFIO(imcallc.bpl\BisCallcBiasFIO.pas) segment .text

    88 0001:0000F4E8    89 0001:0000F4F5   111 0001:0000F4F8   112 0001:0000F51B
   113 0001:0000F531   114 0001:0000F53B   117 0001:0000F56A   118 0001:0000F56E
   119 0001:0000F570   124 0001:0000F5AC   125 0001:0000F5CA   126 0001:0000F5D2
   127 0001:0000F5D7   130 0001:0000F5FC   131 0001:0000F61A   132 0001:0000F627
   144 0001:0000F64C   145 0001:0000F69F   146 0001:0000F6A9   147 0001:0000F6B4
   148 0001:0000F6BF   149 0001:0000F6CA   150 0001:0000F6D5   151 0001:0000F6E0
   158 0001:0000F718   159 0001:0000F729   168 0001:0000F72C   169 0001:0000F751
   170 0001:0000F767   171 0001:0000F769   172 0001:0000F77A   171 0001:0000F790
   173 0001:0000F793   182 0001:0000F7BC   183 0001:0000F7E9   184 0001:0000F7F4
   185 0001:0000F7FD   186 0001:0000F811   187 0001:0000F820   188 0001:0000F84E
   189 0001:0000F874   191 0001:0000F876   185 0001:0000F877   193 0001:0000F87A
   203 0001:0000F8B8   205 0001:0000F8DF   206 0001:0000F8E9   207 0001:0000F8EE
   208 0001:0000F8F7   209 0001:0000F8FD   210 0001:0000F914   211 0001:0000F947
   208 0001:0000F95E   213 0001:0000F962   229 0001:0000F98C   230 0001:0000F9C8
   231 0001:0000F9CC   233 0001:0000F9D6   234 0001:0000F9E0   236 0001:0000F9E8
   237 0001:0000F9F2   238 0001:0000F9F8   245 0001:0000FA44   246 0001:0000FA4D
   250 0001:0000FA68   257 0001:0000FB2D   260 0001:0000FB41   265 0001:0000FB67
   267 0001:0000FB9A   268 0001:0000FBA3   270 0001:0000FBBE   273 0001:0000FBD8
   274 0001:0000FBDE   275 0001:0000FBE7   278 0001:0000FC00   279 0001:0000FC0E
   280 0001:0000FC17   282 0001:0000FC2E   284 0001:0000FC46   326 0001:0000FD3C
   327 0001:0000FD6D   328 0001:0000FD78   329 0001:0000FD83   330 0001:0000FD9A
   331 0001:0000FD9E   332 0001:0000FDAF   334 0001:0000FDD3   335 0001:0000FDDD
   337 0001:0000FDE2   338 0001:0000FDE4   339 0001:0000FDFB   340 0001:0000FDFF
   341 0001:0000FE13   343 0001:0000FE3B   344 0001:0000FE46   347 0001:0000FE48
   349 0001:0000FE63   354 0001:0000FE9C   355 0001:0000FEC7   356 0001:0000FEDD
   357 0001:0000FEEB   358 0001:0000FEEF   359 0001:0000FEF8   360 0001:0000FEFC
   361 0001:0000FF0C   364 0001:0000FF1B   387 0001:0000FF54   388 0001:0000FF8C
   389 0001:0000FF9B   390 0001:0000FF9F   391 0001:0000FFBE   392 0001:0000FFE2
   395 0001:00010019   397 0001:0001001E   398 0001:00010034   399 0001:0001003E
   400 0001:00010057   401 0001:0001005C   402 0001:00010066   403 0001:0001007A
   404 0001:00010089   405 0001:000100A9   407 0001:000100CD   408 0001:000100E0
   409 0001:00010100   410 0001:0001010B   411 0001:0001012E   414 0001:00010147
   415 0001:00010189   418 0001:000101AD   419 0001:000101ED   420 0001:00010210
   421 0001:00010231   423 0001:0001024C   425 0001:000102B2   426 0001:000102D3
   429 0001:000102EE   430 0001:00010311   433 0001:0001032A   435 0001:00010379
   436 0001:00010399   438 0001:000103BA   439 0001:000103D4   441 0001:000103FB
   442 0001:00010419   444 0001:0001043E   445 0001:0001044D   446 0001:0001046D
   447 0001:00010485   449 0001:000104B0   450 0001:000104C3   451 0001:000104E3
   452 0001:000104EC   458 0001:00010551   459 0001:00010560   461 0001:0001058B
   463 0001:0001059F   465 0001:000105CA   466 0001:000105D9   469 0001:000105FB
   470 0001:00010613   471 0001:00010624   472 0001:0001064F   473 0001:00010654
   475 0001:0001066C   476 0001:0001067B   479 0001:000106AC   481 0001:000106C0
   485 0001:000106F1   486 0001:00010704   487 0001:0001072F   489 0001:00010752
   492 0001:000107B4   493 0001:0001081B   494 0001:0001082A   496 0001:00010843
   497 0001:00010885   498 0001:000108A8   500 0001:000108C1   501 0001:000108D0
   502 0001:000108F0   504 0001:0001090B   505 0001:0001091D   506 0001:0001093D
   509 0001:0001095E   510 0001:0001096F   531 0001:00010C1C   532 0001:00010C60
   533 0001:00010C6F   534 0001:00010C73   535 0001:00010C92   536 0001:00010CB6
   539 0001:00010CED   541 0001:00010CF2   542 0001:00010D08   543 0001:00010D12
   544 0001:00010D2B   545 0001:00010D30   546 0001:00010D3A   547 0001:00010D50
   548 0001:00010D5F   549 0001:00010D82   551 0001:00010D9B   552 0001:00010DB1
   553 0001:00010DED   554 0001:00010E10   556 0001:00010E29   557 0001:00010E3D
   558 0001:00010E5F   559 0001:00010E72   560 0001:00010E95   561 0001:00010EE8
   563 0001:00010F0D   564 0001:00010F30   566 0001:00010F4B   567 0001:00010F5E
   568 0001:00010F89   570 0001:00010FAC   573 0001:0001100E   574 0001:00011075
   575 0001:00011084   577 0001:0001109A   578 0001:000110DC   579 0001:000110FF
   584 0001:00011113   585 0001:00011124   603 0001:000112B0   604 0001:000112E1
   605 0001:000112F7   606 0001:00011301   607 0001:0001130A   608 0001:00011314
   609 0001:00011327   610 0001:00011336   611 0001:0001134C   612 0001:00011362
   613 0001:00011382   614 0001:00011391   615 0001:000113A3   616 0001:000113B2
   618 0001:000113C4   619 0001:000113E2   620 0001:00011403   621 0001:0001141C
   623 0001:00011435   624 0001:00011448   625 0001:0001146B   626 0001:000114BE
   627 0001:000114CD   629 0001:000114E3   630 0001:000114F2   631 0001:00011515
   634 0001:00011529   636 0001:0001153A   654 0001:00011664   655 0001:00011692
   656 0001:000116A8   657 0001:000116B2   658 0001:000116C8   659 0001:000116CD
   660 0001:000116D7   661 0001:000116EA   662 0001:000116FD   663 0001:00011720
   664 0001:00011773   665 0001:00011782   667 0001:0001179B   668 0001:000117AA
   669 0001:000117CD   670 0001:000117E3   671 0001:000117F2   673 0001:00011801
   675 0001:00011817   676 0001:00011826   677 0001:00011849   679 0001:0001185D
   680 0001:0001186E   695 0001:0001193C   696 0001:00011966   697 0001:0001197C
   698 0001:00011986   699 0001:0001198C   700 0001:000119AC   701 0001:000119C3
   702 0001:000119D4   720 0001:00011A2C   721 0001:00011A55   722 0001:00011A6B
   723 0001:00011A75   724 0001:00011A7B   725 0001:00011A85   726 0001:00011A98
   727 0001:00011ABB   728 0001:00011AE0   729 0001:00011AE5   730 0001:00011AF6
   748 0001:00011BC0   749 0001:00011BC3   750 0001:00011BC5   752 0001:00011BC9
   751 0001:00011BCA   753 0001:00011BD8   754 0001:00011BDD   755 0001:00011BF2
   756 0001:00011BF5   778 0001:00011BFC   779 0001:00011C4E   780 0001:00011C64
   781 0001:00011C7A   782 0001:00011C90   783 0001:00011CA9   784 0001:00011CB3
   785 0001:00011CB9   786 0001:00011CC1   787 0001:00011CC9   788 0001:00011CD3
   790 0001:00011CEA   791 0001:00011D30   795 0001:00011D35   796 0001:00011D6D
   798 0001:00011D72   799 0001:00011D88   800 0001:00011D9B   802 0001:00011DA8
   803 0001:00011DB0   804 0001:00011DB4   805 0001:00011DBE   807 0001:00011DE1
   809 0001:00011E04   810 0001:00011E0C   811 0001:00011E14   812 0001:00011E1E
   814 0001:00011E38   816 0001:00011E60   817 0001:00011E73   819 0001:00011E80
   820 0001:00011E88   821 0001:00011E8C   822 0001:00011E96   824 0001:00011EB9
   826 0001:00011EDC   827 0001:00011EE4   828 0001:00011EE8   829 0001:00011EF2
   831 0001:00011F09   833 0001:00011F2E   835 0001:00011F3F   836 0001:00011F4C
   837 0001:00011F60   858 0001:00011FB8   859 0001:00011FDE   860 0001:00011FF0
   861 0001:00011FF5   863 0001:00012004   864 0001:0001200E   866 0001:00012028
   867 0001:00012032   869 0001:0001204A   859 0001:0001204B   870 0001:0001204E
   871 0001:00012059   878 0001:0001208C   880 0001:000120C4   881 0001:000120C8
   882 0001:000120E0   883 0001:000120F2   885 0001:0001210C   889 0001:00012138
   890 0001:00012149   891 0001:00012150   894 0001:00012172   895 0001:00012183
   897 0001:00012194   900 0001:0001219C   901 0001:000121A2   902 0001:000121AE
   903 0001:000121BA   906 0001:000121C0   907 0001:000121D1   908 0001:000121D8
   911 0001:000121FA   912 0001:0001220B   914 0001:0001221C   917 0001:00012224
   918 0001:0001222A   919 0001:00012236   920 0001:00012242   923 0001:00012248
   924 0001:00012259   925 0001:00012260   928 0001:00012282   929 0001:00012293
   931 0001:000122A4   934 0001:000122AC   935 0001:000122B2   936 0001:000122BE
   937 0001:000122CA   940 0001:000122D0   941 0001:000122E1   942 0001:000122E8
   945 0001:0001230A   946 0001:0001231B   948 0001:0001232C   951 0001:00012334
   952 0001:0001233A   953 0001:00012346   954 0001:00012352   957 0001:00012358
   958 0001:00012369   959 0001:00012370   962 0001:00012392   963 0001:000123A3
   965 0001:000123B4   968 0001:000123BC   969 0001:000123C2   970 0001:000123CE
   971 0001:000123DA

Line numbers for BisCallcBiasFIO(imcallc.bpl\BisCallcBiasFIO.pas) segment .itext

   973 0002:000005F4

Line numbers for BisCallcHbookCaseEditFm(imcallc.bpl\BisCallcHbookCaseEditFm.pas) segment .text

    89 0001:00012E0C    90 0001:00012E1F    91 0001:00012E28    92 0001:00012E30
    93 0001:00012E33    94 0001:00012E57    95 0001:00012E7B    96 0001:00012E9F
    97 0001:00012EB9    98 0001:00012ED3    99 0001:00012EED   100 0001:00012F07
   101 0001:00012F21   102 0001:00012F3B   103 0001:00012F55   104 0001:00012F6F
   105 0001:00012F89   106 0001:00012FA3   107 0001:00012FBD   108 0001:00012FD7
   109 0001:00012FF1   110 0001:0001300B   112 0001:00013025   117 0001:00013400
   118 0001:00013412   119 0001:0001341B   120 0001:00013428   125 0001:00013454
   126 0001:00013466   127 0001:0001346F   128 0001:0001347C   133 0001:000134A8
   134 0001:000134BA   135 0001:000134C3   136 0001:000134D0   141 0001:000134FC
   143 0001:0001351C   144 0001:00013589   145 0001:00013597   146 0001:000135A5
   147 0001:000135B3   152 0001:00013604   154 0001:00013624   155 0001:00013691
   156 0001:0001369F   157 0001:000136AD   158 0001:000136BB   163 0001:0001370C
   165 0001:0001372C   166 0001:00013799   167 0001:000137A7   168 0001:000137B5
   169 0001:000137C3   174 0001:00013814   176 0001:00013834   177 0001:000138A1
   178 0001:000138AF   179 0001:000138BD   180 0001:000138CB   185 0001:0001391C
   187 0001:0001393C   188 0001:000139A9   189 0001:000139B7   190 0001:000139C5
   191 0001:000139D3   194 0001:00013A24   195 0001:00013A28   196 0001:00013A37
   197 0001:00013A46   198 0001:00013A55   199 0001:00013A64   200 0001:00013A73

Line numbers for BisCallcHbookCaseEditFm(imcallc.bpl\BisCallcHbookCaseEditFm.pas) segment .itext

   203 0002:000005FC

Line numbers for BisCallcHbookCasesFm(imcallc.bpl\BisCallcHbookCasesFm.pas) segment .text

    34 0001:00013DC0    35 0001:00013DD3    36 0001:00013DDC    37 0001:00013DE4
    38 0001:00013DF1    39 0001:00013DFC    40 0001:00013E07    41 0001:00013E0E
    42 0001:00013E12    43 0001:00013E22    44 0001:00013E25    45 0001:00013E31
    46 0001:00013E3D    47 0001:00013E49    48 0001:00013E55    49 0001:00013E61
    50 0001:00013E6D    51 0001:00013E79    52 0001:00013E85    53 0001:00013E91
    54 0001:00013E9D    55 0001:00013EA9    56 0001:00013EB5    57 0001:00013EC1
    58 0001:00013ECD    59 0001:00013ED9    60 0001:00013EF3    61 0001:00013F0A
    63 0001:00013F24    64 0001:00013F33    65 0001:00013F42    66 0001:00013F51

Line numbers for BisCallcHbookCasesFm(imcallc.bpl\BisCallcHbookCasesFm.pas) segment .itext

    68 0002:00000604

Line numbers for BisCallcHbookDebtorHistoriesFm(imcallc.bpl\BisCallcHbookDebtorHistoriesFm.pas) segment .text

    55 0001:0001466C    56 0001:00014691    57 0001:00014698    58 0001:000146A9
    59 0001:000146B7    60 0001:000146C1    61 0001:000146D3    62 0001:000146DC
    63 0001:000146E8    64 0001:000146F4    65 0001:00014700    67 0001:0001470D
    68 0001:00014733    69 0001:0001473B    70 0001:0001475B    73 0001:000147B9
    76 0001:000147F1    78 0001:00014801    84 0001:000148E4    85 0001:0001492F
    86 0001:00014933    87 0001:00014944    88 0001:00014955    90 0001:00014963
    91 0001:0001496B    92 0001:0001498B    93 0001:0001499D    94 0001:000149B3
    95 0001:000149B7    97 0001:000149BB    98 0001:000149D2    99 0001:000149E1
   100 0001:000149F4   101 0001:00014A0D   102 0001:00014A28   104 0001:00014A39
   105 0001:00014A4B   106 0001:00014A5B   108 0001:00014A6B   109 0001:00014A7C
   110 0001:00014A9D   111 0001:00014AA3   114 0001:00014AD9   115 0001:00014AE1
   117 0001:00014AF1   125 0001:00014BC4   126 0001:00014BFD   127 0001:00014C0E
   128 0001:00014C1C   129 0001:00014C2E   130 0001:00014C40   131 0001:00014C5E
   129 0001:00014C5F   132 0001:00014C62   133 0001:00014C7F   134 0001:00014C87
   135 0001:00014C9F   136 0001:00014CB1   137 0001:00014CD6   138 0001:00014CF3
   140 0001:00014D00   135 0001:00014D01   143 0001:00014D11   145 0001:00014D21
   152 0001:00014D90   153 0001:00014DAC   154 0001:00014DD6   155 0001:00014DED
   156 0001:00014DFE   157 0001:00014E0C   158 0001:00014E1E   159 0001:00014E2A
   160 0001:00014E61   161 0001:00014E69   163 0001:00014E7E   167 0001:00014E8E
   172 0001:00014F34   173 0001:00014F46   174 0001:00014F4F   176 0001:00014F57
   179 0001:00014F74   180 0001:00014F8B   181 0001:00014F94   182 0001:00014FB7
   183 0001:00014FDC   184 0001:00014FE9   185 0001:00014FF6   186 0001:00015003
   187 0001:00015010   188 0001:0001501D   189 0001:0001502A   190 0001:00015037
   193 0001:00015044   198 0001:00015068   199 0001:0001507A   200 0001:00015083
   201 0001:0001508E   203 0001:000150A6

Line numbers for BisCallcHbookDebtorHistoriesFm(imcallc.bpl\BisCallcHbookDebtorHistoriesFm.pas) segment .itext

   205 0002:0000060C

Line numbers for BisCallcHbookDebtorEditFm(imcallc.bpl\BisCallcHbookDebtorEditFm.pas) segment .text

   104 0001:00015C28   105 0001:00015C2E   106 0001:00015C35   107 0001:00015C3E
   108 0001:00015C4D   110 0001:00015C59   113 0001:00015C90   114 0001:00015C96
   115 0001:00015C9D   116 0001:00015CA6   117 0001:00015CB5   119 0001:00015CC1
   124 0001:00015CE4   125 0001:00015CF7   126 0001:00015D00   127 0001:00015D08
   128 0001:00015D0B   129 0001:00015D23   130 0001:00015D3B   131 0001:00015D55
   132 0001:00015D6F   133 0001:00015D89   134 0001:00015DA1   135 0001:00015DB9
   136 0001:00015DD3   137 0001:00015DEB   138 0001:00015E05   139 0001:00015E1F
   140 0001:00015E39   141 0001:00015E53   142 0001:00015E6D   143 0001:00015E87
   144 0001:00015EA1   145 0001:00015EBB   146 0001:00015ED5   147 0001:00015EEF
   148 0001:00015F09   149 0001:00015F23   150 0001:00015F3D   151 0001:00015F57
   152 0001:00015F71   154 0001:00015F89   159 0001:00016690   160 0001:000166A2
   161 0001:000166AB   162 0001:000166B8   167 0001:000166E8   168 0001:000166FA
   169 0001:00016703   170 0001:00016710   175 0001:00016740   176 0001:00016752
   177 0001:0001675B   178 0001:00016768   183 0001:00016798   184 0001:000167C3
   186 0001:000167CC   187 0001:000167DA   188 0001:000167F8   190 0001:00016819
   191 0001:00016827   192 0001:00016845   193 0001:00016866   196 0001:000168A8
   197 0001:000168CB   198 0001:000168D4   199 0001:000168E9   200 0001:0001690A
   201 0001:00016922   203 0001:00016971   211 0001:000169B4   212 0001:000169D5
   213 0001:000169DD   214 0001:000169F8   215 0001:00016A21   216 0001:00016A30
   217 0001:00016A3E   218 0001:00016A5B   219 0001:00016A7C   217 0001:00016A7D
   220 0001:00016A82   221 0001:00016A97   222 0001:00016AAE   223 0001:00016AD4
   224 0001:00016AEE   225 0001:00016AF0   226 0001:00016B01   227 0001:00016B07
   228 0001:00016B18   229 0001:00016B1E   230 0001:00016B2F   231 0001:00016B35
   232 0001:00016B46   234 0001:00016B4C   235 0001:00016B50   236 0001:00016B5D
   237 0001:00016B68   238 0001:00016B7B   242 0001:00016B7E   221 0001:00016B7F
   244 0001:00016B95   247 0001:00016BA5   255 0001:00016BE8   256 0001:00016C0D
   258 0001:00016C22   259 0001:00016C25   260 0001:00016C4A   261 0001:00016C62
   262 0001:00016C82   265 0001:00016C8C

Line numbers for BisCallcHbookDebtorEditFm(imcallc.bpl\BisCallcHbookDebtorEditFm.pas) segment .itext

   268 0002:00000614

Line numbers for BisCallcHbookDebtorsFm(imcallc.bpl\BisCallcHbookDebtorsFm.pas) segment .text

    38 0001:00017040    39 0001:00017053    40 0001:0001705C    41 0001:00017064
    42 0001:00017071    43 0001:0001707C    44 0001:00017087    45 0001:0001708E
    46 0001:00017092    47 0001:00017099    48 0001:000170A9    49 0001:000170AC
    50 0001:000170B8    51 0001:000170C4    52 0001:000170D0    53 0001:000170DC
    54 0001:000170E8    55 0001:000170F4    56 0001:00017100    57 0001:0001710C
    58 0001:00017118    59 0001:00017124    60 0001:00017130    61 0001:0001713C
    62 0001:00017148    63 0001:00017154    64 0001:00017160    65 0001:0001716C
    66 0001:00017178    67 0001:00017184    68 0001:00017190    69 0001:0001719C
    70 0001:000171A8    71 0001:000171C2    72 0001:000171D8    73 0001:000171EB
    74 0001:00017201    75 0001:00017214    77 0001:00017231    78 0001:00017240
    79 0001:0001724F    80 0001:0001725E    81 0001:0001726D    86 0001:00017544
    87 0001:00017560    88 0001:00017567    89 0001:00017580    90 0001:00017591
    91 0001:0001759B    96 0001:000175E4    97 0001:00017600    98 0001:00017607
    99 0001:00017620   100 0001:00017631   101 0001:0001763B

Line numbers for BisCallcHbookDebtorsFm(imcallc.bpl\BisCallcHbookDebtorsFm.pas) segment .itext

   103 0002:0000061C

Line numbers for BisCallcHbookPlanEditFm(imcallc.bpl\BisCallcHbookPlanEditFm.pas) segment .text

    52 0001:00017DF4    53 0001:00017E0B    54 0001:00017E14    55 0001:00017E1C
    56 0001:00017E1F    57 0001:00017E37    58 0001:00017E51    60 0001:00017E69
    65 0001:00017F2C    66 0001:00017F3E    67 0001:00017F47    68 0001:00017F54
    73 0001:00017F80    74 0001:00017F92    75 0001:00017F9B    76 0001:00017FA8
    81 0001:00017FD4    82 0001:00017FE6    83 0001:00017FEF    84 0001:00017FFC

Line numbers for BisCallcHbookPlanEditFm(imcallc.bpl\BisCallcHbookPlanEditFm.pas) segment .itext

    86 0002:00000624

Line numbers for BisCallcHbookPlansFm(imcallc.bpl\BisCallcHbookPlansFm.pas) segment .text

    35 0001:00018370    36 0001:00018387    37 0001:00018390    38 0001:00018398
    39 0001:000183A5    40 0001:000183B0    41 0001:000183BB    42 0001:000183C2
    43 0001:000183C6    44 0001:000183D6    45 0001:000183D9    46 0001:000183E5
    47 0001:000183FB    49 0001:00018411    50 0001:00018420

Line numbers for BisCallcHbookPlansFm(imcallc.bpl\BisCallcHbookPlansFm.pas) segment .itext

    52 0002:0000062C

Line numbers for BisCallcHbookDealEditFm(imcallc.bpl\BisCallcHbookDealEditFm.pas) segment .text

    84 0001:00018E8C    85 0001:00018E9F    86 0001:00018EA8    87 0001:00018EB0
    88 0001:00018EB3    89 0001:00018ECB    90 0001:00018EE5    92 0001:00018F16
    93 0001:00018F2E    95 0001:00018F5F    97 0001:00018F90    98 0001:00018FAA
    99 0001:00018FC2   101 0001:00018FF3   102 0001:0001900D   103 0001:00019025
   104 0001:0001903D   105 0001:00019055   106 0001:0001906D   108 0001:00019085
   113 0001:00019590   114 0001:000195A2   115 0001:000195AB   116 0001:000195B8
   121 0001:000195E4   122 0001:000195F6   123 0001:000195FF   124 0001:0001960C
   129 0001:00019638   130 0001:0001964A   131 0001:00019653   132 0001:00019660
   137 0001:0001968C   138 0001:0001969E   139 0001:000196A7   140 0001:000196BE
   143 0001:000196D8   144 0001:000196DB   145 0001:000196E2   146 0001:000196EB
   147 0001:000196F8   149 0001:00019708

Line numbers for BisCallcHbookDealEditFm(imcallc.bpl\BisCallcHbookDealEditFm.pas) segment .itext

   152 0002:00000634

Line numbers for BisCallcHbookDealsFm(imcallc.bpl\BisCallcHbookDealsFm.pas) segment .text

    34 0001:00019A54    35 0001:00019A67    36 0001:00019A70    37 0001:00019A78
    38 0001:00019A85    39 0001:00019A90    40 0001:00019A9B    41 0001:00019AA2
    42 0001:00019AA6    43 0001:00019AAD    44 0001:00019ABD    45 0001:00019AC0
    46 0001:00019ACC    47 0001:00019AD8    48 0001:00019AE4    49 0001:00019AF0
    50 0001:00019AFC    51 0001:00019B08    52 0001:00019B14    53 0001:00019B20
    54 0001:00019B2C    55 0001:00019B38    56 0001:00019B44    57 0001:00019B50
    58 0001:00019B5C    59 0001:00019B68    60 0001:00019B7B    61 0001:00019B8E
    62 0001:00019BA4    63 0001:00019BB7    65 0001:00019BD7    66 0001:00019BE6

Line numbers for BisCallcHbookDealsFm(imcallc.bpl\BisCallcHbookDealsFm.pas) segment .itext

    68 0002:0000063C

Line numbers for BisCallcHbookPaymentEditFm(imcallc.bpl\BisCallcHbookPaymentEditFm.pas) segment .text

    82 0001:0001A6CC    83 0001:0001A6D2    84 0001:0001A6D9    85 0001:0001A6E2
    86 0001:0001A6F1    88 0001:0001A6FD    93 0001:0001A728    94 0001:0001A75D
    95 0001:0001A769    96 0001:0001A771    97 0001:0001A774    98 0001:0001A78C
    99 0001:0001A7B3   101 0001:0001A7E1   102 0001:0001A7F9   103 0001:0001A811
   104 0001:0001A829   105 0001:0001A841   108 0001:0001A884   111 0001:0001AAE0
   112 0001:0001AAE3   113 0001:0001AAEA   118 0001:0001AAEC   124 0001:0001AAF0
   125 0001:0001AB02   126 0001:0001AB0B   127 0001:0001AB18   132 0001:0001AB48
   133 0001:0001AB5A   134 0001:0001AB63   135 0001:0001AB70   140 0001:0001ABA0
   141 0001:0001ABB2   142 0001:0001ABBB   143 0001:0001ABC8   148 0001:0001ABF8
   149 0001:0001AC23   150 0001:0001AC2C   151 0001:0001AC3A   152 0001:0001AC58
   153 0001:0001AC79   155 0001:0001AC89   156 0001:0001AC9E   157 0001:0001ACB3
   159 0001:0001ACBA   160 0001:0001ACD6   161 0001:0001ACF2   167 0001:0001AD40
   168 0001:0001AD77   169 0001:0001AD88   170 0001:0001AD96   171 0001:0001ADA8
   172 0001:0001ADB1   173 0001:0001ADC7   174 0001:0001ADD5   175 0001:0001ADE3
   177 0001:0001ADF1   178 0001:0001ADF9   179 0001:0001AE05   180 0001:0001AE2A
   181 0001:0001AE50   184 0001:0001AE83   186 0001:0001AE93   191 0001:0001AF3C
   192 0001:0001AF5E   193 0001:0001AF75   194 0001:0001AFD3   197 0001:0001B014
   198 0001:0001B036   199 0001:0001B09D   205 0001:0001B0DC   206 0001:0001B100
   207 0001:0001B109   208 0001:0001B12D   209 0001:0001B134   210 0001:0001B153
   211 0001:0001B168   212 0001:0001B17D   213 0001:0001B18B   214 0001:0001B18F
   215 0001:0001B1B5   218 0001:0001B1BC   219 0001:0001B1CD   220 0001:0001B1D6
   222 0001:0001B1F5   223 0001:0001B21B   225 0001:0001B222   228 0001:0001B274
   229 0001:0001B295   230 0001:0001B2A1   231 0001:0001B2C4   232 0001:0001B2F4
   233 0001:0001B324   234 0001:0001B32D   236 0001:0001B357   237 0001:0001B35E

Line numbers for BisCallcHbookPaymentEditFm(imcallc.bpl\BisCallcHbookPaymentEditFm.pas) segment .itext

   239 0002:00000644

Line numbers for BisCallcHbookPaymentsFm(imcallc.bpl\BisCallcHbookPaymentsFm.pas) segment .text

    43 0001:0001B7C0    44 0001:0001B7D7    45 0001:0001B7E0    46 0001:0001B7E8
    47 0001:0001B7F5    48 0001:0001B800    49 0001:0001B80B    50 0001:0001B812
    51 0001:0001B816    52 0001:0001B826    53 0001:0001B829    54 0001:0001B835
    55 0001:0001B841    56 0001:0001B84D    57 0001:0001B859    58 0001:0001B865
    59 0001:0001B871    60 0001:0001B884    61 0001:0001B897    62 0001:0001B8B7
    63 0001:0001B8CA    65 0001:0001B8E7    66 0001:0001B8F6    72 0001:0001BA60
    73 0001:0001BA7C    74 0001:0001BA83    75 0001:0001BA9C    76 0001:0001BAAD
    77 0001:0001BAB7    82 0001:0001BAF4    83 0001:0001BB06    84 0001:0001BB0F
    85 0001:0001BB1A    87 0001:0001BB32

Line numbers for BisCallcHbookPaymentsFm(imcallc.bpl\BisCallcHbookPaymentsFm.pas) segment .itext

    89 0002:0000064C

Line numbers for BisCallcHbookTaskEditFm(imcallc.bpl\BisCallcHbookTaskEditFm.pas) segment .text

    79 0001:0001C4B4    80 0001:0001C4DC    81 0001:0001C4E5    82 0001:0001C4ED
    83 0001:0001C4F0    84 0001:0001C508    86 0001:0001C536    88 0001:0001C567
    89 0001:0001C584    90 0001:0001C5A1    92 0001:0001C5DA    94 0001:0001C619
    95 0001:0001C636    97 0001:0001C667    99 0001:0001C67F   104 0001:0001CA98
   105 0001:0001CAAA   106 0001:0001CAB3   107 0001:0001CAC0   112 0001:0001CAEC
   113 0001:0001CAFE   114 0001:0001CB07   115 0001:0001CB14   120 0001:0001CB40
   121 0001:0001CB52   122 0001:0001CB5B   123 0001:0001CB68   128 0001:0001CB94
   129 0001:0001CBA6   130 0001:0001CBAF   133 0001:0001CBCC   134 0001:0001CBED
   135 0001:0001CBF4   136 0001:0001CBFF   137 0001:0001CC0B   138 0001:0001CC2E
   139 0001:0001CC4C   142 0001:0001CC6A   143 0001:0001CC75   144 0001:0001CC82
   145 0001:0001CC92   146 0001:0001CC9F   148 0001:0001CCAF

Line numbers for BisCallcHbookTaskEditFm(imcallc.bpl\BisCallcHbookTaskEditFm.pas) segment .itext

   151 0002:00000654

Line numbers for BisCallcHbookTasksFm(imcallc.bpl\BisCallcHbookTasksFm.pas) segment .text

    39 0001:0001D0D4    40 0001:0001D0E7    41 0001:0001D0F0    42 0001:0001D0F8
    43 0001:0001D105    44 0001:0001D110    45 0001:0001D11B    46 0001:0001D122
    47 0001:0001D126    48 0001:0001D12D    49 0001:0001D13D    50 0001:0001D140
    51 0001:0001D14C    52 0001:0001D158    53 0001:0001D164    54 0001:0001D170
    55 0001:0001D17C    56 0001:0001D188    57 0001:0001D194    58 0001:0001D1A0
    59 0001:0001D1AC    60 0001:0001D1BF    61 0001:0001D1D2    62 0001:0001D1E5
    63 0001:0001D1F8    64 0001:0001D20B    66 0001:0001D221    67 0001:0001D230
    68 0001:0001D23F    69 0001:0001D24E    70 0001:0001D25D    75 0001:0001D438
    76 0001:0001D44A    77 0001:0001D453    78 0001:0001D45E    80 0001:0001D476

Line numbers for BisCallcHbookTasksFm(imcallc.bpl\BisCallcHbookTasksFm.pas) segment .itext

    82 0002:0000065C

Line numbers for BisCallcHbookTaskDocumentEditFm(imcallc.bpl\BisCallcHbookTaskDocumentEditFm.pas) segment .text

    83 0001:0001DEB0    84 0001:0001DEB6    85 0001:0001DEBD    86 0001:0001DEE2
    87 0001:0001DEF1    88 0001:0001DF00    89 0001:0001DF0F    90 0001:0001DF1E
    92 0001:0001DF2A    97 0001:0001DF8C    98 0001:0001DFA4    99 0001:0001DFAD
   100 0001:0001DFB5   101 0001:0001DFB8   102 0001:0001DFC8   103 0001:0001DFD4
   105 0001:0001DFDE   107 0001:0001E00F   108 0001:0001E027   109 0001:0001E039
   110 0001:0001E053   111 0001:0001E06D   112 0001:0001E08A   114 0001:0001E0A2
   120 0001:0001E320   121 0001:0001E344   122 0001:0001E357   123 0001:0001E365
   124 0001:0001E36D   125 0001:0001E37E   126 0001:0001E38C   127 0001:0001E39E
   128 0001:0001E3B1   129 0001:0001E3DE   130 0001:0001E3E6   131 0001:0001E3FE
   134 0001:0001E435   138 0001:0001E445   143 0001:0001E4E0   144 0001:0001E4F2
   145 0001:0001E4FB   146 0001:0001E508   151 0001:0001E53C   152 0001:0001E54E
   153 0001:0001E557   154 0001:0001E564   159 0001:0001E598   160 0001:0001E5AA
   161 0001:0001E5B3   162 0001:0001E5C0   171 0001:0001E5F4   172 0001:0001E621
   174 0001:0001E62A   175 0001:0001E63A   176 0001:0001E648   177 0001:0001E64A
   178 0001:0001E650   179 0001:0001E654   180 0001:0001E65B   181 0001:0001E65F
   182 0001:0001E66A   183 0001:0001E688   181 0001:0001E689   184 0001:0001E68C
   187 0001:0001E6CC   188 0001:0001E6E6   189 0001:0001E713   190 0001:0001E71A
   195 0001:0001E754   196 0001:0001E778   197 0001:0001E781   198 0001:0001E796
   199 0001:0001E79F   200 0001:0001E7E5   201 0001:0001E7F2   202 0001:0001E802
   204 0001:0001E81A   209 0001:0001E88C   210 0001:0001E8AA   211 0001:0001E8C2
   212 0001:0001E8CA   213 0001:0001E8E2   214 0001:0001E8ED   215 0001:0001E905
   216 0001:0001E939   217 0001:0001E960   220 0001:0001E967   225 0001:0001E9C4
   226 0001:0001E9DF   227 0001:0001E9F7   228 0001:0001E9FB   229 0001:0001EA13
   230 0001:0001EA47   231 0001:0001EA56   233 0001:0001EA6E   238 0001:0001EAB4
   239 0001:0001EAB7   240 0001:0001EACD   241 0001:0001EAD1   242 0001:0001EAD6
   244 0001:0001EADD   247 0001:0001EAF4   248 0001:0001EB16   249 0001:0001EB27
   250 0001:0001EB5D   251 0001:0001EB6B   253 0001:0001EB6F   254 0001:0001EB7A

Line numbers for BisCallcHbookTaskDocumentEditFm(imcallc.bpl\BisCallcHbookTaskDocumentEditFm.pas) segment .itext

   256 0002:00000664

Line numbers for BisCallcHbookTaskDocumentsFm(imcallc.bpl\BisCallcHbookTaskDocumentsFm.pas) segment .text

    41 0001:0001EFA4    42 0001:0001EFBB    43 0001:0001EFC4    44 0001:0001EFCC
    45 0001:0001EFD9    46 0001:0001EFE4    47 0001:0001EFEF    48 0001:0001EFF6
    49 0001:0001EFFA    50 0001:0001F00A    51 0001:0001F00D    52 0001:0001F019
    53 0001:0001F025    54 0001:0001F031    55 0001:0001F03D    56 0001:0001F049
    57 0001:0001F05F    58 0001:0001F075    59 0001:0001F088    61 0001:0001F0A5
    62 0001:0001F0B4    63 0001:0001F0C3    68 0001:0001F21C    69 0001:0001F238
    70 0001:0001F23F    71 0001:0001F258    72 0001:0001F269    73 0001:0001F273
    78 0001:0001F2C0    79 0001:0001F2D2    80 0001:0001F2DB    81 0001:0001F2E6
    83 0001:0001F2FE

Line numbers for BisCallcHbookTaskDocumentsFm(imcallc.bpl\BisCallcHbookTaskDocumentsFm.pas) segment .itext

    85 0002:0000066C

Line numbers for BisCallcTaskFrm(imcallc.bpl\BisCallcTaskFrm.pas) segment .text

    57 0001:0001F58C    58 0001:0001F5B7    59 0001:0001F5C0    60 0001:0001F5D6
    63 0001:0001F610    64 0001:0001F613    65 0001:0001F620    71 0001:0001F624
    72 0001:0001F686    73 0001:0001F697    74 0001:0001F6A5    75 0001:0001F6B7
    76 0001:0001F6C0    77 0001:0001F6D9    78 0001:0001F70B    79 0001:0001F721
    80 0001:0001F737    81 0001:0001F77C    82 0001:0001F7A5    84 0001:0001F7BB
    85 0001:0001F7C3    86 0001:0001F7D0    88 0001:0001F7F9    90 0001:0001F809
    94 0001:0001F90C    98 0001:0001F910   101 0001:0001F914   102 0001:0001F91A
   103 0001:0001F927   107 0001:0001F92C   108 0001:0001F92E

Line numbers for BisCallcTaskFrm(imcallc.bpl\BisCallcTaskFrm.pas) segment .itext

   111 0002:00000674

Line numbers for BisCallcReadinessFm(imcallc.bpl\BisCallcReadinessFm.pas) segment .itext

    27 0002:0000067C

Line numbers for BisCallcTaskExecuteInfoFm(imcallc.bpl\BisCallcTaskExecuteInfoFm.pas) segment .text

    37 0001:0001FE2C    38 0001:0001FE2F    39 0001:0001FE3F    40 0001:0001FE4F
    41 0001:0001FE5F    42 0001:0001FE6F

Line numbers for BisCallcTaskExecuteInfoFm(imcallc.bpl\BisCallcTaskExecuteInfoFm.pas) segment .itext

    44 0002:00000684

Line numbers for BisCallcTaskFm(imcallc.bpl\BisCallcTaskFm.pas) segment .text

   147 0001:00020598   148 0001:000205CB   149 0001:000205D4   150 0001:000205E7
   151 0001:000205FD   154 0001:00020644   155 0001:00020665   156 0001:0002066E
   157 0001:0002067D   158 0001:0002068D   159 0001:000206D9   160 0001:000206ED
   162 0001:00020704   166 0001:00020734   167 0001:00020739   170 0001:0002073C
   171 0001:0002073F   172 0001:00020746   177 0001:00020748   178 0001:0002077D
   179 0001:00020786   180 0001:0002079C   181 0001:000207B2   182 0001:000207C8
   184 0001:000207E4   185 0001:000207FD   186 0001:0002080A   187 0001:00020817
   189 0001:0002082D   190 0001:0002083D   191 0001:0002084D   193 0001:0002085D
   194 0001:00020880   196 0001:000208A3   197 0001:000208AC   200 0001:000208FC
   201 0001:00020908   202 0001:00020917   203 0001:00020928   205 0001:0002092F
   206 0001:00020940   207 0001:0002094B   208 0001:00020957   212 0001:00020968
   213 0001:0002096D   216 0001:00020970   217 0001:00020973   218 0001:0002097A
   219 0001:00020988   222 0001:0002098C   223 0001:0002098F   224 0001:00020996
   225 0001:000209A9   226 0001:000209B0   231 0001:000209B4   232 0001:000209BA
   233 0001:000209CB   234 0001:000209D9   236 0001:000209F6   238 0001:00020A06
   241 0001:00020A10   242 0001:00020A13   243 0001:00020A20   249 0001:00020A24
   250 0001:00020A46   251 0001:00020A57   252 0001:00020A65   253 0001:00020A74
   254 0001:00020A86   255 0001:00020A8F   256 0001:00020AC1   257 0001:00020AE9
   258 0001:00020B02   260 0001:00020B12   261 0001:00020B1A   262 0001:00020B30
   263 0001:00020B4A   265 0001:00020B64   266 0001:00020B76   267 0001:00020B7F
   268 0001:00020BB1   270 0001:00020BCA   273 0001:00020BDF   275 0001:00020BEF
   280 0001:00020CA8   281 0001:00020CC3   282 0001:00020CD2   283 0001:00020CE3
   284 0001:00020CF1   285 0001:00020D03   286 0001:00020D23   287 0001:00020D2B
   289 0001:00020D4E   292 0001:00020D5E   298 0001:00020DA4   299 0001:00020DC6
   300 0001:00020DD7   301 0001:00020DEA   302 0001:00020DFB   303 0001:00020E09
   304 0001:00020E1B   305 0001:00020E24   306 0001:00020E30   307 0001:00020E3C
   308 0001:00020E48   309 0001:00020E54   310 0001:00020E60   311 0001:00020E6C
   312 0001:00020E78   314 0001:00020E84   315 0001:00020E96   316 0001:00020EAC
   318 0001:00020ECF   319 0001:00020EE4   320 0001:00020EEC   322 0001:00020F11
   323 0001:00020F1F   324 0001:00020F3F   325 0001:00020F5F   326 0001:00020F7F
   327 0001:00020F94   328 0001:00020FA9   329 0001:00020FBE   330 0001:00020FD3
   331 0001:00020FFE   321 0001:00021006   335 0001:00021023   338 0001:00021033
   352 0001:00021274   353 0001:00021295   354 0001:00021299   355 0001:000212C1
   356 0001:000212E4   358 0001:000212EE   360 0001:000212F2   361 0001:0002130F
   362 0001:00021320   363 0001:00021331   364 0001:0002133F   365 0001:00021351
   366 0001:0002135A   367 0001:0002138C   368 0001:000213AE   369 0001:000213C7
   370 0001:000213F2   371 0001:0002142C   373 0001:0002143A   375 0001:00021442
   376 0001:0002147C   377 0001:00021490   378 0001:000214D0   380 0001:00021515
   382 0001:00021532   383 0001:0002153A   387 0001:0002154A   389 0001:00021554
   390 0001:0002155C   391 0001:00021569   392 0001:0002156D   393 0001:0002157E
   394 0001:0002158F   395 0001:0002159D   396 0001:000215AE   397 0001:000215C6
   398 0001:000215DB   402 0001:000215F5   403 0001:000215FD   407 0001:0002160D
   408 0001:0002162D   409 0001:0002163A   410 0001:0002163E   411 0001:00021662
   412 0001:0002167F   413 0001:0002168B   414 0001:0002169C   415 0001:000216AA
   416 0001:000216BA   417 0001:000216CB   418 0001:000216E3   419 0001:000216F8
   423 0001:00021712   424 0001:0002171A   429 0001:0002172A   430 0001:00021734
   431 0001:00021779   436 0001:000217C1   439 0001:0002191C   440 0001:0002193D
   441 0001:00021953   442 0001:00021969   443 0001:0002197F   444 0001:00021995
   445 0001:000219A6   446 0001:000219B3   447 0001:000219C0   448 0001:000219CD
   449 0001:000219DB   450 0001:000219EC   451 0001:00021A08   452 0001:00021A14
   453 0001:00021A30   454 0001:00021A3B   455 0001:00021A56   460 0001:00021A84
   461 0001:00021AA5   462 0001:00021AB4   463 0001:00021AC5   464 0001:00021AD3
   465 0001:00021AE5   466 0001:00021AEE   467 0001:00021AFA   468 0001:00021B06
   469 0001:00021B12   470 0001:00021B1E   471 0001:00021B2A   472 0001:00021B36
   474 0001:00021B42   475 0001:00021B68   476 0001:00021B70   477 0001:00021B7C
   479 0001:00021B9E   480 0001:00021BBE   481 0001:00021BE1   482 0001:00021C04
   483 0001:00021C27   484 0001:00021C7D   485 0001:00021CA0   486 0001:00021CC9
   487 0001:00021CEB   488 0001:00021D02   489 0001:00021D68   492 0001:00021D8B
   495 0001:00021D9B   498 0001:00021F8C   499 0001:00021F8F   500 0001:00021F98
   501 0001:00021F9F   502 0001:00021FA6   503 0001:00021FAD   504 0001:00021FB4
   505 0001:00021FBB   506 0001:00021FC2   507 0001:00021FD2   508 0001:00021FF5
   509 0001:00022018   510 0001:00022021   511 0001:00022031   512 0001:0002203F
   515 0001:00022044   516 0001:0002204E   517 0001:00022057   518 0001:0002205F
   519 0001:00022065   520 0001:0002207C   522 0001:00022083   523 0001:0002208A
   524 0001:00022091   525 0001:000220A2   526 0001:000220C5   527 0001:000220E8
   529 0001:000220F3   530 0001:00022104   531 0001:00022111   534 0001:00022118
   535 0001:0002213B   536 0001:00022148   537 0001:00022155   539 0001:0002219B
   540 0001:000221A8   541 0001:000221B5   543 0001:000221FB   544 0001:00022208
   545 0001:00022215   547 0001:00022261   548 0001:0002226E   549 0001:0002227B
   550 0001:000222D3   552 0001:000222E0   553 0001:000222ED   554 0001:000222FA
   556 0001:00022352   557 0001:0002235F   558 0001:0002236C   559 0001:000223C4
   560 0001:000223D1   562 0001:00022429   564 0001:00022436   565 0001:00022443
   569 0001:00022474   570 0001:0002247C   574 0001:00022480   575 0001:00022486
   576 0001:00022492   583 0001:00022494   584 0001:000224BD   585 0001:000224CA
   586 0001:000224EB   587 0001:000224F7   588 0001:0002250F   589 0001:00022516
   590 0001:0002251C   592 0001:00022524   593 0001:0002252E   595 0001:00022570
   597 0001:000225BA   600 0001:0002261C   601 0001:0002263F   602 0001:0002264C
   604 0001:00022659   605 0001:00022669   606 0001:000226B0   608 0001:000226C5
   609 0001:000226CC   614 0001:000226FC   616 0001:000226FF   619 0001:00022700
   620 0001:00022707   621 0001:00022717   622 0001:00022725   624 0001:0002273A
   626 0001:00022752   629 0001:00022758   630 0001:0002277B   631 0001:00022788
   632 0001:00022795   633 0001:000227DB   634 0001:000227E8   635 0001:0002282E
   641 0001:0002285C   642 0001:00022860   643 0001:00022870   644 0001:00022879
   645 0001:0002288E   646 0001:000228C0   647 0001:000228C6   648 0001:000228E3
   649 0001:00022906   651 0001:00022913   653 0001:0002291C   654 0001:00022923
   657 0001:00022928   658 0001:0002292C   659 0001:00022949   660 0001:0002295C
   661 0001:0002296A   665 0001:00022970   666 0001:00022975   669 0001:00022978
   670 0001:0002297B   671 0001:00022982   672 0001:00022988   673 0001:0002298F
   678 0001:00022994   679 0001:000229B0   680 0001:000229C1   681 0001:000229CF
   682 0001:000229E9   683 0001:00022A14   684 0001:00022A24   685 0001:00022A34
   686 0001:00022A53   687 0001:00022A7F   688 0001:00022A8D   691 0001:00022AC5
   693 0001:00022AD5   696 0001:00022B1C   697 0001:00022B1F   698 0001:00022B31
   699 0001:00022B35   700 0001:00022B43   703 0001:00022B48   704 0001:00022B4B
   705 0001:00022B6F   706 0001:00022B7D   707 0001:00022B86   708 0001:00022B8F
   709 0001:00022B98   710 0001:00022BA5   711 0001:00022BB3   712 0001:00022BBE
   714 0001:00022BC7   715 0001:00022BD0   716 0001:00022BDC   719 0001:00022BE5
   721 0001:00022BEE   722 0001:00022BF7   723 0001:00022C03   725 0001:00022C0A

Line numbers for BisCallcTaskFm(imcallc.bpl\BisCallcTaskFm.pas) segment .itext

   728 0002:0000068C

Line numbers for Qos(Qos.pas) segment .text

   120 0001:00000000

Line numbers for Tapi(omtapi.bpl\TAPI\Std\tapi.pas) segment .text

  5734 0001:00000000

Line numbers for BisCallcDealFrameTasksFrm(imcallc.bpl\BisCallcDealFrameTasksFrm.pas) segment .text

    41 0001:000231C4    42 0001:000231DC    43 0001:000231E5    44 0001:000231F0
    45 0001:000231FB    46 0001:00023208    47 0001:00023215    48 0001:00023222
    49 0001:0002322F    50 0001:0002323C    51 0001:00023249    52 0001:00023256
    53 0001:0002325C    54 0001:0002326C    55 0001:00023272    56 0001:0002327E
    57 0001:0002328A    58 0001:00023296    59 0001:000232A2    60 0001:000232AE
    61 0001:000232BA    62 0001:000232C6    63 0001:000232D2    64 0001:000232DE
    65 0001:000232EA    66 0001:000232F6    67 0001:00023309    68 0001:0002331C
    69 0001:00023332    71 0001:00023348    73 0001:0002335A    74 0001:00023361
    77 0001:00023514    78 0001:0002351F    79 0001:0002352B    84 0001:0002353C
    85 0001:0002354E    86 0001:00023557    87 0001:00023564    92 0001:000235A0
    93 0001:000235B2    94 0001:000235BB    95 0001:000235C8

Line numbers for BisCallcDealFrameTasksFrm(imcallc.bpl\BisCallcDealFrameTasksFrm.pas) segment .itext

    98 0002:0000069C

Line numbers for BisCallcDealFramePaymentsFrm(imcallc.bpl\BisCallcDealFramePaymentsFrm.pas) segment .text

    60 0001:00023F4C    61 0001:00023F64    62 0001:00023F6D    63 0001:00023F7A
    64 0001:00023F85    65 0001:00023F90    66 0001:00023F9B    67 0001:00023FA8
    68 0001:00023FB5    69 0001:00023FC2    70 0001:00023FCF    71 0001:00023FD5
    72 0001:00023FE5    73 0001:00023FEB    74 0001:00023FF7    75 0001:00024003
    76 0001:0002400F    77 0001:0002401B    78 0001:00024027    79 0001:0002403A
    80 0001:0002404D    81 0001:0002406D    82 0001:00024080    83 0001:00024096
    85 0001:000240B3    87 0001:000240C5    88 0001:000240CC    91 0001:00024244
    92 0001:0002424F    93 0001:0002425B    98 0001:0002426C    99 0001:00024288
   100 0001:0002428F   101 0001:000242A8   102 0001:000242B9   103 0001:000242C3
   106 0001:00024300   107 0001:0002431C   108 0001:00024325   110 0001:00024329
   111 0001:00024343   113 0001:00024368   115 0001:00024380   121 0001:000243CC
   122 0001:000243DE   123 0001:000243E7   124 0001:00024400   125 0001:00024419
   130 0001:0002445C   131 0001:0002446E   132 0001:00024477   133 0001:00024484
   134 0001:00024491   139 0001:000244D8   140 0001:000244EA   141 0001:000244F3
   142 0001:00024500   143 0001:0002450D   148 0001:00024554   149 0001:00024566
   150 0001:0002456F   151 0001:0002457C   152 0001:00024589   157 0001:000245D0
   158 0001:000245E2   159 0001:000245EB   160 0001:000245F8

Line numbers for BisCallcDealFramePaymentsFrm(imcallc.bpl\BisCallcDealFramePaymentsFrm.pas) segment .itext

   162 0002:000006A4

Line numbers for BisCallcDealFrameDocumentsFrm(imcallc.bpl\BisCallcDealFrameDocumentsFrm.pas) segment .text

    65 0001:00024FA8    66 0001:00024FC0    67 0001:00024FC9    68 0001:00024FD6
    69 0001:00024FE1    70 0001:00024FEC    71 0001:00024FF7    72 0001:00025004
    73 0001:00025011    74 0001:0002501E    75 0001:0002502B    76 0001:00025031
    77 0001:00025041    78 0001:00025047    79 0001:00025053    80 0001:0002505F
    81 0001:0002506B    82 0001:00025077    83 0001:00025083    84 0001:000250A0
    85 0001:000250B3    86 0001:000250C9    88 0001:000250DF    90 0001:000250F1
    91 0001:000250F8    96 0001:00025254    97 0001:00025270    98 0001:00025277
    99 0001:00025290   100 0001:000252A1   101 0001:000252AB   104 0001:000252F8
   105 0001:00025318   106 0001:00025321   108 0001:00025329   109 0001:00025343
   112 0001:00025368   113 0001:00025379   114 0001:0002538A   117 0001:000253B9
   123 0001:00025454   124 0001:00025466   125 0001:0002546F   126 0001:00025488
   131 0001:000254B8   132 0001:000254CA   133 0001:000254D3   134 0001:000254E0
   135 0001:000254ED   140 0001:0002553C   141 0001:0002554E   142 0001:00025557
   143 0001:00025564   144 0001:00025571   149 0001:000255C0   150 0001:000255D2
   151 0001:000255DB   152 0001:000255E8   153 0001:000255F5   158 0001:00025644
   159 0001:00025656   160 0001:0002565F   161 0001:0002566C   169 0001:000256A4
   170 0001:000256C6   171 0001:000256DB   172 0001:000256EB   173 0001:000256FC
   174 0001:0002570A   175 0001:0002571C   176 0001:00025725   177 0001:00025731
   179 0001:0002573D   180 0001:00025760   181 0001:00025768   182 0001:00025788
   183 0001:00025797   185 0001:000257D4   186 0001:00025826   187 0001:0002583B
   188 0001:00025847   192 0001:0002586C   195 0001:0002587C

Line numbers for BisCallcDealFrameDocumentsFrm(imcallc.bpl\BisCallcDealFrameDocumentsFrm.pas) segment .itext

   197 0002:000006AC

Line numbers for _MSAcm(omaudio.bpl\NewAC\src\_MSAcm.pas) segment .text

  1411 0001:00000000

Line numbers for BisCallcDealFrm(imcallc.bpl\BisCallcDealFrm.pas) segment .text

   201 0001:000265C4   202 0001:000265CC   203 0001:000265D4   204 0001:000265DC
   210 0001:000265E0   211 0001:00026614   212 0001:0002661D   214 0001:00026624
   216 0001:0002663B   217 0001:0002665D   218 0001:0002667F   219 0001:000266A1
   220 0001:000266C3   222 0001:000266DA   223 0001:000266FC   224 0001:00026711
   225 0001:00026733   226 0001:00026748   227 0001:0002676A   228 0001:0002677F
   229 0001:000267A1   231 0001:000267B6   233 0001:000267D2   234 0001:000267E9
   235 0001:000267F6   237 0001:00026803   239 0001:00026810   240 0001:0002681E
   241 0001:0002683C   243 0001:0002685D   245 0001:00026871   246 0001:00026889
   247 0001:00026897   248 0001:000268BA   249 0001:000268DD   250 0001:00026900
   251 0001:00026921   252 0001:00026942   253 0001:00026965   254 0001:00026986
   255 0001:000269A9   256 0001:000269CC   257 0001:000269EF   258 0001:00026A12
   259 0001:00026A35   260 0001:00026A58   261 0001:00026A7B   262 0001:00026A9E
   263 0001:00026AC1   264 0001:00026AE4   265 0001:00026B07   266 0001:00026B2A
   267 0001:00026B4D   268 0001:00026B70   269 0001:00026B93   270 0001:00026BAC
   271 0001:00026BB5   274 0001:00026BC2   275 0001:00026BD8   276 0001:00026BE5
   277 0001:00026BF2   279 0001:00026C08   280 0001:00026C1E   281 0001:00026C2B
   283 0001:00026C38   285 0001:00026C48   286 0001:00026C5E   287 0001:00026C6B
   288 0001:00026C78   290 0001:00026CB8   291 0001:00026CCE   293 0001:00026CE4
   294 0001:00026CFA   295 0001:00026D01   296 0001:00026D43   298 0001:00026D8D
   300 0001:00026DD6   301 0001:00026DEC   302 0001:00026DFC   304 0001:00026E07
   306 0001:00026E19   307 0001:00026E22   308 0001:00026E29   311 0001:0002715C
   312 0001:00027167   313 0001:00027172   314 0001:0002717D   315 0001:00027188
   316 0001:00027193   317 0001:0002719E   318 0001:000271A9   319 0001:000271B5
   322 0001:000271C4   323 0001:000271C5   324 0001:000271CC   325 0001:000271D6
   326 0001:000271E6   331 0001:000271E8   332 0001:00027209   333 0001:00027218
   334 0001:00027229   335 0001:00027237   336 0001:00027249   337 0001:00027252
   338 0001:0002725E   339 0001:0002726A   340 0001:00027276   341 0001:00027282
   342 0001:0002728E   343 0001:0002729A   344 0001:000272A6   345 0001:000272B2
   346 0001:000272BE   347 0001:000272CA   348 0001:000272D6   349 0001:000272E2
   350 0001:000272EE   351 0001:000272FA   352 0001:00027306   353 0001:00027312
   354 0001:0002731E   355 0001:0002732A   356 0001:00027336   357 0001:00027342
   358 0001:0002734E   359 0001:0002735A   360 0001:00027366   361 0001:00027372
   362 0001:0002737E   363 0001:0002738A   364 0001:00027396   365 0001:000273A2
   366 0001:000273AE   367 0001:000273BA   368 0001:000273C6   369 0001:000273D2
   370 0001:000273DE   371 0001:000273EA   372 0001:000273F6   373 0001:00027402
   375 0001:0002740E   378 0001:0002741A   379 0001:00027440   380 0001:00027448
   381 0001:00027468   382 0001:0002748B   383 0001:000274AE   384 0001:000274D1
   387 0001:0002755D   388 0001:00027580   389 0001:000275A3   390 0001:000275C6
   391 0001:00027605   392 0001:00027644   394 0001:00027683   395 0001:00027695
   396 0001:0002769C   397 0001:000276A6   399 0001:000276B4   400 0001:000276D5
   401 0001:000276FE   402 0001:00027727   403 0001:00027750   405 0001:00027779
   406 0001:00027784   409 0001:0002779E   410 0001:000277BA   413 0001:000277E3
   416 0001:000277F3   424 0001:00027DC8   425 0001:00027DE7   426 0001:00027DFC
   427 0001:00027E0B   428 0001:00027E19   429 0001:00027E30   430 0001:00027E4B
   428 0001:00027E4C   431 0001:00027E51   432 0001:00027E61   433 0001:00027E78
   434 0001:00027E98   435 0001:00027EB2   436 0001:00027EB4   437 0001:00027EC5
   438 0001:00027ECB   439 0001:00027EDC   440 0001:00027EE2   441 0001:00027EF3
   442 0001:00027EF9   443 0001:00027F0A   445 0001:00027F10   446 0001:00027F14
   447 0001:00027F21   448 0001:00027F2C   449 0001:00027F3F   453 0001:00027F42
   432 0001:00027F43   455 0001:00027F59   458 0001:00027F69   466 0001:00027F90
   467 0001:00027FB1   469 0001:00027FC6   470 0001:00027FC9   471 0001:00027FEE
   472 0001:00028007   473 0001:00028010   476 0001:0002801A   479 0001:00028060
   480 0001:00028063   482 0001:0002806A   483 0001:00028077   484 0001:0002807E
   485 0001:00028085   486 0001:0002808F   487 0001:00028098   488 0001:000280A8
   489 0001:000280AF   492 0001:000280B4   493 0001:000280D7   495 0001:000280E4
   496 0001:000280F4   497 0001:0002813B   503 0001:0002816C   504 0001:00028189
   505 0001:0002819C   506 0001:000281BA   507 0001:000281CF   508 0001:000281DB
   509 0001:000281E9   510 0001:000281FB   511 0001:0002820E   513 0001:00028223
   517 0001:00028233   522 0001:00028268   523 0001:0002826F   524 0001:0002827E
   525 0001:0002828F   526 0001:0002829D   527 0001:000282AF   528 0001:000282C2
   530 0001:000282D7   533 0001:000282E7   536 0001:00028300   537 0001:0002831B
   538 0001:00028332   540 0001:00028368   541 0001:00028379   542 0001:00028388
   543 0001:0002839F   544 0001:000283BA   545 0001:000283D0   547 0001:000283EB
   548 0001:000283F9   552 0001:0002840C   555 0001:00028418   556 0001:00028429
   557 0001:00028438   558 0001:0002844F   559 0001:0002847E   560 0001:00028495
   561 0001:000284A6   565 0001:000284B9   566 0001:000284CA   567 0001:000284DD
   568 0001:000284F4   569 0001:0002850D   571 0001:00028523   572 0001:0002853A
   573 0001:0002854B   577 0001:0002855B   580 0001:00028562   582 0001:00028573
   585 0001:000285CC   586 0001:000285D1   587 0001:000285D3   588 0001:000285DB
   589 0001:000285E3   590 0001:000285EE   591 0001:000285F9   593 0001:000285FB
   594 0001:00028603   595 0001:0002860B   596 0001:00028616   597 0001:00028621
   599 0001:00028623   600 0001:0002862B   601 0001:00028633   602 0001:0002863E
   603 0001:00028649   605 0001:0002864B   606 0001:00028653   607 0001:0002865B
   608 0001:00028666   609 0001:00028671   611 0001:00028673   612 0001:0002867B
   613 0001:00028683   614 0001:0002868E   615 0001:00028699   617 0001:0002869B
   620 0001:000286A4   621 0001:000286A7   622 0001:000286AE   623 0001:000286BC
   624 0001:000286CA   625 0001:000286D8   630 0001:000286DC   631 0001:000286FD
   633 0001:0002870A   634 0001:0002871F   635 0001:0002874E   636 0001:0002875E
   637 0001:0002876E   639 0001:00028783   640 0001:00028798   641 0001:000287C7
   642 0001:000287D7   643 0001:000287E7   645 0001:000287FC   646 0001:00028811
   647 0001:00028840   648 0001:00028850   649 0001:00028860   651 0001:00028875
   652 0001:0002888A   653 0001:000288B9   654 0001:000288C9   655 0001:000288D9
   657 0001:000288EE   658 0001:00028903   659 0001:00028932   660 0001:00028942
   661 0001:00028952   662 0001:00028967   665 0001:000289FC   666 0001:000289FF
   667 0001:00028A0C   668 0001:00028A19   669 0001:00028A26   670 0001:00028A33
   671 0001:00028A40   678 0001:00028A44   679 0001:00028A6D   680 0001:00028A74
   681 0001:00028A87   682 0001:00028A95   683 0001:00028AAF   680 0001:00028AB0
   684 0001:00028AB3   691 0001:00028ADC   692 0001:00028B00   693 0001:00028B08
   695 0001:00028B1D   696 0001:00028B2B   697 0001:00028B39   698 0001:00028B41
   699 0001:00028B7F   700 0001:00028B87   701 0001:00028BC5   702 0001:00028BCD
   703 0001:00028C0B   704 0001:00028C13   705 0001:00028C51   706 0001:00028C59
   708 0001:00028C97   713 0001:00028D04   714 0001:00028D26   715 0001:00028D37
   716 0001:00028D45   717 0001:00028D57   718 0001:00028D60   719 0001:00028D79
   720 0001:00028D87   721 0001:00028D95   723 0001:00028DA3   724 0001:00028DAB
   725 0001:00028DBB   726 0001:00028E11   727 0001:00028E67   730 0001:00028ECA
   732 0001:00028EDA   736 0001:00028FA8   737 0001:00028FAE   738 0001:00028FC3
   740 0001:00028FCA   748 0001:00028FD0   749 0001:00028FF4   750 0001:00029003
   751 0001:00029008   752 0001:00029013   754 0001:0002901F   756 0001:00029034
   757 0001:00029050   758 0001:0002907A   759 0001:00029086   760 0001:0002908F
   761 0001:00029098   762 0001:000290B6   763 0001:000290C5   764 0001:000290EE
   765 0001:00029104   766 0001:0002911A   767 0001:00029135   768 0001:0002914A
   770 0001:00029196   771 0001:000291F0   772 0001:000291F7   777 0001:00029202
   780 0001:0002929C   781 0001:0002929F   782 0001:000292AE   783 0001:000292BE
   785 0001:000292D1   788 0001:000292E8   789 0001:000292EB   790 0001:000292F6
   791 0001:000292FD   801 0001:00029300   802 0001:00029322   804 0001:00029338
   805 0001:00029352   806 0001:0002936D   807 0001:00029393   808 0001:0002939E
   809 0001:000293AD   810 0001:000293BB   811 0001:000293CB   812 0001:000293D8
   813 0001:000293E9   814 0001:000293F7   815 0001:00029416   817 0001:00029447
   819 0001:00029457   820 0001:0002947C   821 0001:0002948E   822 0001:0002949C
   823 0001:000294AE   824 0001:000294B8   825 0001:000294C1   826 0001:000294CF
   827 0001:000294EB   828 0001:00029512   829 0001:00029528   830 0001:00029581
   831 0001:000295A4   832 0001:000295C9   834 0001:00029622   836 0001:00029637
   838 0001:00029647   841 0001:0002965C   844 0001:00029674   847 0001:00029693
   857 0001:00029838   858 0001:00029868   859 0001:00029876   860 0001:00029881
   861 0001:0002989E   862 0001:000298AE   865 0001:000298E8   866 0001:00029914
   867 0001:00029920   868 0001:0002992C   869 0001:00029940   870 0001:0002995D
   872 0001:00029978   881 0001:000299C8   882 0001:000299E8   883 0001:000299F9
   884 0001:00029A07   885 0001:00029A1B   886 0001:00029A2F   888 0001:00029A43
   889 0001:00029A55   890 0001:00029A67   891 0001:00029A85   892 0001:00029AA3
   894 0001:00029AC1   895 0001:00029AC9   896 0001:00029AE1   897 0001:00029AFA
   898 0001:00029B09   899 0001:00029B3F   896 0001:00029B40   901 0001:00029B48
   902 0001:00029B72   903 0001:00029BA2   905 0001:00029BD8   906 0001:00029BF9
   907 0001:00029C2F   908 0001:00029C65   910 0001:00029C9B   911 0001:00029CBC
   912 0001:00029CF2   913 0001:00029D28   915 0001:00029D5E   916 0001:00029D7F
   917 0001:00029DB5   918 0001:00029DEB   920 0001:00029E21   921 0001:00029E42
   922 0001:00029E78   923 0001:00029EAE   925 0001:00029EE4   926 0001:00029F05
   927 0001:00029F3B   928 0001:00029F71   931 0001:00029FB4   933 0001:00029FC4
   938 0001:0002A32C   939 0001:0002A363   942 0001:0002A365   943 0001:0002A379
   946 0001:0002A386   947 0001:0002A39C   948 0001:0002A3B4   949 0001:0002A3BE
   950 0001:0002A3CB   951 0001:0002A3DF   952 0001:0002A3E6   944 0001:0002A3F0
   954 0001:0002A40C   956 0001:0002A417   962 0001:0002A454   963 0001:0002A478
   964 0001:0002A488   965 0001:0002A497   966 0001:0002A4A5   967 0001:0002A4AC
   968 0001:0002A4E4   969 0001:0002A51C   970 0001:0002A554   971 0001:0002A58C
   972 0001:0002A5CA   973 0001:0002A614   974 0001:0002A65E   975 0001:0002A6A8
   976 0001:0002A6F8   977 0001:0002A748   978 0001:0002A798   979 0001:0002A7E2
   980 0001:0002A831   982 0001:0002A872   983 0001:0002A886   984 0001:0002A898
   985 0001:0002A8CA   982 0001:0002A8CB   987 0001:0002A8CE   988 0001:0002A8E0
   989 0001:0002A8FD   990 0001:0002A90F   991 0001:0002A91C   992 0001:0002A959
   989 0001:0002A95A   995 0001:0002A96A   996 0001:0002A972   997 0001:0002A97A
   999 0001:0002A992  1009 0001:0002AC94  1010 0001:0002ACBF  1011 0001:0002ACC9
  1012 0001:0002ACDF  1013 0001:0002ACEB  1014 0001:0002ACFC  1015 0001:0002AD40
  1016 0001:0002AD51  1017 0001:0002AD5C  1018 0001:0002AD6D  1020 0001:0002AD78
  1011 0001:0002AD79  1022 0001:0002AD80  1025 0001:0002ADB0  1026 0001:0002ADD1
  1027 0001:0002ADD8  1028 0001:0002AE55  1031 0001:0002AEBC  1032 0001:0002AEC2
  1033 0001:0002AEC8  1034 0001:0002AEDA  1035 0001:0002AEEC  1036 0001:0002AEFE
  1037 0001:0002AF10  1038 0001:0002AF22  1045 0001:0002AF28  1046 0001:0002AF4D
  1047 0001:0002AF4F  1048 0001:0002AF70  1049 0001:0002AFA7  1050 0001:0002AFBC
  1051 0001:0002AFD1  1052 0001:0002AFE1  1053 0001:0002AFE3  1055 0001:0002AFE8
  1056 0001:0002B009  1057 0001:0002B040  1058 0001:0002B055  1059 0001:0002B06A
  1060 0001:0002B07A  1061 0001:0002B07C  1063 0001:0002B081  1064 0001:0002B0A2
  1065 0001:0002B0D9  1066 0001:0002B0EE  1067 0001:0002B103  1068 0001:0002B113
  1069 0001:0002B115  1071 0001:0002B11A  1072 0001:0002B133  1073 0001:0002B16A
  1074 0001:0002B17F  1075 0001:0002B194  1076 0001:0002B1A4  1077 0001:0002B1A6
  1079 0001:0002B1AB  1080 0001:0002B1CC  1081 0001:0002B203  1082 0001:0002B218
  1083 0001:0002B22D  1084 0001:0002B23D  1085 0001:0002B23F  1087 0001:0002B244
  1088 0001:0002B26B  1089 0001:0002B2A2  1090 0001:0002B2B7  1091 0001:0002B2CC
  1092 0001:0002B2DC  1095 0001:0002B2DE  1097 0001:0002B3D8  1098 0001:0002B3E0
  1099 0001:0002B3EA  1100 0001:0002B3F6  1101 0001:0002B40D  1108 0001:0002B414
  1109 0001:0002B418  1110 0001:0002B429  1111 0001:0002B437  1112 0001:0002B449
  1113 0001:0002B46F  1115 0001:0002B484  1117 0001:0002B494  1119 0001:0002B4B0
  1120 0001:0002B4B7  1121 0001:0002B4BF  1122 0001:0002B4CB  1123 0001:0002B4D2
  1132 0001:0002B4D8  1133 0001:0002B4FA  1134 0001:0002B51D  1135 0001:0002B527
  1136 0001:0002B538  1137 0001:0002B547  1138 0001:0002B555  1139 0001:0002B566
  1140 0001:0002B591  1142 0001:0002B5E7  1143 0001:0002B5F9  1144 0001:0002B602
  1145 0001:0002B60E  1146 0001:0002B61A  1147 0001:0002B626  1148 0001:0002B632
  1150 0001:0002B63E  1151 0001:0002B650  1152 0001:0002B666  1154 0001:0002B681
  1155 0001:0002B696  1157 0001:0002B69E  1159 0001:0002B6AE  1160 0001:0002B6E0
  1161 0001:0002B705  1162 0001:0002B712  1163 0001:0002B71F  1164 0001:0002B72C
  1165 0001:0002B739  1166 0001:0002B746  1167 0001:0002B753  1168 0001:0002B760
  1169 0001:0002B770  1171 0001:0002B77D  1172 0001:0002B78A  1173 0001:0002B7C4
  1174 0001:0002B7FE  1175 0001:0002B838  1176 0001:0002B872  1177 0001:0002B887
  1178 0001:0002B938  1179 0001:0002B945  1170 0001:0002B94D  1182 0001:0002B95D
  1184 0001:0002B96A  1187 0001:0002B9CB  1188 0001:0002B9D3  1191 0001:0002B9E3

Line numbers for BisCallcDealFrm(imcallc.bpl\BisCallcDealFrm.pas) segment .itext

  1193 0002:000006C4

Line numbers for BisCallcTaskOperatorFm(imcallc.bpl\BisCallcTaskOperatorFm.pas) segment .text

    47 0001:0002C320    48 0001:0002C332    49 0001:0002C33B    50 0001:0002C343
    51 0001:0002C347    52 0001:0002C34E    53 0001:0002C35E    56 0001:0002C394
    57 0001:0002C397    58 0001:0002C39E    61 0001:0002C3A0    62 0001:0002C3A4
    63 0001:0002C3AD    64 0001:0002C3C8    66 0001:0002C3E9    69 0001:0002C3F0
    70 0001:0002C3F3    71 0001:0002C3FA    72 0001:0002C408    77 0001:0002C40C
    78 0001:0002C41E    79 0001:0002C427    80 0001:0002C42E    81 0001:0002C436
    85 0001:0002C450    86 0001:0002C456    90 0001:0002C458    91 0001:0002C45D

Line numbers for BisCallcTaskOperatorFm(imcallc.bpl\BisCallcTaskOperatorFm.pas) segment .itext

    93 0002:000006CC

Line numbers for BisCallcDealsFrameTasksFilterFm(imcallc.bpl\BisCallcDealsFrameTasksFilterFm.pas) segment .text

    47 0001:0002C914    48 0001:0002C927    49 0001:0002C930    50 0001:0002C938
    51 0001:0002C93B    52 0001:0002C955    53 0001:0002C96F    54 0001:0002C989
    55 0001:0002C9A3    56 0001:0002C9BD    57 0001:0002C9D7    59 0001:0002C9F1

Line numbers for BisCallcDealsFrameTasksFilterFm(imcallc.bpl\BisCallcDealsFrameTasksFilterFm.pas) segment .itext

    61 0002:000006D4

Line numbers for BisCallcDealEditFm(imcallc.bpl\BisCallcDealEditFm.pas) segment .text

    60 0001:0002CF50    61 0001:0002CF62    62 0001:0002CF6B    63 0001:0002CF73
    64 0001:0002CF83    65 0001:0002CF93    68 0001:0002CFF4    69 0001:0002CFF7
    70 0001:0002CFFE    73 0001:0002D000    74 0001:0002D006    75 0001:0002D00F
    76 0001:0002D01A    77 0001:0002D023    78 0001:0002D03A    79 0001:0002D04A
    80 0001:0002D061    83 0001:0002D072    88 0001:0002D07C    89 0001:0002D093
    90 0001:0002D09C    91 0001:0002D0B2    92 0001:0002D0BB    93 0001:0002D0CC
    94 0001:0002D0E2    95 0001:0002D0EC    96 0001:0002D0FC    99 0001:0002D11C
   100 0001:0002D127   101 0001:0002D132   102 0001:0002D13E   105 0001:0002D14C
   106 0001:0002D14F   107 0001:0002D156   108 0001:0002D164   111 0001:0002D168
   112 0001:0002D16B   113 0001:0002D172   114 0001:0002D17B   115 0001:0002D191
   116 0001:0002D1A6   117 0001:0002D1B4   121 0001:0002D1BC   122 0001:0002D1C9
   126 0001:0002D1CC   127 0001:0002D1DA   131 0001:0002D1DC   132 0001:0002D1EA
   133 0001:0002D1EC   137 0001:0002D1F0   138 0001:0002D1F5

Line numbers for BisCallcDealEditFm(imcallc.bpl\BisCallcDealEditFm.pas) segment .itext

   141 0002:000006DC

Line numbers for BisCallcDealsFrameTasksFrm(imcallc.bpl\BisCallcDealsFrameTasksFrm.pas) segment .text

   119 0001:0002D960   120 0001:0002D98F   121 0001:0002D998   122 0001:0002D9A5
   123 0001:0002D9B2   124 0001:0002D9BF   125 0001:0002D9CC   126 0001:0002D9D2
   127 0001:0002D9E2   128 0001:0002D9E8   129 0001:0002D9F4   130 0001:0002DA00
   131 0001:0002DA0C   132 0001:0002DA18   133 0001:0002DA24   134 0001:0002DA30
   135 0001:0002DA3C   136 0001:0002DA48   137 0001:0002DA54   138 0001:0002DA60
   139 0001:0002DA6C   140 0001:0002DA78   141 0001:0002DA8B   142 0001:0002DA9E
   144 0001:0002DAB4   145 0001:0002DADC   147 0001:0002DAEE   150 0001:0002DCAC
   152 0001:0002DCB7   153 0001:0002DCC3   159 0001:0002DCD4   160 0001:0002DCEB
   161 0001:0002DCF4   162 0001:0002DCFF   163 0001:0002DD0A   164 0001:0002DD17
   165 0001:0002DD24   166 0001:0002DD31   167 0001:0002DD3E   168 0001:0002DD4B
   169 0001:0002DD58   170 0001:0002DD65   171 0001:0002DD7B   172 0001:0002DD8B
   173 0001:0002DD98   174 0001:0002DDA4   175 0001:0002DDB0   176 0001:0002DDBC
   177 0001:0002DDC8   178 0001:0002DDD4   179 0001:0002DDED   180 0001:0002DE00
   181 0001:0002DE13   182 0001:0002DE26   183 0001:0002DE39   184 0001:0002DE4C
   185 0001:0002DE5F   186 0001:0002DE7F   187 0001:0002DE92   188 0001:0002DEA5
   190 0001:0002DEB8   191 0001:0002DECE   194 0001:0002DEDE   195 0001:0002DEF4
   196 0001:0002DF01   197 0001:0002DF0E   198 0001:0002DF29   199 0001:0002DF3E
   200 0001:0002DF53   201 0001:0002DF68   202 0001:0002DF80   203 0001:0002DF97
   205 0001:0002DFAD   207 0001:0002DFC4   208 0001:0002DFCC   210 0001:0002DFD3
   211 0001:0002DFDF   212 0001:0002DFF1   213 0001:0002DFF8   216 0001:0002E208
   217 0001:0002E213   218 0001:0002E21E   219 0001:0002E225   220 0001:0002E230
   221 0001:0002E23C   224 0001:0002E24C   225 0001:0002E24D   226 0001:0002E257
   227 0001:0002E267   232 0001:0002E26C   233 0001:0002E276   234 0001:0002E286
   235 0001:0002E2AB   236 0001:0002E2BA   237 0001:0002E2CA   238 0001:0002E2D8
   239 0001:0002E2E6   241 0001:0002E301   243 0001:0002E319   244 0001:0002E32A
   249 0001:0002E330   250 0001:0002E350   251 0001:0002E35B   252 0001:0002E36C
   253 0001:0002E37A   254 0001:0002E38C   255 0001:0002E39F   256 0001:0002E3DC
   257 0001:0002E3F1   258 0001:0002E3F9   259 0001:0002E411   261 0001:0002E41B
   262 0001:0002E43E   260 0001:0002E446   266 0001:0002E45F   268 0001:0002E46F
   273 0001:0002E514   274 0001:0002E538   275 0001:0002E541   276 0001:0002E549
   277 0001:0002E55E   278 0001:0002E560   279 0001:0002E567   280 0001:0002E58D
   281 0001:0002E5B3   282 0001:0002E5D9   284 0001:0002E5FF   285 0001:0002E610
   286 0001:0002E619   287 0001:0002E622   288 0001:0002E63A   290 0001:0002E64A
   293 0001:0002E651   297 0001:0002E6D8   298 0001:0002E6E1   299 0001:0002E6E8
   300 0001:0002E6F2   302 0001:0002E702   306 0001:0002E708   307 0001:0002E712
   311 0001:0002E714   312 0001:0002E71F   321 0001:0002E720   322 0001:0002E73C
   323 0001:0002E768   324 0001:0002E776   325 0001:0002E79B   326 0001:0002E7AD
   327 0001:0002E7BB   328 0001:0002E7D5   329 0001:0002E7F0   330 0001:0002E7F8
   331 0001:0002E802   332 0001:0002E80A   333 0001:0002E80E   334 0001:0002E81C
   335 0001:0002E83F   337 0001:0002E852   338 0001:0002E860   341 0001:0002E878
   342 0001:0002E888   346 0001:0002E898   349 0001:0002E8E4   350 0001:0002E8ED
   351 0001:0002E8FF   352 0001:0002E908   355 0001:0002E914   356 0001:0002E917
   357 0001:0002E91E   358 0001:0002E92C   367 0001:0002E930   368 0001:0002E953
   369 0001:0002E961   370 0001:0002E975   371 0001:0002E98A   372 0001:0002E999
   373 0001:0002E9A9   374 0001:0002E9BA   375 0001:0002E9C8   376 0001:0002E9D2
   377 0001:0002E9E4   378 0001:0002EA03   379 0001:0002EA16   380 0001:0002EA1A
   381 0001:0002EA29   383 0001:0002EA4C   384 0001:0002EA58   387 0001:0002EA80
   388 0001:0002EA92   389 0001:0002EAB8   391 0001:0002EAD0   392 0001:0002EAE2
   393 0001:0002EB0F   395 0001:0002EB2E   396 0001:0002EB40   397 0001:0002EB54
   396 0001:0002EB7C   399 0001:0002EB7F   400 0001:0002EB88   402 0001:0002EB94
   403 0001:0002EB9C   404 0001:0002EBAC   405 0001:0002EBBE   406 0001:0002EBCC
   407 0001:0002EBDF   408 0001:0002EBFB   409 0001:0002EC0B   410 0001:0002EC13
   412 0001:0002EC23   413 0001:0002EC31   414 0001:0002EC46   415 0001:0002EC68
   416 0001:0002EC95   417 0001:0002ECA6   418 0001:0002ECAA   419 0001:0002ECB3
   420 0001:0002ECBF   422 0001:0002ECE4   411 0001:0002ECEC   424 0001:0002ECFC
   426 0001:0002ED17   427 0001:0002ED27   431 0001:0002ED47   432 0001:0002ED4F
   436 0001:0002ED67   437 0001:0002ED88   438 0001:0002ED99   442 0001:0002EDAA
   444 0001:0002EDB2   445 0001:0002EDBE   450 0001:0002EEE4   451 0001:0002EEE9
   455 0001:0002EEEC   456 0001:0002EEEF   457 0001:0002EF03   461 0001:0002EF08
   462 0001:0002EF0D   465 0001:0002EF10   466 0001:0002EF13   467 0001:0002EF27
   472 0001:0002EF2C   473 0001:0002EF31   477 0001:0002EF34   478 0001:0002EF37
   479 0001:0002EF4B   484 0001:0002EF50   485 0001:0002EF55   488 0001:0002EF58
   489 0001:0002EF5B   490 0001:0002EF6F   493 0001:0002EF74   494 0001:0002EF77
   496 0001:0002EFAA   499 0001:0002EFAC   500 0001:0002EFAF   501 0001:0002EFBA
   502 0001:0002EFC5   505 0001:0002EFC8   506 0001:0002EFCB   508 0001:0002EFFE
   511 0001:0002F000   512 0001:0002F003   513 0001:0002F00E   514 0001:0002F019
   517 0001:0002F01C   518 0001:0002F01F   520 0001:0002F052   523 0001:0002F054
   524 0001:0002F057   525 0001:0002F062   526 0001:0002F06D   529 0001:0002F070
   530 0001:0002F073   532 0001:0002F0A6   535 0001:0002F0A8   536 0001:0002F0AB
   537 0001:0002F0B6   538 0001:0002F0C1   544 0001:0002F0C4   545 0001:0002F0E6
   546 0001:0002F0EA   547 0001:0002F110   548 0001:0002F121   549 0001:0002F12F
   550 0001:0002F141   551 0001:0002F14A   552 0001:0002F17C   553 0001:0002F1AC
   555 0001:0002F1BC   556 0001:0002F1C4   557 0001:0002F1F0   558 0001:0002F1F6
   559 0001:0002F1FC   560 0001:0002F205   563 0001:0002F238   566 0001:0002F248
   572 0001:0002F2E8   573 0001:0002F309   574 0001:0002F30D   575 0001:0002F333
   576 0001:0002F344   577 0001:0002F352   578 0001:0002F364   579 0001:0002F36D
   580 0001:0002F39D   582 0001:0002F3AD   583 0001:0002F3B5   584 0001:0002F3E1
   585 0001:0002F3E7   588 0001:0002F3FA   591 0001:0002F40A   600 0001:0002F48C
   601 0001:0002F4AB   602 0001:0002F4D7   603 0001:0002F4E6   604 0001:0002F4F6
   605 0001:0002F50C   606 0001:0002F51E   607 0001:0002F52C   608 0001:0002F531
   610 0001:0002F541   611 0001:0002F555   612 0001:0002F56F   613 0001:0002F573
   614 0001:0002F57B   615 0001:0002F5A1   616 0001:0002F5A2   609 0001:0002F5B0
   619 0001:0002F5D3   620 0001:0002F5E3   621 0001:0002F5EE   622 0001:0002F604
   625 0001:0002F61C   637 0001:0002F668   638 0001:0002F695   639 0001:0002F6A5
   640 0001:0002F6BB   641 0001:0002F6CA   642 0001:0002F6D8   644 0001:0002F6E0
   645 0001:0002F6F0   646 0001:0002F6F4   647 0001:0002F706   648 0001:0002F70A
   649 0001:0002F714   645 0001:0002F726   652 0001:0002F72A   653 0001:0002F73C
   654 0001:0002F74A   655 0001:0002F75F   656 0001:0002F792   657 0001:0002F7AC
   658 0001:0002F7B5   659 0001:0002F7D0   660 0001:0002F7D6   661 0001:0002F7E3
   662 0001:0002F7EE   663 0001:0002F7F4   664 0001:0002F802   665 0001:0002F821
   666 0001:0002F832   668 0001:0002F842   671 0001:0002F850   672 0001:0002F86C
   654 0001:0002F86D   674 0001:0002F883   675 0001:0002F893   676 0001:0002F89E
   681 0001:0002F8AE   682 0001:0002F8C0   683 0001:0002F8CE   684 0001:0002F8D0
   686 0001:0002F8E3   687 0001:0002F8F6   688 0001:0002F8FF   689 0001:0002F91A
   690 0001:0002F920   691 0001:0002F92D   692 0001:0002F938   693 0001:0002F93E
   694 0001:0002F94C   695 0001:0002F96B   696 0001:0002F97C   697 0001:0002F98A
   699 0001:0002F99A   701 0001:0002F9AA   702 0001:0002F9B8   703 0001:0002F9B9
   685 0001:0002F9DF   706 0001:0002FA02   707 0001:0002FA12   708 0001:0002FA1D
   713 0001:0002FA3A   714 0001:0002FA42   717 0001:0002FA60   728 0001:0002FAC0
   729 0001:0002FB24   730 0001:0002FB28   731 0001:0002FB54   732 0001:0002FB63
   733 0001:0002FB73   734 0001:0002FB89   735 0001:0002FB9B   736 0001:0002FBA9
   737 0001:0002FBB0   739 0001:0002FBC3   740 0001:0002FBDE   741 0001:0002FBE2
   742 0001:0002FBFC   743 0001:0002FC04   744 0001:0002FC15   745 0001:0002FC23
   746 0001:0002FC2D   747 0001:0002FC3F   748 0001:0002FC48   749 0001:0002FC5E
   750 0001:0002FC90   751 0001:0002FCA6   752 0001:0002FCBC   753 0001:0002FD0D
   754 0001:0002FD36   756 0001:0002FD4C   757 0001:0002FD5A   758 0001:0002FD62
   759 0001:0002FD71   760 0001:0002FD77   761 0001:0002FD85   764 0001:0002FDA9
   765 0001:0002FDAC   768 0001:0002FDD7   771 0001:0002FDE7   772 0001:0002FE10
   773 0001:0002FE13   774 0001:0002FE19   738 0001:0002FE27   777 0001:0002FE4A
   778 0001:0002FE5A   779 0001:0002FE65   780 0001:0002FE83   781 0001:0002FE99
   784 0001:0002FEB1

Line numbers for BisCallcDealsFrameTasksFrm(imcallc.bpl\BisCallcDealsFrameTasksFrm.pas) segment .itext

   786 0002:000006E4

Line numbers for BisCallcDealsFrm(imcallc.bpl\BisCallcDealsFrm.pas) segment .text

    73 0001:00030368    74 0001:0003037A    75 0001:00030383    76 0001:00030394
    79 0001:000303B0    80 0001:000303BB    81 0001:000303C3    82 0001:000303CB
    83 0001:000303D7    88 0001:000303E8    89 0001:00030409    90 0001:00030417
    91 0001:00030422    92 0001:0003042B    95 0001:00030450    96 0001:00030456
    97 0001:0003045F   102 0001:00030464   103 0001:0003046C   104 0001:0003046F
   105 0001:0003047A   106 0001:0003048D   107 0001:000304A0   104 0001:000304A1
   108 0001:000304A4   113 0001:000304AC   114 0001:000304C3   115 0001:000304CC
   116 0001:000304E2   117 0001:000304EB   118 0001:000304FC   119 0001:00030512
   120 0001:00030524   123 0001:00030544   124 0001:00030566   125 0001:0003057C
   126 0001:00030589   127 0001:00030597   128 0001:000305A2   129 0001:000305AD
   130 0001:000305B9   133 0001:000305E8   134 0001:0003064B   135 0001:0003066C
   136 0001:00030682   139 0001:000306C0   140 0001:000306C3   141 0001:000306CA
   142 0001:000306D8   145 0001:000306DC   146 0001:000306DF   147 0001:000306E6
   148 0001:000306ED   151 0001:000306F0   152 0001:000306F4   153 0001:00030701
   154 0001:0003070B   155 0001:0003071D   156 0001:0003072E   157 0001:0003073F
   158 0001:00030756   159 0001:00030767   160 0001:0003077E   161 0001:0003078B
   162 0001:00030795   163 0001:0003079C   171 0001:000307A0   172 0001:000307BF
   173 0001:000307CA   174 0001:000307DD   175 0001:000307EE   176 0001:000307FC
   177 0001:0003080E   178 0001:00030817   179 0001:00030823   180 0001:0003082F
   182 0001:0003083B   183 0001:00030861   184 0001:00030876   185 0001:0003087E
   186 0001:0003089E   188 0001:000308AB   189 0001:000308C0   190 0001:000308C2
   191 0001:000308CA   193 0001:000308D0   194 0001:000308D8   195 0001:000308FD
   197 0001:00030901   198 0001:0003090D   199 0001:00030918   200 0001:00030922
   201 0001:00030947   202 0001:0003095A   203 0001:00030968   207 0001:00030980
   187 0001:00030988   211 0001:000309A5   214 0001:000309B5   219 0001:00030AB4
   220 0001:00030AB7   221 0001:00030ACA   222 0001:00030AD9   223 0001:00030AF2
   225 0001:00030AFD   227 0001:00030B0E   239 0001:00030B10   240 0001:00030B38
   241 0001:00030B47   242 0001:00030B57   243 0001:00030B66   244 0001:00030B74
   246 0001:00030B7B   247 0001:00030B8B   249 0001:00030B97   251 0001:00030BAB
   252 0001:00030BB4   253 0001:00030BE0   254 0001:00030BF6   255 0001:00030C08
   256 0001:00030C16   257 0001:00030C1B   259 0001:00030C2E   260 0001:00030C41
   261 0001:00030C45   262 0001:00030C60   263 0001:00030C6C   264 0001:00030C79
   265 0001:00030C8A   268 0001:00030C95   269 0001:00030CBB   270 0001:00030CBC
   258 0001:00030CCA   273 0001:00030CED   274 0001:00030CFD   279 0001:00030D1B
   280 0001:00030D23   281 0001:00030D35   282 0001:00030D39   283 0001:00030D48
   284 0001:00030D6D   280 0001:00030D6E   286 0001:00030D71   289 0001:00030D89
   290 0001:00030D91   292 0001:00030DA9   296 0001:00030E44   297 0001:00030E4F
   301 0001:00030E50   302 0001:00030E5B   310 0001:00030E5C   311 0001:00030E7E
   312 0001:00030E80   313 0001:00030E8E   314 0001:00030EAC   316 0001:00030ECA
   317 0001:00030ED0   318 0001:00030EE0   319 0001:00030EE4   326 0001:00030EF2
   327 0001:00030F0D   328 0001:00030F17   329 0001:00030F2F

Line numbers for BisCallcDealsFrm(imcallc.bpl\BisCallcDealsFrm.pas) segment .itext

   331 0002:000006EC

Line numbers for BisCallcTaskLeaderFm(imcallc.bpl\BisCallcTaskLeaderFm.pas) segment .text

    37 0001:000312D0    38 0001:000312E2    39 0001:000312EB    40 0001:000312F3
    41 0001:000312F7    42 0001:000312FE    47 0001:00031318    48 0001:0003132F
    49 0001:00031338    50 0001:0003133F    51 0001:0003134A    52 0001:00031357
    53 0001:00031365    57 0001:00031384    58 0001:0003138A    62 0001:0003138C
    63 0001:00031391

Line numbers for BisCallcTaskLeaderFm(imcallc.bpl\BisCallcTaskLeaderFm.pas) segment .itext

    65 0002:000006F4

Line numbers for BisCallcTaskClerkFm(imcallc.bpl\BisCallcTaskClerkFm.pas) segment .text

    37 0001:000316D4    38 0001:000316E6    39 0001:000316EF    40 0001:000316F7
    41 0001:000316FB    42 0001:00031702    47 0001:0003171C    48 0001:00031733
    49 0001:0003173C    50 0001:00031743    51 0001:0003174E    52 0001:0003175B
    53 0001:00031769    57 0001:00031788    58 0001:0003178E    62 0001:00031790
    63 0001:00031795

Line numbers for BisCallcTaskClerkFm(imcallc.bpl\BisCallcTaskClerkFm.pas) segment .itext

    65 0002:000006FC

Line numbers for BisCallcTaskManagerFm(imcallc.bpl\BisCallcTaskManagerFm.pas) segment .text

    37 0001:00031AE8    38 0001:00031AFA    39 0001:00031B03    40 0001:00031B0B
    41 0001:00031B0F    42 0001:00031B16    47 0001:00031B30    48 0001:00031B47
    49 0001:00031B50    50 0001:00031B57    51 0001:00031B62    52 0001:00031B6F
    53 0001:00031B7D    57 0001:00031B9C    58 0001:00031BA2    62 0001:00031BA4
    63 0001:00031BA9

Line numbers for BisCallcTaskManagerFm(imcallc.bpl\BisCallcTaskManagerFm.pas) segment .itext

    65 0002:00000704

Line numbers for BisCallcHbookPlanActionEditFm(imcallc.bpl\BisCallcHbookPlanActionEditFm.pas) segment .text

    59 0001:000323E8    60 0001:000323FB    61 0001:00032404    62 0001:0003240C
    64 0001:0003240F    65 0001:0003244A    67 0001:00032485    68 0001:0003249D
    70 0001:000324B5    75 0001:00032650    76 0001:00032662    77 0001:0003266B
    78 0001:00032678    83 0001:000326AC    84 0001:000326BE    85 0001:000326C7
    86 0001:000326D4    91 0001:00032708    92 0001:0003271A    93 0001:00032723
    94 0001:00032730

Line numbers for BisCallcHbookPlanActionEditFm(imcallc.bpl\BisCallcHbookPlanActionEditFm.pas) segment .itext

    97 0002:0000070C

Line numbers for BisCallcHbookPlanActionsFm(imcallc.bpl\BisCallcHbookPlanActionsFm.pas) segment .text

    34 0001:00032AD0    35 0001:00032AE7    36 0001:00032AF0    37 0001:00032AF8
    38 0001:00032B05    39 0001:00032B10    40 0001:00032B1B    41 0001:00032B22
    42 0001:00032B26    43 0001:00032B36    44 0001:00032B39    45 0001:00032B45
    46 0001:00032B51    47 0001:00032B64    48 0001:00032B7A    49 0001:00032B8D
    51 0001:00032BA0    52 0001:00032BAF    53 0001:00032BBE    54 0001:00032BCD

Line numbers for BisCallcHbookPlanActionsFm(imcallc.bpl\BisCallcHbookPlanActionsFm.pas) segment .itext

    56 0002:00000714

Line numbers for BisCallcImportFm(imcallc.bpl\BisCallcImportFm.pas) segment .text

   121 0001:0003358C   122 0001:0003359E   123 0001:000335A7   124 0001:000335AF
   125 0001:000335B3   126 0001:000335BA   127 0001:000335BE   132 0001:000335D8
   133 0001:0003360C   134 0001:00033615   135 0001:00033629   136 0001:00033630
   137 0001:00033646   138 0001:00033656   140 0001:00033663   141 0001:00033679
   142 0001:000336AE   143 0001:000336B5   144 0001:000336C6   146 0001:000336D7
   147 0001:000336ED   148 0001:00033703   149 0001:00033719   150 0001:0003373C
   153 0001:00033794   154 0001:0003379F   155 0001:000337AC   156 0001:000337B9
   157 0001:000337C4   158 0001:000337CF   159 0001:000337DB   162 0001:000337EC
   163 0001:000337EF   164 0001:0003381E   167 0001:00033820   168 0001:00033823
   169 0001:00033852   170 0001:0003386A   171 0001:00033899   172 0001:000338B1
   173 0001:000338E0   174 0001:000338F8   178 0001:000338FC   179 0001:00033901
   184 0001:00033904   186 0001:00033907   191 0001:00033908   192 0001:0003391F
   193 0001:00033928   194 0001:00033933   195 0001:00033937   196 0001:00033947
   198 0001:00033954   199 0001:00033964   200 0001:00033972   202 0001:000339A5
   205 0001:000339DC   206 0001:000339DD   207 0001:000339F2   208 0001:000339FC
   212 0001:00033A00   213 0001:00033A07   219 0001:00033A08   220 0001:00033A0B
   227 0001:00033A0C   228 0001:00033A30   229 0001:00033A41   230 0001:00033A4C
   231 0001:00033A5D   232 0001:00033A6B   233 0001:00033A7D   234 0001:00033A86
   235 0001:00033AA7   236 0001:00033AC8   237 0001:00033AE9   238 0001:00033AFE
   239 0001:00033B08   241 0001:00033B15   242 0001:00033B36   243 0001:00033B57
   244 0001:00033B78   245 0001:00033B99   246 0001:00033BBA   247 0001:00033BDB
   248 0001:00033BFF   249 0001:00033C20   250 0001:00033C41   251 0001:00033C65
   252 0001:00033C89   253 0001:00033CAA   254 0001:00033CCE   255 0001:00033CEF
   256 0001:00033D13   257 0001:00033D37   258 0001:00033D5B   259 0001:00033D7C
   260 0001:00033DA0   261 0001:00033DC1   262 0001:00033DE2   263 0001:00033E03
   264 0001:00033E24   265 0001:00033E45   266 0001:00033E66   267 0001:00033E87
   268 0001:00033EA8   270 0001:00033EC9   271 0001:00033ED4   272 0001:00033EDC
   273 0001:00033EEC   274 0001:00033F08   275 0001:00033F18   276 0001:00033F3C
   277 0001:00033F47   278 0001:00033F66   279 0001:00033F7C   280 0001:00033F8F
   281 0001:00033F9A   282 0001:00033FB9   283 0001:00033FC3   277 0001:00033FC6
   286 0001:00033FD8   288 0001:00033FE8   296 0001:000345D8   297 0001:000345F8
   298 0001:00034609   299 0001:00034614   300 0001:00034625   301 0001:00034633
   302 0001:00034645   303 0001:0003464E   304 0001:00034661   305 0001:00034674
   307 0001:00034687   308 0001:00034692   309 0001:0003469A   310 0001:000346AA
   311 0001:000346C6   312 0001:000346D6   313 0001:000346FA   314 0001:00034715
   315 0001:00034730   316 0001:0003473B   317 0001:0003475A   318 0001:00034770
   319 0001:00034783   320 0001:0003478E   321 0001:000347AD   322 0001:000347B7
   316 0001:000347BA   325 0001:000347CC   327 0001:000347DC   333 0001:000348AC
   334 0001:000348DE   335 0001:000348EF   336 0001:00034900   337 0001:0003490E
   338 0001:00034920   339 0001:00034933   340 0001:00034948   341 0001:00034968
   342 0001:0003498B   348 0001:00034A19   349 0001:00034A21   351 0001:00034A31
   357 0001:00034B04   358 0001:00034B22   359 0001:00034B33   360 0001:00034B44
   361 0001:00034B52   362 0001:00034B64   363 0001:00034B77   364 0001:00034B88
   365 0001:00034BA0   366 0001:00034BC3   370 0001:00034BF3   371 0001:00034BFB
   373 0001:00034C0B   379 0001:00034C74   380 0001:00034C92   381 0001:00034CA3
   382 0001:00034CB4   383 0001:00034CC2   384 0001:00034CD4   385 0001:00034CE7
   386 0001:00034CF8   387 0001:00034D10   388 0001:00034D33   392 0001:00034D63
   393 0001:00034D6B   395 0001:00034D7B   398 0001:00034DDC   399 0001:00034DF6
   400 0001:00034E18   401 0001:00034E2C   402 0001:00034E48   404 0001:00034E62
   405 0001:00034E7E   406 0001:00034E85   407 0001:00034E8C   409 0001:00034E95
   413 0001:00034EBC   414 0001:00034EBF   415 0001:00034ED2   416 0001:00034EDD
   417 0001:00034EE8   419 0001:00034EEF   422 0001:00034F10   423 0001:00034F13
   424 0001:00034F26   425 0001:00034F31   427 0001:00034F38   430 0001:00034F5C
   431 0001:00034F74   432 0001:00034F83   433 0001:00034F97   434 0001:00034FB3
   436 0001:00034FCD   437 0001:00034FD4   438 0001:00034FDB   440 0001:00034FE4
   449 0001:0003500C   450 0001:00035030   451 0001:00035034   452 0001:0003504A
   453 0001:00035058   454 0001:00035066   455 0001:0003506A   457 0001:0003507D
   458 0001:000350A4   459 0001:000350BD   460 0001:000350E1   461 0001:000350F4
   462 0001:000350FF   463 0001:0003510E   464 0001:0003511A   465 0001:0003514C
   466 0001:00035163   467 0001:00035174   468 0001:00035178   472 0001:0003517A
   457 0001:0003517D   473 0001:00035184   475 0001:0003518A   456 0001:00035198
   477 0001:000351AE   479 0001:000351C4   482 0001:000351DA   485 0001:00035248
   486 0001:00035264   487 0001:00035283   488 0001:0003528F   489 0001:0003529D
   491 0001:000352A2   492 0001:000352C1   493 0001:000352CD   494 0001:000352DB
   496 0001:000352E0   497 0001:000352FF   498 0001:00035312   499 0001:00035320
   503 0001:00035322   504 0001:0003534F   505 0001:0003535B   506 0001:00035369
   509 0001:0003536B   510 0001:00035376   511 0001:0003537D   513 0001:00035384
   519 0001:00035460   520 0001:000354A6   521 0001:000354B7   522 0001:000354C5
   523 0001:000354CF   524 0001:000354E1   525 0001:000354EA   526 0001:00035506
   527 0001:00035522   529 0001:0003553E   530 0001:0003555C   531 0001:0003557F
   532 0001:000355A2   534 0001:000355C5   535 0001:000355E6   536 0001:0003560F
   537 0001:00035638   539 0001:00035661   540 0001:00035682   541 0001:000356AB
   542 0001:000356D4   544 0001:000356FD   545 0001:0003571E   546 0001:00035747
   547 0001:00035770   549 0001:00035799   550 0001:000357BA   551 0001:000357E3
   552 0001:0003580C   554 0001:00035835   555 0001:00035843   558 0001:00035866
   561 0001:0003588A   563 0001:0003589A   577 0001:00035B00   578 0001:00035B23
   579 0001:00035B4F   580 0001:00035B5E   581 0001:00035B6E   582 0001:00035B7C
   583 0001:00035B93   584 0001:00035BA1   585 0001:00035BAF   586 0001:00035BC4
   588 0001:00035BD2   589 0001:00035BE6   590 0001:00035BEB   591 0001:00035BF0
   593 0001:00035C03   595 0001:00035C34   599 0001:00035C99   600 0001:00035CAA
   601 0001:00035CB8   602 0001:00035CC2   603 0001:00035CCC   604 0001:00035CDE
   605 0001:00035CEA   606 0001:00035CF9   607 0001:00035D16   608 0001:00035D33
   609 0001:00035D50   611 0001:00035D8B   612 0001:00035DAB   613 0001:00035DC1
   614 0001:00035DF3   611 0001:00035DF6   616 0001:00035DF9   618 0001:00035E01
   619 0001:00035E11   620 0001:00035E2C   621 0001:00035E3C   622 0001:00035EAD
   623 0001:00035EC0   624 0001:00035ECE   626 0001:00035EE1   627 0001:00035EF2
   628 0001:00035F00   629 0001:00035F12   630 0001:00035F1C   631 0001:00035F24
   632 0001:00035F30   633 0001:00035F3F   634 0001:00035F7E   635 0001:00035F95
   637 0001:00035FC0   638 0001:00035FE0   639 0001:00035FF6   640 0001:00036034
   637 0001:00036037   641 0001:0003603A   643 0001:0003604F   645 0001:0003605F
   625 0001:0003606D   648 0001:00036090   649 0001:000360A3   652 0001:000360BE
   653 0001:000360CC   656 0001:000360D1   658 0001:000360DF   659 0001:000360E2
   661 0001:00036107   592 0001:00036117   664 0001:0003612D   666 0001:00036170
   667 0001:00036185   668 0001:00036193   669 0001:000361AF   670 0001:000361C2
   671 0001:000361C7   674 0001:000361DF   686 0001:000363C0   687 0001:000363EB
   688 0001:00036401   689 0001:00036410   690 0001:00036420   691 0001:00036430
   692 0001:00036442   693 0001:00036454   694 0001:00036465   696 0001:00036473
   697 0001:00036477   698 0001:00036485   701 0001:00036493   702 0001:0003649D
   703 0001:000364A2   704 0001:000364AE   705 0001:000364C7   706 0001:000364D8
   707 0001:000364F4   708 0001:000364FA   710 0001:000364FC   704 0001:000364FF
   713 0001:00036504   714 0001:0003650E   715 0001:00036513   716 0001:0003653A
   717 0001:0003654F   718 0001:0003655D   719 0001:0003657A   721 0001:0003658B
   722 0001:000365AB   723 0001:000365B9   724 0001:000365C1   725 0001:000365CF
   726 0001:000365ED   728 0001:00036636   729 0001:00036653   730 0001:00036664
   732 0001:00036684   733 0001:000366A1   734 0001:000366B2   735 0001:000366D2
   736 0001:000366E0   738 0001:000366FE   739 0001:0003671B   740 0001:0003672B
   741 0001:00036753   742 0001:00036762   743 0001:00036770   746 0001:000367A2
   749 0001:000367B9   738 0001:000367BC   751 0001:000367C5   753 0001:000367D6
   732 0001:000367D9   756 0001:000367E7   757 0001:00036816   758 0001:00036826
   759 0001:00036834   762 0001:0003686D   766 0001:00036884   728 0001:00036887
   768 0001:00036890   770 0001:000368BC   771 0001:000368BE   772 0001:000368CF
   776 0001:000368E6   779 0001:00036905   780 0001:00036908   718 0001:0003690B
   782 0001:00036921   787 0001:0003694B   788 0001:00036953   789 0001:00036963
   790 0001:00036973   791 0001:0003698A   792 0001:00036998   795 0001:000369B0
   819 0001:00036A90   820 0001:00036ABB   821 0001:00036AD1   822 0001:00036AE3
   823 0001:00036AF3   824 0001:00036AFA   825 0001:00036B08   826 0001:00036B13
   827 0001:00036B31   828 0001:00036B3C   829 0001:00036B62   830 0001:00036B91
   831 0001:00036BD4   832 0001:00036C17   833 0001:00036C3D   834 0001:00036C4D
   835 0001:00036C58   836 0001:00036C99   837 0001:00036CDA   838 0001:00036CEE
   840 0001:00036D14   841 0001:00036D2C   842 0001:00036D3C   843 0001:00036D4E
   844 0001:00036D60   845 0001:00036D6E   846 0001:00036D72   847 0001:00036D80
   849 0001:00036D8E   850 0001:00036D96   851 0001:00036DCC   852 0001:00036DE4
   854 0001:00036DF1   855 0001:00036DFF   857 0001:00036E07   858 0001:00036E15
   859 0001:00036E33   860 0001:00036E8E   861 0001:00036EC0   863 0001:00036EF3
   864 0001:00036EFB   865 0001:00036F16   866 0001:00036F44   867 0001:00036F4D
   868 0001:00036F6B   870 0001:00036F89   871 0001:00036F96   872 0001:00036FA8
   873 0001:00036FB6   874 0001:00036FDC   875 0001:00037032   876 0001:0003708A
   877 0001:0003709E   878 0001:000370E8   881 0001:00037149   884 0001:0003715C
   885 0001:00037183   886 0001:000371AA   887 0001:000371B3   888 0001:000371C0
   889 0001:000371D7   890 0001:00037203   892 0001:00037221   893 0001:0003722E
   894 0001:0003724C   895 0001:0003725D   896 0001:0003726D   897 0001:00037283
   898 0001:00037285   899 0001:00037296   900 0001:000372B5   901 0001:000372E7
   905 0001:0003731B   906 0001:00037324   907 0001:00037342   909 0001:00037360
   910 0001:00037387   911 0001:000373B3   912 0001:00037423   913 0001:0003744A
   864 0001:00037450   914 0001:0003745C   917 0001:00037488   918 0001:0003749A
   921 0001:000374B0   922 0001:000374B6   923 0001:000374D1   851 0001:000374D4
   925 0001:000374ED   926 0001:000374FD   927 0001:0003750D   928 0001:00037524
   929 0001:00037532   934 0001:0003755F   935 0001:0003756B   936 0001:0003757E
   937 0001:00037583   940 0001:0003759E   945 0001:00037A1C   946 0001:00037A35
   947 0001:00037A37   948 0001:00037A46   949 0001:00037A56   950 0001:00037A8D
   964 0001:00037AC8   965 0001:00037AE4   966 0001:00037AF7   967 0001:00037B06
   968 0001:00037B16   969 0001:00037B25   970 0001:00037B34   971 0001:00037B42
   972 0001:00037B50   973 0001:00037B5E   974 0001:00037B6B   975 0001:00037B78
   976 0001:00037B9D   977 0001:00037BAB   978 0001:00037BBB   979 0001:00037BC7
   980 0001:00037BDB   981 0001:00037BE7   983 0001:00037C08   986 0001:00037C25
   987 0001:00037C2D   988 0001:00037C35   991 0001:00037C4D   999 0001:00037C70
  1000 0001:00037C8C  1001 0001:00037CA2  1002 0001:00037CB1  1003 0001:00037CC1
  1004 0001:00037CD2  1005 0001:00037CE1  1006 0001:00037CF0  1007 0001:00037D02
  1008 0001:00037D14  1009 0001:00037D22  1010 0001:00037D30  1011 0001:00037D3E
  1012 0001:00037D5A  1013 0001:00037D66  1014 0001:00037D76  1015 0001:00037D87
  1016 0001:00037D93  1017 0001:00037D9E  1018 0001:00037DAF  1019 0001:00037DB7
  1020 0001:00037DC8  1021 0001:00037DD4  1022 0001:00037DDF  1023 0001:00037DF0
  1024 0001:00037DFE  1025 0001:00037E06  1026 0001:00037E0E  1028 0001:00037E25
  1029 0001:00037E35  1030 0001:00037E45  1031 0001:00037E4D  1032 0001:00037E55
  1033 0001:00037E5D  1036 0001:00037E75

Line numbers for BisCallcImportFm(imcallc.bpl\BisCallcImportFm.pas) segment .itext

  1040 0002:00000734

Line numbers for BisCallcHbookActionReportEditFm(imcallc.bpl\BisCallcHbookActionReportEditFm.pas) segment .text

    57 0001:000386D8    58 0001:00038704    59 0001:0003870D    60 0001:00038715
    62 0001:00038718    63 0001:00038753    65 0001:00038799    67 0001:000387B1
    72 0001:0003895C    73 0001:0003896E    74 0001:00038977    75 0001:00038984
    80 0001:000389B8    81 0001:000389CA    82 0001:000389D3    83 0001:000389E0
    88 0001:00038A14    89 0001:00038A26    90 0001:00038A2F    91 0001:00038A3C

Line numbers for BisCallcHbookActionReportEditFm(imcallc.bpl\BisCallcHbookActionReportEditFm.pas) segment .itext

    94 0002:0000073C

Line numbers for BisCallcHbookActionReportsFm(imcallc.bpl\BisCallcHbookActionReportsFm.pas) segment .text

    34 0001:00038DE8    35 0001:00038DFF    36 0001:00038E08    37 0001:00038E10
    38 0001:00038E1D    39 0001:00038E28    40 0001:00038E33    41 0001:00038E3A
    42 0001:00038E3E    43 0001:00038E4E    44 0001:00038E51    45 0001:00038E5D
    46 0001:00038E69    47 0001:00038E7F    48 0001:00038E95    50 0001:00038EA8
    51 0001:00038EB7    52 0001:00038EC6    53 0001:00038ED5

Line numbers for BisCallcHbookActionReportsFm(imcallc.bpl\BisCallcHbookActionReportsFm.pas) segment .itext

    55 0002:00000744

Line numbers for BisCallcTakeBellFilterFm(imcallc.bpl\BisCallcTakeBellFilterFm.pas) segment .text

    45 0001:00039570    46 0001:00039582    47 0001:0003958B    48 0001:00039593
    49 0001:000395A0    54 0001:000395D4    55 0001:000395E6    56 0001:000395EF
    57 0001:000395F6    61 0001:00039610    62 0001:00039620    74 0001:00039624
    75 0001:00039647    76 0001:0003964D    77 0001:0003965E    78 0001:00039667
    79 0001:00039678    80 0001:00039689    81 0001:00039697    82 0001:000396A9
    83 0001:000396B2    84 0001:000396BE    85 0001:000396CA    87 0001:000396D6
    88 0001:000396EB    89 0001:000396F3    90 0001:00039713    91 0001:00039717
    93 0001:00039724    94 0001:00039732    95 0001:00039752    96 0001:00039772
    97 0001:00039787    98 0001:000397A0    99 0001:000397A6   100 0001:000397AA
   102 0001:000397B8   103 0001:000397D6   104 0001:000397EF   105 0001:00039806
    92 0001:0003980E   107 0001:0003981E   108 0001:0003982B   109 0001:00039835
   110 0001:00039845   113 0001:00039862   115 0001:00039872

Line numbers for BisCallcTakeBellFilterFm(imcallc.bpl\BisCallcTakeBellFilterFm.pas) segment .itext

   117 0002:0000074C

Line numbers for BisCallcTakeBellFrm(imcallc.bpl\BisCallcTakeBellFrm.pas) segment .text

   136 0001:0003A470   137 0001:0003A48F   138 0001:0003A4A0   139 0001:0003A4A8
   140 0001:0003A4AF   142 0001:0003A4B1   143 0001:0003A4CA   144 0001:0003A4EC
   145 0001:0003A502   146 0001:0003A50B   147 0001:0003A512   150 0001:0003A514
   151 0001:0003A51D   156 0001:0003A54C   157 0001:0003A550   158 0001:0003A561
   159 0001:0003A56B   160 0001:0003A572   162 0001:0003A575   163 0001:0003A57C
   172 0001:0003A580   173 0001:0003A59E   174 0001:0003A5AF   175 0001:0003A5BD
   176 0001:0003A5CF   177 0001:0003A5E1   178 0001:0003A60F   180 0001:0003A62A
   181 0001:0003A632   183 0001:0003A660   185 0001:0003A670   191 0001:0003A6EC
   192 0001:0003A70D   193 0001:0003A717   194 0001:0003A747   195 0001:0003A75C
   196 0001:0003A75E   197 0001:0003A76D   198 0001:0003A775   199 0001:0003A77D
   200 0001:0003A785   202 0001:0003A78B   203 0001:0003A793   204 0001:0003A7A2
   205 0001:0003A7AE   206 0001:0003A7BC   207 0001:0003A7C3   208 0001:0003A7E9
   209 0001:0003A811   211 0001:0003A833   213 0001:0003A843   214 0001:0003A850
   216 0001:0003A864   219 0001:0003A870   224 0001:0003A904   225 0001:0003A91B
   226 0001:0003A924   227 0001:0003A92F   228 0001:0003A93A   229 0001:0003A945
   230 0001:0003A951   231 0001:0003A95D   232 0001:0003A969   233 0001:0003A975
   234 0001:0003A981   235 0001:0003A98D   236 0001:0003A999   237 0001:0003A9A5
   238 0001:0003A9C5   239 0001:0003A9D8   240 0001:0003A9EB   241 0001:0003A9FE
   242 0001:0003AA11   243 0001:0003AA24   244 0001:0003AA37   245 0001:0003AA4A
   246 0001:0003AA6A   247 0001:0003AA7D   249 0001:0003AA90   250 0001:0003AA9C
   253 0001:0003AAA8   254 0001:0003AAB5   255 0001:0003AACB   256 0001:0003AAD8
   257 0001:0003AAE5   258 0001:0003AAF2   259 0001:0003AAFF   260 0001:0003AB0C
   261 0001:0003AB1C   263 0001:0003AB2C   264 0001:0003AB40   266 0001:0003AB54
   267 0001:0003AB60   268 0001:0003AB6C   269 0001:0003AB78   270 0001:0003AB84
   271 0001:0003AB90   272 0001:0003AB9C   273 0001:0003ABA8   274 0001:0003ABB4
   275 0001:0003ABC0   277 0001:0003ABCC   278 0001:0003ABDC   280 0001:0003ABEC
   281 0001:0003AC05   282 0001:0003AC15   284 0001:0003AC1B   285 0001:0003AC34
   286 0001:0003AC44   287 0001:0003AC54   289 0001:0003AC5A   290 0001:0003AC73
   291 0001:0003AC83   293 0001:0003AC89   294 0001:0003AC9B   295 0001:0003ACA2
   296 0001:0003ACB4   297 0001:0003ACBB   300 0001:0003AF28   301 0001:0003AF33
   302 0001:0003AF3E   303 0001:0003AF49   304 0001:0003AF54   305 0001:0003AF5F
   306 0001:0003AF6A   307 0001:0003AF76   312 0001:0003AF84   313 0001:0003AF9E
   314 0001:0003AFAC   315 0001:0003AFB8   316 0001:0003AFD8   321 0001:0003AFFC
   322 0001:0003B01C   323 0001:0003B027   324 0001:0003B038   325 0001:0003B046
   326 0001:0003B058   327 0001:0003B06B   328 0001:0003B0A8   329 0001:0003B0BD
   330 0001:0003B0C5   331 0001:0003B0DD   333 0001:0003B0E7   334 0001:0003B10A
   332 0001:0003B112   338 0001:0003B12B   340 0001:0003B13B   345 0001:0003B1E0
   346 0001:0003B200   347 0001:0003B20B   348 0001:0003B21C   349 0001:0003B22A
   350 0001:0003B23C   351 0001:0003B24F   352 0001:0003B28C   353 0001:0003B2A1
   354 0001:0003B2A9   355 0001:0003B2C1   357 0001:0003B2CB   358 0001:0003B2EE
   356 0001:0003B2F6   362 0001:0003B30F   364 0001:0003B31F   367 0001:0003B3C4
   368 0001:0003B3DF   369 0001:0003B3E1   370 0001:0003B3FF   371 0001:0003B424
   374 0001:0003B468   375 0001:0003B487   376 0001:0003B489   377 0001:0003B4A7
   380 0001:0003B4F5   383 0001:0003B55C   384 0001:0003B580   385 0001:0003B589
   386 0001:0003B591   387 0001:0003B5A2   388 0001:0003B5B2   390 0001:0003B5C7
   391 0001:0003B5D0   392 0001:0003B5F6   393 0001:0003B61C   394 0001:0003B642
   397 0001:0003B668   398 0001:0003B679   401 0001:0003B689   407 0001:0003B710
   408 0001:0003B72E   409 0001:0003B73F   410 0001:0003B750   411 0001:0003B75E
   412 0001:0003B770   413 0001:0003B789   414 0001:0003B79A   415 0001:0003B7B2
   416 0001:0003B7D5   417 0001:0003B7FD   421 0001:0003B814   422 0001:0003B81C
   424 0001:0003B82C   430 0001:0003B894   431 0001:0003B8B2   432 0001:0003B8C3
   433 0001:0003B8D4   434 0001:0003B8E2   435 0001:0003B8F4   436 0001:0003B90D
   437 0001:0003B91E   438 0001:0003B936   439 0001:0003B959   440 0001:0003B981
   444 0001:0003B998   445 0001:0003B9A0   447 0001:0003B9B0   454 0001:0003BA20
   455 0001:0003BA41   456 0001:0003BA5E   457 0001:0003BA60   458 0001:0003BA73
   459 0001:0003BA87   460 0001:0003BAA8   461 0001:0003BABE   462 0001:0003BACC
   463 0001:0003BAD7   464 0001:0003BAE2   465 0001:0003BB12   459 0001:0003BB15
   466 0001:0003BB1A   467 0001:0003BB37   468 0001:0003BB42   471 0001:0003BB4C
   475 0001:0003BB70   476 0001:0003BB79   477 0001:0003BB81   483 0001:0003BB84
   484 0001:0003BBA6   485 0001:0003BBBB   487 0001:0003BBDA   489 0001:0003BBED
   490 0001:0003BBFE   491 0001:0003BC1C   492 0001:0003BC31   493 0001:0003BC8D
   494 0001:0003BC91   496 0001:0003BC95   497 0001:0003BCF1   498 0001:0003BCF5
   500 0001:0003BCF9   501 0001:0003BD73   502 0001:0003BD77   504 0001:0003BD7B
   505 0001:0003BDF5   506 0001:0003BDF9   508 0001:0003BDFD   509 0001:0003BE77
   510 0001:0003BE7B   512 0001:0003BE7F   513 0001:0003BEF9   514 0001:0003BEFD
   516 0001:0003BF01   517 0001:0003BF7B   518 0001:0003BF7F   520 0001:0003BF83
   521 0001:0003BFEE   522 0001:0003C059   523 0001:0003C0D5   524 0001:0003C0F0
   527 0001:0003C10B   528 0001:0003C120   529 0001:0003C19A   530 0001:0003C19E
   532 0001:0003C1A2   533 0001:0003C21C   534 0001:0003C220   535 0001:0003C224
   537 0001:0003C228   538 0001:0003C2A2   539 0001:0003C2A6   540 0001:0003C2AA
   542 0001:0003C2AE   543 0001:0003C328   544 0001:0003C32C   545 0001:0003C330
   549 0001:0003C334   550 0001:0003C34A   551 0001:0003C35B   550 0001:0003C383
   554 0001:0003C386   555 0001:0003C39C   556 0001:0003C3AD   555 0001:0003C3D5
   563 0001:0003C3D8   565 0001:0003C3DF   569 0001:0003C6FC   570 0001:0003C701
   573 0001:0003C704   574 0001:0003C707   575 0001:0003C71B   579 0001:0003C720
   580 0001:0003C725   583 0001:0003C728   584 0001:0003C72B   585 0001:0003C73F
   588 0001:0003C744   589 0001:0003C747   590 0001:0003C76B   591 0001:0003C779
   592 0001:0003C787   595 0001:0003C78C   596 0001:0003C78F   598 0001:0003C7B6
   602 0001:0003C7B8   603 0001:0003C7C0   606 0001:0003C7C4   607 0001:0003C7C7
   608 0001:0003C7CB   609 0001:0003C7D3   610 0001:0003C7E5   612 0001:0003C7F9
   613 0001:0003C806   616 0001:0003C813   623 0001:0003C818   624 0001:0003C83A
   625 0001:0003C84A   626 0001:0003C85B   627 0001:0003C86C   628 0001:0003C87A
   629 0001:0003C88F   630 0001:0003C8AF   631 0001:0003C8C0   632 0001:0003C8D2
   633 0001:0003C8E0   634 0001:0003C8E2   635 0001:0003C8F4   637 0001:0003C907
   638 0001:0003C90B   639 0001:0003C945   641 0001:0003C97B   642 0001:0003C98B
   643 0001:0003C9BE   646 0001:0003C9EB   636 0001:0003C9F9   648 0001:0003CA0F
   650 0001:0003CA24   651 0001:0003CA34   653 0001:0003CA44   657 0001:0003CA5C
   658 0001:0003CA64   661 0001:0003CA74   664 0001:0003CB00   665 0001:0003CB03
   666 0001:0003CB27   667 0001:0003CB35   668 0001:0003CB43   675 0001:0003CB48
   676 0001:0003CB6A   677 0001:0003CB7A   678 0001:0003CB8B   679 0001:0003CB9C
   680 0001:0003CBAA   681 0001:0003CBBF   682 0001:0003CBDF   683 0001:0003CBF0
   684 0001:0003CC02   685 0001:0003CC10   686 0001:0003CC12   687 0001:0003CC24
   689 0001:0003CC37   690 0001:0003CC3B   691 0001:0003CC75   693 0001:0003CCAB
   694 0001:0003CCBB   695 0001:0003CCEE   698 0001:0003CD1B   688 0001:0003CD29
   700 0001:0003CD3F   702 0001:0003CD54   703 0001:0003CD64   705 0001:0003CD74
   709 0001:0003CD8C   710 0001:0003CD94   713 0001:0003CDA4

Line numbers for BisCallcTakeBellFrm(imcallc.bpl\BisCallcTakeBellFrm.pas) segment .itext

   715 0002:00000754

Line numbers for BisCallcTakeBellFm(imcallc.bpl\BisCallcTakeBellFm.pas) segment .text

    48 0001:0003D1F0    49 0001:0003D202    50 0001:0003D20B    51 0001:0003D213
    52 0001:0003D217    53 0001:0003D21E    54 0001:0003D225    55 0001:0003D22C
    56 0001:0003D23C    57 0001:0003D24C    60 0001:0003D2A0    61 0001:0003D2A5
    62 0001:0003D2AE    63 0001:0003D2B9    64 0001:0003D2C2    65 0001:0003D2D9
    68 0001:0003D2F0    71 0001:0003D2F8    72 0001:0003D2FB    73 0001:0003D302
    74 0001:0003D310    75 0001:0003D31E    79 0001:0003D320    80 0001:0003D32E
    84 0001:0003D330    85 0001:0003D33E    91 0001:0003D340    92 0001:0003D352
    93 0001:0003D35B    94 0001:0003D36F    97 0001:0003D38C    98 0001:0003D397
    99 0001:0003D3A3   103 0001:0003D3B4   104 0001:0003D3B9

Line numbers for BisCallcTakeBellFm(imcallc.bpl\BisCallcTakeBellFm.pas) segment .itext

   107 0002:0000075C

Line numbers for BisCallc(imcallc.bpl\BisCallc.pas) segment .text

    27 0001:0003D3EC    28 0001:0003D3F0    29 0001:0003D3F6    31 0001:0003D40B
    32 0001:0003D418    33 0001:0003D425    34 0001:0003D432    35 0001:0003D43F
    36 0001:0003D44C    37 0001:0003D459    38 0001:0003D466    39 0001:0003D473
    40 0001:0003D480    41 0001:0003D48D    42 0001:0003D49A    43 0001:0003D4A7
    44 0001:0003D4B4    45 0001:0003D4C1    46 0001:0003D4CE    47 0001:0003D4DB
    48 0001:0003D4E8    49 0001:0003D4F5    50 0001:0003D502    51 0001:0003D50F
    52 0001:0003D51C    53 0001:0003D529    54 0001:0003D536    55 0001:0003D543
    56 0001:0003D550    57 0001:0003D55D    60 0001:0003D56A

Line numbers for BisCallc(imcallc.bpl\BisCallc.pas) segment .itext

    62 0002:00000764

Line numbers for .imcallc(imcallc.dpk) segment .itext

   104 0002:0000076C

Bound resource files

c:\program files\codegear\rad studio\5.0\lib\WindowsXP.res
u:\source\imcallc.bpl\BisCallcMainFm.dfm
u:\source\imcallc.bpl\BisCallcHbookCurrencyEditFm.dfm
u:\source\imcallc.bpl\BisCallcHbookCurrencyFm.dfm
u:\source\imcallc.bpl\BisCallcHbookVariantEditFm.dfm
u:\source\imcallc.bpl\BisCallcHbookVariantsFm.dfm
u:\source\imcallc.bpl\BisCallcHbookAgreementEditFm.dfm
u:\source\imcallc.bpl\BisCallcHbookAgreementsFm.dfm
u:\source\imcallc.bpl\BisCallcHbookAccountFirmEditFm.dfm
u:\source\imcallc.bpl\BisCallcHbookAccountFirmsFm.dfm
u:\source\imcallc.bpl\BisCallcHbookPatternEditFm.dfm
u:\source\imcallc.bpl\BisCallcHbookPatternsFm.dfm
u:\source\imcallc.bpl\BisCallcHbookGroupEditFm.dfm
u:\source\imcallc.bpl\BisCallcHbookGroupsFm.dfm
u:\source\imcallc.bpl\BisCallcHbookAccountGroupEditFm.dfm
u:\source\imcallc.bpl\BisCallcHbookAccountGroupsFm.dfm
u:\source\imcallc.bpl\BisCallcHbookActionEditFm.dfm
u:\source\imcallc.bpl\BisCallcHbookActionsFm.dfm
u:\source\imcallc.bpl\BisCallcHbookAccountActionEditFm.dfm
u:\source\imcallc.bpl\BisCallcHbookAccountActionsFm.dfm
u:\source\imcallc.bpl\BisCallcHbookResultEditFm.dfm
u:\source\imcallc.bpl\BisCallcHbookResultsFm.dfm
u:\source\imcallc.bpl\BisCallcHbookActionResultEditFm.dfm
u:\source\imcallc.bpl\BisCallcHbookActionResultsFm.dfm
u:\source\imcallc.bpl\BisCallcHbookStatusEditFm.dfm
u:\source\imcallc.bpl\BisCallcHbookStatusesFm.dfm
u:\source\imcallc.bpl\BisCallcHbookCaseEditFm.dfm
u:\source\imcallc.bpl\BisCallcHbookCasesFm.dfm
u:\source\imcallc.bpl\BisCallcHbookDebtorHistoriesFm.dfm
u:\source\imcallc.bpl\BisCallcHbookDebtorEditFm.dfm
u:\source\imcallc.bpl\BisCallcHbookDebtorsFm.dfm
u:\source\imcallc.bpl\BisCallcHbookPlanEditFm.dfm
u:\source\imcallc.bpl\BisCallcHbookPlansFm.dfm
u:\source\imcallc.bpl\BisCallcHbookDealEditFm.dfm
u:\source\imcallc.bpl\BisCallcHbookDealsFm.dfm
u:\source\imcallc.bpl\BisCallcHbookPaymentEditFm.dfm
u:\source\imcallc.bpl\BisCallcHbookPaymentsFm.dfm
u:\source\imcallc.bpl\BisCallcHbookTaskEditFm.dfm
u:\source\imcallc.bpl\BisCallcHbookTasksFm.dfm
u:\source\imcallc.bpl\BisCallcHbookTaskDocumentEditFm.dfm
u:\source\imcallc.bpl\BisCallcHbookTaskDocumentsFm.dfm
u:\source\imcallc.bpl\BisCallcTaskFrm.dfm
u:\source\imcallc.bpl\BisCallcReadinessFm.dfm
u:\source\imcallc.bpl\BisCallcTaskExecuteInfoFm.dfm
u:\source\imcallc.bpl\BisCallcTaskFm.dfm
u:\source\imcallc.bpl\BisCallcDealFrameTasksFrm.dfm
u:\source\imcallc.bpl\BisCallcDealFrm.dfm
u:\source\imcallc.bpl\BisCallcTaskOperatorFm.dfm
u:\source\imcallc.bpl\BisCallcDealsFrameTasksFilterFm.dfm
u:\source\imcallc.bpl\BisCallcDealEditFm.dfm
u:\source\imcallc.bpl\BisCallcDealsFrameTasksFrm.dfm
u:\source\imcallc.bpl\BisCallcDealsFrm.dfm
u:\source\imcallc.bpl\BisCallcTaskLeaderFm.dfm
u:\source\imcallc.bpl\BisCallcTaskClerkFm.dfm
u:\source\imcallc.bpl\BisCallcTaskManagerFm.dfm
u:\source\imcallc.bpl\BisCallcHbookPlanActionEditFm.dfm
u:\source\imcallc.bpl\BisCallcHbookPlanActionsFm.dfm
u:\source\imcallc.bpl\BisCallcImportFm.dfm
u:\source\imcallc.bpl\BisCallcHbookActionReportEditFm.dfm
u:\source\imcallc.bpl\BisCallcHbookActionReportsFm.dfm
u:\source\imcallc.bpl\BisCallcTakeBellFilterFm.dfm
u:\source\imcallc.bpl\BisCallcTakeBellFrm.dfm
u:\source\imcallc.bpl\BisCallcTakeBellFm.dfm
imcallc.res
imcallc.drf


Program entry point at 0002:0000076C
