
 Start         Length     Name                   Class
 0001:00401000 00032E1CH .text                   CODE
 0002:00434000 000004ECH .itext                  ICODE
 0003:00435000 00000040H .data                   DATA
 0004:00436000 000001B0H .bss                    BSS
 0005:00000000 00000000H .tls                    TLS


Detailed map of segments

 0001:00000000 0000012E C=CODE     S=.text    G=(none)   M=System   ACBP=A9
 0001:00000130 000001C3 C=CODE     S=.text    G=(none)   M=SysInit  ACBP=A9
 0001:000002F4 00000006 C=CODE     S=.text    G=(none)   M=BisIfaceModules ACBP=A9
 0001:000002FC 0000000E C=CODE     S=.text    G=(none)   M=BisObjects ACBP=A9
 0001:0000030C 000000F6 C=CODE     S=.text    G=(none)   M=Classes  ACBP=A9
 0001:00000404 0000005C C=CODE     S=.text    G=(none)   M=Windows  ACBP=A9
 0001:00000460 0000000E C=CODE     S=.text    G=(none)   M=TypInfo  ACBP=A9
 0001:00000470 00000046 C=CODE     S=.text    G=(none)   M=SysUtils ACBP=A9
 0001:000004B8 0000006E C=CODE     S=.text    G=(none)   M=Variants ACBP=A9
 0001:00000528 00000006 C=CODE     S=.text    G=(none)   M=VarUtils ACBP=A9
 0001:00000530 0000000E C=CODE     S=.text    G=(none)   M=BisObject ACBP=A9
 0001:00000540 00000026 C=CODE     S=.text    G=(none)   M=Contnrs  ACBP=A9
 0001:00000568 00000036 C=CODE     S=.text    G=(none)   M=BisCoreObjects ACBP=A9
 0001:000005A0 00000006 C=CODE     S=.text    G=(none)   M=IniFiles ACBP=A9
 0001:000005A8 0000000E C=CODE     S=.text    G=(none)   M=BisDialogs ACBP=A9
 0001:000005B8 0000011E C=CODE     S=.text    G=(none)   M=BisFm    ACBP=A9
 0001:000006D8 00000006 C=CODE     S=.text    G=(none)   M=DECUtil  ACBP=A9
 0001:000006E0 00000006 C=CODE     S=.text    G=(none)   M=Hash     ACBP=A9
 0001:000006E8 00000006 C=CODE     S=.text    G=(none)   M=Cipher   ACBP=A9
 0001:000006F0 00000006 C=CODE     S=.text    G=(none)   M=Cipher1  ACBP=A9
 0001:000006F8 00000096 C=CODE     S=.text    G=(none)   M=BisParams ACBP=A9
 0001:00000790 00000006 C=CODE     S=.text    G=(none)   M=BisControls ACBP=A9
 0001:00000798 00000016 C=CODE     S=.text    G=(none)   M=Menus    ACBP=A9
 0001:000007B0 0000001E C=CODE     S=.text    G=(none)   M=ActnList ACBP=A9
 0001:000007D0 0000000E C=CODE     S=.text    G=(none)   M=Graphics ACBP=A9
 0001:000007E0 00000006 C=CODE     S=.text    G=(none)   M=Registry ACBP=A9
 0001:000007E8 00000006 C=CODE     S=.text    G=(none)   M=Themes   ACBP=A9
 0001:000007F0 0000018E C=CODE     S=.text    G=(none)   M=Controls ACBP=A9
 0001:00000980 00000006 C=CODE     S=.text    G=(none)   M=UxTheme  ACBP=A9
 0001:00000988 00000006 C=CODE     S=.text    G=(none)   M=MultiMon ACBP=A9
 0001:00000990 00000006 C=CODE     S=.text    G=(none)   M=DwmApi   ACBP=A9
 0001:00000998 00000156 C=CODE     S=.text    G=(none)   M=Forms    ACBP=A9
 0001:00000AF0 00000006 C=CODE     S=.text    G=(none)   M=HelpIntfs ACBP=A9
 0001:00000AF8 0000000E C=CODE     S=.text    G=(none)   M=Dialogs  ACBP=A9
 0001:00000B08 00000006 C=CODE     S=.text    G=(none)   M=StdCtrls ACBP=A9
 0001:00000B10 00000006 C=CODE     S=.text    G=(none)   M=Printers ACBP=A9
 0001:00000B18 0000000E C=CODE     S=.text    G=(none)   M=ExtCtrls ACBP=A9
 0001:00000B28 00000006 C=CODE     S=.text    G=(none)   M=GraphUtil ACBP=A9
 0001:00000B30 00000006 C=CODE     S=.text    G=(none)   M=Clipbrd  ACBP=A9
 0001:00000B38 00000006 C=CODE     S=.text    G=(none)   M=FlatSB   ACBP=A9
 0001:00000B40 00000066 C=CODE     S=.text    G=(none)   M=DB       ACBP=A9
 0001:00000BA8 00000006 C=CODE     S=.text    G=(none)   M=WideStrings ACBP=A9
 0001:00000BB0 00000006 C=CODE     S=.text    G=(none)   M=FMTBcd   ACBP=A9
 0001:00000BB8 00000006 C=CODE     S=.text    G=(none)   M=SqlTimSt ACBP=A9
 0001:00000BC0 0000000E C=CODE     S=.text    G=(none)   M=DateUtils ACBP=A9
 0001:00000BD0 00000006 C=CODE     S=.text    G=(none)   M=ComObj   ACBP=A9
 0001:00000BD8 0000000E C=CODE     S=.text    G=(none)   M=DBCtrls  ACBP=A9
 0001:00000BE8 00000016 C=CODE     S=.text    G=(none)   M=ComCtrls ACBP=A9
 0001:00000C00 00000006 C=CODE     S=.text    G=(none)   M=ExtActns ACBP=A9
 0001:00000C08 00000006 C=CODE     S=.text    G=(none)   M=ExtDlgs  ACBP=A9
 0001:00000C10 00000006 C=CODE     S=.text    G=(none)   M=Buttons  ACBP=A9
 0001:00000C18 00000006 C=CODE     S=.text    G=(none)   M=Mapi     ACBP=A9
 0001:00000C20 00000006 C=CODE     S=.text    G=(none)   M=DBPWDlg  ACBP=A9
 0001:00000C28 00000006 C=CODE     S=.text    G=(none)   M=DBLogDlg ACBP=A9
 0001:00000C30 00000006 C=CODE     S=.text    G=(none)   M=rxToolEdit ACBP=A9
 0001:00000C38 00000006 C=CODE     S=.text    G=(none)   M=rxDateUtil ACBP=A9
 0001:00000C40 00000006 C=CODE     S=.text    G=(none)   M=RXCtrls  ACBP=A9
 0001:00000C48 00000006 C=CODE     S=.text    G=(none)   M=RxHook   ACBP=A9
 0001:00000C50 00000006 C=CODE     S=.text    G=(none)   M=RXConst  ACBP=A9
 0001:00000C58 00000006 C=CODE     S=.text    G=(none)   M=rxVclutils ACBP=A9
 0001:00000C60 00000006 C=CODE     S=.text    G=(none)   M=RXProps  ACBP=A9
 0001:00000C68 00000006 C=CODE     S=.text    G=(none)   M=rxAppUtils ACBP=A9
 0001:00000C70 00000006 C=CODE     S=.text    G=(none)   M=RxPrgrss ACBP=A9
 0001:00000C78 00000006 C=CODE     S=.text    G=(none)   M=rxCurrEdit ACBP=A9
 0001:00000C80 00000006 C=CODE     S=.text    G=(none)   M=ThemedDBGrid ACBP=A9
 0001:00000C88 00000006 C=CODE     S=.text    G=(none)   M=RxRichEd ACBP=A9
 0001:00000C90 0000001E C=CODE     S=.text    G=(none)   M=OleCtnrs ACBP=A9
 0001:00000CB0 00000016 C=CODE     S=.text    G=(none)   M=CheckLst ACBP=A9
 0001:00000CC8 0000003E C=CODE     S=.text    G=(none)   M=BisUtils ACBP=A9
 0001:00000D08 00000056 C=CODE     S=.text    G=(none)   M=BisParam ACBP=A9
 0001:00000D60 00000016 C=CODE     S=.text    G=(none)   M=BisFilterGroups ACBP=A9
 0001:00000D78 0000000E C=CODE     S=.text    G=(none)   M=BisIfaces ACBP=A9
 0001:00000D88 0000001E C=CODE     S=.text    G=(none)   M=BisPermissions ACBP=A9
 0001:00000DA8 00000006 C=CODE     S=.text    G=(none)   M=BisModules ACBP=A9
 0001:00000DB0 00000046 C=CODE     S=.text    G=(none)   M=BisDataSet ACBP=A9
 0001:00000DF8 00000006 C=CODE     S=.text    G=(none)   M=BisPicture ACBP=A9
 0001:00000E00 00000006 C=CODE     S=.text    G=(none)   M=GIFImage ACBP=A9
 0001:00000E08 00000006 C=CODE     S=.text    G=(none)   M=jpeg     ACBP=A9
 0001:00000E10 00000006 C=CODE     S=.text    G=(none)   M=BisOrders ACBP=A9
 0001:00000E18 00000026 C=CODE     S=.text    G=(none)   M=BisCore  ACBP=A9
 0001:00000E40 00000006 C=CODE     S=.text    G=(none)   M=BisInterfaces ACBP=A9
 0001:00000E48 00000006 C=CODE     S=.text    G=(none)   M=BisParamEditDataSelect ACBP=A9
 0001:00000E50 00000006 C=CODE     S=.text    G=(none)   M=BisScriptModules ACBP=A9
 0001:00000E58 0000002E C=CODE     S=.text    G=(none)   M=BisFieldNames ACBP=A9
 0001:00000E88 00000006 C=CODE     S=.text    G=(none)   M=kbmMemTable ACBP=A9
 0001:00000E90 00000006 C=CODE     S=.text    G=(none)   M=OleServer ACBP=A9
 0001:00000E98 00000006 C=CODE     S=.text    G=(none)   M=OleCtrls ACBP=A9
 0001:00000EA0 00000006 C=CODE     S=.text    G=(none)   M=AxCtrls  ACBP=A9
 0001:00000EA8 00000006 C=CODE     S=.text    G=(none)   M=BisTimedMsgFm ACBP=A9
 0001:00000EB0 00000006 C=CODE     S=.text    G=(none)   M=BisReportModules ACBP=A9
 0001:00000EB8 0000003E C=CODE     S=.text    G=(none)   M=BisFrm   ACBP=A9
 0001:00000EF8 00000016 C=CODE     S=.text    G=(none)   M=ActnMan  ACBP=A9
 0001:00000F10 00000006 C=CODE     S=.text    G=(none)   M=ActnMenus ACBP=A9
 0001:00000F18 00000006 C=CODE     S=.text    G=(none)   M=XPStyleActnCtrls ACBP=A9
 0001:00000F20 00000006 C=CODE     S=.text    G=(none)   M=BisDocumentFm ACBP=A9
 0001:00000F28 00000006 C=CODE     S=.text    G=(none)   M=BisProvider ACBP=A9
 0001:00000F30 00000006 C=CODE     S=.text    G=(none)   M=BisConnections ACBP=A9
 0001:00000F38 00000086 C=CODE     S=.text    G=(none)   M=BisDataFm ACBP=A9
 0001:00000FC0 00000016 C=CODE     S=.text    G=(none)   M=BisSizeGrip ACBP=A9
 0001:00000FD8 000000D6 C=CODE     S=.text    G=(none)   M=BisDataEditFm ACBP=A9
 0001:000010B0 00000166 C=CODE     S=.text    G=(none)   M=BisDataFrm ACBP=A9
 0001:00001218 0000000E C=CODE     S=.text    G=(none)   M=BisMemoFm ACBP=A9
 0001:00001228 00000006 C=CODE     S=.text    G=(none)   M=SynEditHighlighter ACBP=A9
 0001:00001230 00000006 C=CODE     S=.text    G=(none)   M=SynEditMiscClasses ACBP=A9
 0001:00001238 00000006 C=CODE     S=.text    G=(none)   M=SynRegExpr ACBP=A9
 0001:00001240 00000006 C=CODE     S=.text    G=(none)   M=SynHighlighterSQL ACBP=A9
 0001:00001248 0000000E C=CODE     S=.text    G=(none)   M=SynEdit  ACBP=A9
 0001:00001258 00000006 C=CODE     S=.text    G=(none)   M=SynEditKeyCmds ACBP=A9
 0001:00001260 00000006 C=CODE     S=.text    G=(none)   M=SynTextDrawer ACBP=A9
 0001:00001268 00000006 C=CODE     S=.text    G=(none)   M=MiTeC_Routines ACBP=A9
 0001:00001270 00000006 C=CODE     S=.text    G=(none)   M=MSI_Processes ACBP=A9
 0001:00001278 00000006 C=CODE     S=.text    G=(none)   M=MiTeC_PSAPI ACBP=A9
 0001:00001280 00000006 C=CODE     S=.text    G=(none)   M=MSI_Devices ACBP=A9
 0001:00001288 00000006 C=CODE     S=.text    G=(none)   M=MSI_CPU  ACBP=A9
 0001:00001290 00000006 C=CODE     S=.text    G=(none)   M=JclDebug ACBP=A9
 0001:00001298 00000006 C=CODE     S=.text    G=(none)   M=JclSysInfo ACBP=A9
 0001:000012A0 00000006 C=CODE     S=.text    G=(none)   M=JclStrings ACBP=A9
 0001:000012A8 00000006 C=CODE     S=.text    G=(none)   M=JclSysUtils ACBP=A9
 0001:000012B0 00000006 C=CODE     S=.text    G=(none)   M=JclWideStrings ACBP=A9
 0001:000012B8 00000006 C=CODE     S=.text    G=(none)   M=JclShell ACBP=A9
 0001:000012C0 00000006 C=CODE     S=.text    G=(none)   M=JclRegistry ACBP=A9
 0001:000012C8 00000006 C=CODE     S=.text    G=(none)   M=JclHookExcept ACBP=A9
 0001:000012D0 0000000E C=CODE     S=.text    G=(none)   M=BisConnectionModules ACBP=A9
 0001:000012E0 00000006 C=CODE     S=.text    G=(none)   M=BisCoreThreads ACBP=A9
 0001:000012E8 00000006 C=CODE     S=.text    G=(none)   M=AsyncCalls ACBP=A9
 0001:000012F0 00000006 C=CODE     S=.text    G=(none)   M=BisServiceApplication ACBP=A9
 0001:000012F8 00000006 C=CODE     S=.text    G=(none)   M=BisSvcMgr ACBP=A9
 0001:00001300 00000006 C=CODE     S=.text    G=(none)   M=BisCryptUtils ACBP=A9
 0001:00001308 00000006 C=CODE     S=.text    G=(none)   M=SvcMgr   ACBP=A9
 0001:00001310 0000002E C=CODE     S=.text    G=(none)   M=BisDesignConsts ACBP=A9
 0001:00001340 00000006 C=CODE     S=.text    G=(none)   M=AppEvnts ACBP=A9
 0001:00001348 00000006 C=CODE     S=.text    G=(none)   M=CustomizeDlg ACBP=A9
 0001:00001350 00000066 C=CODE     S=.text    G=(none)   M=BisMdiMainFm ACBP=A9
 0001:000013B8 00000026 C=CODE     S=.text    G=(none)   M=BisMainFm ACBP=A9
 0001:000013E0 00000006 C=CODE     S=.text    G=(none)   M=BisInternetProtocol ACBP=A9
 0001:000013E8 0000076E C=CODE     S=.text    G=(none)   M=BisDesignMainFm ACBP=A9
 0001:00001B58 0000001E C=CODE     S=.text    G=(none)   M=BisDataGridFm ACBP=A9
 0001:00001B78 000000AE C=CODE     S=.text    G=(none)   M=BisDataGridFrm ACBP=A9
 0001:00001C28 0000005E C=CODE     S=.text    G=(none)   M=BisDBTree ACBP=A9
 0001:00001C88 0000000E C=CODE     S=.text    G=(none)   M=VirtualDBTreeEx ACBP=A9
 0001:00001C98 0000000E C=CODE     S=.text    G=(none)   M=VirtualTrees ACBP=A9
 0001:00001CA8 00000006 C=CODE     S=.text    G=(none)   M=VTAccessibilityFactory ACBP=A9
 0001:00001CB0 00000B0A C=CODE     S=.text    G=(none)   M=BisDesignHbookFirmTypeEditFm ACBP=A9
 0001:000027BC 00000506 C=CODE     S=.text    G=(none)   M=BisDesignHbookFirmTypesFm ACBP=A9
 0001:00002CC4 0000001E C=CODE     S=.text    G=(none)   M=BisDataTreeFm ACBP=A9
 0001:00002CE4 0000001E C=CODE     S=.text    G=(none)   M=BisDataTreeFrm ACBP=A9
 0001:00002D04 0000083E C=CODE     S=.text    G=(none)   M=BisDesignHbookLocalitiesFrm ACBP=A9
 0001:00003544 00000A6A C=CODE     S=.text    G=(none)   M=BisDesignHbookLocalityEditFm ACBP=A9
 0001:00003FB0 000004E2 C=CODE     S=.text    G=(none)   M=BisDesignHbookLocalitiesFm ACBP=A9
 0001:00004494 00000D4E C=CODE     S=.text    G=(none)   M=BisDesignHbookStreetEditFm ACBP=A9
 0001:000051E4 00000ADA C=CODE     S=.text    G=(none)   M=BisDesignHbookStreetsFm ACBP=A9
 0001:00005CC0 000021DA C=CODE     S=.text    G=(none)   M=BisDesignHbookFirmEditFm ACBP=A9
 0001:00007E9C 000009E2 C=CODE     S=.text    G=(none)   M=BisDesignHbookFirmsFm ACBP=A9
 0001:00008880 00002496 C=CODE     S=.text    G=(none)   M=BisDesignHbookAccountEditFm ACBP=A9
 0001:0000AD18 00000BFA C=CODE     S=.text    G=(none)   M=BisDesignHbookAccountsFm ACBP=A9
 0001:0000B914 00000B92 C=CODE     S=.text    G=(none)   M=BisDesignHbookRoleEditFm ACBP=A9
 0001:0000C4A8 000005E2 C=CODE     S=.text    G=(none)   M=BisDesignHbookRolesFm ACBP=A9
 0001:0000CA8C 000012AE C=CODE     S=.text    G=(none)   M=BisDesignHbookRolesAndAccountsFm ACBP=A9
 0001:0000DD3C 00000B0A C=CODE     S=.text    G=(none)   M=BisDesignHbookApplicationEditFm ACBP=A9
 0001:0000E848 00000A76 C=CODE     S=.text    G=(none)   M=BisDesignHbookInterfaceFilterFm ACBP=A9
 0001:0000F2C0 00000ED6 C=CODE     S=.text    G=(none)   M=BisDesignHbookInterfaceEditFm ACBP=A9
 0001:00010198 000004A6 C=CODE     S=.text    G=(none)   M=BisDesignHbookInterfacesFm ACBP=A9
 0001:00010640 00002012 C=CODE     S=.text    G=(none)   M=BisDesignHbookReportEditFm ACBP=A9
 0001:00012654 00001A92 C=CODE     S=.text    G=(none)   M=BisDesignHbookScriptEditFm ACBP=A9
 0001:000140E8 00001B72 C=CODE     S=.text    G=(none)   M=BisDesignHbookDocumentEditFm ACBP=A9
 0001:00015C5C 00001816 C=CODE     S=.text    G=(none)   M=BisDesignHbookInterfacesFrm ACBP=A9
 0001:00017474 00001722 C=CODE     S=.text    G=(none)   M=BisDesignHbookPermissionEditFm ACBP=A9
 0001:00018B98 00000A72 C=CODE     S=.text    G=(none)   M=BisDesignHbookPermissionsFm ACBP=A9
 0001:0001960C 00000ECA C=CODE     S=.text    G=(none)   M=BisDesignHbookApplicationInterfaceEditFm ACBP=A9
 0001:0001A4D8 00000B0A C=CODE     S=.text    G=(none)   M=BisDesignHbookApplicationInterfacesFm ACBP=A9
 0001:0001AFE4 00000822 C=CODE     S=.text    G=(none)   M=BisDesignHbookApplicationsFrm ACBP=A9
 0001:0001B808 0000051A C=CODE     S=.text    G=(none)   M=BisDesignHbookApplicationsFm ACBP=A9
 0001:0001BD24 00000B92 C=CODE     S=.text    G=(none)   M=BisDesignHbookAccountRoleEditFm ACBP=A9
 0001:0001C8B8 0000051A C=CODE     S=.text    G=(none)   M=BisDesignHbookAccountRolesFm ACBP=A9
 0001:0001CDD4 00000BC2 C=CODE     S=.text    G=(none)   M=BisDesignHbookProfileEditFm ACBP=A9
 0001:0001D998 0000052E C=CODE     S=.text    G=(none)   M=BisDesignHbookProfilesFm ACBP=A9
 0001:0001DEC8 00000F32 C=CODE     S=.text    G=(none)   M=BisDesignHbookSessionsFm ACBP=A9
 0001:0001EDFC 000021D6 C=CODE     S=.text    G=(none)   M=BisDesignHbookMenuEditFm ACBP=A9
 0001:00020FD4 000005D6 C=CODE     S=.text    G=(none)   M=BisDesignHbookMenusFm ACBP=A9
 0001:000215AC 000013B2 C=CODE     S=.text    G=(none)   M=BisDesignHbookReportsFrm ACBP=A9
 0001:00022960 000005A6 C=CODE     S=.text    G=(none)   M=BisDesignHbookReportsFm ACBP=A9
 0001:00022F08 000008D6 C=CODE     S=.text    G=(none)   M=BisDesignHbookScriptsFrm ACBP=A9
 0001:000237E0 0000057A C=CODE     S=.text    G=(none)   M=BisDesignHbookScriptsFm ACBP=A9
 0001:00023D5C 0000129A C=CODE     S=.text    G=(none)   M=BisDesignJournalActionEditFm ACBP=A9
 0001:00024FF8 00000832 C=CODE     S=.text    G=(none)   M=BisDesignJournalActionsFm ACBP=A9
 0001:0002582C 0000053A C=CODE     S=.text    G=(none)   M=BisDesignHbookDocumentsFm ACBP=A9
 0001:00025D68 00000B72 C=CODE     S=.text    G=(none)   M=BisDesignHbookConstEditFm ACBP=A9
 0001:000268DC 00000502 C=CODE     S=.text    G=(none)   M=BisDesignHbookConstsFm ACBP=A9
 0001:00026DE0 00000F9E C=CODE     S=.text    G=(none)   M=BisDesignHbookLockEditFm ACBP=A9
 0001:00027D80 0000063A C=CODE     S=.text    G=(none)   M=BisDesignHbookLocksFm ACBP=A9
 0001:000283BC 00002F02 C=CODE     S=.text    G=(none)   M=BisDesignHbookTaskEditFm ACBP=A9
 0001:0002B2C0 00000A16 C=CODE     S=.text    G=(none)   M=BisDesignHbookTasksFm ACBP=A9
 0001:0002BCD8 000013D6 C=CODE     S=.text    G=(none)   M=BisDesignHbookExchangeEditFm ACBP=A9
 0001:0002D0B0 0000064E C=CODE     S=.text    G=(none)   M=BisDesignHbookExchangesFm ACBP=A9
 0001:0002D700 000007F2 C=CODE     S=.text    G=(none)   M=BisExecuteFm ACBP=A9
 0001:0002DEF4 000040D6 C=CODE     S=.text    G=(none)   M=BisDesignExchangeFm ACBP=A9
 0001:00031FCC 0000018E C=CODE     S=.text    G=(none)   M=BisDesign ACBP=A9
 0001:0003215C 00000CBF C=CODE     S=.text    G=(none)   M=.imdesign ACBP=A9
 0002:00000000 00000006 C=ICODE    S=.itext   G=(none)   M=System   ACBP=A9
 0002:00000008 00000006 C=ICODE    S=.itext   G=(none)   M=Classes  ACBP=A9
 0002:00000010 00000011 C=ICODE    S=.itext   G=(none)   M=Windows  ACBP=A9
 0002:00000024 00000006 C=ICODE    S=.itext   G=(none)   M=TypInfo  ACBP=A9
 0002:0000002C 00000006 C=ICODE    S=.itext   G=(none)   M=SysUtils ACBP=A9
 0002:00000034 00000006 C=ICODE    S=.itext   G=(none)   M=Variants ACBP=A9
 0002:0000003C 00000006 C=ICODE    S=.itext   G=(none)   M=VarUtils ACBP=A9
 0002:00000044 00000006 C=ICODE    S=.itext   G=(none)   M=IniFiles ACBP=A9
 0002:0000004C 00000006 C=ICODE    S=.itext   G=(none)   M=BisFm    ACBP=A9
 0002:00000054 00000006 C=ICODE    S=.itext   G=(none)   M=DECUtil  ACBP=A9
 0002:0000005C 00000006 C=ICODE    S=.itext   G=(none)   M=Hash     ACBP=A9
 0002:00000064 00000006 C=ICODE    S=.itext   G=(none)   M=Cipher   ACBP=A9
 0002:0000006C 00000006 C=ICODE    S=.itext   G=(none)   M=Cipher1  ACBP=A9
 0002:00000074 00000006 C=ICODE    S=.itext   G=(none)   M=Menus    ACBP=A9
 0002:0000007C 00000006 C=ICODE    S=.itext   G=(none)   M=ActnList ACBP=A9
 0002:00000084 00000006 C=ICODE    S=.itext   G=(none)   M=Graphics ACBP=A9
 0002:0000008C 00000006 C=ICODE    S=.itext   G=(none)   M=Registry ACBP=A9
 0002:00000094 00000006 C=ICODE    S=.itext   G=(none)   M=Themes   ACBP=A9
 0002:0000009C 00000006 C=ICODE    S=.itext   G=(none)   M=Controls ACBP=A9
 0002:000000A4 00000006 C=ICODE    S=.itext   G=(none)   M=UxTheme  ACBP=A9
 0002:000000AC 00000006 C=ICODE    S=.itext   G=(none)   M=MultiMon ACBP=A9
 0002:000000B4 00000006 C=ICODE    S=.itext   G=(none)   M=DwmApi   ACBP=A9
 0002:000000BC 00000006 C=ICODE    S=.itext   G=(none)   M=Forms    ACBP=A9
 0002:000000C4 00000006 C=ICODE    S=.itext   G=(none)   M=HelpIntfs ACBP=A9
 0002:000000CC 00000006 C=ICODE    S=.itext   G=(none)   M=Dialogs  ACBP=A9
 0002:000000D4 00000006 C=ICODE    S=.itext   G=(none)   M=Printers ACBP=A9
 0002:000000DC 00000006 C=ICODE    S=.itext   G=(none)   M=ExtCtrls ACBP=A9
 0002:000000E4 00000006 C=ICODE    S=.itext   G=(none)   M=GraphUtil ACBP=A9
 0002:000000EC 00000006 C=ICODE    S=.itext   G=(none)   M=Clipbrd  ACBP=A9
 0002:000000F4 00000006 C=ICODE    S=.itext   G=(none)   M=FlatSB   ACBP=A9
 0002:000000FC 00000006 C=ICODE    S=.itext   G=(none)   M=DB       ACBP=A9
 0002:00000104 00000006 C=ICODE    S=.itext   G=(none)   M=WideStrings ACBP=A9
 0002:0000010C 00000006 C=ICODE    S=.itext   G=(none)   M=FMTBcd   ACBP=A9
 0002:00000114 00000006 C=ICODE    S=.itext   G=(none)   M=SqlTimSt ACBP=A9
 0002:0000011C 00000006 C=ICODE    S=.itext   G=(none)   M=ComObj   ACBP=A9
 0002:00000124 00000006 C=ICODE    S=.itext   G=(none)   M=DBCtrls  ACBP=A9
 0002:0000012C 00000006 C=ICODE    S=.itext   G=(none)   M=ComCtrls ACBP=A9
 0002:00000134 00000006 C=ICODE    S=.itext   G=(none)   M=ExtActns ACBP=A9
 0002:0000013C 00000006 C=ICODE    S=.itext   G=(none)   M=ExtDlgs  ACBP=A9
 0002:00000144 00000006 C=ICODE    S=.itext   G=(none)   M=Buttons  ACBP=A9
 0002:0000014C 00000006 C=ICODE    S=.itext   G=(none)   M=Mapi     ACBP=A9
 0002:00000154 00000006 C=ICODE    S=.itext   G=(none)   M=DBPWDlg  ACBP=A9
 0002:0000015C 00000006 C=ICODE    S=.itext   G=(none)   M=DBLogDlg ACBP=A9
 0002:00000164 00000006 C=ICODE    S=.itext   G=(none)   M=rxToolEdit ACBP=A9
 0002:0000016C 00000006 C=ICODE    S=.itext   G=(none)   M=rxDateUtil ACBP=A9
 0002:00000174 00000006 C=ICODE    S=.itext   G=(none)   M=RXCtrls  ACBP=A9
 0002:0000017C 00000006 C=ICODE    S=.itext   G=(none)   M=RxHook   ACBP=A9
 0002:00000184 00000006 C=ICODE    S=.itext   G=(none)   M=RXConst  ACBP=A9
 0002:0000018C 00000006 C=ICODE    S=.itext   G=(none)   M=rxVclutils ACBP=A9
 0002:00000194 00000006 C=ICODE    S=.itext   G=(none)   M=RXProps  ACBP=A9
 0002:0000019C 00000006 C=ICODE    S=.itext   G=(none)   M=rxAppUtils ACBP=A9
 0002:000001A4 00000006 C=ICODE    S=.itext   G=(none)   M=RxPrgrss ACBP=A9
 0002:000001AC 00000006 C=ICODE    S=.itext   G=(none)   M=rxCurrEdit ACBP=A9
 0002:000001B4 00000006 C=ICODE    S=.itext   G=(none)   M=ThemedDBGrid ACBP=A9
 0002:000001BC 00000006 C=ICODE    S=.itext   G=(none)   M=RxRichEd ACBP=A9
 0002:000001C4 00000006 C=ICODE    S=.itext   G=(none)   M=OleCtnrs ACBP=A9
 0002:000001CC 00000006 C=ICODE    S=.itext   G=(none)   M=CheckLst ACBP=A9
 0002:000001D4 00000006 C=ICODE    S=.itext   G=(none)   M=BisUtils ACBP=A9
 0002:000001DC 00000006 C=ICODE    S=.itext   G=(none)   M=GIFImage ACBP=A9
 0002:000001E4 00000006 C=ICODE    S=.itext   G=(none)   M=jpeg     ACBP=A9
 0002:000001EC 00000006 C=ICODE    S=.itext   G=(none)   M=BisCore  ACBP=A9
 0002:000001F4 00000006 C=ICODE    S=.itext   G=(none)   M=kbmMemTable ACBP=A9
 0002:000001FC 00000006 C=ICODE    S=.itext   G=(none)   M=OleServer ACBP=A9
 0002:00000204 00000006 C=ICODE    S=.itext   G=(none)   M=OleCtrls ACBP=A9
 0002:0000020C 00000006 C=ICODE    S=.itext   G=(none)   M=AxCtrls  ACBP=A9
 0002:00000214 00000006 C=ICODE    S=.itext   G=(none)   M=BisTimedMsgFm ACBP=A9
 0002:0000021C 00000006 C=ICODE    S=.itext   G=(none)   M=ActnMan  ACBP=A9
 0002:00000224 00000006 C=ICODE    S=.itext   G=(none)   M=ActnMenus ACBP=A9
 0002:0000022C 00000006 C=ICODE    S=.itext   G=(none)   M=XPStyleActnCtrls ACBP=A9
 0002:00000234 00000006 C=ICODE    S=.itext   G=(none)   M=SynEditHighlighter ACBP=A9
 0002:0000023C 00000006 C=ICODE    S=.itext   G=(none)   M=SynEditMiscClasses ACBP=A9
 0002:00000244 00000006 C=ICODE    S=.itext   G=(none)   M=SynRegExpr ACBP=A9
 0002:0000024C 00000006 C=ICODE    S=.itext   G=(none)   M=SynHighlighterSQL ACBP=A9
 0002:00000254 00000006 C=ICODE    S=.itext   G=(none)   M=SynEdit  ACBP=A9
 0002:0000025C 00000006 C=ICODE    S=.itext   G=(none)   M=SynEditKeyCmds ACBP=A9
 0002:00000264 00000006 C=ICODE    S=.itext   G=(none)   M=SynTextDrawer ACBP=A9
 0002:0000026C 00000006 C=ICODE    S=.itext   G=(none)   M=MiTeC_Routines ACBP=A9
 0002:00000274 00000006 C=ICODE    S=.itext   G=(none)   M=MSI_Processes ACBP=A9
 0002:0000027C 00000006 C=ICODE    S=.itext   G=(none)   M=MiTeC_PSAPI ACBP=A9
 0002:00000284 00000006 C=ICODE    S=.itext   G=(none)   M=MSI_Devices ACBP=A9
 0002:0000028C 00000006 C=ICODE    S=.itext   G=(none)   M=MSI_CPU  ACBP=A9
 0002:00000294 00000006 C=ICODE    S=.itext   G=(none)   M=JclDebug ACBP=A9
 0002:0000029C 00000006 C=ICODE    S=.itext   G=(none)   M=JclSysInfo ACBP=A9
 0002:000002A4 00000006 C=ICODE    S=.itext   G=(none)   M=JclStrings ACBP=A9
 0002:000002AC 00000006 C=ICODE    S=.itext   G=(none)   M=JclSysUtils ACBP=A9
 0002:000002B4 00000006 C=ICODE    S=.itext   G=(none)   M=JclWideStrings ACBP=A9
 0002:000002BC 00000006 C=ICODE    S=.itext   G=(none)   M=JclShell ACBP=A9
 0002:000002C4 00000006 C=ICODE    S=.itext   G=(none)   M=JclRegistry ACBP=A9
 0002:000002CC 00000006 C=ICODE    S=.itext   G=(none)   M=JclHookExcept ACBP=A9
 0002:000002D4 00000006 C=ICODE    S=.itext   G=(none)   M=BisCoreThreads ACBP=A9
 0002:000002DC 00000006 C=ICODE    S=.itext   G=(none)   M=AsyncCalls ACBP=A9
 0002:000002E4 00000006 C=ICODE    S=.itext   G=(none)   M=BisServiceApplication ACBP=A9
 0002:000002EC 00000006 C=ICODE    S=.itext   G=(none)   M=BisSvcMgr ACBP=A9
 0002:000002F4 00000006 C=ICODE    S=.itext   G=(none)   M=BisCryptUtils ACBP=A9
 0002:000002FC 00000006 C=ICODE    S=.itext   G=(none)   M=SvcMgr   ACBP=A9
 0002:00000304 00000008 C=ICODE    S=.itext   G=(none)   M=BisDesignConsts ACBP=A9
 0002:0000030C 00000006 C=ICODE    S=.itext   G=(none)   M=AppEvnts ACBP=A9
 0002:00000314 00000006 C=ICODE    S=.itext   G=(none)   M=CustomizeDlg ACBP=A9
 0002:0000031C 00000006 C=ICODE    S=.itext   G=(none)   M=BisInternetProtocol ACBP=A9
 0002:00000324 00000008 C=ICODE    S=.itext   G=(none)   M=BisDesignMainFm ACBP=A9
 0002:0000032C 00000006 C=ICODE    S=.itext   G=(none)   M=VirtualTrees ACBP=A9
 0002:00000334 00000006 C=ICODE    S=.itext   G=(none)   M=VTAccessibilityFactory ACBP=A9
 0002:0000033C 00000008 C=ICODE    S=.itext   G=(none)   M=BisDesignHbookFirmTypeEditFm ACBP=A9
 0002:00000344 00000008 C=ICODE    S=.itext   G=(none)   M=BisDesignHbookFirmTypesFm ACBP=A9
 0002:0000034C 00000008 C=ICODE    S=.itext   G=(none)   M=BisDesignHbookLocalitiesFrm ACBP=A9
 0002:00000354 00000008 C=ICODE    S=.itext   G=(none)   M=BisDesignHbookLocalityEditFm ACBP=A9
 0002:0000035C 00000008 C=ICODE    S=.itext   G=(none)   M=BisDesignHbookLocalitiesFm ACBP=A9
 0002:00000364 00000008 C=ICODE    S=.itext   G=(none)   M=BisDesignHbookStreetEditFm ACBP=A9
 0002:0000036C 00000008 C=ICODE    S=.itext   G=(none)   M=BisDesignHbookStreetsFm ACBP=A9
 0002:00000374 00000008 C=ICODE    S=.itext   G=(none)   M=BisDesignHbookFirmEditFm ACBP=A9
 0002:0000037C 00000008 C=ICODE    S=.itext   G=(none)   M=BisDesignHbookFirmsFm ACBP=A9
 0002:00000384 00000008 C=ICODE    S=.itext   G=(none)   M=BisDesignHbookAccountEditFm ACBP=A9
 0002:0000038C 00000008 C=ICODE    S=.itext   G=(none)   M=BisDesignHbookAccountsFm ACBP=A9
 0002:00000394 00000008 C=ICODE    S=.itext   G=(none)   M=BisDesignHbookRoleEditFm ACBP=A9
 0002:0000039C 00000008 C=ICODE    S=.itext   G=(none)   M=BisDesignHbookRolesFm ACBP=A9
 0002:000003A4 00000008 C=ICODE    S=.itext   G=(none)   M=BisDesignHbookRolesAndAccountsFm ACBP=A9
 0002:000003AC 00000008 C=ICODE    S=.itext   G=(none)   M=BisDesignHbookApplicationEditFm ACBP=A9
 0002:000003B4 00000008 C=ICODE    S=.itext   G=(none)   M=BisDesignHbookInterfaceFilterFm ACBP=A9
 0002:000003BC 00000008 C=ICODE    S=.itext   G=(none)   M=BisDesignHbookInterfaceEditFm ACBP=A9
 0002:000003C4 00000008 C=ICODE    S=.itext   G=(none)   M=BisDesignHbookInterfacesFm ACBP=A9
 0002:000003CC 00000008 C=ICODE    S=.itext   G=(none)   M=BisDesignHbookReportEditFm ACBP=A9
 0002:000003D4 00000008 C=ICODE    S=.itext   G=(none)   M=BisDesignHbookScriptEditFm ACBP=A9
 0002:000003DC 00000008 C=ICODE    S=.itext   G=(none)   M=BisDesignHbookDocumentEditFm ACBP=A9
 0002:000003E4 00000008 C=ICODE    S=.itext   G=(none)   M=BisDesignHbookInterfacesFrm ACBP=A9
 0002:000003EC 00000008 C=ICODE    S=.itext   G=(none)   M=BisDesignHbookPermissionEditFm ACBP=A9
 0002:000003F4 00000008 C=ICODE    S=.itext   G=(none)   M=BisDesignHbookPermissionsFm ACBP=A9
 0002:000003FC 00000008 C=ICODE    S=.itext   G=(none)   M=BisDesignHbookApplicationInterfaceEditFm ACBP=A9
 0002:00000404 00000008 C=ICODE    S=.itext   G=(none)   M=BisDesignHbookApplicationInterfacesFm ACBP=A9
 0002:0000040C 00000008 C=ICODE    S=.itext   G=(none)   M=BisDesignHbookApplicationsFrm ACBP=A9
 0002:00000414 00000008 C=ICODE    S=.itext   G=(none)   M=BisDesignHbookApplicationsFm ACBP=A9
 0002:0000041C 00000008 C=ICODE    S=.itext   G=(none)   M=BisDesignHbookAccountRoleEditFm ACBP=A9
 0002:00000424 00000008 C=ICODE    S=.itext   G=(none)   M=BisDesignHbookAccountRolesFm ACBP=A9
 0002:0000042C 00000008 C=ICODE    S=.itext   G=(none)   M=BisDesignHbookProfileEditFm ACBP=A9
 0002:00000434 00000008 C=ICODE    S=.itext   G=(none)   M=BisDesignHbookProfilesFm ACBP=A9
 0002:0000043C 00000008 C=ICODE    S=.itext   G=(none)   M=BisDesignHbookSessionsFm ACBP=A9
 0002:00000444 00000008 C=ICODE    S=.itext   G=(none)   M=BisDesignHbookMenuEditFm ACBP=A9
 0002:0000044C 00000008 C=ICODE    S=.itext   G=(none)   M=BisDesignHbookMenusFm ACBP=A9
 0002:00000454 00000008 C=ICODE    S=.itext   G=(none)   M=BisDesignHbookReportsFrm ACBP=A9
 0002:0000045C 00000008 C=ICODE    S=.itext   G=(none)   M=BisDesignHbookReportsFm ACBP=A9
 0002:00000464 00000008 C=ICODE    S=.itext   G=(none)   M=BisDesignHbookScriptsFrm ACBP=A9
 0002:0000046C 00000008 C=ICODE    S=.itext   G=(none)   M=BisDesignHbookScriptsFm ACBP=A9
 0002:00000474 00000008 C=ICODE    S=.itext   G=(none)   M=BisDesignJournalActionEditFm ACBP=A9
 0002:0000047C 00000008 C=ICODE    S=.itext   G=(none)   M=BisDesignJournalActionsFm ACBP=A9
 0002:00000484 00000008 C=ICODE    S=.itext   G=(none)   M=BisDesignHbookDocumentsFm ACBP=A9
 0002:0000048C 00000008 C=ICODE    S=.itext   G=(none)   M=BisDesignHbookConstEditFm ACBP=A9
 0002:00000494 00000008 C=ICODE    S=.itext   G=(none)   M=BisDesignHbookConstsFm ACBP=A9
 0002:0000049C 00000008 C=ICODE    S=.itext   G=(none)   M=BisDesignHbookLockEditFm ACBP=A9
 0002:000004A4 00000008 C=ICODE    S=.itext   G=(none)   M=BisDesignHbookLocksFm ACBP=A9
 0002:000004AC 00000008 C=ICODE    S=.itext   G=(none)   M=BisDesignHbookTaskEditFm ACBP=A9
 0002:000004B4 00000008 C=ICODE    S=.itext   G=(none)   M=BisDesignHbookTasksFm ACBP=A9
 0002:000004BC 00000008 C=ICODE    S=.itext   G=(none)   M=BisDesignHbookExchangeEditFm ACBP=A9
 0002:000004C4 00000008 C=ICODE    S=.itext   G=(none)   M=BisDesignHbookExchangesFm ACBP=A9
 0002:000004CC 00000008 C=ICODE    S=.itext   G=(none)   M=BisExecuteFm ACBP=A9
 0002:000004D4 00000008 C=ICODE    S=.itext   G=(none)   M=BisDesignExchangeFm ACBP=A9
 0002:000004DC 00000008 C=ICODE    S=.itext   G=(none)   M=BisDesign ACBP=A9
 0002:000004E4 00000005 C=ICODE    S=.itext   G=(none)   M=.imdesign ACBP=A9
 0003:00000000 00000030 C=DATA     S=.data    G=DGROUP   M=SysInit  ACBP=A9
 0003:00000030 00000001 C=DATA     S=.data    G=DGROUP   M=BisDesignConsts ACBP=A9
 0004:00000000 0000000C C=BSS      S=.bss     G=DGROUP   M=SysInit  ACBP=A9
 0004:0000000C 00000008 C=BSS      S=.bss     G=DGROUP   M=Windows  ACBP=A9
 0004:00000014 00000004 C=BSS      S=.bss     G=DGROUP   M=BisDesignConsts ACBP=A9
 0004:00000018 00000008 C=BSS      S=.bss     G=DGROUP   M=BisDesignMainFm ACBP=A9
 0004:00000020 00000008 C=BSS      S=.bss     G=DGROUP   M=BisDesignHbookFirmTypeEditFm ACBP=A9
 0004:00000028 00000008 C=BSS      S=.bss     G=DGROUP   M=BisDesignHbookFirmTypesFm ACBP=A9
 0004:00000030 00000004 C=BSS      S=.bss     G=DGROUP   M=BisDesignHbookLocalitiesFrm ACBP=A9
 0004:00000034 00000008 C=BSS      S=.bss     G=DGROUP   M=BisDesignHbookLocalityEditFm ACBP=A9
 0004:0000003C 00000008 C=BSS      S=.bss     G=DGROUP   M=BisDesignHbookLocalitiesFm ACBP=A9
 0004:00000044 00000008 C=BSS      S=.bss     G=DGROUP   M=BisDesignHbookStreetEditFm ACBP=A9
 0004:0000004C 00000008 C=BSS      S=.bss     G=DGROUP   M=BisDesignHbookStreetsFm ACBP=A9
 0004:00000054 00000008 C=BSS      S=.bss     G=DGROUP   M=BisDesignHbookFirmEditFm ACBP=A9
 0004:0000005C 00000008 C=BSS      S=.bss     G=DGROUP   M=BisDesignHbookFirmsFm ACBP=A9
 0004:00000064 00000008 C=BSS      S=.bss     G=DGROUP   M=BisDesignHbookAccountEditFm ACBP=A9
 0004:0000006C 00000008 C=BSS      S=.bss     G=DGROUP   M=BisDesignHbookAccountsFm ACBP=A9
 0004:00000074 00000008 C=BSS      S=.bss     G=DGROUP   M=BisDesignHbookRoleEditFm ACBP=A9
 0004:0000007C 00000008 C=BSS      S=.bss     G=DGROUP   M=BisDesignHbookRolesFm ACBP=A9
 0004:00000084 00000008 C=BSS      S=.bss     G=DGROUP   M=BisDesignHbookRolesAndAccountsFm ACBP=A9
 0004:0000008C 00000008 C=BSS      S=.bss     G=DGROUP   M=BisDesignHbookApplicationEditFm ACBP=A9
 0004:00000094 00000008 C=BSS      S=.bss     G=DGROUP   M=BisDesignHbookInterfaceFilterFm ACBP=A9
 0004:0000009C 00000008 C=BSS      S=.bss     G=DGROUP   M=BisDesignHbookInterfaceEditFm ACBP=A9
 0004:000000A4 00000008 C=BSS      S=.bss     G=DGROUP   M=BisDesignHbookInterfacesFm ACBP=A9
 0004:000000AC 00000008 C=BSS      S=.bss     G=DGROUP   M=BisDesignHbookReportEditFm ACBP=A9
 0004:000000B4 00000008 C=BSS      S=.bss     G=DGROUP   M=BisDesignHbookScriptEditFm ACBP=A9
 0004:000000BC 00000008 C=BSS      S=.bss     G=DGROUP   M=BisDesignHbookDocumentEditFm ACBP=A9
 0004:000000C4 00000004 C=BSS      S=.bss     G=DGROUP   M=BisDesignHbookInterfacesFrm ACBP=A9
 0004:000000C8 00000008 C=BSS      S=.bss     G=DGROUP   M=BisDesignHbookPermissionEditFm ACBP=A9
 0004:000000D0 00000008 C=BSS      S=.bss     G=DGROUP   M=BisDesignHbookPermissionsFm ACBP=A9
 0004:000000D8 00000008 C=BSS      S=.bss     G=DGROUP   M=BisDesignHbookApplicationInterfaceEditFm ACBP=A9
 0004:000000E0 00000008 C=BSS      S=.bss     G=DGROUP   M=BisDesignHbookApplicationInterfacesFm ACBP=A9
 0004:000000E8 00000004 C=BSS      S=.bss     G=DGROUP   M=BisDesignHbookApplicationsFrm ACBP=A9
 0004:000000EC 00000008 C=BSS      S=.bss     G=DGROUP   M=BisDesignHbookApplicationsFm ACBP=A9
 0004:000000F4 00000008 C=BSS      S=.bss     G=DGROUP   M=BisDesignHbookAccountRoleEditFm ACBP=A9
 0004:000000FC 00000008 C=BSS      S=.bss     G=DGROUP   M=BisDesignHbookAccountRolesFm ACBP=A9
 0004:00000104 00000008 C=BSS      S=.bss     G=DGROUP   M=BisDesignHbookProfileEditFm ACBP=A9
 0004:0000010C 00000008 C=BSS      S=.bss     G=DGROUP   M=BisDesignHbookProfilesFm ACBP=A9
 0004:00000114 00000008 C=BSS      S=.bss     G=DGROUP   M=BisDesignHbookSessionsFm ACBP=A9
 0004:0000011C 00000008 C=BSS      S=.bss     G=DGROUP   M=BisDesignHbookMenuEditFm ACBP=A9
 0004:00000124 00000008 C=BSS      S=.bss     G=DGROUP   M=BisDesignHbookMenusFm ACBP=A9
 0004:0000012C 00000004 C=BSS      S=.bss     G=DGROUP   M=BisDesignHbookReportsFrm ACBP=A9
 0004:00000130 00000008 C=BSS      S=.bss     G=DGROUP   M=BisDesignHbookReportsFm ACBP=A9
 0004:00000138 00000004 C=BSS      S=.bss     G=DGROUP   M=BisDesignHbookScriptsFrm ACBP=A9
 0004:0000013C 00000008 C=BSS      S=.bss     G=DGROUP   M=BisDesignHbookScriptsFm ACBP=A9
 0004:00000144 00000008 C=BSS      S=.bss     G=DGROUP   M=BisDesignJournalActionEditFm ACBP=A9
 0004:0000014C 00000008 C=BSS      S=.bss     G=DGROUP   M=BisDesignJournalActionsFm ACBP=A9
 0004:00000154 00000008 C=BSS      S=.bss     G=DGROUP   M=BisDesignHbookDocumentsFm ACBP=A9
 0004:0000015C 00000008 C=BSS      S=.bss     G=DGROUP   M=BisDesignHbookConstEditFm ACBP=A9
 0004:00000164 00000008 C=BSS      S=.bss     G=DGROUP   M=BisDesignHbookConstsFm ACBP=A9
 0004:0000016C 00000008 C=BSS      S=.bss     G=DGROUP   M=BisDesignHbookLockEditFm ACBP=A9
 0004:00000174 00000008 C=BSS      S=.bss     G=DGROUP   M=BisDesignHbookLocksFm ACBP=A9
 0004:0000017C 00000008 C=BSS      S=.bss     G=DGROUP   M=BisDesignHbookTaskEditFm ACBP=A9
 0004:00000184 00000008 C=BSS      S=.bss     G=DGROUP   M=BisDesignHbookTasksFm ACBP=A9
 0004:0000018C 00000008 C=BSS      S=.bss     G=DGROUP   M=BisDesignHbookExchangeEditFm ACBP=A9
 0004:00000194 00000008 C=BSS      S=.bss     G=DGROUP   M=BisDesignHbookExchangesFm ACBP=A9
 0004:0000019C 00000008 C=BSS      S=.bss     G=DGROUP   M=BisExecuteFm ACBP=A9
 0004:000001A4 00000008 C=BSS      S=.bss     G=DGROUP   M=BisDesignExchangeFm ACBP=A9
 0004:000001AC 00000004 C=BSS      S=.bss     G=DGROUP   M=BisDesign ACBP=A9


  Address             Publics by Name

 0002:000004E4       .imdesign..imdesign
 0001:00032DFC       .imdesign.@GetPackageInfoTable
 0001:00032E04       .imdesign.@PackageLoad
 0001:00032E10       .imdesign.@PackageUnload
 0004:000001AC       BisDesign..1
 0002:000004DC       BisDesign.BisDesign
 0001:0003212C       BisDesign.Finalization
 0001:00031FCC       BisDesign.InitIfaceModule
 0004:00000014       BisDesignConsts..1
 0002:00000304       BisDesignConsts.BisDesignConsts
 0001:00001310       BisDesignConsts.Finalization
 0003:00000030       BisDesignConsts.IsMainModule
 0004:000001A8       BisDesignExchangeFm..3
 0001:0002E060       BisDesignExchangeFm..TBisDesignExchangeForm
 0001:0002E554       BisDesignExchangeFm..TBisDesignExchangeFormIface
 0002:000004D4       BisDesignExchangeFm.BisDesignExchangeFm
 0004:000001A4       BisDesignExchangeFm.BisDesignExchangeForm
 0001:00031704       BisDesignExchangeFm.DestinationExists
 0001:00031800       BisDesignExchangeFm.Exchange
 0001:00031F9C       BisDesignExchangeFm.Finalization
 0001:0002F0A8       BisDesignExchangeFm.GetDescription
 0001:00031724       BisDesignExchangeFm.Import
 0001:0002FB38       BisDesignExchangeFm.SetExchange
 0001:0002F608       BisDesignExchangeFm.SetImport
 0001:00031458       BisDesignExchangeFm.SetResult
 0001:000315E0       BisDesignExchangeFm.SetResultById
 0001:000316E4       BisDesignExchangeFm.SourceExists
 0001:0002F0A0       BisDesignExchangeFm.TBisDesignExchangeForm.ActionInfoExecute
 0001:0002ED14       BisDesignExchangeFm.TBisDesignExchangeForm.ActionInfoUpdate
 0001:0002ED64       BisDesignExchangeFm.TBisDesignExchangeForm.CanInfo
 0001:0002ED30       BisDesignExchangeFm.TBisDesignExchangeForm.CanStart
 0001:0002E6D8       BisDesignExchangeFm.TBisDesignExchangeForm.Create
 0001:0002ECBC       BisDesignExchangeFm.TBisDesignExchangeForm.Destroy
 0001:0002ED04       BisDesignExchangeFm.TBisDesignExchangeForm.DoTerminate
 0001:0002ED0C       BisDesignExchangeFm.TBisDesignExchangeForm.GridDblClick
 0001:0002EE98       BisDesignExchangeFm.TBisDesignExchangeForm.Info
 0001:0002F280       BisDesignExchangeFm.TBisDesignExchangeForm.ParseScript
 0001:0002FF04       BisDesignExchangeFm.TBisDesignExchangeForm.RefreshDataSet
 0001:00031270       BisDesignExchangeFm.TBisDesignExchangeForm.SyncDataSet
 0001:00031904       BisDesignExchangeFm.TBisDesignExchangeForm.ThreadExecute
 0001:0002E68C       BisDesignExchangeFm.TBisDesignExchangeFormIface.Create
 0004:00000068       BisDesignHbookAccountEditFm..6
 0001:00009308       BisDesignHbookAccountEditFm..TBisDesignHbookAccountDeleteFormIface
 0001:00008880       BisDesignHbookAccountEditFm..TBisDesignHbookAccountEditForm
 0001:00008F04       BisDesignHbookAccountEditFm..TBisDesignHbookAccountEditFormIface
 0001:00009058       BisDesignHbookAccountEditFm..TBisDesignHbookAccountInsertFormIface
 0001:000091B0       BisDesignHbookAccountEditFm..TBisDesignHbookAccountUpdateFormIface
 0001:00009460       BisDesignHbookAccountEditFm..TBisRoleInfo
 0002:00000384       BisDesignHbookAccountEditFm.BisDesignHbookAccountEditFm
 0004:00000064       BisDesignHbookAccountEditFm.BisDesignHbookAccountEditForm
 0001:0000ACE8       BisDesignHbookAccountEditFm.Finalization
 0001:00009C3C       BisDesignHbookAccountEditFm.TBisDesignHbookAccountDeleteFormIface.Create
 0001:00009D1C       BisDesignHbookAccountEditFm.TBisDesignHbookAccountEditForm.BeforeShow
 0001:00009E9C       BisDesignHbookAccountEditFm.TBisDesignHbookAccountEditForm.ButtonPhotoClick
 0001:00009EE4       BisDesignHbookAccountEditFm.TBisDesignHbookAccountEditForm.ChangeParam
 0001:0000A0A4       BisDesignHbookAccountEditFm.TBisDesignHbookAccountEditForm.ChangesExists
 0001:0000A0CC       BisDesignHbookAccountEditFm.TBisDesignHbookAccountEditForm.CheckBoxProfileClick
 0001:0000A0D4       BisDesignHbookAccountEditFm.TBisDesignHbookAccountEditForm.CheckListBoxRolesClickCheck
 0001:00009C98       BisDesignHbookAccountEditFm.TBisDesignHbookAccountEditForm.Create
 0001:0000A0E4       BisDesignHbookAccountEditFm.TBisDesignHbookAccountEditForm.DeleteAccountRoles
 0001:0000AC28       BisDesignHbookAccountEditFm.TBisDesignHbookAccountEditForm.Execute
 0001:0000A2CC       BisDesignHbookAccountEditFm.TBisDesignHbookAccountEditForm.InsertAccountRoles
 0001:0000A908       BisDesignHbookAccountEditFm.TBisDesignHbookAccountEditForm.InsertProfile
 0001:0000AA84       BisDesignHbookAccountEditFm.TBisDesignHbookAccountEditForm.MenuItemClearPhotoClick
 0001:0000AAB8       BisDesignHbookAccountEditFm.TBisDesignHbookAccountEditForm.MenuItemLoadPhotoClick
 0001:0000AB40       BisDesignHbookAccountEditFm.TBisDesignHbookAccountEditForm.MenuItemSavePhotoClick
 0001:0000ABC8       BisDesignHbookAccountEditFm.TBisDesignHbookAccountEditForm.PopupActionBarPhotoPopup
 0001:0000A47C       BisDesignHbookAccountEditFm.TBisDesignHbookAccountEditForm.RefreshAccountRoles
 0001:0000A6B0       BisDesignHbookAccountEditFm.TBisDesignHbookAccountEditForm.RefreshRoles
 0001:000094CC       BisDesignHbookAccountEditFm.TBisDesignHbookAccountEditFormIface.Create
 0001:00009B84       BisDesignHbookAccountEditFm.TBisDesignHbookAccountInsertFormIface.Create
 0001:00009BE0       BisDesignHbookAccountEditFm.TBisDesignHbookAccountUpdateFormIface.Create
 0004:000000F8       BisDesignHbookAccountRoleEditFm..6
 0001:0001C418       BisDesignHbookAccountRoleEditFm..TBisDesignHbookAccountRoleDeleteFormIface
 0001:0001BD24       BisDesignHbookAccountRoleEditFm..TBisDesignHbookAccountRoleEditForm
 0001:0001BFF0       BisDesignHbookAccountRoleEditFm..TBisDesignHbookAccountRoleEditFormIface
 0001:0001C150       BisDesignHbookAccountRoleEditFm..TBisDesignHbookAccountRoleInsertFormIface
 0001:0001C2B4       BisDesignHbookAccountRoleEditFm..TBisDesignHbookAccountRoleUpdateFormIface
 0002:0000041C       BisDesignHbookAccountRoleEditFm.BisDesignHbookAccountRoleEditFm
 0004:000000F4       BisDesignHbookAccountRoleEditFm.BisDesignHbookAccountRoleEditForm
 0001:0001C888       BisDesignHbookAccountRoleEditFm.Finalization
 0001:0001C7F0       BisDesignHbookAccountRoleEditFm.TBisDesignHbookAccountRoleDeleteFormIface.Create
 0001:0001C850       BisDesignHbookAccountRoleEditFm.TBisDesignHbookAccountRoleEditForm.Execute
 0001:0001C57C       BisDesignHbookAccountRoleEditFm.TBisDesignHbookAccountRoleEditFormIface.Create
 0001:0001C730       BisDesignHbookAccountRoleEditFm.TBisDesignHbookAccountRoleInsertFormIface.Create
 0001:0001C790       BisDesignHbookAccountRoleEditFm.TBisDesignHbookAccountRoleUpdateFormIface.Create
 0004:00000100       BisDesignHbookAccountRolesFm..3
 0001:0001C8B8       BisDesignHbookAccountRolesFm..TBisDesignHbookAccountRolesForm
 0001:0001CAC0       BisDesignHbookAccountRolesFm..TBisDesignHbookAccountRolesFormIface
 0004:000000FC       BisDesignHbookAccountRolesFm.BiDesignHbookAccountRolesForm
 0002:00000424       BisDesignHbookAccountRolesFm.BisDesignHbookAccountRolesFm
 0001:0001CDA4       BisDesignHbookAccountRolesFm.Finalization
 0001:0001CC20       BisDesignHbookAccountRolesFm.TBisDesignHbookAccountRolesFormIface.Create
 0004:00000070       BisDesignHbookAccountsFm..4
 0001:0000B024       BisDesignHbookAccountsFm..TBisDesignHbookAccountsForm
 0001:0000B220       BisDesignHbookAccountsFm..TBisDesignHbookAccountsFormIface
 0001:0000AD18       BisDesignHbookAccountsFm..TBisDesignHbookAccountsFrame
 0004:0000006C       BisDesignHbookAccountsFm.BiDesignHbookAccountsForm
 0002:0000038C       BisDesignHbookAccountsFm.BisDesignHbookAccountsFm
 0001:0000B8E4       BisDesignHbookAccountsFm.Finalization
 0001:0000B87C       BisDesignHbookAccountsFm.TBisDesignHbookAccountsForm.Create
 0001:0000B8B4       BisDesignHbookAccountsFm.TBisDesignHbookAccountsForm.Destroy
 0001:0000B8DC       BisDesignHbookAccountsFm.TBisDesignHbookAccountsForm.GetDataFrameClass
 0001:0000B82C       BisDesignHbookAccountsFm.TBisDesignHbookAccountsFormIface.Create
 0001:0000B374       BisDesignHbookAccountsFm.TBisDesignHbookAccountsFrame.Create
 0001:0000B7FC       BisDesignHbookAccountsFm.TBisDesignHbookAccountsFrame.Init
 0004:00000090       BisDesignHbookApplicationEditFm..6
 0001:0000E418       BisDesignHbookApplicationEditFm..TBisDesignHbookApplicationDeleteFormIface
 0001:0000DD3C       BisDesignHbookApplicationEditFm..TBisDesignHbookApplicationEditForm
 0001:0000DFF0       BisDesignHbookApplicationEditFm..TBisDesignHbookApplicationEditFormIface
 0001:0000E150       BisDesignHbookApplicationEditFm..TBisDesignHbookApplicationInsertFormIface
 0001:0000E2B4       BisDesignHbookApplicationEditFm..TBisDesignHbookApplicationUpdateFormIface
 0002:000003AC       BisDesignHbookApplicationEditFm.BisDesignHbookApplicationEditFm
 0004:0000008C       BisDesignHbookApplicationEditFm.BisDesignHbookApplicationEditForm
 0001:0000E818       BisDesignHbookApplicationEditFm.Finalization
 0001:0000E7B8       BisDesignHbookApplicationEditFm.TBisDesignHbookApplicationDeleteFormIface.Create
 0001:0000E57C       BisDesignHbookApplicationEditFm.TBisDesignHbookApplicationEditFormIface.Create
 0001:0000E6F8       BisDesignHbookApplicationEditFm.TBisDesignHbookApplicationInsertFormIface.Create
 0001:0000E758       BisDesignHbookApplicationEditFm.TBisDesignHbookApplicationUpdateFormIface.Create
 0004:000000DC       BisDesignHbookApplicationInterfaceEditFm..6
 0001:00019E08       BisDesignHbookApplicationInterfaceEditFm..TBisDesignHbookApplicationInterfaceDeleteFormIface
 0001:0001960C       BisDesignHbookApplicationInterfaceEditFm..TBisDesignHbookApplicationInterfaceEditForm
 0001:0001998C       BisDesignHbookApplicationInterfaceEditFm..TBisDesignHbookApplicationInterfaceEditFormIface
 0001:00019B08       BisDesignHbookApplicationInterfaceEditFm..TBisDesignHbookApplicationInterfaceInsertFormIface
 0001:00019C88       BisDesignHbookApplicationInterfaceEditFm..TBisDesignHbookApplicationInterfaceUpdateFormIface
 0002:000003FC       BisDesignHbookApplicationInterfaceEditFm.BisDesignHbookApplicationInterfaceEditFm
 0004:000000D8       BisDesignHbookApplicationInterfaceEditFm.BisDesignHbookApplicationInterfaceEditForm
 0001:0001A4A8       BisDesignHbookApplicationInterfaceEditFm.Finalization
 0001:0001A3AC       BisDesignHbookApplicationInterfaceEditFm.TBisDesignHbookApplicationInterfaceDeleteFormIface.Create
 0001:0001A414       BisDesignHbookApplicationInterfaceEditFm.TBisDesignHbookApplicationInterfaceEditForm.CanShow
 0001:0001A470       BisDesignHbookApplicationInterfaceEditFm.TBisDesignHbookApplicationInterfaceEditForm.Execute
 0001:00019F88       BisDesignHbookApplicationInterfaceEditFm.TBisDesignHbookApplicationInterfaceEditFormIface.Create
 0001:0001A2DC       BisDesignHbookApplicationInterfaceEditFm.TBisDesignHbookApplicationInterfaceInsertFormIface.Create
 0001:0001A344       BisDesignHbookApplicationInterfaceEditFm.TBisDesignHbookApplicationInterfaceUpdateFormIface.Create
 0004:000000E4       BisDesignHbookApplicationInterfacesFm..4
 0001:0001A7C8       BisDesignHbookApplicationInterfacesFm..TBisDesignHbookApplicationInterfacesForm
 0001:0001A9EC       BisDesignHbookApplicationInterfacesFm..TBisDesignHbookApplicationInterfacesFormIface
 0001:0001A4D8       BisDesignHbookApplicationInterfacesFm..TBisDesignHbookApplicationInterfacesFrame
 0004:000000E0       BisDesignHbookApplicationInterfacesFm.BiDesignHbookApplicationInterfacesForm
 0002:00000404       BisDesignHbookApplicationInterfacesFm.BisDesignHbookApplicationInterfacesFm
 0001:0001AFB4       BisDesignHbookApplicationInterfacesFm.Finalization
 0001:0001AFAC       BisDesignHbookApplicationInterfacesFm.TBisDesignHbookApplicationInterfacesForm.GetDataFrameClass
 0001:0001AC78       BisDesignHbookApplicationInterfacesFm.TBisDesignHbookApplicationInterfacesFormIface.Create
 0001:0001AF64       BisDesignHbookApplicationInterfacesFm.TBisDesignHbookApplicationInterfacesFormIface.CreateForm
 0001:0001AB80       BisDesignHbookApplicationInterfacesFm.TBisDesignHbookApplicationInterfacesFrame.BeforeIfaceExecute
 0004:000000F0       BisDesignHbookApplicationsFm..3
 0001:0001B808       BisDesignHbookApplicationsFm..TBisDesignHbookApplicationsForm
 0001:0001BA10       BisDesignHbookApplicationsFm..TBisDesignHbookApplicationsFormIface
 0002:00000414       BisDesignHbookApplicationsFm.BisDesignHbookApplicationsFm
 0004:000000EC       BisDesignHbookApplicationsFm.BisDesignHbookApplicationsForm
 0001:0001BCF4       BisDesignHbookApplicationsFm.Finalization
 0001:0001BCEC       BisDesignHbookApplicationsFm.TBisDesignHbookApplicationsForm.GetDataFrameClass
 0001:0001BB70       BisDesignHbookApplicationsFm.TBisDesignHbookApplicationsFormIface.Create
 0004:000000E8       BisDesignHbookApplicationsFrm..3
 0001:0001AFE4       BisDesignHbookApplicationsFrm..TBisDesignHbookApplicationFrameIfaces
 0001:0001B0C0       BisDesignHbookApplicationsFrm..TBisDesignHbookApplicationsFrame
 0002:0000040C       BisDesignHbookApplicationsFrm.BisDesignHbookApplicationsFrm
 0001:0001B7D8       BisDesignHbookApplicationsFrm.Finalization
 0001:0001B438       BisDesignHbookApplicationsFrm.TBisDesignHbookApplicationFrameIfaces.FindApplicationById
 0001:0001B554       BisDesignHbookApplicationsFrm.TBisDesignHbookApplicationsFrame.ActionInterfacesExecute
 0001:0001B55C       BisDesignHbookApplicationsFrm.TBisDesignHbookApplicationsFrame.ActionInterfacesUpdate
 0001:0001B578       BisDesignHbookApplicationsFrm.TBisDesignHbookApplicationsFrame.CanInterfaces
 0001:0001B4DC       BisDesignHbookApplicationsFrm.TBisDesignHbookApplicationsFrame.Create
 0001:0001B524       BisDesignHbookApplicationsFrm.TBisDesignHbookApplicationsFrame.Destroy
 0001:0001B608       BisDesignHbookApplicationsFrm.TBisDesignHbookApplicationsFrame.Interfaces
 0004:00000160       BisDesignHbookConstEditFm..6
 0001:00026430       BisDesignHbookConstEditFm..TBisDesignHbookConstDeleteFormIface
 0001:00025D68       BisDesignHbookConstEditFm..TBisDesignHbookConstEditForm
 0001:00026040       BisDesignHbookConstEditFm..TBisDesignHbookConstEditFormIface
 0001:00026190       BisDesignHbookConstEditFm..TBisDesignHbookConstInsertFormIface
 0001:000262E0       BisDesignHbookConstEditFm..TBisDesignHbookConstUpdateFormIface
 0002:0000048C       BisDesignHbookConstEditFm.BisDesignHbookConstEditFm
 0004:0000015C       BisDesignHbookConstEditFm.BisDesignHbookConstEditForm
 0001:000268AC       BisDesignHbookConstEditFm.Finalization
 0001:000267A0       BisDesignHbookConstEditFm.TBisDesignHbookConstDeleteFormIface.Create
 0001:000267F8       BisDesignHbookConstEditFm.TBisDesignHbookConstEditForm.BeforeShow
 0001:00026820       BisDesignHbookConstEditFm.TBisDesignHbookConstEditForm.ButtonNameClick
 0001:00026580       BisDesignHbookConstEditFm.TBisDesignHbookConstEditFormIface.Create
 0001:000266F0       BisDesignHbookConstEditFm.TBisDesignHbookConstInsertFormIface.Create
 0001:00026748       BisDesignHbookConstEditFm.TBisDesignHbookConstUpdateFormIface.Create
 0004:00000168       BisDesignHbookConstsFm..3
 0001:000268DC       BisDesignHbookConstsFm..TBisDesignHbookConstsForm
 0001:00026AD4       BisDesignHbookConstsFm..TBisDesignHbookConstsFormIface
 0002:00000494       BisDesignHbookConstsFm.BisDesignHbookConstsFm
 0004:00000164       BisDesignHbookConstsFm.BisDesignHbookConstsForm
 0001:00026DB0       BisDesignHbookConstsFm.Finalization
 0001:00026D78       BisDesignHbookConstsFm.TBisDesignHbookConstsForm.Create
 0001:00026C20       BisDesignHbookConstsFm.TBisDesignHbookConstsFormIface.Create
 0004:000000C0       BisDesignHbookDocumentEditFm..6
 0001:000148E0       BisDesignHbookDocumentEditFm..TBisDesignHbookDocumentDeleteFormIface
 0001:000140E8       BisDesignHbookDocumentEditFm..TBisDesignHbookDocumentEditForm
 0001:000144D0       BisDesignHbookDocumentEditFm..TBisDesignHbookDocumentEditFormIface
 0001:00014628       BisDesignHbookDocumentEditFm..TBisDesignHbookDocumentInsertFormIface
 0001:00014784       BisDesignHbookDocumentEditFm..TBisDesignHbookDocumentUpdateFormIface
 0002:000003DC       BisDesignHbookDocumentEditFm.BisDesignHbookDocumentEditFm
 0004:000000BC       BisDesignHbookDocumentEditFm.BisDesignHbookDocumentEditForm
 0001:00015C2C       BisDesignHbookDocumentEditFm.Finalization
 0001:00014E38       BisDesignHbookDocumentEditFm.TBisDesignHbookDocumentDeleteFormIface.Create
 0001:00014F1C       BisDesignHbookDocumentEditFm.TBisDesignHbookDocumentEditForm.BeforeShow
 0001:00015AF4       BisDesignHbookDocumentEditFm.TBisDesignHbookDocumentEditForm.ButtonClearClick
 0001:00015878       BisDesignHbookDocumentEditFm.TBisDesignHbookDocumentEditForm.ButtonLoadClick
 0001:000159D0       BisDesignHbookDocumentEditFm.TBisDesignHbookDocumentEditForm.ButtonSaveClick
 0001:0001516C       BisDesignHbookDocumentEditFm.TBisDesignHbookDocumentEditForm.ChangeInterfaceId
 0001:000153E8       BisDesignHbookDocumentEditFm.TBisDesignHbookDocumentEditForm.ChangeParam
 0001:00015B2C       BisDesignHbookDocumentEditFm.TBisDesignHbookDocumentEditForm.CheckParam
 0001:00014EBC       BisDesignHbookDocumentEditFm.TBisDesignHbookDocumentEditForm.Create
 0001:00014EF4       BisDesignHbookDocumentEditFm.TBisDesignHbookDocumentEditForm.Destroy
 0001:0001506C       BisDesignHbookDocumentEditFm.TBisDesignHbookDocumentEditForm.EditDocumentChange
 0001:00015BF4       BisDesignHbookDocumentEditFm.TBisDesignHbookDocumentEditForm.Execute
 0001:000157C8       BisDesignHbookDocumentEditFm.TBisDesignHbookDocumentEditForm.GetOleClass
 0001:00014A3C       BisDesignHbookDocumentEditFm.TBisDesignHbookDocumentEditFormIface.Create
 0001:00014D30       BisDesignHbookDocumentEditFm.TBisDesignHbookDocumentInsertFormIface.Create
 0001:00014DB4       BisDesignHbookDocumentEditFm.TBisDesignHbookDocumentUpdateFormIface.Create
 0004:00000158       BisDesignHbookDocumentsFm..3
 0001:0002582C       BisDesignHbookDocumentsFm..TBisDesignHbookDocumentsForm
 0001:00025A2C       BisDesignHbookDocumentsFm..TBisDesignHbookDocumentsFormIface
 0002:00000484       BisDesignHbookDocumentsFm.BisDesignHbookDocumentsFm
 0004:00000154       BisDesignHbookDocumentsFm.BisDesignHbookDocumentsForm
 0001:00025D38       BisDesignHbookDocumentsFm.Finalization
 0001:00025D00       BisDesignHbookDocumentsFm.TBisDesignHbookDocumentsForm.Create
 0001:00025B84       BisDesignHbookDocumentsFm.TBisDesignHbookDocumentsFormIface.Create
 0004:00000190       BisDesignHbookExchangeEditFm..6
 0001:0002C530       BisDesignHbookExchangeEditFm..TBisDesignHbookExchangeDeleteFormIface
 0001:0002BCD8       BisDesignHbookExchangeEditFm..TBisDesignHbookExchangeEditForm
 0001:0002C120       BisDesignHbookExchangeEditFm..TBisDesignHbookExchangeEditFormIface
 0001:0002C278       BisDesignHbookExchangeEditFm..TBisDesignHbookExchangeInsertFormIface
 0001:0002C3D4       BisDesignHbookExchangeEditFm..TBisDesignHbookExchangeUpdateFormIface
 0002:000004BC       BisDesignHbookExchangeEditFm.BisDesignHbookExchangeEditFm
 0004:0000018C       BisDesignHbookExchangeEditFm.BisDesignHbookExchangeEditForm
 0001:0002D080       BisDesignHbookExchangeEditFm.Finalization
 0001:0002CAD0       BisDesignHbookExchangeEditFm.TBisDesignHbookExchangeDeleteFormIface.Create
 0001:0002CCB4       BisDesignHbookExchangeEditFm.TBisDesignHbookExchangeEditForm.BeforeShow
 0001:0002CD10       BisDesignHbookExchangeEditFm.TBisDesignHbookExchangeEditForm.ButtonScriptClick
 0001:0002CF88       BisDesignHbookExchangeEditFm.TBisDesignHbookExchangeEditForm.CheckParam
 0001:0002CB2C       BisDesignHbookExchangeEditFm.TBisDesignHbookExchangeEditForm.Create
 0001:0002CBCC       BisDesignHbookExchangeEditFm.TBisDesignHbookExchangeEditForm.RefreshConnections
 0001:0002C68C       BisDesignHbookExchangeEditFm.TBisDesignHbookExchangeEditFormIface.Create
 0001:0002CA18       BisDesignHbookExchangeEditFm.TBisDesignHbookExchangeInsertFormIface.Create
 0001:0002CA74       BisDesignHbookExchangeEditFm.TBisDesignHbookExchangeUpdateFormIface.Create
 0004:00000198       BisDesignHbookExchangesFm..3
 0001:0002D0B0       BisDesignHbookExchangesFm..TBisDesignHbookExchangesForm
 0001:0002D2B0       BisDesignHbookExchangesFm..TBisDesignHbookExchangesFormIface
 0002:000004C4       BisDesignHbookExchangesFm.BisDesignHbookExchangesFm
 0004:00000194       BisDesignHbookExchangesFm.BisDesignHbookExchangesForm
 0001:0002D6D0       BisDesignHbookExchangesFm.Finalization
 0001:0002D408       BisDesignHbookExchangesFm.TBisDesignHbookExchangesFormIface.Create
 0004:00000058       BisDesignHbookFirmEditFm..7
 0001:000068DC       BisDesignHbookFirmEditFm..TBisDesignHbookFirmDeleteFormIface
 0001:00005CC0       BisDesignHbookFirmEditFm..TBisDesignHbookFirmEditForm
 0001:00006398       BisDesignHbookFirmEditFm..TBisDesignHbookFirmEditFormIface
 0001:00006634       BisDesignHbookFirmEditFm..TBisDesignHbookFirmInsertChildFormIface
 0001:000064E4       BisDesignHbookFirmEditFm..TBisDesignHbookFirmInsertFormIface
 0001:0000678C       BisDesignHbookFirmEditFm..TBisDesignHbookFirmUpdateFormIface
 0002:00000374       BisDesignHbookFirmEditFm.BisDesignHbookFirmEditFm
 0004:00000054       BisDesignHbookFirmEditFm.BisDesignHbookFirmEditForm
 0001:00007E6C       BisDesignHbookFirmEditFm.Finalization
 0001:00007D2C       BisDesignHbookFirmEditFm.TBisDesignHbookFirmDeleteFormIface.Create
 0001:00007DAC       BisDesignHbookFirmEditFm.TBisDesignHbookFirmEditForm.EditSmallNameExit
 0001:00006A2C       BisDesignHbookFirmEditFm.TBisDesignHbookFirmEditFormIface.Create
 0001:00007AB8       BisDesignHbookFirmEditFm.TBisDesignHbookFirmInsertChildFormIface.Create
 0001:00007B44       BisDesignHbookFirmEditFm.TBisDesignHbookFirmInsertChildFormIface.CreateForm
 0001:00007854       BisDesignHbookFirmEditFm.TBisDesignHbookFirmInsertFormIface.Create
 0001:00007944       BisDesignHbookFirmEditFm.TBisDesignHbookFirmInsertFormIface.CreateForm
 0001:00007CA8       BisDesignHbookFirmEditFm.TBisDesignHbookFirmUpdateFormIface.Create
 0004:00000060       BisDesignHbookFirmsFm..3
 0001:00007E9C       BisDesignHbookFirmsFm..TBisDesignHbookFirmsForm
 0001:00008090       BisDesignHbookFirmsFm..TBisDesignHbookFirmsFormIface
 0002:0000037C       BisDesignHbookFirmsFm.BisDesignHbookFirmsFm
 0004:0000005C       BisDesignHbookFirmsFm.BisDesignHbookFirmsForm
 0001:00008850       BisDesignHbookFirmsFm.Finalization
 0001:000081DC       BisDesignHbookFirmsFm.TBisDesignHbookFirmsFormIface.Create
 0004:00000024       BisDesignHbookFirmTypeEditFm..6
 0001:0000237C       BisDesignHbookFirmTypeEditFm..TBisDesignHbookFirmTypeDeleteFormIface
 0001:00001CB0       BisDesignHbookFirmTypeEditFm..TBisDesignHbookFirmTypeEditForm
 0001:00001F6C       BisDesignHbookFirmTypeEditFm..TBisDesignHbookFirmTypeEditFormIface
 0001:000020C4       BisDesignHbookFirmTypeEditFm..TBisDesignHbookFirmTypeInsertFormIface
 0001:00002220       BisDesignHbookFirmTypeEditFm..TBisDesignHbookFirmTypeUpdateFormIface
 0002:0000033C       BisDesignHbookFirmTypeEditFm.BisDesignHbookFirmTypeEditFm
 0004:00000020       BisDesignHbookFirmTypeEditFm.BisDesignHbookFirmTypeEditForm
 0001:0000278C       BisDesignHbookFirmTypeEditFm.Finalization
 0001:00002730       BisDesignHbookFirmTypeEditFm.TBisDesignHbookFirmTypeDeleteFormIface.Create
 0001:000024D8       BisDesignHbookFirmTypeEditFm.TBisDesignHbookFirmTypeEditFormIface.Create
 0001:00002678       BisDesignHbookFirmTypeEditFm.TBisDesignHbookFirmTypeInsertFormIface.Create
 0001:000026D4       BisDesignHbookFirmTypeEditFm.TBisDesignHbookFirmTypeUpdateFormIface.Create
 0004:0000002C       BisDesignHbookFirmTypesFm..3
 0001:000027BC       BisDesignHbookFirmTypesFm..TBisDesignHbookFirmTypesForm
 0001:000029BC       BisDesignHbookFirmTypesFm..TBisDesignHbookFirmTypesFormIface
 0002:00000344       BisDesignHbookFirmTypesFm.BisDesignHbookFirmTypesFm
 0004:00000028       BisDesignHbookFirmTypesFm.BisDesignHbookFirmTypesForm
 0001:00002C94       BisDesignHbookFirmTypesFm.Finalization
 0001:00002B14       BisDesignHbookFirmTypesFm.TBisDesignHbookFirmTypesFormIface.Create
 0004:000000A0       BisDesignHbookInterfaceEditFm..6
 0001:0000F9F0       BisDesignHbookInterfaceEditFm..TBisDesignHbookInterfaceDeleteFormIface
 0001:0000F2C0       BisDesignHbookInterfaceEditFm..TBisDesignHbookInterfaceEditForm
 0001:0000F5DC       BisDesignHbookInterfaceEditFm..TBisDesignHbookInterfaceEditFormIface
 0001:0000F738       BisDesignHbookInterfaceEditFm..TBisDesignHbookInterfaceInsertFormIface
 0001:0000F894       BisDesignHbookInterfaceEditFm..TBisDesignHbookInterfaceUpdateFormIface
 0002:000003BC       BisDesignHbookInterfaceEditFm.BisDesignHbookInterfaceEditFm
 0004:0000009C       BisDesignHbookInterfaceEditFm.BisDesignHbookInterfaceEditForm
 0001:00010168       BisDesignHbookInterfaceEditFm.Finalization
 0001:0000FF04       BisDesignHbookInterfaceEditFm.TBisDesignHbookInterfaceDeleteFormIface.Create
 0001:00010048       BisDesignHbookInterfaceEditFm.TBisDesignHbookInterfaceEditForm.ChangeParam
 0001:0000FF94       BisDesignHbookInterfaceEditFm.TBisDesignHbookInterfaceEditForm.Create
 0001:00010130       BisDesignHbookInterfaceEditFm.TBisDesignHbookInterfaceEditForm.Execute
 0001:0000FB4C       BisDesignHbookInterfaceEditFm.TBisDesignHbookInterfaceEditFormIface.Create
 0001:0000FDE4       BisDesignHbookInterfaceEditFm.TBisDesignHbookInterfaceInsertFormIface.Create
 0001:0000FE74       BisDesignHbookInterfaceEditFm.TBisDesignHbookInterfaceUpdateFormIface.Create
 0004:00000098       BisDesignHbookInterfaceFilterFm..3
 0001:0000E848       BisDesignHbookInterfaceFilterFm..TBisDesignHbookInterfaceFilterForm
 0001:0000EB74       BisDesignHbookInterfaceFilterFm..TBisDesignHbookInterfaceFilterFormIface
 0002:000003B4       BisDesignHbookInterfaceFilterFm.BisDesignHbookInterfaceFilterFm
 0004:00000094       BisDesignHbookInterfaceFilterFm.BisDesignHbookInterfaceFilterForm
 0001:0000F290       BisDesignHbookInterfaceFilterFm.Finalization
 0001:0000ECD4       BisDesignHbookInterfaceFilterFm.GetInterfaceTypeByIndex
 0001:0000F124       BisDesignHbookInterfaceFilterFm.TBisDesignHbookInterfaceFilterForm.ChangeParam
 0001:0000EFEC       BisDesignHbookInterfaceFilterFm.TBisDesignHbookInterfaceFilterForm.Create
 0001:0000ED78       BisDesignHbookInterfaceFilterFm.TBisDesignHbookInterfaceFilterFormIface.Create
 0004:000000A8       BisDesignHbookInterfacesFm..3
 0001:00010198       BisDesignHbookInterfacesFm..TBisDesignHbookInterfacesForm
 0001:00010408       BisDesignHbookInterfacesFm..TBisDesignHbookInterfacesFormIface
 0002:000003C4       BisDesignHbookInterfacesFm.BisDesignHbookInterfacesFm
 0004:000000A4       BisDesignHbookInterfacesFm.BisDesignHbookInterfacesForm
 0001:00010610       BisDesignHbookInterfacesFm.Finalization
 0001:000105B0       BisDesignHbookInterfacesFm.TBisDesignHbookInterfacesForm.Create
 0001:00010608       BisDesignHbookInterfacesFm.TBisDesignHbookInterfacesForm.GetDataFrameClass
 0001:00010560       BisDesignHbookInterfacesFm.TBisDesignHbookInterfacesFormIface.Create
 0004:000000C4       BisDesignHbookInterfacesFrm..3
 0001:00015D2C       BisDesignHbookInterfacesFrm..TBisDesignHbookInterfacesFrame
 0001:00015C5C       BisDesignHbookInterfacesFrm..TBisDesignHbookReportsFrameIfaces
 0002:000003E4       BisDesignHbookInterfacesFrm.BisDesignHbookInterfacesFrm
 0001:00017444       BisDesignHbookInterfacesFrm.Finalization
 0001:00016FE8       BisDesignHbookInterfacesFrm.LocalShow
 0001:00016FB4       BisDesignHbookInterfacesFrm.TBisDesignHbookInterfacesFrame.ActionInterfaceShowExecute
 0001:00016F74       BisDesignHbookInterfacesFrm.TBisDesignHbookInterfacesFrame.ActionInterfaceShowUpdate
 0001:00016F90       BisDesignHbookInterfacesFrm.TBisDesignHbookInterfacesFrame.ActionPermissionsExecute
 0001:00016F98       BisDesignHbookInterfacesFrm.TBisDesignHbookInterfacesFrame.ActionPermissionsUpdate
 0001:00016FBC       BisDesignHbookInterfacesFrm.TBisDesignHbookInterfacesFrame.CanInterfaceShow
 0001:00017248       BisDesignHbookInterfacesFrm.TBisDesignHbookInterfacesFrame.CanPermissions
 0001:000162A8       BisDesignHbookInterfacesFrm.TBisDesignHbookInterfacesFrame.Create
 0001:00016684       BisDesignHbookInterfacesFrm.TBisDesignHbookInterfacesFrame.Destroy
 0001:00016F38       BisDesignHbookInterfacesFrm.TBisDesignHbookInterfacesFrame.GetCurrentDeleteClass
 0001:00016EC0       BisDesignHbookInterfacesFrm.TBisDesignHbookInterfacesFrame.GetCurrentDuplicateClass
 0001:00016EFC       BisDesignHbookInterfacesFrm.TBisDesignHbookInterfacesFrame.GetCurrentUpdateClass
 0001:00016D0C       BisDesignHbookInterfacesFrm.TBisDesignHbookInterfacesFrame.GetDocumentClass
 0001:0001675C       BisDesignHbookInterfacesFrm.TBisDesignHbookInterfacesFrame.GetInterfaceType
 0001:000166B4       BisDesignHbookInterfacesFrm.TBisDesignHbookInterfacesFrame.GetInterfaceTypeName
 0001:000167C0       BisDesignHbookInterfacesFrm.TBisDesignHbookInterfacesFrame.GetInternalClass
 0001:00016B2C       BisDesignHbookInterfacesFrm.TBisDesignHbookInterfacesFrame.GetReportClass
 0001:0001694C       BisDesignHbookInterfacesFrm.TBisDesignHbookInterfacesFrame.GetScriptClass
 0001:0001712C       BisDesignHbookInterfacesFrm.TBisDesignHbookInterfacesFrame.InterfaceShow
 0001:00017274       BisDesignHbookInterfacesFrm.TBisDesignHbookInterfacesFrame.Permissions
 0001:00016138       BisDesignHbookInterfacesFrm.TBisDesignHbookReportsFrameIfaces.FindByClass
 0001:00016204       BisDesignHbookInterfacesFrm.TBisDesignHbookReportsFrameIfaces.FindPermissionById
 0004:00000040       BisDesignHbookLocalitiesFm..3
 0001:00003FB0       BisDesignHbookLocalitiesFm..TBisDesignHbookLocalitiesForm
 0001:000041B4       BisDesignHbookLocalitiesFm..TBisDesignHbookLocalitiesFormIface
 0002:0000035C       BisDesignHbookLocalitiesFm.BisDesignHbookLocalitiesFm
 0004:0000003C       BisDesignHbookLocalitiesFm.BisDesignHbookLocalitiesForm
 0001:00004464       BisDesignHbookLocalitiesFm.Finalization
 0001:0000445C       BisDesignHbookLocalitiesFm.TBisDesignHbookLocalitiesForm.GetDataFrameClass
 0001:0000430C       BisDesignHbookLocalitiesFm.TBisDesignHbookLocalitiesFormIface.Create
 0004:00000030       BisDesignHbookLocalitiesFrm..3
 0001:00002DD4       BisDesignHbookLocalitiesFrm..TBisDesignHbookLocalitiesFrame
 0001:00002D04       BisDesignHbookLocalitiesFrm..TBisDesignHbookStreetsFrameIfaces
 0002:0000034C       BisDesignHbookLocalitiesFrm.BisDesignHbookLocalitiesFrm
 0001:00003514       BisDesignHbookLocalitiesFrm.Finalization
 0001:00003250       BisDesignHbookLocalitiesFrm.TBisDesignHbookLocalitiesFrame.ActionStreetsExecute
 0001:00003258       BisDesignHbookLocalitiesFrm.TBisDesignHbookLocalitiesFrame.ActionStreetsUpdate
 0001:00003274       BisDesignHbookLocalitiesFrm.TBisDesignHbookLocalitiesFrame.CanStreets
 0001:000031D8       BisDesignHbookLocalitiesFrm.TBisDesignHbookLocalitiesFrame.Create
 0001:00003220       BisDesignHbookLocalitiesFrm.TBisDesignHbookLocalitiesFrame.Destroy
 0001:0000330C       BisDesignHbookLocalitiesFrm.TBisDesignHbookLocalitiesFrame.Streets
 0001:00003134       BisDesignHbookLocalitiesFrm.TBisDesignHbookStreetsFrameIfaces.FindById
 0004:00000038       BisDesignHbookLocalityEditFm..6
 0001:00003BDC       BisDesignHbookLocalityEditFm..TBisDesignHbookLocalityDeleteFormIface
 0001:00003544       BisDesignHbookLocalityEditFm..TBisDesignHbookLocalityEditForm
 0001:000037CC       BisDesignHbookLocalityEditFm..TBisDesignHbookLocalityEditFormIface
 0001:00003924       BisDesignHbookLocalityEditFm..TBisDesignHbookLocalityInsertFormIface
 0001:00003A80       BisDesignHbookLocalityEditFm..TBisDesignHbookLocalityUpdateFormIface
 0002:00000354       BisDesignHbookLocalityEditFm.BisDesignHbookLocalityEditFm
 0004:00000034       BisDesignHbookLocalityEditFm.BisDesignHbookLocalityEditForm
 0001:00003F80       BisDesignHbookLocalityEditFm.Finalization
 0001:00003F24       BisDesignHbookLocalityEditFm.TBisDesignHbookLocalityDeleteFormIface.Create
 0001:00003D38       BisDesignHbookLocalityEditFm.TBisDesignHbookLocalityEditFormIface.Create
 0001:00003E6C       BisDesignHbookLocalityEditFm.TBisDesignHbookLocalityInsertFormIface.Create
 0001:00003EC8       BisDesignHbookLocalityEditFm.TBisDesignHbookLocalityUpdateFormIface.Create
 0004:00000170       BisDesignHbookLockEditFm..6
 0001:000275C0       BisDesignHbookLockEditFm..TBisDesignHbookLockDeleteFormIface
 0001:00026DE0       BisDesignHbookLockEditFm..TBisDesignHbookLockEditForm
 0001:000271D4       BisDesignHbookLockEditFm..TBisDesignHbookLockEditFormIface
 0001:00027320       BisDesignHbookLockEditFm..TBisDesignHbookLockInsertFormIface
 0001:00027470       BisDesignHbookLockEditFm..TBisDesignHbookLockUpdateFormIface
 0002:0000049C       BisDesignHbookLockEditFm.BisDesignHbookLockEditFm
 0004:0000016C       BisDesignHbookLockEditFm.BisDesignHbookLockEditForm
 0001:00027D50       BisDesignHbookLockEditFm.Finalization
 0001:00027C1C       BisDesignHbookLockEditFm.TBisDesignHbookLockDeleteFormIface.Create
 0001:00027CAC       BisDesignHbookLockEditFm.TBisDesignHbookLockEditForm.BeforeShow
 0001:00027C74       BisDesignHbookLockEditFm.TBisDesignHbookLockEditForm.Create
 0001:00027710       BisDesignHbookLockEditFm.TBisDesignHbookLockEditFormIface.Create
 0001:00027B6C       BisDesignHbookLockEditFm.TBisDesignHbookLockInsertFormIface.Create
 0001:00027BC4       BisDesignHbookLockEditFm.TBisDesignHbookLockUpdateFormIface.Create
 0004:00000178       BisDesignHbookLocksFm..3
 0001:00027D80       BisDesignHbookLocksFm..TBisDesignHbookLocksForm
 0001:00027F74       BisDesignHbookLocksFm..TBisDesignHbookLocksFormIface
 0004:00000174       BisDesignHbookLocksFm.BiDesignHbookLocksForm
 0002:000004A4       BisDesignHbookLocksFm.BisDesignHbookLocksFm
 0001:0002838C       BisDesignHbookLocksFm.Finalization
 0001:000280C0       BisDesignHbookLocksFm.TBisDesignHbookLocksFormIface.Create
 0004:00000120       BisDesignHbookMenuEditFm..7
 0001:0001F934       BisDesignHbookMenuEditFm..TBisApplicationInfo
 0001:0001F7E4       BisDesignHbookMenuEditFm..TBisDesignHbookMenuDeleteFormIface
 0001:0001EDFC       BisDesignHbookMenuEditFm..TBisDesignHbookMenuEditForm
 0001:0001F2A0       BisDesignHbookMenuEditFm..TBisDesignHbookMenuEditFormIface
 0001:0001F53C       BisDesignHbookMenuEditFm..TBisDesignHbookMenuInsertChildFormIface
 0001:0001F3EC       BisDesignHbookMenuEditFm..TBisDesignHbookMenuInsertFormIface
 0001:0001F694       BisDesignHbookMenuEditFm..TBisDesignHbookMenuUpdateFormIface
 0002:00000444       BisDesignHbookMenuEditFm.BisDesignHbookMenuEditFm
 0004:0000011C       BisDesignHbookMenuEditFm.BisDesignHbookMenuEditForm
 0001:00020FA4       BisDesignHbookMenuEditFm.Finalization
 0001:00020284       BisDesignHbookMenuEditFm.TBisDesignHbookMenuDeleteFormIface.Create
 0001:00020538       BisDesignHbookMenuEditFm.TBisDesignHbookMenuEditForm.BeforeShow
 0001:00020574       BisDesignHbookMenuEditFm.TBisDesignHbookMenuEditForm.ButtonClearClick
 0001:000205B8       BisDesignHbookMenuEditFm.TBisDesignHbookMenuEditForm.ButtonLoadClick
 0001:00020650       BisDesignHbookMenuEditFm.TBisDesignHbookMenuEditForm.ButtonSaveClick
 0001:0002032C       BisDesignHbookMenuEditFm.TBisDesignHbookMenuEditForm.ChangeParam
 0001:00020508       BisDesignHbookMenuEditFm.TBisDesignHbookMenuEditForm.ChangesExists
 0001:00020528       BisDesignHbookMenuEditFm.TBisDesignHbookMenuEditForm.CheckListBoxApplicationsClickCheck
 0001:000202DC       BisDesignHbookMenuEditFm.TBisDesignHbookMenuEditForm.Create
 0001:00020B50       BisDesignHbookMenuEditFm.TBisDesignHbookMenuEditForm.DeleteApplicationMenus
 0001:00020EFC       BisDesignHbookMenuEditFm.TBisDesignHbookMenuEditForm.Execute
 0001:00020D44       BisDesignHbookMenuEditFm.TBisDesignHbookMenuEditForm.InsertApplicationMenus
 0001:00020904       BisDesignHbookMenuEditFm.TBisDesignHbookMenuEditForm.RefreshApplicationMenus
 0001:0002070C       BisDesignHbookMenuEditFm.TBisDesignHbookMenuEditForm.RefreshApplications
 0001:0001F9A8       BisDesignHbookMenuEditFm.TBisDesignHbookMenuEditFormIface.Create
 0001:0001FD10       BisDesignHbookMenuEditFm.TBisDesignHbookMenuEditFormIface.PictureIdChange
 0001:00020058       BisDesignHbookMenuEditFm.TBisDesignHbookMenuInsertChildFormIface.Create
 0001:000200DC       BisDesignHbookMenuEditFm.TBisDesignHbookMenuInsertChildFormIface.CreateForm
 0001:0001FEA0       BisDesignHbookMenuEditFm.TBisDesignHbookMenuInsertFormIface.Create
 0001:0001FEF8       BisDesignHbookMenuEditFm.TBisDesignHbookMenuInsertFormIface.CreateForm
 0001:0002022C       BisDesignHbookMenuEditFm.TBisDesignHbookMenuUpdateFormIface.Create
 0004:00000128       BisDesignHbookMenusFm..3
 0001:00020FD4       BisDesignHbookMenusFm..TBisDesignHbookMenusForm
 0001:000211C8       BisDesignHbookMenusFm..TBisDesignHbookMenusFormIface
 0002:0000044C       BisDesignHbookMenusFm.BisDesignHbookMenusFm
 0004:00000124       BisDesignHbookMenusFm.BisDesignHbookMenusForm
 0001:0002157C       BisDesignHbookMenusFm.Finalization
 0001:00021314       BisDesignHbookMenusFm.TBisDesignHbookMenusFormIface.Create
 0004:000000CC       BisDesignHbookPermissionEditFm..6
 0001:00017BD4       BisDesignHbookPermissionEditFm..TBisDesignHbookPermissionDeleteFormIface
 0001:00017474       BisDesignHbookPermissionEditFm..TBisDesignHbookPermissionEditForm
 0001:000177B0       BisDesignHbookPermissionEditFm..TBisDesignHbookPermissionEditFormIface
 0001:0001790C       BisDesignHbookPermissionEditFm..TBisDesignHbookPermissionInsertFormIface
 0001:00017A70       BisDesignHbookPermissionEditFm..TBisDesignHbookPermissionUpdateFormIface
 0002:000003EC       BisDesignHbookPermissionEditFm.BisDesignHbookPermissionEditFm
 0004:000000C8       BisDesignHbookPermissionEditFm.BisDesignHbookPermissionEditForm
 0001:00018668       BisDesignHbookPermissionEditFm.FillDocument
 0001:0001828C       BisDesignHbookPermissionEditFm.FillInternal
 0001:000184A0       BisDesignHbookPermissionEditFm.FillReport
 0001:000182D8       BisDesignHbookPermissionEditFm.FillScript
 0001:00018B68       BisDesignHbookPermissionEditFm.Finalization
 0001:000180F8       BisDesignHbookPermissionEditFm.TBisDesignHbookPermissionDeleteFormIface.Create
 0001:000181C8       BisDesignHbookPermissionEditFm.TBisDesignHbookPermissionEditForm.CanShow
 0001:00018958       BisDesignHbookPermissionEditFm.TBisDesignHbookPermissionEditForm.ChangeParam
 0001:00018158       BisDesignHbookPermissionEditFm.TBisDesignHbookPermissionEditForm.Destroy
 0001:00018190       BisDesignHbookPermissionEditFm.TBisDesignHbookPermissionEditForm.Execute
 0001:000186C8       BisDesignHbookPermissionEditFm.TBisDesignHbookPermissionEditForm.FillPermissions
 0001:00018220       BisDesignHbookPermissionEditFm.TBisDesignHbookPermissionEditForm.GetIfacePermissions
 0001:00017D38       BisDesignHbookPermissionEditFm.TBisDesignHbookPermissionEditFormIface.Create
 0001:00017FD8       BisDesignHbookPermissionEditFm.TBisDesignHbookPermissionEditFormIface.CreateForm
 0001:00018038       BisDesignHbookPermissionEditFm.TBisDesignHbookPermissionInsertFormIface.Create
 0001:00018098       BisDesignHbookPermissionEditFm.TBisDesignHbookPermissionUpdateFormIface.Create
 0004:000000D4       BisDesignHbookPermissionsFm..4
 0001:00018E6C       BisDesignHbookPermissionsFm..TBisDesignHbookPermissionsForm
 0001:00019070       BisDesignHbookPermissionsFm..TBisDesignHbookPermissionsFormIface
 0001:00018B98       BisDesignHbookPermissionsFm..TBisDesignHbookPermissionsFrame
 0004:000000D0       BisDesignHbookPermissionsFm.BiDesignHbookPermissionsForm
 0002:000003F4       BisDesignHbookPermissionsFm.BisDesignHbookPermissionsFm
 0001:000195DC       BisDesignHbookPermissionsFm.Finalization
 0001:000195D4       BisDesignHbookPermissionsFm.TBisDesignHbookPermissionsForm.GetDataFrameClass
 0001:000192F8       BisDesignHbookPermissionsFm.TBisDesignHbookPermissionsFormIface.Create
 0001:0001958C       BisDesignHbookPermissionsFm.TBisDesignHbookPermissionsFormIface.CreateForm
 0001:000191E8       BisDesignHbookPermissionsFm.TBisDesignHbookPermissionsFrame.BeforeIfaceExecute
 0004:00000108       BisDesignHbookProfileEditFm..6
 0001:0001D4BC       BisDesignHbookProfileEditFm..TBisDesignHbookProfileDeleteFormIface
 0001:0001CDD4       BisDesignHbookProfileEditFm..TBisDesignHbookProfileEditForm
 0001:0001D0B8       BisDesignHbookProfileEditFm..TBisDesignHbookProfileEditFormIface
 0001:0001D20C       BisDesignHbookProfileEditFm..TBisDesignHbookProfileInsertFormIface
 0001:0001D364       BisDesignHbookProfileEditFm..TBisDesignHbookProfileUpdateFormIface
 0002:0000042C       BisDesignHbookProfileEditFm.BisDesignHbookProfileEditFm
 0004:00000104       BisDesignHbookProfileEditFm.BisDesignHbookProfileEditForm
 0001:0001D968       BisDesignHbookProfileEditFm.Finalization
 0001:0001D90C       BisDesignHbookProfileEditFm.TBisDesignHbookProfileDeleteFormIface.Create
 0001:0001D614       BisDesignHbookProfileEditFm.TBisDesignHbookProfileEditFormIface.Create
 0001:0001D854       BisDesignHbookProfileEditFm.TBisDesignHbookProfileInsertFormIface.Create
 0001:0001D8B0       BisDesignHbookProfileEditFm.TBisDesignHbookProfileUpdateFormIface.Create
 0004:00000110       BisDesignHbookProfilesFm..3
 0001:0001D998       BisDesignHbookProfilesFm..TBisDesignHbookProfilesForm
 0001:0001DB94       BisDesignHbookProfilesFm..TBisDesignHbookProfilesFormIface
 0004:0000010C       BisDesignHbookProfilesFm.BiDesignHbookProfilesForm
 0002:00000434       BisDesignHbookProfilesFm.BisDesignHbookProfilesFm
 0001:0001DE98       BisDesignHbookProfilesFm.Finalization
 0001:0001DCE8       BisDesignHbookProfilesFm.TBisDesignHbookProfilesFormIface.Create
 0004:000000B0       BisDesignHbookReportEditFm..6
 0001:00010E44       BisDesignHbookReportEditFm..TBisDesignHbookReportDeleteFormIface
 0001:00010640       BisDesignHbookReportEditFm..TBisDesignHbookReportEditForm
 0001:00010A44       BisDesignHbookReportEditFm..TBisDesignHbookReportEditFormIface
 0001:00010B94       BisDesignHbookReportEditFm..TBisDesignHbookReportInsertFormIface
 0001:00010CEC       BisDesignHbookReportEditFm..TBisDesignHbookReportUpdateFormIface
 0002:000003CC       BisDesignHbookReportEditFm.BisDesignHbookReportEditFm
 0004:000000AC       BisDesignHbookReportEditFm.BisDesignHbookReportEditForm
 0001:00012624       BisDesignHbookReportEditFm.Finalization
 0001:0001138C       BisDesignHbookReportEditFm.TBisDesignHbookReportDeleteFormIface.Create
 0001:00011504       BisDesignHbookReportEditFm.TBisDesignHbookReportEditForm.BeforeShow
 0001:0001208C       BisDesignHbookReportEditFm.TBisDesignHbookReportEditForm.ButtonClearClick
 0001:00012194       BisDesignHbookReportEditFm.TBisDesignHbookReportEditForm.ButtonEditorClick
 0001:00011E84       BisDesignHbookReportEditFm.TBisDesignHbookReportEditForm.ButtonLoadClick
 0001:00011F64       BisDesignHbookReportEditFm.TBisDesignHbookReportEditForm.ButtonSaveClick
 0001:0001179C       BisDesignHbookReportEditFm.TBisDesignHbookReportEditForm.ChangeInterfaceId
 0001:00011A08       BisDesignHbookReportEditFm.TBisDesignHbookReportEditForm.ChangeParam
 0001:000120D0       BisDesignHbookReportEditFm.TBisDesignHbookReportEditForm.CheckParam
 0001:0001140C       BisDesignHbookReportEditFm.TBisDesignHbookReportEditForm.Create
 0001:000114D4       BisDesignHbookReportEditFm.TBisDesignHbookReportEditForm.Destroy
 0001:000121E4       BisDesignHbookReportEditFm.TBisDesignHbookReportEditForm.EditorSaveChanges
 0001:000116A0       BisDesignHbookReportEditFm.TBisDesignHbookReportEditForm.EditReportChange
 0001:000125EC       BisDesignHbookReportEditFm.TBisDesignHbookReportEditForm.Execute
 0001:0001219C       BisDesignHbookReportEditFm.TBisDesignHbookReportEditForm.GetReportEditorClass
 0001:00012354       BisDesignHbookReportEditFm.TBisDesignHbookReportEditForm.RunEditor
 0001:00010F9C       BisDesignHbookReportEditFm.TBisDesignHbookReportEditFormIface.Create
 0001:0001128C       BisDesignHbookReportEditFm.TBisDesignHbookReportInsertFormIface.Create
 0001:0001130C       BisDesignHbookReportEditFm.TBisDesignHbookReportUpdateFormIface.Create
 0004:00000134       BisDesignHbookReportsFm..3
 0001:00022960       BisDesignHbookReportsFm..TBisDesignHbookReportsForm
 0001:00022B58       BisDesignHbookReportsFm..TBisDesignHbookReportsFormIface
 0002:0000045C       BisDesignHbookReportsFm.BisDesignHbookReportsFm
 0004:00000130       BisDesignHbookReportsFm.BisDesignHbookReportsForm
 0001:00022ED8       BisDesignHbookReportsFm.Finalization
 0001:00022E8C       BisDesignHbookReportsFm.TBisDesignHbookReportsForm.Create
 0001:00022EC4       BisDesignHbookReportsFm.TBisDesignHbookReportsForm.GetDataFrame
 0001:00022ED0       BisDesignHbookReportsFm.TBisDesignHbookReportsForm.GetDataFrameClass
 0001:00022E7C       BisDesignHbookReportsFm.TBisDesignHbookReportsFormIface.CanReportEdit
 0001:00022CA8       BisDesignHbookReportsFm.TBisDesignHbookReportsFormIface.Create
 0001:00022E2C       BisDesignHbookReportsFm.TBisDesignHbookReportsFormIface.CreateForm
 0001:00022E20       BisDesignHbookReportsFm.TBisDesignHbookReportsFormIface.GetLastForm
 0004:0000012C       BisDesignHbookReportsFrm..4
 0001:0002174C       BisDesignHbookReportsFrm..TBisDesignHbookReportsFrame
 0001:000215AC       BisDesignHbookReportsFrm..TBisDesignHbookReportsFrameEditors
 0001:0002167C       BisDesignHbookReportsFrm..TBisDesignHbookReportsFrameReports
 0002:00000454       BisDesignHbookReportsFrm.BisDesignHbookReportsFrm
 0001:00022930       BisDesignHbookReportsFrm.Finalization
 0001:00021D88       BisDesignHbookReportsFrm.TBisDesignHbookReportsFrame.ActionReportEditExecute
 0001:00021D48       BisDesignHbookReportsFrm.TBisDesignHbookReportsFrame.ActionReportEditUpdate
 0001:00021D64       BisDesignHbookReportsFrm.TBisDesignHbookReportsFrame.ActionReportShowExecute
 0001:00021D6C       BisDesignHbookReportsFrm.TBisDesignHbookReportsFrame.ActionReportShowUpdate
 0001:00021D90       BisDesignHbookReportsFrm.TBisDesignHbookReportsFrame.CanReportEdit
 0001:00022750       BisDesignHbookReportsFrm.TBisDesignHbookReportsFrame.CanReportShow
 0001:00021CB0       BisDesignHbookReportsFrm.TBisDesignHbookReportsFrame.Create
 0001:00021D0C       BisDesignHbookReportsFrm.TBisDesignHbookReportsFrame.Destroy
 0001:000222D8       BisDesignHbookReportsFrm.TBisDesignHbookReportsFrame.EditorPreview
 0001:00021FEC       BisDesignHbookReportsFrm.TBisDesignHbookReportsFrame.EditorSaveChanges
 0001:00021DF0       BisDesignHbookReportsFrm.TBisDesignHbookReportsFrame.GetModuleByName
 0001:00021F3C       BisDesignHbookReportsFrm.TBisDesignHbookReportsFrame.GetReportClass
 0001:00021E84       BisDesignHbookReportsFrm.TBisDesignHbookReportsFrame.GetReportEditorClass
 0001:000223AC       BisDesignHbookReportsFrm.TBisDesignHbookReportsFrame.ReportEdit
 0001:000227B0       BisDesignHbookReportsFrm.TBisDesignHbookReportsFrame.ReportShow
 0001:00021B3C       BisDesignHbookReportsFrm.TBisDesignHbookReportsFrameEditors.FindByClass
 0001:00021BE4       BisDesignHbookReportsFrm.TBisDesignHbookReportsFrameReports.FindByClass
 0004:00000078       BisDesignHbookRoleEditFm..6
 0001:0000BF90       BisDesignHbookRoleEditFm..TBisDesignHbookRoleDeleteFormIface
 0001:0000B914       BisDesignHbookRoleEditFm..TBisDesignHbookRoleEditForm
 0001:0000BBA4       BisDesignHbookRoleEditFm..TBisDesignHbookRoleEditFormIface
 0001:0000BCF0       BisDesignHbookRoleEditFm..TBisDesignHbookRoleInsertFormIface
 0001:0000BE40       BisDesignHbookRoleEditFm..TBisDesignHbookRoleUpdateFormIface
 0002:00000394       BisDesignHbookRoleEditFm.BisDesignHbookRoleEditFm
 0004:00000074       BisDesignHbookRoleEditFm.BisDesignHbookRoleEditForm
 0001:0000C478       BisDesignHbookRoleEditFm.Finalization
 0001:0000C41C       BisDesignHbookRoleEditFm.TBisDesignHbookRoleDeleteFormIface.Create
 0001:0000C0E0       BisDesignHbookRoleEditFm.TBisDesignHbookRoleEditFormIface.Create
 0001:0000C364       BisDesignHbookRoleEditFm.TBisDesignHbookRoleInsertFormIface.Create
 0001:0000C3C0       BisDesignHbookRoleEditFm.TBisDesignHbookRoleUpdateFormIface.Create
 0004:00000088       BisDesignHbookRolesAndAccountsFm..4
 0001:0000CD64       BisDesignHbookRolesAndAccountsFm..TBisDesignHbookRolesAndAccountsForm
 0001:0000CF78       BisDesignHbookRolesAndAccountsFm..TBisDesignHbookRolesAndAccountsFormIface
 0001:0000CA8C       BisDesignHbookRolesAndAccountsFm..TBisDesignHbookRolesAndAccountsFrame
 0002:000003A4       BisDesignHbookRolesAndAccountsFm.BisDesignHbookRolesAndAccountsFm
 0004:00000084       BisDesignHbookRolesAndAccountsFm.BisDesignHbookRolesAndAccountsForm
 0001:0000DD0C       BisDesignHbookRolesAndAccountsFm.Finalization
 0001:0000DCCC       BisDesignHbookRolesAndAccountsFm.TBisDesignHbookRolesAndAccountsForm.Create
 0001:0000DD04       BisDesignHbookRolesAndAccountsFm.TBisDesignHbookRolesAndAccountsForm.GetDataFrameClass
 0001:0000DC7C       BisDesignHbookRolesAndAccountsFm.TBisDesignHbookRolesAndAccountsFormIface.Create
 0001:0000D0E4       BisDesignHbookRolesAndAccountsFm.TBisDesignHbookRolesAndAccountsFrame.Create
 0001:0000D2AC       BisDesignHbookRolesAndAccountsFm.TBisDesignHbookRolesAndAccountsFrame.FillProvider
 0001:0000DC50       BisDesignHbookRolesAndAccountsFm.TBisDesignHbookRolesAndAccountsFrame.Init
 0001:0000DC58       BisDesignHbookRolesAndAccountsFm.TBisDesignHbookRolesAndAccountsFrame.OpenRecords
 0001:0000DC78       BisDesignHbookRolesAndAccountsFm.TBisDesignHbookRolesAndAccountsFrame.TreeClick
 0004:00000080       BisDesignHbookRolesFm..3
 0001:0000C4A8       BisDesignHbookRolesFm..TBisDesignHbookRolesForm
 0001:0000C69C       BisDesignHbookRolesFm..TBisDesignHbookRolesFormIface
 0002:0000039C       BisDesignHbookRolesFm.BisDesignHbookRolesFm
 0004:0000007C       BisDesignHbookRolesFm.BisDesignHbookRolesForm
 0001:0000CA5C       BisDesignHbookRolesFm.Finalization
 0001:0000CA24       BisDesignHbookRolesFm.TBisDesignHbookRolesForm.Create
 0001:0000C7E8       BisDesignHbookRolesFm.TBisDesignHbookRolesFormIface.Create
 0004:000000B8       BisDesignHbookScriptEditFm..6
 0001:00012E30       BisDesignHbookScriptEditFm..TBisDesignHbookScriptDeleteFormIface
 0001:00012654       BisDesignHbookScriptEditFm..TBisDesignHbookScriptEditForm
 0001:00012A30       BisDesignHbookScriptEditFm..TBisDesignHbookScriptEditFormIface
 0001:00012B80       BisDesignHbookScriptEditFm..TBisDesignHbookScriptInsertFormIface
 0001:00012CD8       BisDesignHbookScriptEditFm..TBisDesignHbookScriptUpdateFormIface
 0002:000003D4       BisDesignHbookScriptEditFm.BisDesignHbookScriptEditFm
 0004:000000B4       BisDesignHbookScriptEditFm.BisDesignHbookScriptEditForm
 0001:000140B8       BisDesignHbookScriptEditFm.Finalization
 0001:00013378       BisDesignHbookScriptEditFm.TBisDesignHbookScriptDeleteFormIface.Create
 0001:000134E8       BisDesignHbookScriptEditFm.TBisDesignHbookScriptEditForm.BeforeShow
 0001:00013F78       BisDesignHbookScriptEditFm.TBisDesignHbookScriptEditForm.ButtonClearClick
 0001:00013D70       BisDesignHbookScriptEditFm.TBisDesignHbookScriptEditForm.ButtonLoadClick
 0001:00013E50       BisDesignHbookScriptEditFm.TBisDesignHbookScriptEditForm.ButtonSaveClick
 0001:00013768       BisDesignHbookScriptEditFm.TBisDesignHbookScriptEditForm.ChangeInterfaceId
 0001:000139D4       BisDesignHbookScriptEditFm.TBisDesignHbookScriptEditForm.ChangeParam
 0001:00013FBC       BisDesignHbookScriptEditFm.TBisDesignHbookScriptEditForm.CheckParam
 0001:000133F8       BisDesignHbookScriptEditFm.TBisDesignHbookScriptEditForm.Create
 0001:000134C0       BisDesignHbookScriptEditFm.TBisDesignHbookScriptEditForm.Destroy
 0001:0001366C       BisDesignHbookScriptEditFm.TBisDesignHbookScriptEditForm.EditScriptChange
 0001:00014080       BisDesignHbookScriptEditFm.TBisDesignHbookScriptEditForm.Execute
 0001:00012F88       BisDesignHbookScriptEditFm.TBisDesignHbookScriptEditFormIface.Create
 0001:00013278       BisDesignHbookScriptEditFm.TBisDesignHbookScriptInsertFormIface.Create
 0001:000132F8       BisDesignHbookScriptEditFm.TBisDesignHbookScriptUpdateFormIface.Create
 0004:00000140       BisDesignHbookScriptsFm..3
 0001:000237E0       BisDesignHbookScriptsFm..TBisDesignHbookScriptsForm
 0001:000239D8       BisDesignHbookScriptsFm..TBisDesignHbookScriptsFormIface
 0002:0000046C       BisDesignHbookScriptsFm.BisDesignHbookScriptsFm
 0004:0000013C       BisDesignHbookScriptsFm.BisDesignHbookScriptsForm
 0001:00023D2C       BisDesignHbookScriptsFm.Finalization
 0001:00023CE0       BisDesignHbookScriptsFm.TBisDesignHbookScriptsForm.Create
 0001:00023D18       BisDesignHbookScriptsFm.TBisDesignHbookScriptsForm.GetDataFrame
 0001:00023D24       BisDesignHbookScriptsFm.TBisDesignHbookScriptsForm.GetDataFrameClass
 0001:00023B28       BisDesignHbookScriptsFm.TBisDesignHbookScriptsFormIface.Create
 0001:00023CAC       BisDesignHbookScriptsFm.TBisDesignHbookScriptsFormIface.CreateForm
 0001:00023CA0       BisDesignHbookScriptsFm.TBisDesignHbookScriptsFormIface.GetLastForm
 0004:00000138       BisDesignHbookScriptsFrm..3
 0001:00022FD8       BisDesignHbookScriptsFrm..TBisDesignHbookScriptsFrame
 0001:00022F08       BisDesignHbookScriptsFrm..TBisDesignHbookScriptsFrameScripts
 0002:00000464       BisDesignHbookScriptsFrm.BisDesignHbookScriptsFrm
 0001:000237B0       BisDesignHbookScriptsFrm.Finalization
 0001:00023488       BisDesignHbookScriptsFrm.TBisDesignHbookScriptsFrame.ActionScriptShowExecute
 0001:00023490       BisDesignHbookScriptsFrm.TBisDesignHbookScriptsFrame.ActionScriptShowUpdate
 0001:000235F0       BisDesignHbookScriptsFrm.TBisDesignHbookScriptsFrame.CanScriptShow
 0001:00023410       BisDesignHbookScriptsFrm.TBisDesignHbookScriptsFrame.Create
 0001:00023458       BisDesignHbookScriptsFrm.TBisDesignHbookScriptsFrame.Destroy
 0001:000234AC       BisDesignHbookScriptsFrm.TBisDesignHbookScriptsFrame.GetModuleByName
 0001:00023540       BisDesignHbookScriptsFrm.TBisDesignHbookScriptsFrame.GetScriptClass
 0001:00023650       BisDesignHbookScriptsFrm.TBisDesignHbookScriptsFrame.ScriptShow
 0001:00023344       BisDesignHbookScriptsFrm.TBisDesignHbookScriptsFrameScripts.FindByClass
 0004:00000118       BisDesignHbookSessionsFm..5
 0001:0001E368       BisDesignHbookSessionsFm..TBisDesignHbookSessionDeleteFormIface
 0001:0001DEC8       BisDesignHbookSessionsFm..TBisDesignHbookSessionsForm
 0001:0001E0C4       BisDesignHbookSessionsFm..TBisDesignHbookSessionsFormIface
 0001:0001E218       BisDesignHbookSessionsFm..TBisDesignHbookSessionViewFormIface
 0004:00000114       BisDesignHbookSessionsFm.BiDesignHbookSessionsForm
 0002:0000043C       BisDesignHbookSessionsFm.BisDesignHbookSessionsFm
 0001:0001EDCC       BisDesignHbookSessionsFm.Finalization
 0001:0001E4FC       BisDesignHbookSessionsFm.TBisDesignHbookSessionDeleteFormIface.Create
 0001:0001E564       BisDesignHbookSessionsFm.TBisDesignHbookSessionDeleteFormIface.Execute
 0001:0001EB3C       BisDesignHbookSessionsFm.TBisDesignHbookSessionsForm.Create
 0001:0001ED34       BisDesignHbookSessionsFm.TBisDesignHbookSessionsForm.GridPaintText
 0001:0001E910       BisDesignHbookSessionsFm.TBisDesignHbookSessionsFormIface.Create
 0001:0001E6F0       BisDesignHbookSessionsFm.TBisDesignHbookSessionViewFormIface.Execute
 0004:00000048       BisDesignHbookStreetEditFm..7
 0001:00004CAC       BisDesignHbookStreetEditFm..TBisDesignHbookStreetDeleteFormIface
 0001:00004494       BisDesignHbookStreetEditFm..TBisDesignHbookStreetEditForm
 0001:00004754       BisDesignHbookStreetEditFm..TBisDesignHbookStreetEditFormIface
 0001:000048A4       BisDesignHbookStreetEditFm..TBisDesignHbookStreetFilterFormIface
 0001:000049FC       BisDesignHbookStreetEditFm..TBisDesignHbookStreetInsertFormIface
 0001:00004B54       BisDesignHbookStreetEditFm..TBisDesignHbookStreetUpdateFormIface
 0002:00000364       BisDesignHbookStreetEditFm.BisDesignHbookStreetEditFm
 0004:00000044       BisDesignHbookStreetEditFm.BisDesignHbookStreetEditForm
 0001:000051B4       BisDesignHbookStreetEditFm.Finalization
 0001:00005158       BisDesignHbookStreetEditFm.TBisDesignHbookStreetDeleteFormIface.Create
 0001:00004E04       BisDesignHbookStreetEditFm.TBisDesignHbookStreetEditFormIface.Create
 0001:00005068       BisDesignHbookStreetEditFm.TBisDesignHbookStreetFilterFormIface.Create
 0001:000050A0       BisDesignHbookStreetEditFm.TBisDesignHbookStreetInsertFormIface.Create
 0001:000050FC       BisDesignHbookStreetEditFm.TBisDesignHbookStreetUpdateFormIface.Create
 0004:00000050       BisDesignHbookStreetsFm..4
 0001:000054B4       BisDesignHbookStreetsFm..TBisDesignHbookStreetsForm
 0001:000056AC       BisDesignHbookStreetsFm..TBisDesignHbookStreetsFormIface
 0001:000051E4       BisDesignHbookStreetsFm..TBisDesignHbookStreetsFrame
 0002:0000036C       BisDesignHbookStreetsFm.BisDesignHbookStreetsFm
 0004:0000004C       BisDesignHbookStreetsFm.BisDesignHbookStreetsForm
 0001:00005C90       BisDesignHbookStreetsFm.Finalization
 0001:00005C88       BisDesignHbookStreetsFm.TBisDesignHbookStreetsForm.GetDataFrameClass
 0001:00005A00       BisDesignHbookStreetsFm.TBisDesignHbookStreetsFormIface.Create
 0001:00005C28       BisDesignHbookStreetsFm.TBisDesignHbookStreetsFormIface.CreateForm
 0001:00005820       BisDesignHbookStreetsFm.TBisDesignHbookStreetsFrame.BeforeIfaceExecute
 0004:00000180       BisDesignHbookTaskEditFm..6
 0001:000290A8       BisDesignHbookTaskEditFm..TBisDesignHbookTaskDeleteFormIface
 0001:000283BC       BisDesignHbookTaskEditFm..TBisDesignHbookTaskEditForm
 0001:00028CBC       BisDesignHbookTaskEditFm..TBisDesignHbookTaskEditFormIface
 0001:00028E08       BisDesignHbookTaskEditFm..TBisDesignHbookTaskInsertFormIface
 0001:00028F58       BisDesignHbookTaskEditFm..TBisDesignHbookTaskUpdateFormIface
 0002:000004AC       BisDesignHbookTaskEditFm.BisDesignHbookTaskEditFm
 0004:0000017C       BisDesignHbookTaskEditFm.BisDesignHbookTaskEditForm
 0001:0002B290       BisDesignHbookTaskEditFm.Finalization
 0001:0002A26C       BisDesignHbookTaskEditFm.TBisDesignHbookTaskDeleteFormIface.Create
 0001:0002A33C       BisDesignHbookTaskEditFm.TBisDesignHbookTaskEditForm.BeforeShow
 0001:0002A450       BisDesignHbookTaskEditFm.TBisDesignHbookTaskEditForm.ChangeParam
 0001:0002AEA4       BisDesignHbookTaskEditFm.TBisDesignHbookTaskEditForm.CheckParams
 0001:0002A2E8       BisDesignHbookTaskEditFm.TBisDesignHbookTaskEditForm.Create
 0001:0002B088       BisDesignHbookTaskEditFm.TBisDesignHbookTaskEditForm.RadioButtonOnceClick
 0001:0002B18C       BisDesignHbookTaskEditFm.TBisDesignHbookTaskEditForm.SetTaskSchedule
 0001:000291F8       BisDesignHbookTaskEditFm.TBisDesignHbookTaskEditFormIface.Create
 0001:0002A170       BisDesignHbookTaskEditFm.TBisDesignHbookTaskInsertFormIface.Create
 0001:0002A1EC       BisDesignHbookTaskEditFm.TBisDesignHbookTaskUpdateFormIface.Create
 0004:00000188       BisDesignHbookTasksFm..3
 0001:0002B2C0       BisDesignHbookTasksFm..TBisDesignHbookTasksForm
 0001:0002B4B4       BisDesignHbookTasksFm..TBisDesignHbookTasksFormIface
 0004:00000184       BisDesignHbookTasksFm.BiDesignHbookTasksForm
 0002:000004B4       BisDesignHbookTasksFm.BisDesignHbookTasksFm
 0001:0002BCA8       BisDesignHbookTasksFm.Finalization
 0001:0002B600       BisDesignHbookTasksFm.TBisDesignHbookTasksFormIface.Create
 0004:00000148       BisDesignJournalActionEditFm..7
 0001:000246A8       BisDesignJournalActionEditFm..TBisDesignJournalActionDeleteFormIface
 0001:00023D5C       BisDesignJournalActionEditFm..TBisDesignJournalActionEditForm
 0001:0002413C       BisDesignJournalActionEditFm..TBisDesignJournalActionEditFormIface
 0001:00024294       BisDesignJournalActionEditFm..TBisDesignJournalActionFilterFormIface
 0001:000243F0       BisDesignJournalActionEditFm..TBisDesignJournalActionInsertFormIface
 0001:0002454C       BisDesignJournalActionEditFm..TBisDesignJournalActionUpdateFormIface
 0002:00000474       BisDesignJournalActionEditFm.BisDesignJournalActionEditFm
 0004:00000144       BisDesignJournalActionEditFm.BisDesignJournalActionEditForm
 0001:00024FC8       BisDesignJournalActionEditFm.Finalization
 0001:00024804       BisDesignJournalActionEditFm.GetActionTypeByIndex
 0001:00024DFC       BisDesignJournalActionEditFm.TBisDesignJournalActionDeleteFormIface.Create
 0001:00024F34       BisDesignJournalActionEditFm.TBisDesignJournalActionEditForm.BeforeShow
 0001:00024E60       BisDesignJournalActionEditFm.TBisDesignJournalActionEditForm.Create
 0001:00024888       BisDesignJournalActionEditFm.TBisDesignJournalActionEditFormIface.Create
 0001:00024CFC       BisDesignJournalActionEditFm.TBisDesignJournalActionFilterFormIface.Create
 0001:00024D34       BisDesignJournalActionEditFm.TBisDesignJournalActionInsertFormIface.Create
 0001:00024D98       BisDesignJournalActionEditFm.TBisDesignJournalActionUpdateFormIface.Create
 0004:00000150       BisDesignJournalActionsFm..3
 0001:00024FF8       BisDesignJournalActionsFm..TBisDesignJournalActionsForm
 0001:00025260       BisDesignJournalActionsFm..TBisDesignJournalActionsFormIface
 0004:0000014C       BisDesignJournalActionsFm.BiDesignJournalActionsForm
 0002:0000047C       BisDesignJournalActionsFm.BisDesignJournalActionsFm
 0001:000257FC       BisDesignJournalActionsFm.Finalization
 0001:000257AC       BisDesignJournalActionsFm.TBisDesignJournalActionsForm.Create
 0001:000253B8       BisDesignJournalActionsFm.TBisDesignJournalActionsFormIface.Create
 0001:0002570C       BisDesignJournalActionsFm.TBisDesignJournalActionsFormIface.GetActionTypeName
 0004:0000001C       BisDesignMainFm..3
 0001:000013E8       BisDesignMainFm..TBisDesignMainForm
 0001:000016C8       BisDesignMainFm..TBisDesignMainFormIface
 0002:00000324       BisDesignMainFm.BisDesignMainFm
 0004:00000018       BisDesignMainFm.BisDesignMainForm
 0001:00001B28       BisDesignMainFm.Finalization
 0001:00001834       BisDesignMainFm.TBisDesignMainForm.Create
 0001:00001870       BisDesignMainFm.TBisDesignMainForm.RefreshMenus
 0001:00001A98       BisDesignMainFm.TBisDesignMainForm.Timer1Timer
 0001:000017F4       BisDesignMainFm.TBisDesignMainFormIface.Create
 0004:000001A0       BisExecuteFm..3
 0001:0002D700       BisExecuteFm..TBisExecuteForm
 0001:0002DA68       BisExecuteFm..TBisExecuteFormIface
 0001:0002DB94       BisExecuteFm..TBisExecuteFormThread
 0002:000004CC       BisExecuteFm.BisExecuteFm
 0004:0000019C       BisExecuteFm.BisExecuteForm
 0001:0002DEC4       BisExecuteFm.Finalization
 0001:0002DD48       BisExecuteFm.TBisExecuteForm.ActionStartExecute
 0001:0002DD54       BisExecuteFm.TBisExecuteForm.ActionStartUpdate
 0001:0002DD70       BisExecuteFm.TBisExecuteForm.ActionStopExecute
 0001:0002DD7C       BisExecuteFm.TBisExecuteForm.ActionStopUpdate
 0001:0002DD98       BisExecuteFm.TBisExecuteForm.ButtonCancelClick
 0001:0002DE30       BisExecuteFm.TBisExecuteForm.CanStart
 0001:0002DE8C       BisExecuteFm.TBisExecuteForm.CanStop
 0001:0002DDA0       BisExecuteFm.TBisExecuteForm.CheckBoxAutoStartClick
 0001:0002DC80       BisExecuteFm.TBisExecuteForm.Create
 0001:0002DCF0       BisExecuteFm.TBisExecuteForm.Destroy
 0001:0002DDFC       BisExecuteFm.TBisExecuteForm.DoTerminate
 0001:0002DE40       BisExecuteFm.TBisExecuteForm.Start
 0001:0002DE98       BisExecuteFm.TBisExecuteForm.Stop
 0001:0002DDC0       BisExecuteFm.TBisExecuteForm.ThreadExecute
 0001:0002DDC4       BisExecuteFm.TBisExecuteForm.ThreadSynchronize
 0001:0002DE1C       BisExecuteFm.TBisExecuteForm.ThreadTerminate
 0001:0002DD2C       BisExecuteFm.TBisExecuteForm.TimerTimer
 0001:0002DB8C       BisExecuteFm.TBisExecuteFormIface.GetFormClass
 0001:0002DC00       BisExecuteFm.TBisExecuteFormThread.Execute
 0001:00000278       SysInit.@InitPkg
 0001:000002DC       SysInit.@PackageLoad
 0001:000002E8       SysInit.@PackageUnload
 0001:00000168       SysInit.AllocTlsBuffer
 0001:00000224       SysInit.ExitProcessTLS
 0001:000001EC       SysInit.ExitThreadTLS
 0001:00000130       SysInit.FreeLibrary
 0001:00000174       SysInit.GetTlsSize
 0004:00000004       SysInit.HInstance
 0001:00000248       SysInit.InitializeModule
 0001:000001C0       SysInit.InitProcessTLS
 0001:0000017C       SysInit.InitThreadTLS
 0001:00000138       SysInit.LocalAlloc
 0001:00000140       SysInit.LocalFree
 0003:00000008       SysInit.Module
 0004:00000000       SysInit.ModuleIsLib
 0004:00000001       SysInit.ModuleIsPackage
 0003:00000004       SysInit.PtrToNil
 0001:00000148       SysInit.TlsAlloc
 0004:00000008       SysInit.tlsBuffer
 0001:00000150       SysInit.TlsFree
 0001:00000158       SysInit.TlsGetValue
 0003:00000000       SysInit.TlsIndex
 0005:00000000       SysInit.TlsLast
 0003:00000020       SysInit.TlsProc
 0001:00000160       SysInit.TlsSetValue
 0001:00000254       SysInit.UninitializeModule
 0004:0000000C       Windows..3
 0001:00000404       Windows.CopyFile
 0001:0000041C       Windows.Finalization
 0001:0000040C       Windows.FreeLibrary
 0001:00000414       Windows.GetCurrentThreadId
 0004:00000010       Windows.HtmlHelpModule
 0002:00000010       Windows.Windows


  Address             Publics by Value

 0001:00000130       SysInit.FreeLibrary
 0001:00000138       SysInit.LocalAlloc
 0001:00000140       SysInit.LocalFree
 0001:00000148       SysInit.TlsAlloc
 0001:00000150       SysInit.TlsFree
 0001:00000158       SysInit.TlsGetValue
 0001:00000160       SysInit.TlsSetValue
 0001:00000168       SysInit.AllocTlsBuffer
 0001:00000174       SysInit.GetTlsSize
 0001:0000017C       SysInit.InitThreadTLS
 0001:000001C0       SysInit.InitProcessTLS
 0001:000001EC       SysInit.ExitThreadTLS
 0001:00000224       SysInit.ExitProcessTLS
 0001:00000248       SysInit.InitializeModule
 0001:00000254       SysInit.UninitializeModule
 0001:00000278       SysInit.@InitPkg
 0001:000002DC       SysInit.@PackageLoad
 0001:000002E8       SysInit.@PackageUnload
 0001:00000404       Windows.CopyFile
 0001:0000040C       Windows.FreeLibrary
 0001:00000414       Windows.GetCurrentThreadId
 0001:0000041C       Windows.Finalization
 0001:00001310       BisDesignConsts.Finalization
 0001:000013E8       BisDesignMainFm..TBisDesignMainForm
 0001:000016C8       BisDesignMainFm..TBisDesignMainFormIface
 0001:000017F4       BisDesignMainFm.TBisDesignMainFormIface.Create
 0001:00001834       BisDesignMainFm.TBisDesignMainForm.Create
 0001:00001870       BisDesignMainFm.TBisDesignMainForm.RefreshMenus
 0001:00001A98       BisDesignMainFm.TBisDesignMainForm.Timer1Timer
 0001:00001B28       BisDesignMainFm.Finalization
 0001:00001CB0       BisDesignHbookFirmTypeEditFm..TBisDesignHbookFirmTypeEditForm
 0001:00001F6C       BisDesignHbookFirmTypeEditFm..TBisDesignHbookFirmTypeEditFormIface
 0001:000020C4       BisDesignHbookFirmTypeEditFm..TBisDesignHbookFirmTypeInsertFormIface
 0001:00002220       BisDesignHbookFirmTypeEditFm..TBisDesignHbookFirmTypeUpdateFormIface
 0001:0000237C       BisDesignHbookFirmTypeEditFm..TBisDesignHbookFirmTypeDeleteFormIface
 0001:000024D8       BisDesignHbookFirmTypeEditFm.TBisDesignHbookFirmTypeEditFormIface.Create
 0001:00002678       BisDesignHbookFirmTypeEditFm.TBisDesignHbookFirmTypeInsertFormIface.Create
 0001:000026D4       BisDesignHbookFirmTypeEditFm.TBisDesignHbookFirmTypeUpdateFormIface.Create
 0001:00002730       BisDesignHbookFirmTypeEditFm.TBisDesignHbookFirmTypeDeleteFormIface.Create
 0001:0000278C       BisDesignHbookFirmTypeEditFm.Finalization
 0001:000027BC       BisDesignHbookFirmTypesFm..TBisDesignHbookFirmTypesForm
 0001:000029BC       BisDesignHbookFirmTypesFm..TBisDesignHbookFirmTypesFormIface
 0001:00002B14       BisDesignHbookFirmTypesFm.TBisDesignHbookFirmTypesFormIface.Create
 0001:00002C94       BisDesignHbookFirmTypesFm.Finalization
 0001:00002D04       BisDesignHbookLocalitiesFrm..TBisDesignHbookStreetsFrameIfaces
 0001:00002DD4       BisDesignHbookLocalitiesFrm..TBisDesignHbookLocalitiesFrame
 0001:00003134       BisDesignHbookLocalitiesFrm.TBisDesignHbookStreetsFrameIfaces.FindById
 0001:000031D8       BisDesignHbookLocalitiesFrm.TBisDesignHbookLocalitiesFrame.Create
 0001:00003220       BisDesignHbookLocalitiesFrm.TBisDesignHbookLocalitiesFrame.Destroy
 0001:00003250       BisDesignHbookLocalitiesFrm.TBisDesignHbookLocalitiesFrame.ActionStreetsExecute
 0001:00003258       BisDesignHbookLocalitiesFrm.TBisDesignHbookLocalitiesFrame.ActionStreetsUpdate
 0001:00003274       BisDesignHbookLocalitiesFrm.TBisDesignHbookLocalitiesFrame.CanStreets
 0001:0000330C       BisDesignHbookLocalitiesFrm.TBisDesignHbookLocalitiesFrame.Streets
 0001:00003514       BisDesignHbookLocalitiesFrm.Finalization
 0001:00003544       BisDesignHbookLocalityEditFm..TBisDesignHbookLocalityEditForm
 0001:000037CC       BisDesignHbookLocalityEditFm..TBisDesignHbookLocalityEditFormIface
 0001:00003924       BisDesignHbookLocalityEditFm..TBisDesignHbookLocalityInsertFormIface
 0001:00003A80       BisDesignHbookLocalityEditFm..TBisDesignHbookLocalityUpdateFormIface
 0001:00003BDC       BisDesignHbookLocalityEditFm..TBisDesignHbookLocalityDeleteFormIface
 0001:00003D38       BisDesignHbookLocalityEditFm.TBisDesignHbookLocalityEditFormIface.Create
 0001:00003E6C       BisDesignHbookLocalityEditFm.TBisDesignHbookLocalityInsertFormIface.Create
 0001:00003EC8       BisDesignHbookLocalityEditFm.TBisDesignHbookLocalityUpdateFormIface.Create
 0001:00003F24       BisDesignHbookLocalityEditFm.TBisDesignHbookLocalityDeleteFormIface.Create
 0001:00003F80       BisDesignHbookLocalityEditFm.Finalization
 0001:00003FB0       BisDesignHbookLocalitiesFm..TBisDesignHbookLocalitiesForm
 0001:000041B4       BisDesignHbookLocalitiesFm..TBisDesignHbookLocalitiesFormIface
 0001:0000430C       BisDesignHbookLocalitiesFm.TBisDesignHbookLocalitiesFormIface.Create
 0001:0000445C       BisDesignHbookLocalitiesFm.TBisDesignHbookLocalitiesForm.GetDataFrameClass
 0001:00004464       BisDesignHbookLocalitiesFm.Finalization
 0001:00004494       BisDesignHbookStreetEditFm..TBisDesignHbookStreetEditForm
 0001:00004754       BisDesignHbookStreetEditFm..TBisDesignHbookStreetEditFormIface
 0001:000048A4       BisDesignHbookStreetEditFm..TBisDesignHbookStreetFilterFormIface
 0001:000049FC       BisDesignHbookStreetEditFm..TBisDesignHbookStreetInsertFormIface
 0001:00004B54       BisDesignHbookStreetEditFm..TBisDesignHbookStreetUpdateFormIface
 0001:00004CAC       BisDesignHbookStreetEditFm..TBisDesignHbookStreetDeleteFormIface
 0001:00004E04       BisDesignHbookStreetEditFm.TBisDesignHbookStreetEditFormIface.Create
 0001:00005068       BisDesignHbookStreetEditFm.TBisDesignHbookStreetFilterFormIface.Create
 0001:000050A0       BisDesignHbookStreetEditFm.TBisDesignHbookStreetInsertFormIface.Create
 0001:000050FC       BisDesignHbookStreetEditFm.TBisDesignHbookStreetUpdateFormIface.Create
 0001:00005158       BisDesignHbookStreetEditFm.TBisDesignHbookStreetDeleteFormIface.Create
 0001:000051B4       BisDesignHbookStreetEditFm.Finalization
 0001:000051E4       BisDesignHbookStreetsFm..TBisDesignHbookStreetsFrame
 0001:000054B4       BisDesignHbookStreetsFm..TBisDesignHbookStreetsForm
 0001:000056AC       BisDesignHbookStreetsFm..TBisDesignHbookStreetsFormIface
 0001:00005820       BisDesignHbookStreetsFm.TBisDesignHbookStreetsFrame.BeforeIfaceExecute
 0001:00005A00       BisDesignHbookStreetsFm.TBisDesignHbookStreetsFormIface.Create
 0001:00005C28       BisDesignHbookStreetsFm.TBisDesignHbookStreetsFormIface.CreateForm
 0001:00005C88       BisDesignHbookStreetsFm.TBisDesignHbookStreetsForm.GetDataFrameClass
 0001:00005C90       BisDesignHbookStreetsFm.Finalization
 0001:00005CC0       BisDesignHbookFirmEditFm..TBisDesignHbookFirmEditForm
 0001:00006398       BisDesignHbookFirmEditFm..TBisDesignHbookFirmEditFormIface
 0001:000064E4       BisDesignHbookFirmEditFm..TBisDesignHbookFirmInsertFormIface
 0001:00006634       BisDesignHbookFirmEditFm..TBisDesignHbookFirmInsertChildFormIface
 0001:0000678C       BisDesignHbookFirmEditFm..TBisDesignHbookFirmUpdateFormIface
 0001:000068DC       BisDesignHbookFirmEditFm..TBisDesignHbookFirmDeleteFormIface
 0001:00006A2C       BisDesignHbookFirmEditFm.TBisDesignHbookFirmEditFormIface.Create
 0001:00007854       BisDesignHbookFirmEditFm.TBisDesignHbookFirmInsertFormIface.Create
 0001:00007944       BisDesignHbookFirmEditFm.TBisDesignHbookFirmInsertFormIface.CreateForm
 0001:00007AB8       BisDesignHbookFirmEditFm.TBisDesignHbookFirmInsertChildFormIface.Create
 0001:00007B44       BisDesignHbookFirmEditFm.TBisDesignHbookFirmInsertChildFormIface.CreateForm
 0001:00007CA8       BisDesignHbookFirmEditFm.TBisDesignHbookFirmUpdateFormIface.Create
 0001:00007D2C       BisDesignHbookFirmEditFm.TBisDesignHbookFirmDeleteFormIface.Create
 0001:00007DAC       BisDesignHbookFirmEditFm.TBisDesignHbookFirmEditForm.EditSmallNameExit
 0001:00007E6C       BisDesignHbookFirmEditFm.Finalization
 0001:00007E9C       BisDesignHbookFirmsFm..TBisDesignHbookFirmsForm
 0001:00008090       BisDesignHbookFirmsFm..TBisDesignHbookFirmsFormIface
 0001:000081DC       BisDesignHbookFirmsFm.TBisDesignHbookFirmsFormIface.Create
 0001:00008850       BisDesignHbookFirmsFm.Finalization
 0001:00008880       BisDesignHbookAccountEditFm..TBisDesignHbookAccountEditForm
 0001:00008F04       BisDesignHbookAccountEditFm..TBisDesignHbookAccountEditFormIface
 0001:00009058       BisDesignHbookAccountEditFm..TBisDesignHbookAccountInsertFormIface
 0001:000091B0       BisDesignHbookAccountEditFm..TBisDesignHbookAccountUpdateFormIface
 0001:00009308       BisDesignHbookAccountEditFm..TBisDesignHbookAccountDeleteFormIface
 0001:00009460       BisDesignHbookAccountEditFm..TBisRoleInfo
 0001:000094CC       BisDesignHbookAccountEditFm.TBisDesignHbookAccountEditFormIface.Create
 0001:00009B84       BisDesignHbookAccountEditFm.TBisDesignHbookAccountInsertFormIface.Create
 0001:00009BE0       BisDesignHbookAccountEditFm.TBisDesignHbookAccountUpdateFormIface.Create
 0001:00009C3C       BisDesignHbookAccountEditFm.TBisDesignHbookAccountDeleteFormIface.Create
 0001:00009C98       BisDesignHbookAccountEditFm.TBisDesignHbookAccountEditForm.Create
 0001:00009D1C       BisDesignHbookAccountEditFm.TBisDesignHbookAccountEditForm.BeforeShow
 0001:00009E9C       BisDesignHbookAccountEditFm.TBisDesignHbookAccountEditForm.ButtonPhotoClick
 0001:00009EE4       BisDesignHbookAccountEditFm.TBisDesignHbookAccountEditForm.ChangeParam
 0001:0000A0A4       BisDesignHbookAccountEditFm.TBisDesignHbookAccountEditForm.ChangesExists
 0001:0000A0CC       BisDesignHbookAccountEditFm.TBisDesignHbookAccountEditForm.CheckBoxProfileClick
 0001:0000A0D4       BisDesignHbookAccountEditFm.TBisDesignHbookAccountEditForm.CheckListBoxRolesClickCheck
 0001:0000A0E4       BisDesignHbookAccountEditFm.TBisDesignHbookAccountEditForm.DeleteAccountRoles
 0001:0000A2CC       BisDesignHbookAccountEditFm.TBisDesignHbookAccountEditForm.InsertAccountRoles
 0001:0000A47C       BisDesignHbookAccountEditFm.TBisDesignHbookAccountEditForm.RefreshAccountRoles
 0001:0000A6B0       BisDesignHbookAccountEditFm.TBisDesignHbookAccountEditForm.RefreshRoles
 0001:0000A908       BisDesignHbookAccountEditFm.TBisDesignHbookAccountEditForm.InsertProfile
 0001:0000AA84       BisDesignHbookAccountEditFm.TBisDesignHbookAccountEditForm.MenuItemClearPhotoClick
 0001:0000AAB8       BisDesignHbookAccountEditFm.TBisDesignHbookAccountEditForm.MenuItemLoadPhotoClick
 0001:0000AB40       BisDesignHbookAccountEditFm.TBisDesignHbookAccountEditForm.MenuItemSavePhotoClick
 0001:0000ABC8       BisDesignHbookAccountEditFm.TBisDesignHbookAccountEditForm.PopupActionBarPhotoPopup
 0001:0000AC28       BisDesignHbookAccountEditFm.TBisDesignHbookAccountEditForm.Execute
 0001:0000ACE8       BisDesignHbookAccountEditFm.Finalization
 0001:0000AD18       BisDesignHbookAccountsFm..TBisDesignHbookAccountsFrame
 0001:0000B024       BisDesignHbookAccountsFm..TBisDesignHbookAccountsForm
 0001:0000B220       BisDesignHbookAccountsFm..TBisDesignHbookAccountsFormIface
 0001:0000B374       BisDesignHbookAccountsFm.TBisDesignHbookAccountsFrame.Create
 0001:0000B7FC       BisDesignHbookAccountsFm.TBisDesignHbookAccountsFrame.Init
 0001:0000B82C       BisDesignHbookAccountsFm.TBisDesignHbookAccountsFormIface.Create
 0001:0000B87C       BisDesignHbookAccountsFm.TBisDesignHbookAccountsForm.Create
 0001:0000B8B4       BisDesignHbookAccountsFm.TBisDesignHbookAccountsForm.Destroy
 0001:0000B8DC       BisDesignHbookAccountsFm.TBisDesignHbookAccountsForm.GetDataFrameClass
 0001:0000B8E4       BisDesignHbookAccountsFm.Finalization
 0001:0000B914       BisDesignHbookRoleEditFm..TBisDesignHbookRoleEditForm
 0001:0000BBA4       BisDesignHbookRoleEditFm..TBisDesignHbookRoleEditFormIface
 0001:0000BCF0       BisDesignHbookRoleEditFm..TBisDesignHbookRoleInsertFormIface
 0001:0000BE40       BisDesignHbookRoleEditFm..TBisDesignHbookRoleUpdateFormIface
 0001:0000BF90       BisDesignHbookRoleEditFm..TBisDesignHbookRoleDeleteFormIface
 0001:0000C0E0       BisDesignHbookRoleEditFm.TBisDesignHbookRoleEditFormIface.Create
 0001:0000C364       BisDesignHbookRoleEditFm.TBisDesignHbookRoleInsertFormIface.Create
 0001:0000C3C0       BisDesignHbookRoleEditFm.TBisDesignHbookRoleUpdateFormIface.Create
 0001:0000C41C       BisDesignHbookRoleEditFm.TBisDesignHbookRoleDeleteFormIface.Create
 0001:0000C478       BisDesignHbookRoleEditFm.Finalization
 0001:0000C4A8       BisDesignHbookRolesFm..TBisDesignHbookRolesForm
 0001:0000C69C       BisDesignHbookRolesFm..TBisDesignHbookRolesFormIface
 0001:0000C7E8       BisDesignHbookRolesFm.TBisDesignHbookRolesFormIface.Create
 0001:0000CA24       BisDesignHbookRolesFm.TBisDesignHbookRolesForm.Create
 0001:0000CA5C       BisDesignHbookRolesFm.Finalization
 0001:0000CA8C       BisDesignHbookRolesAndAccountsFm..TBisDesignHbookRolesAndAccountsFrame
 0001:0000CD64       BisDesignHbookRolesAndAccountsFm..TBisDesignHbookRolesAndAccountsForm
 0001:0000CF78       BisDesignHbookRolesAndAccountsFm..TBisDesignHbookRolesAndAccountsFormIface
 0001:0000D0E4       BisDesignHbookRolesAndAccountsFm.TBisDesignHbookRolesAndAccountsFrame.Create
 0001:0000D2AC       BisDesignHbookRolesAndAccountsFm.TBisDesignHbookRolesAndAccountsFrame.FillProvider
 0001:0000DC50       BisDesignHbookRolesAndAccountsFm.TBisDesignHbookRolesAndAccountsFrame.Init
 0001:0000DC58       BisDesignHbookRolesAndAccountsFm.TBisDesignHbookRolesAndAccountsFrame.OpenRecords
 0001:0000DC78       BisDesignHbookRolesAndAccountsFm.TBisDesignHbookRolesAndAccountsFrame.TreeClick
 0001:0000DC7C       BisDesignHbookRolesAndAccountsFm.TBisDesignHbookRolesAndAccountsFormIface.Create
 0001:0000DCCC       BisDesignHbookRolesAndAccountsFm.TBisDesignHbookRolesAndAccountsForm.Create
 0001:0000DD04       BisDesignHbookRolesAndAccountsFm.TBisDesignHbookRolesAndAccountsForm.GetDataFrameClass
 0001:0000DD0C       BisDesignHbookRolesAndAccountsFm.Finalization
 0001:0000DD3C       BisDesignHbookApplicationEditFm..TBisDesignHbookApplicationEditForm
 0001:0000DFF0       BisDesignHbookApplicationEditFm..TBisDesignHbookApplicationEditFormIface
 0001:0000E150       BisDesignHbookApplicationEditFm..TBisDesignHbookApplicationInsertFormIface
 0001:0000E2B4       BisDesignHbookApplicationEditFm..TBisDesignHbookApplicationUpdateFormIface
 0001:0000E418       BisDesignHbookApplicationEditFm..TBisDesignHbookApplicationDeleteFormIface
 0001:0000E57C       BisDesignHbookApplicationEditFm.TBisDesignHbookApplicationEditFormIface.Create
 0001:0000E6F8       BisDesignHbookApplicationEditFm.TBisDesignHbookApplicationInsertFormIface.Create
 0001:0000E758       BisDesignHbookApplicationEditFm.TBisDesignHbookApplicationUpdateFormIface.Create
 0001:0000E7B8       BisDesignHbookApplicationEditFm.TBisDesignHbookApplicationDeleteFormIface.Create
 0001:0000E818       BisDesignHbookApplicationEditFm.Finalization
 0001:0000E848       BisDesignHbookInterfaceFilterFm..TBisDesignHbookInterfaceFilterForm
 0001:0000EB74       BisDesignHbookInterfaceFilterFm..TBisDesignHbookInterfaceFilterFormIface
 0001:0000ECD4       BisDesignHbookInterfaceFilterFm.GetInterfaceTypeByIndex
 0001:0000ED78       BisDesignHbookInterfaceFilterFm.TBisDesignHbookInterfaceFilterFormIface.Create
 0001:0000EFEC       BisDesignHbookInterfaceFilterFm.TBisDesignHbookInterfaceFilterForm.Create
 0001:0000F124       BisDesignHbookInterfaceFilterFm.TBisDesignHbookInterfaceFilterForm.ChangeParam
 0001:0000F290       BisDesignHbookInterfaceFilterFm.Finalization
 0001:0000F2C0       BisDesignHbookInterfaceEditFm..TBisDesignHbookInterfaceEditForm
 0001:0000F5DC       BisDesignHbookInterfaceEditFm..TBisDesignHbookInterfaceEditFormIface
 0001:0000F738       BisDesignHbookInterfaceEditFm..TBisDesignHbookInterfaceInsertFormIface
 0001:0000F894       BisDesignHbookInterfaceEditFm..TBisDesignHbookInterfaceUpdateFormIface
 0001:0000F9F0       BisDesignHbookInterfaceEditFm..TBisDesignHbookInterfaceDeleteFormIface
 0001:0000FB4C       BisDesignHbookInterfaceEditFm.TBisDesignHbookInterfaceEditFormIface.Create
 0001:0000FDE4       BisDesignHbookInterfaceEditFm.TBisDesignHbookInterfaceInsertFormIface.Create
 0001:0000FE74       BisDesignHbookInterfaceEditFm.TBisDesignHbookInterfaceUpdateFormIface.Create
 0001:0000FF04       BisDesignHbookInterfaceEditFm.TBisDesignHbookInterfaceDeleteFormIface.Create
 0001:0000FF94       BisDesignHbookInterfaceEditFm.TBisDesignHbookInterfaceEditForm.Create
 0001:00010048       BisDesignHbookInterfaceEditFm.TBisDesignHbookInterfaceEditForm.ChangeParam
 0001:00010130       BisDesignHbookInterfaceEditFm.TBisDesignHbookInterfaceEditForm.Execute
 0001:00010168       BisDesignHbookInterfaceEditFm.Finalization
 0001:00010198       BisDesignHbookInterfacesFm..TBisDesignHbookInterfacesForm
 0001:00010408       BisDesignHbookInterfacesFm..TBisDesignHbookInterfacesFormIface
 0001:00010560       BisDesignHbookInterfacesFm.TBisDesignHbookInterfacesFormIface.Create
 0001:000105B0       BisDesignHbookInterfacesFm.TBisDesignHbookInterfacesForm.Create
 0001:00010608       BisDesignHbookInterfacesFm.TBisDesignHbookInterfacesForm.GetDataFrameClass
 0001:00010610       BisDesignHbookInterfacesFm.Finalization
 0001:00010640       BisDesignHbookReportEditFm..TBisDesignHbookReportEditForm
 0001:00010A44       BisDesignHbookReportEditFm..TBisDesignHbookReportEditFormIface
 0001:00010B94       BisDesignHbookReportEditFm..TBisDesignHbookReportInsertFormIface
 0001:00010CEC       BisDesignHbookReportEditFm..TBisDesignHbookReportUpdateFormIface
 0001:00010E44       BisDesignHbookReportEditFm..TBisDesignHbookReportDeleteFormIface
 0001:00010F9C       BisDesignHbookReportEditFm.TBisDesignHbookReportEditFormIface.Create
 0001:0001128C       BisDesignHbookReportEditFm.TBisDesignHbookReportInsertFormIface.Create
 0001:0001130C       BisDesignHbookReportEditFm.TBisDesignHbookReportUpdateFormIface.Create
 0001:0001138C       BisDesignHbookReportEditFm.TBisDesignHbookReportDeleteFormIface.Create
 0001:0001140C       BisDesignHbookReportEditFm.TBisDesignHbookReportEditForm.Create
 0001:000114D4       BisDesignHbookReportEditFm.TBisDesignHbookReportEditForm.Destroy
 0001:00011504       BisDesignHbookReportEditFm.TBisDesignHbookReportEditForm.BeforeShow
 0001:000116A0       BisDesignHbookReportEditFm.TBisDesignHbookReportEditForm.EditReportChange
 0001:0001179C       BisDesignHbookReportEditFm.TBisDesignHbookReportEditForm.ChangeInterfaceId
 0001:00011A08       BisDesignHbookReportEditFm.TBisDesignHbookReportEditForm.ChangeParam
 0001:00011E84       BisDesignHbookReportEditFm.TBisDesignHbookReportEditForm.ButtonLoadClick
 0001:00011F64       BisDesignHbookReportEditFm.TBisDesignHbookReportEditForm.ButtonSaveClick
 0001:0001208C       BisDesignHbookReportEditFm.TBisDesignHbookReportEditForm.ButtonClearClick
 0001:000120D0       BisDesignHbookReportEditFm.TBisDesignHbookReportEditForm.CheckParam
 0001:00012194       BisDesignHbookReportEditFm.TBisDesignHbookReportEditForm.ButtonEditorClick
 0001:0001219C       BisDesignHbookReportEditFm.TBisDesignHbookReportEditForm.GetReportEditorClass
 0001:000121E4       BisDesignHbookReportEditFm.TBisDesignHbookReportEditForm.EditorSaveChanges
 0001:00012354       BisDesignHbookReportEditFm.TBisDesignHbookReportEditForm.RunEditor
 0001:000125EC       BisDesignHbookReportEditFm.TBisDesignHbookReportEditForm.Execute
 0001:00012624       BisDesignHbookReportEditFm.Finalization
 0001:00012654       BisDesignHbookScriptEditFm..TBisDesignHbookScriptEditForm
 0001:00012A30       BisDesignHbookScriptEditFm..TBisDesignHbookScriptEditFormIface
 0001:00012B80       BisDesignHbookScriptEditFm..TBisDesignHbookScriptInsertFormIface
 0001:00012CD8       BisDesignHbookScriptEditFm..TBisDesignHbookScriptUpdateFormIface
 0001:00012E30       BisDesignHbookScriptEditFm..TBisDesignHbookScriptDeleteFormIface
 0001:00012F88       BisDesignHbookScriptEditFm.TBisDesignHbookScriptEditFormIface.Create
 0001:00013278       BisDesignHbookScriptEditFm.TBisDesignHbookScriptInsertFormIface.Create
 0001:000132F8       BisDesignHbookScriptEditFm.TBisDesignHbookScriptUpdateFormIface.Create
 0001:00013378       BisDesignHbookScriptEditFm.TBisDesignHbookScriptDeleteFormIface.Create
 0001:000133F8       BisDesignHbookScriptEditFm.TBisDesignHbookScriptEditForm.Create
 0001:000134C0       BisDesignHbookScriptEditFm.TBisDesignHbookScriptEditForm.Destroy
 0001:000134E8       BisDesignHbookScriptEditFm.TBisDesignHbookScriptEditForm.BeforeShow
 0001:0001366C       BisDesignHbookScriptEditFm.TBisDesignHbookScriptEditForm.EditScriptChange
 0001:00013768       BisDesignHbookScriptEditFm.TBisDesignHbookScriptEditForm.ChangeInterfaceId
 0001:000139D4       BisDesignHbookScriptEditFm.TBisDesignHbookScriptEditForm.ChangeParam
 0001:00013D70       BisDesignHbookScriptEditFm.TBisDesignHbookScriptEditForm.ButtonLoadClick
 0001:00013E50       BisDesignHbookScriptEditFm.TBisDesignHbookScriptEditForm.ButtonSaveClick
 0001:00013F78       BisDesignHbookScriptEditFm.TBisDesignHbookScriptEditForm.ButtonClearClick
 0001:00013FBC       BisDesignHbookScriptEditFm.TBisDesignHbookScriptEditForm.CheckParam
 0001:00014080       BisDesignHbookScriptEditFm.TBisDesignHbookScriptEditForm.Execute
 0001:000140B8       BisDesignHbookScriptEditFm.Finalization
 0001:000140E8       BisDesignHbookDocumentEditFm..TBisDesignHbookDocumentEditForm
 0001:000144D0       BisDesignHbookDocumentEditFm..TBisDesignHbookDocumentEditFormIface
 0001:00014628       BisDesignHbookDocumentEditFm..TBisDesignHbookDocumentInsertFormIface
 0001:00014784       BisDesignHbookDocumentEditFm..TBisDesignHbookDocumentUpdateFormIface
 0001:000148E0       BisDesignHbookDocumentEditFm..TBisDesignHbookDocumentDeleteFormIface
 0001:00014A3C       BisDesignHbookDocumentEditFm.TBisDesignHbookDocumentEditFormIface.Create
 0001:00014D30       BisDesignHbookDocumentEditFm.TBisDesignHbookDocumentInsertFormIface.Create
 0001:00014DB4       BisDesignHbookDocumentEditFm.TBisDesignHbookDocumentUpdateFormIface.Create
 0001:00014E38       BisDesignHbookDocumentEditFm.TBisDesignHbookDocumentDeleteFormIface.Create
 0001:00014EBC       BisDesignHbookDocumentEditFm.TBisDesignHbookDocumentEditForm.Create
 0001:00014EF4       BisDesignHbookDocumentEditFm.TBisDesignHbookDocumentEditForm.Destroy
 0001:00014F1C       BisDesignHbookDocumentEditFm.TBisDesignHbookDocumentEditForm.BeforeShow
 0001:0001506C       BisDesignHbookDocumentEditFm.TBisDesignHbookDocumentEditForm.EditDocumentChange
 0001:0001516C       BisDesignHbookDocumentEditFm.TBisDesignHbookDocumentEditForm.ChangeInterfaceId
 0001:000153E8       BisDesignHbookDocumentEditFm.TBisDesignHbookDocumentEditForm.ChangeParam
 0001:000157C8       BisDesignHbookDocumentEditFm.TBisDesignHbookDocumentEditForm.GetOleClass
 0001:00015878       BisDesignHbookDocumentEditFm.TBisDesignHbookDocumentEditForm.ButtonLoadClick
 0001:000159D0       BisDesignHbookDocumentEditFm.TBisDesignHbookDocumentEditForm.ButtonSaveClick
 0001:00015AF4       BisDesignHbookDocumentEditFm.TBisDesignHbookDocumentEditForm.ButtonClearClick
 0001:00015B2C       BisDesignHbookDocumentEditFm.TBisDesignHbookDocumentEditForm.CheckParam
 0001:00015BF4       BisDesignHbookDocumentEditFm.TBisDesignHbookDocumentEditForm.Execute
 0001:00015C2C       BisDesignHbookDocumentEditFm.Finalization
 0001:00015C5C       BisDesignHbookInterfacesFrm..TBisDesignHbookReportsFrameIfaces
 0001:00015D2C       BisDesignHbookInterfacesFrm..TBisDesignHbookInterfacesFrame
 0001:00016138       BisDesignHbookInterfacesFrm.TBisDesignHbookReportsFrameIfaces.FindByClass
 0001:00016204       BisDesignHbookInterfacesFrm.TBisDesignHbookReportsFrameIfaces.FindPermissionById
 0001:000162A8       BisDesignHbookInterfacesFrm.TBisDesignHbookInterfacesFrame.Create
 0001:00016684       BisDesignHbookInterfacesFrm.TBisDesignHbookInterfacesFrame.Destroy
 0001:000166B4       BisDesignHbookInterfacesFrm.TBisDesignHbookInterfacesFrame.GetInterfaceTypeName
 0001:0001675C       BisDesignHbookInterfacesFrm.TBisDesignHbookInterfacesFrame.GetInterfaceType
 0001:000167C0       BisDesignHbookInterfacesFrm.TBisDesignHbookInterfacesFrame.GetInternalClass
 0001:0001694C       BisDesignHbookInterfacesFrm.TBisDesignHbookInterfacesFrame.GetScriptClass
 0001:00016B2C       BisDesignHbookInterfacesFrm.TBisDesignHbookInterfacesFrame.GetReportClass
 0001:00016D0C       BisDesignHbookInterfacesFrm.TBisDesignHbookInterfacesFrame.GetDocumentClass
 0001:00016EC0       BisDesignHbookInterfacesFrm.TBisDesignHbookInterfacesFrame.GetCurrentDuplicateClass
 0001:00016EFC       BisDesignHbookInterfacesFrm.TBisDesignHbookInterfacesFrame.GetCurrentUpdateClass
 0001:00016F38       BisDesignHbookInterfacesFrm.TBisDesignHbookInterfacesFrame.GetCurrentDeleteClass
 0001:00016F74       BisDesignHbookInterfacesFrm.TBisDesignHbookInterfacesFrame.ActionInterfaceShowUpdate
 0001:00016F90       BisDesignHbookInterfacesFrm.TBisDesignHbookInterfacesFrame.ActionPermissionsExecute
 0001:00016F98       BisDesignHbookInterfacesFrm.TBisDesignHbookInterfacesFrame.ActionPermissionsUpdate
 0001:00016FB4       BisDesignHbookInterfacesFrm.TBisDesignHbookInterfacesFrame.ActionInterfaceShowExecute
 0001:00016FBC       BisDesignHbookInterfacesFrm.TBisDesignHbookInterfacesFrame.CanInterfaceShow
 0001:00016FE8       BisDesignHbookInterfacesFrm.LocalShow
 0001:0001712C       BisDesignHbookInterfacesFrm.TBisDesignHbookInterfacesFrame.InterfaceShow
 0001:00017248       BisDesignHbookInterfacesFrm.TBisDesignHbookInterfacesFrame.CanPermissions
 0001:00017274       BisDesignHbookInterfacesFrm.TBisDesignHbookInterfacesFrame.Permissions
 0001:00017444       BisDesignHbookInterfacesFrm.Finalization
 0001:00017474       BisDesignHbookPermissionEditFm..TBisDesignHbookPermissionEditForm
 0001:000177B0       BisDesignHbookPermissionEditFm..TBisDesignHbookPermissionEditFormIface
 0001:0001790C       BisDesignHbookPermissionEditFm..TBisDesignHbookPermissionInsertFormIface
 0001:00017A70       BisDesignHbookPermissionEditFm..TBisDesignHbookPermissionUpdateFormIface
 0001:00017BD4       BisDesignHbookPermissionEditFm..TBisDesignHbookPermissionDeleteFormIface
 0001:00017D38       BisDesignHbookPermissionEditFm.TBisDesignHbookPermissionEditFormIface.Create
 0001:00017FD8       BisDesignHbookPermissionEditFm.TBisDesignHbookPermissionEditFormIface.CreateForm
 0001:00018038       BisDesignHbookPermissionEditFm.TBisDesignHbookPermissionInsertFormIface.Create
 0001:00018098       BisDesignHbookPermissionEditFm.TBisDesignHbookPermissionUpdateFormIface.Create
 0001:000180F8       BisDesignHbookPermissionEditFm.TBisDesignHbookPermissionDeleteFormIface.Create
 0001:00018158       BisDesignHbookPermissionEditFm.TBisDesignHbookPermissionEditForm.Destroy
 0001:00018190       BisDesignHbookPermissionEditFm.TBisDesignHbookPermissionEditForm.Execute
 0001:000181C8       BisDesignHbookPermissionEditFm.TBisDesignHbookPermissionEditForm.CanShow
 0001:00018220       BisDesignHbookPermissionEditFm.TBisDesignHbookPermissionEditForm.GetIfacePermissions
 0001:0001828C       BisDesignHbookPermissionEditFm.FillInternal
 0001:000182D8       BisDesignHbookPermissionEditFm.FillScript
 0001:000184A0       BisDesignHbookPermissionEditFm.FillReport
 0001:00018668       BisDesignHbookPermissionEditFm.FillDocument
 0001:000186C8       BisDesignHbookPermissionEditFm.TBisDesignHbookPermissionEditForm.FillPermissions
 0001:00018958       BisDesignHbookPermissionEditFm.TBisDesignHbookPermissionEditForm.ChangeParam
 0001:00018B68       BisDesignHbookPermissionEditFm.Finalization
 0001:00018B98       BisDesignHbookPermissionsFm..TBisDesignHbookPermissionsFrame
 0001:00018E6C       BisDesignHbookPermissionsFm..TBisDesignHbookPermissionsForm
 0001:00019070       BisDesignHbookPermissionsFm..TBisDesignHbookPermissionsFormIface
 0001:000191E8       BisDesignHbookPermissionsFm.TBisDesignHbookPermissionsFrame.BeforeIfaceExecute
 0001:000192F8       BisDesignHbookPermissionsFm.TBisDesignHbookPermissionsFormIface.Create
 0001:0001958C       BisDesignHbookPermissionsFm.TBisDesignHbookPermissionsFormIface.CreateForm
 0001:000195D4       BisDesignHbookPermissionsFm.TBisDesignHbookPermissionsForm.GetDataFrameClass
 0001:000195DC       BisDesignHbookPermissionsFm.Finalization
 0001:0001960C       BisDesignHbookApplicationInterfaceEditFm..TBisDesignHbookApplicationInterfaceEditForm
 0001:0001998C       BisDesignHbookApplicationInterfaceEditFm..TBisDesignHbookApplicationInterfaceEditFormIface
 0001:00019B08       BisDesignHbookApplicationInterfaceEditFm..TBisDesignHbookApplicationInterfaceInsertFormIface
 0001:00019C88       BisDesignHbookApplicationInterfaceEditFm..TBisDesignHbookApplicationInterfaceUpdateFormIface
 0001:00019E08       BisDesignHbookApplicationInterfaceEditFm..TBisDesignHbookApplicationInterfaceDeleteFormIface
 0001:00019F88       BisDesignHbookApplicationInterfaceEditFm.TBisDesignHbookApplicationInterfaceEditFormIface.Create
 0001:0001A2DC       BisDesignHbookApplicationInterfaceEditFm.TBisDesignHbookApplicationInterfaceInsertFormIface.Create
 0001:0001A344       BisDesignHbookApplicationInterfaceEditFm.TBisDesignHbookApplicationInterfaceUpdateFormIface.Create
 0001:0001A3AC       BisDesignHbookApplicationInterfaceEditFm.TBisDesignHbookApplicationInterfaceDeleteFormIface.Create
 0001:0001A414       BisDesignHbookApplicationInterfaceEditFm.TBisDesignHbookApplicationInterfaceEditForm.CanShow
 0001:0001A470       BisDesignHbookApplicationInterfaceEditFm.TBisDesignHbookApplicationInterfaceEditForm.Execute
 0001:0001A4A8       BisDesignHbookApplicationInterfaceEditFm.Finalization
 0001:0001A4D8       BisDesignHbookApplicationInterfacesFm..TBisDesignHbookApplicationInterfacesFrame
 0001:0001A7C8       BisDesignHbookApplicationInterfacesFm..TBisDesignHbookApplicationInterfacesForm
 0001:0001A9EC       BisDesignHbookApplicationInterfacesFm..TBisDesignHbookApplicationInterfacesFormIface
 0001:0001AB80       BisDesignHbookApplicationInterfacesFm.TBisDesignHbookApplicationInterfacesFrame.BeforeIfaceExecute
 0001:0001AC78       BisDesignHbookApplicationInterfacesFm.TBisDesignHbookApplicationInterfacesFormIface.Create
 0001:0001AF64       BisDesignHbookApplicationInterfacesFm.TBisDesignHbookApplicationInterfacesFormIface.CreateForm
 0001:0001AFAC       BisDesignHbookApplicationInterfacesFm.TBisDesignHbookApplicationInterfacesForm.GetDataFrameClass
 0001:0001AFB4       BisDesignHbookApplicationInterfacesFm.Finalization
 0001:0001AFE4       BisDesignHbookApplicationsFrm..TBisDesignHbookApplicationFrameIfaces
 0001:0001B0C0       BisDesignHbookApplicationsFrm..TBisDesignHbookApplicationsFrame
 0001:0001B438       BisDesignHbookApplicationsFrm.TBisDesignHbookApplicationFrameIfaces.FindApplicationById
 0001:0001B4DC       BisDesignHbookApplicationsFrm.TBisDesignHbookApplicationsFrame.Create
 0001:0001B524       BisDesignHbookApplicationsFrm.TBisDesignHbookApplicationsFrame.Destroy
 0001:0001B554       BisDesignHbookApplicationsFrm.TBisDesignHbookApplicationsFrame.ActionInterfacesExecute
 0001:0001B55C       BisDesignHbookApplicationsFrm.TBisDesignHbookApplicationsFrame.ActionInterfacesUpdate
 0001:0001B578       BisDesignHbookApplicationsFrm.TBisDesignHbookApplicationsFrame.CanInterfaces
 0001:0001B608       BisDesignHbookApplicationsFrm.TBisDesignHbookApplicationsFrame.Interfaces
 0001:0001B7D8       BisDesignHbookApplicationsFrm.Finalization
 0001:0001B808       BisDesignHbookApplicationsFm..TBisDesignHbookApplicationsForm
 0001:0001BA10       BisDesignHbookApplicationsFm..TBisDesignHbookApplicationsFormIface
 0001:0001BB70       BisDesignHbookApplicationsFm.TBisDesignHbookApplicationsFormIface.Create
 0001:0001BCEC       BisDesignHbookApplicationsFm.TBisDesignHbookApplicationsForm.GetDataFrameClass
 0001:0001BCF4       BisDesignHbookApplicationsFm.Finalization
 0001:0001BD24       BisDesignHbookAccountRoleEditFm..TBisDesignHbookAccountRoleEditForm
 0001:0001BFF0       BisDesignHbookAccountRoleEditFm..TBisDesignHbookAccountRoleEditFormIface
 0001:0001C150       BisDesignHbookAccountRoleEditFm..TBisDesignHbookAccountRoleInsertFormIface
 0001:0001C2B4       BisDesignHbookAccountRoleEditFm..TBisDesignHbookAccountRoleUpdateFormIface
 0001:0001C418       BisDesignHbookAccountRoleEditFm..TBisDesignHbookAccountRoleDeleteFormIface
 0001:0001C57C       BisDesignHbookAccountRoleEditFm.TBisDesignHbookAccountRoleEditFormIface.Create
 0001:0001C730       BisDesignHbookAccountRoleEditFm.TBisDesignHbookAccountRoleInsertFormIface.Create
 0001:0001C790       BisDesignHbookAccountRoleEditFm.TBisDesignHbookAccountRoleUpdateFormIface.Create
 0001:0001C7F0       BisDesignHbookAccountRoleEditFm.TBisDesignHbookAccountRoleDeleteFormIface.Create
 0001:0001C850       BisDesignHbookAccountRoleEditFm.TBisDesignHbookAccountRoleEditForm.Execute
 0001:0001C888       BisDesignHbookAccountRoleEditFm.Finalization
 0001:0001C8B8       BisDesignHbookAccountRolesFm..TBisDesignHbookAccountRolesForm
 0001:0001CAC0       BisDesignHbookAccountRolesFm..TBisDesignHbookAccountRolesFormIface
 0001:0001CC20       BisDesignHbookAccountRolesFm.TBisDesignHbookAccountRolesFormIface.Create
 0001:0001CDA4       BisDesignHbookAccountRolesFm.Finalization
 0001:0001CDD4       BisDesignHbookProfileEditFm..TBisDesignHbookProfileEditForm
 0001:0001D0B8       BisDesignHbookProfileEditFm..TBisDesignHbookProfileEditFormIface
 0001:0001D20C       BisDesignHbookProfileEditFm..TBisDesignHbookProfileInsertFormIface
 0001:0001D364       BisDesignHbookProfileEditFm..TBisDesignHbookProfileUpdateFormIface
 0001:0001D4BC       BisDesignHbookProfileEditFm..TBisDesignHbookProfileDeleteFormIface
 0001:0001D614       BisDesignHbookProfileEditFm.TBisDesignHbookProfileEditFormIface.Create
 0001:0001D854       BisDesignHbookProfileEditFm.TBisDesignHbookProfileInsertFormIface.Create
 0001:0001D8B0       BisDesignHbookProfileEditFm.TBisDesignHbookProfileUpdateFormIface.Create
 0001:0001D90C       BisDesignHbookProfileEditFm.TBisDesignHbookProfileDeleteFormIface.Create
 0001:0001D968       BisDesignHbookProfileEditFm.Finalization
 0001:0001D998       BisDesignHbookProfilesFm..TBisDesignHbookProfilesForm
 0001:0001DB94       BisDesignHbookProfilesFm..TBisDesignHbookProfilesFormIface
 0001:0001DCE8       BisDesignHbookProfilesFm.TBisDesignHbookProfilesFormIface.Create
 0001:0001DE98       BisDesignHbookProfilesFm.Finalization
 0001:0001DEC8       BisDesignHbookSessionsFm..TBisDesignHbookSessionsForm
 0001:0001E0C4       BisDesignHbookSessionsFm..TBisDesignHbookSessionsFormIface
 0001:0001E218       BisDesignHbookSessionsFm..TBisDesignHbookSessionViewFormIface
 0001:0001E368       BisDesignHbookSessionsFm..TBisDesignHbookSessionDeleteFormIface
 0001:0001E4FC       BisDesignHbookSessionsFm.TBisDesignHbookSessionDeleteFormIface.Create
 0001:0001E564       BisDesignHbookSessionsFm.TBisDesignHbookSessionDeleteFormIface.Execute
 0001:0001E6F0       BisDesignHbookSessionsFm.TBisDesignHbookSessionViewFormIface.Execute
 0001:0001E910       BisDesignHbookSessionsFm.TBisDesignHbookSessionsFormIface.Create
 0001:0001EB3C       BisDesignHbookSessionsFm.TBisDesignHbookSessionsForm.Create
 0001:0001ED34       BisDesignHbookSessionsFm.TBisDesignHbookSessionsForm.GridPaintText
 0001:0001EDCC       BisDesignHbookSessionsFm.Finalization
 0001:0001EDFC       BisDesignHbookMenuEditFm..TBisDesignHbookMenuEditForm
 0001:0001F2A0       BisDesignHbookMenuEditFm..TBisDesignHbookMenuEditFormIface
 0001:0001F3EC       BisDesignHbookMenuEditFm..TBisDesignHbookMenuInsertFormIface
 0001:0001F53C       BisDesignHbookMenuEditFm..TBisDesignHbookMenuInsertChildFormIface
 0001:0001F694       BisDesignHbookMenuEditFm..TBisDesignHbookMenuUpdateFormIface
 0001:0001F7E4       BisDesignHbookMenuEditFm..TBisDesignHbookMenuDeleteFormIface
 0001:0001F934       BisDesignHbookMenuEditFm..TBisApplicationInfo
 0001:0001F9A8       BisDesignHbookMenuEditFm.TBisDesignHbookMenuEditFormIface.Create
 0001:0001FD10       BisDesignHbookMenuEditFm.TBisDesignHbookMenuEditFormIface.PictureIdChange
 0001:0001FEA0       BisDesignHbookMenuEditFm.TBisDesignHbookMenuInsertFormIface.Create
 0001:0001FEF8       BisDesignHbookMenuEditFm.TBisDesignHbookMenuInsertFormIface.CreateForm
 0001:00020058       BisDesignHbookMenuEditFm.TBisDesignHbookMenuInsertChildFormIface.Create
 0001:000200DC       BisDesignHbookMenuEditFm.TBisDesignHbookMenuInsertChildFormIface.CreateForm
 0001:0002022C       BisDesignHbookMenuEditFm.TBisDesignHbookMenuUpdateFormIface.Create
 0001:00020284       BisDesignHbookMenuEditFm.TBisDesignHbookMenuDeleteFormIface.Create
 0001:000202DC       BisDesignHbookMenuEditFm.TBisDesignHbookMenuEditForm.Create
 0001:0002032C       BisDesignHbookMenuEditFm.TBisDesignHbookMenuEditForm.ChangeParam
 0001:00020508       BisDesignHbookMenuEditFm.TBisDesignHbookMenuEditForm.ChangesExists
 0001:00020528       BisDesignHbookMenuEditFm.TBisDesignHbookMenuEditForm.CheckListBoxApplicationsClickCheck
 0001:00020538       BisDesignHbookMenuEditFm.TBisDesignHbookMenuEditForm.BeforeShow
 0001:00020574       BisDesignHbookMenuEditFm.TBisDesignHbookMenuEditForm.ButtonClearClick
 0001:000205B8       BisDesignHbookMenuEditFm.TBisDesignHbookMenuEditForm.ButtonLoadClick
 0001:00020650       BisDesignHbookMenuEditFm.TBisDesignHbookMenuEditForm.ButtonSaveClick
 0001:0002070C       BisDesignHbookMenuEditFm.TBisDesignHbookMenuEditForm.RefreshApplications
 0001:00020904       BisDesignHbookMenuEditFm.TBisDesignHbookMenuEditForm.RefreshApplicationMenus
 0001:00020B50       BisDesignHbookMenuEditFm.TBisDesignHbookMenuEditForm.DeleteApplicationMenus
 0001:00020D44       BisDesignHbookMenuEditFm.TBisDesignHbookMenuEditForm.InsertApplicationMenus
 0001:00020EFC       BisDesignHbookMenuEditFm.TBisDesignHbookMenuEditForm.Execute
 0001:00020FA4       BisDesignHbookMenuEditFm.Finalization
 0001:00020FD4       BisDesignHbookMenusFm..TBisDesignHbookMenusForm
 0001:000211C8       BisDesignHbookMenusFm..TBisDesignHbookMenusFormIface
 0001:00021314       BisDesignHbookMenusFm.TBisDesignHbookMenusFormIface.Create
 0001:0002157C       BisDesignHbookMenusFm.Finalization
 0001:000215AC       BisDesignHbookReportsFrm..TBisDesignHbookReportsFrameEditors
 0001:0002167C       BisDesignHbookReportsFrm..TBisDesignHbookReportsFrameReports
 0001:0002174C       BisDesignHbookReportsFrm..TBisDesignHbookReportsFrame
 0001:00021B3C       BisDesignHbookReportsFrm.TBisDesignHbookReportsFrameEditors.FindByClass
 0001:00021BE4       BisDesignHbookReportsFrm.TBisDesignHbookReportsFrameReports.FindByClass
 0001:00021CB0       BisDesignHbookReportsFrm.TBisDesignHbookReportsFrame.Create
 0001:00021D0C       BisDesignHbookReportsFrm.TBisDesignHbookReportsFrame.Destroy
 0001:00021D48       BisDesignHbookReportsFrm.TBisDesignHbookReportsFrame.ActionReportEditUpdate
 0001:00021D64       BisDesignHbookReportsFrm.TBisDesignHbookReportsFrame.ActionReportShowExecute
 0001:00021D6C       BisDesignHbookReportsFrm.TBisDesignHbookReportsFrame.ActionReportShowUpdate
 0001:00021D88       BisDesignHbookReportsFrm.TBisDesignHbookReportsFrame.ActionReportEditExecute
 0001:00021D90       BisDesignHbookReportsFrm.TBisDesignHbookReportsFrame.CanReportEdit
 0001:00021DF0       BisDesignHbookReportsFrm.TBisDesignHbookReportsFrame.GetModuleByName
 0001:00021E84       BisDesignHbookReportsFrm.TBisDesignHbookReportsFrame.GetReportEditorClass
 0001:00021F3C       BisDesignHbookReportsFrm.TBisDesignHbookReportsFrame.GetReportClass
 0001:00021FEC       BisDesignHbookReportsFrm.TBisDesignHbookReportsFrame.EditorSaveChanges
 0001:000222D8       BisDesignHbookReportsFrm.TBisDesignHbookReportsFrame.EditorPreview
 0001:000223AC       BisDesignHbookReportsFrm.TBisDesignHbookReportsFrame.ReportEdit
 0001:00022750       BisDesignHbookReportsFrm.TBisDesignHbookReportsFrame.CanReportShow
 0001:000227B0       BisDesignHbookReportsFrm.TBisDesignHbookReportsFrame.ReportShow
 0001:00022930       BisDesignHbookReportsFrm.Finalization
 0001:00022960       BisDesignHbookReportsFm..TBisDesignHbookReportsForm
 0001:00022B58       BisDesignHbookReportsFm..TBisDesignHbookReportsFormIface
 0001:00022CA8       BisDesignHbookReportsFm.TBisDesignHbookReportsFormIface.Create
 0001:00022E20       BisDesignHbookReportsFm.TBisDesignHbookReportsFormIface.GetLastForm
 0001:00022E2C       BisDesignHbookReportsFm.TBisDesignHbookReportsFormIface.CreateForm
 0001:00022E7C       BisDesignHbookReportsFm.TBisDesignHbookReportsFormIface.CanReportEdit
 0001:00022E8C       BisDesignHbookReportsFm.TBisDesignHbookReportsForm.Create
 0001:00022EC4       BisDesignHbookReportsFm.TBisDesignHbookReportsForm.GetDataFrame
 0001:00022ED0       BisDesignHbookReportsFm.TBisDesignHbookReportsForm.GetDataFrameClass
 0001:00022ED8       BisDesignHbookReportsFm.Finalization
 0001:00022F08       BisDesignHbookScriptsFrm..TBisDesignHbookScriptsFrameScripts
 0001:00022FD8       BisDesignHbookScriptsFrm..TBisDesignHbookScriptsFrame
 0001:00023344       BisDesignHbookScriptsFrm.TBisDesignHbookScriptsFrameScripts.FindByClass
 0001:00023410       BisDesignHbookScriptsFrm.TBisDesignHbookScriptsFrame.Create
 0001:00023458       BisDesignHbookScriptsFrm.TBisDesignHbookScriptsFrame.Destroy
 0001:00023488       BisDesignHbookScriptsFrm.TBisDesignHbookScriptsFrame.ActionScriptShowExecute
 0001:00023490       BisDesignHbookScriptsFrm.TBisDesignHbookScriptsFrame.ActionScriptShowUpdate
 0001:000234AC       BisDesignHbookScriptsFrm.TBisDesignHbookScriptsFrame.GetModuleByName
 0001:00023540       BisDesignHbookScriptsFrm.TBisDesignHbookScriptsFrame.GetScriptClass
 0001:000235F0       BisDesignHbookScriptsFrm.TBisDesignHbookScriptsFrame.CanScriptShow
 0001:00023650       BisDesignHbookScriptsFrm.TBisDesignHbookScriptsFrame.ScriptShow
 0001:000237B0       BisDesignHbookScriptsFrm.Finalization
 0001:000237E0       BisDesignHbookScriptsFm..TBisDesignHbookScriptsForm
 0001:000239D8       BisDesignHbookScriptsFm..TBisDesignHbookScriptsFormIface
 0001:00023B28       BisDesignHbookScriptsFm.TBisDesignHbookScriptsFormIface.Create
 0001:00023CA0       BisDesignHbookScriptsFm.TBisDesignHbookScriptsFormIface.GetLastForm
 0001:00023CAC       BisDesignHbookScriptsFm.TBisDesignHbookScriptsFormIface.CreateForm
 0001:00023CE0       BisDesignHbookScriptsFm.TBisDesignHbookScriptsForm.Create
 0001:00023D18       BisDesignHbookScriptsFm.TBisDesignHbookScriptsForm.GetDataFrame
 0001:00023D24       BisDesignHbookScriptsFm.TBisDesignHbookScriptsForm.GetDataFrameClass
 0001:00023D2C       BisDesignHbookScriptsFm.Finalization
 0001:00023D5C       BisDesignJournalActionEditFm..TBisDesignJournalActionEditForm
 0001:0002413C       BisDesignJournalActionEditFm..TBisDesignJournalActionEditFormIface
 0001:00024294       BisDesignJournalActionEditFm..TBisDesignJournalActionFilterFormIface
 0001:000243F0       BisDesignJournalActionEditFm..TBisDesignJournalActionInsertFormIface
 0001:0002454C       BisDesignJournalActionEditFm..TBisDesignJournalActionUpdateFormIface
 0001:000246A8       BisDesignJournalActionEditFm..TBisDesignJournalActionDeleteFormIface
 0001:00024804       BisDesignJournalActionEditFm.GetActionTypeByIndex
 0001:00024888       BisDesignJournalActionEditFm.TBisDesignJournalActionEditFormIface.Create
 0001:00024CFC       BisDesignJournalActionEditFm.TBisDesignJournalActionFilterFormIface.Create
 0001:00024D34       BisDesignJournalActionEditFm.TBisDesignJournalActionInsertFormIface.Create
 0001:00024D98       BisDesignJournalActionEditFm.TBisDesignJournalActionUpdateFormIface.Create
 0001:00024DFC       BisDesignJournalActionEditFm.TBisDesignJournalActionDeleteFormIface.Create
 0001:00024E60       BisDesignJournalActionEditFm.TBisDesignJournalActionEditForm.Create
 0001:00024F34       BisDesignJournalActionEditFm.TBisDesignJournalActionEditForm.BeforeShow
 0001:00024FC8       BisDesignJournalActionEditFm.Finalization
 0001:00024FF8       BisDesignJournalActionsFm..TBisDesignJournalActionsForm
 0001:00025260       BisDesignJournalActionsFm..TBisDesignJournalActionsFormIface
 0001:000253B8       BisDesignJournalActionsFm.TBisDesignJournalActionsFormIface.Create
 0001:0002570C       BisDesignJournalActionsFm.TBisDesignJournalActionsFormIface.GetActionTypeName
 0001:000257AC       BisDesignJournalActionsFm.TBisDesignJournalActionsForm.Create
 0001:000257FC       BisDesignJournalActionsFm.Finalization
 0001:0002582C       BisDesignHbookDocumentsFm..TBisDesignHbookDocumentsForm
 0001:00025A2C       BisDesignHbookDocumentsFm..TBisDesignHbookDocumentsFormIface
 0001:00025B84       BisDesignHbookDocumentsFm.TBisDesignHbookDocumentsFormIface.Create
 0001:00025D00       BisDesignHbookDocumentsFm.TBisDesignHbookDocumentsForm.Create
 0001:00025D38       BisDesignHbookDocumentsFm.Finalization
 0001:00025D68       BisDesignHbookConstEditFm..TBisDesignHbookConstEditForm
 0001:00026040       BisDesignHbookConstEditFm..TBisDesignHbookConstEditFormIface
 0001:00026190       BisDesignHbookConstEditFm..TBisDesignHbookConstInsertFormIface
 0001:000262E0       BisDesignHbookConstEditFm..TBisDesignHbookConstUpdateFormIface
 0001:00026430       BisDesignHbookConstEditFm..TBisDesignHbookConstDeleteFormIface
 0001:00026580       BisDesignHbookConstEditFm.TBisDesignHbookConstEditFormIface.Create
 0001:000266F0       BisDesignHbookConstEditFm.TBisDesignHbookConstInsertFormIface.Create
 0001:00026748       BisDesignHbookConstEditFm.TBisDesignHbookConstUpdateFormIface.Create
 0001:000267A0       BisDesignHbookConstEditFm.TBisDesignHbookConstDeleteFormIface.Create
 0001:000267F8       BisDesignHbookConstEditFm.TBisDesignHbookConstEditForm.BeforeShow
 0001:00026820       BisDesignHbookConstEditFm.TBisDesignHbookConstEditForm.ButtonNameClick
 0001:000268AC       BisDesignHbookConstEditFm.Finalization
 0001:000268DC       BisDesignHbookConstsFm..TBisDesignHbookConstsForm
 0001:00026AD4       BisDesignHbookConstsFm..TBisDesignHbookConstsFormIface
 0001:00026C20       BisDesignHbookConstsFm.TBisDesignHbookConstsFormIface.Create
 0001:00026D78       BisDesignHbookConstsFm.TBisDesignHbookConstsForm.Create
 0001:00026DB0       BisDesignHbookConstsFm.Finalization
 0001:00026DE0       BisDesignHbookLockEditFm..TBisDesignHbookLockEditForm
 0001:000271D4       BisDesignHbookLockEditFm..TBisDesignHbookLockEditFormIface
 0001:00027320       BisDesignHbookLockEditFm..TBisDesignHbookLockInsertFormIface
 0001:00027470       BisDesignHbookLockEditFm..TBisDesignHbookLockUpdateFormIface
 0001:000275C0       BisDesignHbookLockEditFm..TBisDesignHbookLockDeleteFormIface
 0001:00027710       BisDesignHbookLockEditFm.TBisDesignHbookLockEditFormIface.Create
 0001:00027B6C       BisDesignHbookLockEditFm.TBisDesignHbookLockInsertFormIface.Create
 0001:00027BC4       BisDesignHbookLockEditFm.TBisDesignHbookLockUpdateFormIface.Create
 0001:00027C1C       BisDesignHbookLockEditFm.TBisDesignHbookLockDeleteFormIface.Create
 0001:00027C74       BisDesignHbookLockEditFm.TBisDesignHbookLockEditForm.Create
 0001:00027CAC       BisDesignHbookLockEditFm.TBisDesignHbookLockEditForm.BeforeShow
 0001:00027D50       BisDesignHbookLockEditFm.Finalization
 0001:00027D80       BisDesignHbookLocksFm..TBisDesignHbookLocksForm
 0001:00027F74       BisDesignHbookLocksFm..TBisDesignHbookLocksFormIface
 0001:000280C0       BisDesignHbookLocksFm.TBisDesignHbookLocksFormIface.Create
 0001:0002838C       BisDesignHbookLocksFm.Finalization
 0001:000283BC       BisDesignHbookTaskEditFm..TBisDesignHbookTaskEditForm
 0001:00028CBC       BisDesignHbookTaskEditFm..TBisDesignHbookTaskEditFormIface
 0001:00028E08       BisDesignHbookTaskEditFm..TBisDesignHbookTaskInsertFormIface
 0001:00028F58       BisDesignHbookTaskEditFm..TBisDesignHbookTaskUpdateFormIface
 0001:000290A8       BisDesignHbookTaskEditFm..TBisDesignHbookTaskDeleteFormIface
 0001:000291F8       BisDesignHbookTaskEditFm.TBisDesignHbookTaskEditFormIface.Create
 0001:0002A170       BisDesignHbookTaskEditFm.TBisDesignHbookTaskInsertFormIface.Create
 0001:0002A1EC       BisDesignHbookTaskEditFm.TBisDesignHbookTaskUpdateFormIface.Create
 0001:0002A26C       BisDesignHbookTaskEditFm.TBisDesignHbookTaskDeleteFormIface.Create
 0001:0002A2E8       BisDesignHbookTaskEditFm.TBisDesignHbookTaskEditForm.Create
 0001:0002A33C       BisDesignHbookTaskEditFm.TBisDesignHbookTaskEditForm.BeforeShow
 0001:0002A450       BisDesignHbookTaskEditFm.TBisDesignHbookTaskEditForm.ChangeParam
 0001:0002AEA4       BisDesignHbookTaskEditFm.TBisDesignHbookTaskEditForm.CheckParams
 0001:0002B088       BisDesignHbookTaskEditFm.TBisDesignHbookTaskEditForm.RadioButtonOnceClick
 0001:0002B18C       BisDesignHbookTaskEditFm.TBisDesignHbookTaskEditForm.SetTaskSchedule
 0001:0002B290       BisDesignHbookTaskEditFm.Finalization
 0001:0002B2C0       BisDesignHbookTasksFm..TBisDesignHbookTasksForm
 0001:0002B4B4       BisDesignHbookTasksFm..TBisDesignHbookTasksFormIface
 0001:0002B600       BisDesignHbookTasksFm.TBisDesignHbookTasksFormIface.Create
 0001:0002BCA8       BisDesignHbookTasksFm.Finalization
 0001:0002BCD8       BisDesignHbookExchangeEditFm..TBisDesignHbookExchangeEditForm
 0001:0002C120       BisDesignHbookExchangeEditFm..TBisDesignHbookExchangeEditFormIface
 0001:0002C278       BisDesignHbookExchangeEditFm..TBisDesignHbookExchangeInsertFormIface
 0001:0002C3D4       BisDesignHbookExchangeEditFm..TBisDesignHbookExchangeUpdateFormIface
 0001:0002C530       BisDesignHbookExchangeEditFm..TBisDesignHbookExchangeDeleteFormIface
 0001:0002C68C       BisDesignHbookExchangeEditFm.TBisDesignHbookExchangeEditFormIface.Create
 0001:0002CA18       BisDesignHbookExchangeEditFm.TBisDesignHbookExchangeInsertFormIface.Create
 0001:0002CA74       BisDesignHbookExchangeEditFm.TBisDesignHbookExchangeUpdateFormIface.Create
 0001:0002CAD0       BisDesignHbookExchangeEditFm.TBisDesignHbookExchangeDeleteFormIface.Create
 0001:0002CB2C       BisDesignHbookExchangeEditFm.TBisDesignHbookExchangeEditForm.Create
 0001:0002CBCC       BisDesignHbookExchangeEditFm.TBisDesignHbookExchangeEditForm.RefreshConnections
 0001:0002CCB4       BisDesignHbookExchangeEditFm.TBisDesignHbookExchangeEditForm.BeforeShow
 0001:0002CD10       BisDesignHbookExchangeEditFm.TBisDesignHbookExchangeEditForm.ButtonScriptClick
 0001:0002CF88       BisDesignHbookExchangeEditFm.TBisDesignHbookExchangeEditForm.CheckParam
 0001:0002D080       BisDesignHbookExchangeEditFm.Finalization
 0001:0002D0B0       BisDesignHbookExchangesFm..TBisDesignHbookExchangesForm
 0001:0002D2B0       BisDesignHbookExchangesFm..TBisDesignHbookExchangesFormIface
 0001:0002D408       BisDesignHbookExchangesFm.TBisDesignHbookExchangesFormIface.Create
 0001:0002D6D0       BisDesignHbookExchangesFm.Finalization
 0001:0002D700       BisExecuteFm..TBisExecuteForm
 0001:0002DA68       BisExecuteFm..TBisExecuteFormIface
 0001:0002DB8C       BisExecuteFm.TBisExecuteFormIface.GetFormClass
 0001:0002DB94       BisExecuteFm..TBisExecuteFormThread
 0001:0002DC00       BisExecuteFm.TBisExecuteFormThread.Execute
 0001:0002DC80       BisExecuteFm.TBisExecuteForm.Create
 0001:0002DCF0       BisExecuteFm.TBisExecuteForm.Destroy
 0001:0002DD2C       BisExecuteFm.TBisExecuteForm.TimerTimer
 0001:0002DD48       BisExecuteFm.TBisExecuteForm.ActionStartExecute
 0001:0002DD54       BisExecuteFm.TBisExecuteForm.ActionStartUpdate
 0001:0002DD70       BisExecuteFm.TBisExecuteForm.ActionStopExecute
 0001:0002DD7C       BisExecuteFm.TBisExecuteForm.ActionStopUpdate
 0001:0002DD98       BisExecuteFm.TBisExecuteForm.ButtonCancelClick
 0001:0002DDA0       BisExecuteFm.TBisExecuteForm.CheckBoxAutoStartClick
 0001:0002DDC0       BisExecuteFm.TBisExecuteForm.ThreadExecute
 0001:0002DDC4       BisExecuteFm.TBisExecuteForm.ThreadSynchronize
 0001:0002DDFC       BisExecuteFm.TBisExecuteForm.DoTerminate
 0001:0002DE1C       BisExecuteFm.TBisExecuteForm.ThreadTerminate
 0001:0002DE30       BisExecuteFm.TBisExecuteForm.CanStart
 0001:0002DE40       BisExecuteFm.TBisExecuteForm.Start
 0001:0002DE8C       BisExecuteFm.TBisExecuteForm.CanStop
 0001:0002DE98       BisExecuteFm.TBisExecuteForm.Stop
 0001:0002DEC4       BisExecuteFm.Finalization
 0001:0002E060       BisDesignExchangeFm..TBisDesignExchangeForm
 0001:0002E554       BisDesignExchangeFm..TBisDesignExchangeFormIface
 0001:0002E68C       BisDesignExchangeFm.TBisDesignExchangeFormIface.Create
 0001:0002E6D8       BisDesignExchangeFm.TBisDesignExchangeForm.Create
 0001:0002ECBC       BisDesignExchangeFm.TBisDesignExchangeForm.Destroy
 0001:0002ED04       BisDesignExchangeFm.TBisDesignExchangeForm.DoTerminate
 0001:0002ED0C       BisDesignExchangeFm.TBisDesignExchangeForm.GridDblClick
 0001:0002ED14       BisDesignExchangeFm.TBisDesignExchangeForm.ActionInfoUpdate
 0001:0002ED30       BisDesignExchangeFm.TBisDesignExchangeForm.CanStart
 0001:0002ED64       BisDesignExchangeFm.TBisDesignExchangeForm.CanInfo
 0001:0002EE98       BisDesignExchangeFm.TBisDesignExchangeForm.Info
 0001:0002F0A0       BisDesignExchangeFm.TBisDesignExchangeForm.ActionInfoExecute
 0001:0002F0A8       BisDesignExchangeFm.GetDescription
 0001:0002F280       BisDesignExchangeFm.TBisDesignExchangeForm.ParseScript
 0001:0002F608       BisDesignExchangeFm.SetImport
 0001:0002FB38       BisDesignExchangeFm.SetExchange
 0001:0002FF04       BisDesignExchangeFm.TBisDesignExchangeForm.RefreshDataSet
 0001:00031270       BisDesignExchangeFm.TBisDesignExchangeForm.SyncDataSet
 0001:00031458       BisDesignExchangeFm.SetResult
 0001:000315E0       BisDesignExchangeFm.SetResultById
 0001:000316E4       BisDesignExchangeFm.SourceExists
 0001:00031704       BisDesignExchangeFm.DestinationExists
 0001:00031724       BisDesignExchangeFm.Import
 0001:00031800       BisDesignExchangeFm.Exchange
 0001:00031904       BisDesignExchangeFm.TBisDesignExchangeForm.ThreadExecute
 0001:00031F9C       BisDesignExchangeFm.Finalization
 0001:00031FCC       BisDesign.InitIfaceModule
 0001:0003212C       BisDesign.Finalization
 0001:00032DFC       .imdesign.@GetPackageInfoTable
 0001:00032E04       .imdesign.@PackageLoad
 0001:00032E10       .imdesign.@PackageUnload
 0002:00000010       Windows.Windows
 0002:00000304       BisDesignConsts.BisDesignConsts
 0002:00000324       BisDesignMainFm.BisDesignMainFm
 0002:0000033C       BisDesignHbookFirmTypeEditFm.BisDesignHbookFirmTypeEditFm
 0002:00000344       BisDesignHbookFirmTypesFm.BisDesignHbookFirmTypesFm
 0002:0000034C       BisDesignHbookLocalitiesFrm.BisDesignHbookLocalitiesFrm
 0002:00000354       BisDesignHbookLocalityEditFm.BisDesignHbookLocalityEditFm
 0002:0000035C       BisDesignHbookLocalitiesFm.BisDesignHbookLocalitiesFm
 0002:00000364       BisDesignHbookStreetEditFm.BisDesignHbookStreetEditFm
 0002:0000036C       BisDesignHbookStreetsFm.BisDesignHbookStreetsFm
 0002:00000374       BisDesignHbookFirmEditFm.BisDesignHbookFirmEditFm
 0002:0000037C       BisDesignHbookFirmsFm.BisDesignHbookFirmsFm
 0002:00000384       BisDesignHbookAccountEditFm.BisDesignHbookAccountEditFm
 0002:0000038C       BisDesignHbookAccountsFm.BisDesignHbookAccountsFm
 0002:00000394       BisDesignHbookRoleEditFm.BisDesignHbookRoleEditFm
 0002:0000039C       BisDesignHbookRolesFm.BisDesignHbookRolesFm
 0002:000003A4       BisDesignHbookRolesAndAccountsFm.BisDesignHbookRolesAndAccountsFm
 0002:000003AC       BisDesignHbookApplicationEditFm.BisDesignHbookApplicationEditFm
 0002:000003B4       BisDesignHbookInterfaceFilterFm.BisDesignHbookInterfaceFilterFm
 0002:000003BC       BisDesignHbookInterfaceEditFm.BisDesignHbookInterfaceEditFm
 0002:000003C4       BisDesignHbookInterfacesFm.BisDesignHbookInterfacesFm
 0002:000003CC       BisDesignHbookReportEditFm.BisDesignHbookReportEditFm
 0002:000003D4       BisDesignHbookScriptEditFm.BisDesignHbookScriptEditFm
 0002:000003DC       BisDesignHbookDocumentEditFm.BisDesignHbookDocumentEditFm
 0002:000003E4       BisDesignHbookInterfacesFrm.BisDesignHbookInterfacesFrm
 0002:000003EC       BisDesignHbookPermissionEditFm.BisDesignHbookPermissionEditFm
 0002:000003F4       BisDesignHbookPermissionsFm.BisDesignHbookPermissionsFm
 0002:000003FC       BisDesignHbookApplicationInterfaceEditFm.BisDesignHbookApplicationInterfaceEditFm
 0002:00000404       BisDesignHbookApplicationInterfacesFm.BisDesignHbookApplicationInterfacesFm
 0002:0000040C       BisDesignHbookApplicationsFrm.BisDesignHbookApplicationsFrm
 0002:00000414       BisDesignHbookApplicationsFm.BisDesignHbookApplicationsFm
 0002:0000041C       BisDesignHbookAccountRoleEditFm.BisDesignHbookAccountRoleEditFm
 0002:00000424       BisDesignHbookAccountRolesFm.BisDesignHbookAccountRolesFm
 0002:0000042C       BisDesignHbookProfileEditFm.BisDesignHbookProfileEditFm
 0002:00000434       BisDesignHbookProfilesFm.BisDesignHbookProfilesFm
 0002:0000043C       BisDesignHbookSessionsFm.BisDesignHbookSessionsFm
 0002:00000444       BisDesignHbookMenuEditFm.BisDesignHbookMenuEditFm
 0002:0000044C       BisDesignHbookMenusFm.BisDesignHbookMenusFm
 0002:00000454       BisDesignHbookReportsFrm.BisDesignHbookReportsFrm
 0002:0000045C       BisDesignHbookReportsFm.BisDesignHbookReportsFm
 0002:00000464       BisDesignHbookScriptsFrm.BisDesignHbookScriptsFrm
 0002:0000046C       BisDesignHbookScriptsFm.BisDesignHbookScriptsFm
 0002:00000474       BisDesignJournalActionEditFm.BisDesignJournalActionEditFm
 0002:0000047C       BisDesignJournalActionsFm.BisDesignJournalActionsFm
 0002:00000484       BisDesignHbookDocumentsFm.BisDesignHbookDocumentsFm
 0002:0000048C       BisDesignHbookConstEditFm.BisDesignHbookConstEditFm
 0002:00000494       BisDesignHbookConstsFm.BisDesignHbookConstsFm
 0002:0000049C       BisDesignHbookLockEditFm.BisDesignHbookLockEditFm
 0002:000004A4       BisDesignHbookLocksFm.BisDesignHbookLocksFm
 0002:000004AC       BisDesignHbookTaskEditFm.BisDesignHbookTaskEditFm
 0002:000004B4       BisDesignHbookTasksFm.BisDesignHbookTasksFm
 0002:000004BC       BisDesignHbookExchangeEditFm.BisDesignHbookExchangeEditFm
 0002:000004C4       BisDesignHbookExchangesFm.BisDesignHbookExchangesFm
 0002:000004CC       BisExecuteFm.BisExecuteFm
 0002:000004D4       BisDesignExchangeFm.BisDesignExchangeFm
 0002:000004DC       BisDesign.BisDesign
 0002:000004E4       .imdesign..imdesign
 0003:00000000       SysInit.TlsIndex
 0003:00000004       SysInit.PtrToNil
 0003:00000008       SysInit.Module
 0003:00000020       SysInit.TlsProc
 0003:00000030       BisDesignConsts.IsMainModule
 0004:00000000       SysInit.ModuleIsLib
 0004:00000001       SysInit.ModuleIsPackage
 0004:00000004       SysInit.HInstance
 0004:00000008       SysInit.tlsBuffer
 0004:0000000C       Windows..3
 0004:00000010       Windows.HtmlHelpModule
 0004:00000014       BisDesignConsts..1
 0004:00000018       BisDesignMainFm.BisDesignMainForm
 0004:0000001C       BisDesignMainFm..3
 0004:00000020       BisDesignHbookFirmTypeEditFm.BisDesignHbookFirmTypeEditForm
 0004:00000024       BisDesignHbookFirmTypeEditFm..6
 0004:00000028       BisDesignHbookFirmTypesFm.BisDesignHbookFirmTypesForm
 0004:0000002C       BisDesignHbookFirmTypesFm..3
 0004:00000030       BisDesignHbookLocalitiesFrm..3
 0004:00000034       BisDesignHbookLocalityEditFm.BisDesignHbookLocalityEditForm
 0004:00000038       BisDesignHbookLocalityEditFm..6
 0004:0000003C       BisDesignHbookLocalitiesFm.BisDesignHbookLocalitiesForm
 0004:00000040       BisDesignHbookLocalitiesFm..3
 0004:00000044       BisDesignHbookStreetEditFm.BisDesignHbookStreetEditForm
 0004:00000048       BisDesignHbookStreetEditFm..7
 0004:0000004C       BisDesignHbookStreetsFm.BisDesignHbookStreetsForm
 0004:00000050       BisDesignHbookStreetsFm..4
 0004:00000054       BisDesignHbookFirmEditFm.BisDesignHbookFirmEditForm
 0004:00000058       BisDesignHbookFirmEditFm..7
 0004:0000005C       BisDesignHbookFirmsFm.BisDesignHbookFirmsForm
 0004:00000060       BisDesignHbookFirmsFm..3
 0004:00000064       BisDesignHbookAccountEditFm.BisDesignHbookAccountEditForm
 0004:00000068       BisDesignHbookAccountEditFm..6
 0004:0000006C       BisDesignHbookAccountsFm.BiDesignHbookAccountsForm
 0004:00000070       BisDesignHbookAccountsFm..4
 0004:00000074       BisDesignHbookRoleEditFm.BisDesignHbookRoleEditForm
 0004:00000078       BisDesignHbookRoleEditFm..6
 0004:0000007C       BisDesignHbookRolesFm.BisDesignHbookRolesForm
 0004:00000080       BisDesignHbookRolesFm..3
 0004:00000084       BisDesignHbookRolesAndAccountsFm.BisDesignHbookRolesAndAccountsForm
 0004:00000088       BisDesignHbookRolesAndAccountsFm..4
 0004:0000008C       BisDesignHbookApplicationEditFm.BisDesignHbookApplicationEditForm
 0004:00000090       BisDesignHbookApplicationEditFm..6
 0004:00000094       BisDesignHbookInterfaceFilterFm.BisDesignHbookInterfaceFilterForm
 0004:00000098       BisDesignHbookInterfaceFilterFm..3
 0004:0000009C       BisDesignHbookInterfaceEditFm.BisDesignHbookInterfaceEditForm
 0004:000000A0       BisDesignHbookInterfaceEditFm..6
 0004:000000A4       BisDesignHbookInterfacesFm.BisDesignHbookInterfacesForm
 0004:000000A8       BisDesignHbookInterfacesFm..3
 0004:000000AC       BisDesignHbookReportEditFm.BisDesignHbookReportEditForm
 0004:000000B0       BisDesignHbookReportEditFm..6
 0004:000000B4       BisDesignHbookScriptEditFm.BisDesignHbookScriptEditForm
 0004:000000B8       BisDesignHbookScriptEditFm..6
 0004:000000BC       BisDesignHbookDocumentEditFm.BisDesignHbookDocumentEditForm
 0004:000000C0       BisDesignHbookDocumentEditFm..6
 0004:000000C4       BisDesignHbookInterfacesFrm..3
 0004:000000C8       BisDesignHbookPermissionEditFm.BisDesignHbookPermissionEditForm
 0004:000000CC       BisDesignHbookPermissionEditFm..6
 0004:000000D0       BisDesignHbookPermissionsFm.BiDesignHbookPermissionsForm
 0004:000000D4       BisDesignHbookPermissionsFm..4
 0004:000000D8       BisDesignHbookApplicationInterfaceEditFm.BisDesignHbookApplicationInterfaceEditForm
 0004:000000DC       BisDesignHbookApplicationInterfaceEditFm..6
 0004:000000E0       BisDesignHbookApplicationInterfacesFm.BiDesignHbookApplicationInterfacesForm
 0004:000000E4       BisDesignHbookApplicationInterfacesFm..4
 0004:000000E8       BisDesignHbookApplicationsFrm..3
 0004:000000EC       BisDesignHbookApplicationsFm.BisDesignHbookApplicationsForm
 0004:000000F0       BisDesignHbookApplicationsFm..3
 0004:000000F4       BisDesignHbookAccountRoleEditFm.BisDesignHbookAccountRoleEditForm
 0004:000000F8       BisDesignHbookAccountRoleEditFm..6
 0004:000000FC       BisDesignHbookAccountRolesFm.BiDesignHbookAccountRolesForm
 0004:00000100       BisDesignHbookAccountRolesFm..3
 0004:00000104       BisDesignHbookProfileEditFm.BisDesignHbookProfileEditForm
 0004:00000108       BisDesignHbookProfileEditFm..6
 0004:0000010C       BisDesignHbookProfilesFm.BiDesignHbookProfilesForm
 0004:00000110       BisDesignHbookProfilesFm..3
 0004:00000114       BisDesignHbookSessionsFm.BiDesignHbookSessionsForm
 0004:00000118       BisDesignHbookSessionsFm..5
 0004:0000011C       BisDesignHbookMenuEditFm.BisDesignHbookMenuEditForm
 0004:00000120       BisDesignHbookMenuEditFm..7
 0004:00000124       BisDesignHbookMenusFm.BisDesignHbookMenusForm
 0004:00000128       BisDesignHbookMenusFm..3
 0004:0000012C       BisDesignHbookReportsFrm..4
 0004:00000130       BisDesignHbookReportsFm.BisDesignHbookReportsForm
 0004:00000134       BisDesignHbookReportsFm..3
 0004:00000138       BisDesignHbookScriptsFrm..3
 0004:0000013C       BisDesignHbookScriptsFm.BisDesignHbookScriptsForm
 0004:00000140       BisDesignHbookScriptsFm..3
 0004:00000144       BisDesignJournalActionEditFm.BisDesignJournalActionEditForm
 0004:00000148       BisDesignJournalActionEditFm..7
 0004:0000014C       BisDesignJournalActionsFm.BiDesignJournalActionsForm
 0004:00000150       BisDesignJournalActionsFm..3
 0004:00000154       BisDesignHbookDocumentsFm.BisDesignHbookDocumentsForm
 0004:00000158       BisDesignHbookDocumentsFm..3
 0004:0000015C       BisDesignHbookConstEditFm.BisDesignHbookConstEditForm
 0004:00000160       BisDesignHbookConstEditFm..6
 0004:00000164       BisDesignHbookConstsFm.BisDesignHbookConstsForm
 0004:00000168       BisDesignHbookConstsFm..3
 0004:0000016C       BisDesignHbookLockEditFm.BisDesignHbookLockEditForm
 0004:00000170       BisDesignHbookLockEditFm..6
 0004:00000174       BisDesignHbookLocksFm.BiDesignHbookLocksForm
 0004:00000178       BisDesignHbookLocksFm..3
 0004:0000017C       BisDesignHbookTaskEditFm.BisDesignHbookTaskEditForm
 0004:00000180       BisDesignHbookTaskEditFm..6
 0004:00000184       BisDesignHbookTasksFm.BiDesignHbookTasksForm
 0004:00000188       BisDesignHbookTasksFm..3
 0004:0000018C       BisDesignHbookExchangeEditFm.BisDesignHbookExchangeEditForm
 0004:00000190       BisDesignHbookExchangeEditFm..6
 0004:00000194       BisDesignHbookExchangesFm.BisDesignHbookExchangesForm
 0004:00000198       BisDesignHbookExchangesFm..3
 0004:0000019C       BisExecuteFm.BisExecuteForm
 0004:000001A0       BisExecuteFm..3
 0004:000001A4       BisDesignExchangeFm.BisDesignExchangeForm
 0004:000001A8       BisDesignExchangeFm..3
 0004:000001AC       BisDesign..1
 0005:00000000       SysInit.TlsLast


Line numbers for IpRtrMib(objects.bpl\IPHlpApi\Pas\IpRtrMib.pas) segment .text

  1062 0001:00000000

Line numbers for IpExport(objects.bpl\IPHlpApi\Pas\IpExport.pas) segment .text

   343 0001:00000000

Line numbers for IpTypes(objects.bpl\IPHlpApi\Pas\IpTypes.pas) segment .text

   228 0001:00000000

Line numbers for IpHlpApi(objects.bpl\IPHlpApi\Pas\IpHlpApi.pas) segment .text

   752 0001:00000000

Line numbers for MiTeC_ToolHelp32(MiTeC_ToolHelp32.pas) segment .text

   438 0001:00000000

Line numbers for BisDesignConsts(imdesign.bpl\BisDesignConsts.pas) segment .itext

    11 0002:00000304

Line numbers for BisDesignMainFm(imdesign.bpl\BisDesignMainFm.pas) segment .text

    50 0001:000017F4    51 0001:00001806    52 0001:0000180F    53 0001:00001817
    58 0001:00001834    59 0001:00001846    60 0001:0000184F    61 0001:00001856
    75 0001:00001870    76 0001:00001875    77 0001:0000187D    79 0001:00001885
    80 0001:00001899    81 0001:000018A0    82 0001:000018A8    84 0001:000018AF
    85 0001:000018C5    86 0001:000018C9    87 0001:000018E0    88 0001:000018E4
    89 0001:000018F2    93 0001:000018FF    94 0001:00001915    95 0001:0000191D
    96 0001:00001934    97 0001:00001938    98 0001:00001946   100 0001:00001953
   101 0001:0000196E   102 0001:00001972   103 0001:00001980   105 0001:0000198D
   106 0001:000019A8   107 0001:000019AC   108 0001:000019BA   110 0001:000019C7
   111 0001:000019E2   112 0001:000019E6   113 0001:000019F4   117 0001:00001A01
   120 0001:00001A0F   123 0001:00001A98   124 0001:00001AAE   125 0001:00001ACD
   127 0001:00001B05

Line numbers for BisDesignMainFm(imdesign.bpl\BisDesignMainFm.pas) segment .itext

   129 0002:00000324

Line numbers for BisDesignHbookFirmTypeEditFm(imdesign.bpl\BisDesignHbookFirmTypeEditFm.pas) segment .text

    54 0001:000024D8    55 0001:000024EB    56 0001:000024F4    57 0001:000024FC
    58 0001:00002502    59 0001:0000251A    60 0001:00002534    61 0001:0000254C
    63 0001:00002564    68 0001:00002678    69 0001:0000268A    70 0001:00002693
    71 0001:000026A3    76 0001:000026D4    77 0001:000026E6    78 0001:000026EF
    79 0001:000026FF    84 0001:00002730    85 0001:00002742    86 0001:0000274B
    87 0001:0000275B

Line numbers for BisDesignHbookFirmTypeEditFm(imdesign.bpl\BisDesignHbookFirmTypeEditFm.pas) segment .itext

    89 0002:0000033C

Line numbers for BisDesignHbookFirmTypesFm(imdesign.bpl\BisDesignHbookFirmTypesFm.pas) segment .text

    34 0001:00002B14    35 0001:00002B2B    36 0001:00002B34    37 0001:00002B3C
    38 0001:00002B47    39 0001:00002B54    40 0001:00002B5F    41 0001:00002B6A
    42 0001:00002B71    43 0001:00002B75    44 0001:00002B85    45 0001:00002B8B
    46 0001:00002B97    47 0001:00002BAD    48 0001:00002BC3    50 0001:00002BCF
    51 0001:00002BE1

Line numbers for BisDesignHbookFirmTypesFm(imdesign.bpl\BisDesignHbookFirmTypesFm.pas) segment .itext

    53 0002:00000344

Line numbers for BisDesignHbookLocalitiesFrm(imdesign.bpl\BisDesignHbookLocalitiesFrm.pas) segment .text

    49 0001:00003134    50 0001:0000315F    51 0001:00003164    52 0001:00003172
    53 0001:0000317E    54 0001:00003193    55 0001:000031A5    56 0001:000031A8
    59 0001:000031AA    51 0001:000031AB    60 0001:000031AE    65 0001:000031D8
    66 0001:000031EA    67 0001:000031F3    68 0001:00003205    71 0001:00003220
    72 0001:0000322B    73 0001:00003236    74 0001:00003242    78 0001:00003250
    79 0001:00003255    82 0001:00003258    83 0001:0000325B    84 0001:0000326F
    90 0001:00003274    91 0001:0000327E    92 0001:0000328A    93 0001:000032AD
    94 0001:000032B3    95 0001:000032C4    96 0001:000032D2    97 0001:000032DA
    99 0001:000032F2   102 0001:00003302   110 0001:0000330C   111 0001:0000332E
   112 0001:0000333D   113 0001:00003349   114 0001:0000335D   115 0001:00003371
   116 0001:00003381   117 0001:00003389   118 0001:00003399   119 0001:000033A7
   120 0001:000033B5   121 0001:000033D7   122 0001:000033DE   123 0001:000033EB
   124 0001:000033F2   126 0001:00003412   127 0001:0000344D   128 0001:00003457
   129 0001:00003460   130 0001:00003469   132 0001:00003470

Line numbers for BisDesignHbookLocalitiesFrm(imdesign.bpl\BisDesignHbookLocalitiesFrm.pas) segment .itext

   134 0002:0000034C

Line numbers for BisDesignHbookLocalityEditFm(imdesign.bpl\BisDesignHbookLocalityEditFm.pas) segment .text

    52 0001:00003D38    53 0001:00003D4F    54 0001:00003D58    55 0001:00003D60
    56 0001:00003D66    57 0001:00003D7E    58 0001:00003D98    60 0001:00003DB2
    65 0001:00003E6C    66 0001:00003E7E    67 0001:00003E87    68 0001:00003E97
    73 0001:00003EC8    74 0001:00003EDA    75 0001:00003EE3    76 0001:00003EF3
    81 0001:00003F24    82 0001:00003F36    83 0001:00003F3F    84 0001:00003F4F

Line numbers for BisDesignHbookLocalityEditFm(imdesign.bpl\BisDesignHbookLocalityEditFm.pas) segment .itext

    86 0002:00000354

Line numbers for BisDesignHbookLocalitiesFm(imdesign.bpl\BisDesignHbookLocalitiesFm.pas) segment .text

    37 0001:0000430C    38 0001:00004323    39 0001:0000432C    40 0001:00004334
    41 0001:0000433F    42 0001:0000434C    43 0001:00004357    44 0001:00004362
    45 0001:00004369    46 0001:0000436D    47 0001:0000437D    48 0001:00004383
    49 0001:0000438F    50 0001:000043A5    52 0001:000043B8    53 0001:000043CA
    59 0001:0000445C    60 0001:00004461

Line numbers for BisDesignHbookLocalitiesFm(imdesign.bpl\BisDesignHbookLocalitiesFm.pas) segment .itext

    62 0002:0000035C

Line numbers for BisDesignHbookStreetEditFm(imdesign.bpl\BisDesignHbookStreetEditFm.pas) segment .text

    62 0001:00004E04    63 0001:00004E17    64 0001:00004E20    65 0001:00004E28
    66 0001:00004E2E    67 0001:00004E46    68 0001:00004E54    69 0001:00004E62
    70 0001:00004E7C    71 0001:00004E96    74 0001:00004ED6    80 0001:00005068
    81 0001:0000507A    82 0001:00005083    87 0001:000050A0    88 0001:000050B2
    89 0001:000050BB    90 0001:000050CB    95 0001:000050FC    96 0001:0000510E
    97 0001:00005117    98 0001:00005127   103 0001:00005158   104 0001:0000516A
   105 0001:00005173   106 0001:00005183

Line numbers for BisDesignHbookStreetEditFm(imdesign.bpl\BisDesignHbookStreetEditFm.pas) segment .itext

   108 0002:00000364

Line numbers for BisDesignHbookStreetsFm(imdesign.bpl\BisDesignHbookStreetsFm.pas) segment .text

    59 0001:00005820    60 0001:00005843    61 0001:0000584C    62 0001:00005854
    63 0001:00005869    64 0001:00005886    65 0001:00005894    66 0001:000058BE
    67 0001:000058E8    68 0001:000058FC    69 0001:00005900    71 0001:00005949
    74 0001:00005958    79 0001:00005A00    80 0001:00005A2E    81 0001:00005A37
    82 0001:00005A4D    83 0001:00005A55    84 0001:00005A60    85 0001:00005A6D
    86 0001:00005A78    87 0001:00005A83    88 0001:00005A8A    89 0001:00005A8E
    90 0001:00005A9E    91 0001:00005AA4    92 0001:00005AB0    93 0001:00005ABC
    94 0001:00005AC8    95 0001:00005ADE    96 0001:00005AF1    98 0001:00005B07
    99 0001:00005B19   102 0001:00005C28   103 0001:00005C2D   104 0001:00005C36
   106 0001:00005C3A   107 0001:00005C53   108 0001:00005C6A   111 0001:00005C81
   117 0001:00005C88   118 0001:00005C8D

Line numbers for BisDesignHbookStreetsFm(imdesign.bpl\BisDesignHbookStreetsFm.pas) segment .itext

   120 0002:0000036C

Line numbers for BisDesignHbookFirmEditFm(imdesign.bpl\BisDesignHbookFirmEditFm.pas) segment .text

   118 0001:00006A2C   119 0001:00006A44   120 0001:00006A4D   121 0001:00006A55
   122 0001:00006A5B   123 0001:00006A73   124 0001:00006A81   125 0001:00006A8F
   126 0001:00006A9D   127 0001:00006AAB   128 0001:00006AB9   129 0001:00006AC7
   130 0001:00006AD5   131 0001:00006AE3   132 0001:00006AF1   133 0001:00006AFF
   135 0001:00006B33   136 0001:00006B4D   138 0001:00006B7B   139 0001:00006B95
   140 0001:00006BAF   141 0001:00006BC9   142 0001:00006BE3   143 0001:00006BFD
   146 0001:00006C17   147 0001:00006C4D   148 0001:00006C5D   150 0001:00006C6B
   151 0001:00006C85   152 0001:00006C9F   155 0001:00006CB9   156 0001:00006CEF
   157 0001:00006CFF   159 0001:00006D0D   160 0001:00006D27   161 0001:00006D41
   162 0001:00006D5B   163 0001:00006D75   164 0001:00006D8F   165 0001:00006DA9
   166 0001:00006DC3   167 0001:00006DDD   168 0001:00006DF7   169 0001:00006E11
   170 0001:00006E2B   171 0001:00006E45   173 0001:00006E5F   178 0001:00007854
   179 0001:00007866   180 0001:0000786F   181 0001:00007876   182 0001:0000787A
   183 0001:0000788A   184 0001:0000789A   185 0001:000078A7   186 0001:000078B7
   189 0001:00007944   190 0001:00007964   191 0001:0000796D   192 0001:00007975
   193 0001:000079A1   194 0001:000079AE   195 0001:000079E2   199 0001:00007A16
   204 0001:00007AB8   205 0001:00007ACA   206 0001:00007AD3   207 0001:00007AE3
   208 0001:00007AF0   211 0001:00007B44   212 0001:00007B64   213 0001:00007B6D
   214 0001:00007B75   215 0001:00007BA1   216 0001:00007BAE   217 0001:00007BE2
   221 0001:00007C16   226 0001:00007CA8   227 0001:00007CBA   228 0001:00007CC3
   229 0001:00007CD3   230 0001:00007CE0   235 0001:00007D2C   236 0001:00007D3E
   237 0001:00007D47   238 0001:00007D57   239 0001:00007D64   244 0001:00007DAC
   245 0001:00007DC7   247 0001:00007E10   248 0001:00007E2C

Line numbers for BisDesignHbookFirmEditFm(imdesign.bpl\BisDesignHbookFirmEditFm.pas) segment .itext

   250 0002:00000374

Line numbers for BisDesignHbookFirmsFm(imdesign.bpl\BisDesignHbookFirmsFm.pas) segment .text

    35 0001:000081DC    36 0001:000081EF    37 0001:000081F8    38 0001:00008200
    39 0001:0000820B    40 0001:0000821C    41 0001:0000822D    42 0001:00008238
    43 0001:00008243    44 0001:0000824A    45 0001:0000824E    46 0001:0000825E
    47 0001:00008264    48 0001:00008270    49 0001:0000827C    50 0001:00008288
    51 0001:00008294    52 0001:000082A0    53 0001:000082AC    54 0001:000082B8
    55 0001:000082C4    56 0001:000082D0    57 0001:000082DC    58 0001:000082E8
    59 0001:000082F4    60 0001:00008300    61 0001:0000830C    62 0001:00008318
    63 0001:00008324    64 0001:00008330    65 0001:0000833C    66 0001:00008348
    67 0001:00008354    68 0001:00008360    69 0001:0000836C    70 0001:00008378
    71 0001:00008384    72 0001:00008390    73 0001:0000839C    74 0001:000083A8
    75 0001:000083B4    76 0001:000083C0    77 0001:000083CC    78 0001:000083D8
    79 0001:000083E4    80 0001:000083F0    81 0001:000083FC    82 0001:00008408
    83 0001:00008414    84 0001:00008420    85 0001:0000842C    86 0001:00008442
    87 0001:00008455    89 0001:0000846B    90 0001:0000847D

Line numbers for BisDesignHbookFirmsFm(imdesign.bpl\BisDesignHbookFirmsFm.pas) segment .itext

    92 0002:0000037C

Line numbers for BisDesignHbookAccountEditFm(imdesign.bpl\BisDesignHbookAccountEditFm.pas) segment .text

   116 0001:000094CC   117 0001:00009504   118 0001:00009510   119 0001:00009518
   120 0001:0000951E   121 0001:0000952C   123 0001:00009536   124 0001:0000955A
   125 0001:0000957E   126 0001:00009598   127 0001:000095B2   128 0001:000095CF
   129 0001:000095F5   130 0001:0000961B   131 0001:0000962E   132 0001:00009648
   133 0001:00009662   134 0001:0000967C   135 0001:00009694   136 0001:000096AE
   137 0001:000096C8   139 0001:000096F9   141 0001:00009722   146 0001:00009B84
   147 0001:00009B96   148 0001:00009B9F   149 0001:00009BAF   154 0001:00009BE0
   155 0001:00009BF2   156 0001:00009BFB   157 0001:00009C0B   162 0001:00009C3C
   163 0001:00009C4E   164 0001:00009C57   165 0001:00009C67   170 0001:00009C98
   171 0001:00009CAF   172 0001:00009CB8   173 0001:00009CBF   174 0001:00009CC6
   175 0001:00009CD3   176 0001:00009CE0   177 0001:00009CF2   178 0001:00009CF9
   181 0001:00009D1C   182 0001:00009D3D   183 0001:00009D44   184 0001:00009D5B
   185 0001:00009D71   186 0001:00009D88   187 0001:00009DD9   188 0001:00009DED
   189 0001:00009E05   190 0001:00009E10   191 0001:00009E1C   194 0001:00009E49
   195 0001:00009E50   196 0001:00009E57   201 0001:00009E9C   202 0001:00009EA3
   203 0001:00009ECC   204 0001:00009EDE   211 0001:00009EE4   212 0001:00009F07
   213 0001:00009F10   214 0001:00009F34   215 0001:00009F45   216 0001:00009F53
   217 0001:00009F65   218 0001:00009F78   219 0001:00009FA5   220 0001:00009FAD
   221 0001:00009FC5   222 0001:00009FDF   226 0001:0000A016   251 0001:0000A026
   254 0001:0000A0A4   255 0001:0000A0A7   256 0001:0000A0CA   260 0001:0000A0CC
   261 0001:0000A0D3   266 0001:0000A0D4   267 0001:0000A0DB   268 0001:0000A0E0
   276 0001:0000A0E4   277 0001:0000A102   278 0001:0000A11C   279 0001:0000A133
   280 0001:0000A144   281 0001:0000A152   282 0001:0000A164   283 0001:0000A16E
   284 0001:0000A177   285 0001:0000A18F   286 0001:0000A19F   287 0001:0000A1AB
   290 0001:0000A1BF   291 0001:0000A1DF   292 0001:0000A1F5   293 0001:0000A212
   294 0001:0000A21A   290 0001:0000A21D   296 0001:0000A22D   299 0001:0000A23D
   307 0001:0000A2CC   308 0001:0000A2EA   309 0001:0000A304   310 0001:0000A31B
   311 0001:0000A32C   312 0001:0000A33A   313 0001:0000A34C   314 0001:0000A356
   315 0001:0000A35F   316 0001:0000A36D   318 0001:0000A38F   319 0001:0000A3AA
   320 0001:0000A3BB   321 0001:0000A3D1   322 0001:0000A3F1   324 0001:0000A3F9
   318 0001:0000A3FA   326 0001:0000A40A   329 0001:0000A41A   338 0001:0000A47C
   339 0001:0000A49F   340 0001:0000A4BC   341 0001:0000A4D3   342 0001:0000A4E7
   343 0001:0000A4F8   344 0001:0000A506   345 0001:0000A518   346 0001:0000A52B
   347 0001:0000A558   348 0001:0000A560   349 0001:0000A570   351 0001:0000A57A
   352 0001:0000A58F   353 0001:0000A5AD   354 0001:0000A5C5   355 0001:0000A5D4
   357 0001:0000A5E6   352 0001:0000A5E7   358 0001:0000A5EA   350 0001:0000A5F2
   362 0001:0000A60F   363 0001:0000A617   366 0001:0000A633   372 0001:0000A6B0
   373 0001:0000A6D2   374 0001:0000A6E6   375 0001:0000A6FA   376 0001:0000A70B
   377 0001:0000A719   378 0001:0000A72B   379 0001:0000A734   380 0001:0000A740
   382 0001:0000A74C   383 0001:0000A77E   384 0001:0000A793   385 0001:0000A79B
   386 0001:0000A7A7   388 0001:0000A7B1   389 0001:0000A7BF   390 0001:0000A7DF
   391 0001:0000A80D   387 0001:0000A815   395 0001:0000A82E   396 0001:0000A836
   398 0001:0000A852   404 0001:0000A908   405 0001:0000A928   406 0001:0000A942
   407 0001:0000A959   408 0001:0000A96A   409 0001:0000A978   410 0001:0000A98A
   411 0001:0000A994   412 0001:0000A99D   413 0001:0000A9BF   415 0001:0000A9F0
   417 0001:0000AA05   420 0001:0000AA15   424 0001:0000AA84   425 0001:0000AA87
   426 0001:0000AAA4   430 0001:0000AAB8   431 0001:0000AACE   432 0001:0000AADD
   433 0001:0000AB0D   437 0001:0000AB40   438 0001:0000AB56   439 0001:0000AB65
   440 0001:0000AB95   446 0001:0000ABC8   447 0001:0000ABCC   448 0001:0000ABE6
   449 0001:0000ABFD   450 0001:0000AC12   455 0001:0000AC28   456 0001:0000AC2F
   457 0001:0000AC3E   458 0001:0000AC4E   459 0001:0000AC5C   460 0001:0000AC67
   461 0001:0000AC6E   462 0001:0000AC75   463 0001:0000AC80   464 0001:0000AC87
   465 0001:0000AC92   466 0001:0000AC99   467 0001:0000ACA4   468 0001:0000ACB6
   470 0001:0000ACCA   472 0001:0000ACE2

Line numbers for BisDesignHbookAccountEditFm(imdesign.bpl\BisDesignHbookAccountEditFm.pas) segment .itext

   475 0002:00000384

Line numbers for BisDesignHbookAccountsFm(imdesign.bpl\BisDesignHbookAccountsFm.pas) segment .text

    51 0001:0000B374    52 0001:0000B3A9    54 0001:0000B3B2    55 0001:0000B3BD
    56 0001:0000B3CA    57 0001:0000B3D5    58 0001:0000B3E0    59 0001:0000B3E6
    60 0001:0000B3F6    61 0001:0000B3FC    62 0001:0000B408    63 0001:0000B414
    64 0001:0000B420    65 0001:0000B42C    66 0001:0000B438    67 0001:0000B444
    68 0001:0000B450    69 0001:0000B45C    70 0001:0000B468    71 0001:0000B474
    72 0001:0000B480    73 0001:0000B48C    74 0001:0000B49F    75 0001:0000B4B2
    76 0001:0000B4C5    77 0001:0000B4D8    79 0001:0000B4EB    80 0001:0000B517
    83 0001:0000B529    84 0001:0000B539    86 0001:0000B549    88 0001:0000B55E
    89 0001:0000B58D    92 0001:0000B596    94 0001:0000B5AB    97 0001:0000B5DA
   100 0001:0000B7FC   101 0001:0000B7FF   102 0001:0000B806   103 0001:0000B817
   104 0001:0000B828   109 0001:0000B82C   110 0001:0000B83E   111 0001:0000B847
   112 0001:0000B84F   113 0001:0000B853   114 0001:0000B85A   115 0001:0000B861
   120 0001:0000B87C   121 0001:0000B88E   122 0001:0000B897   125 0001:0000B8B4
   126 0001:0000B8BF   127 0001:0000B8CB   131 0001:0000B8DC   132 0001:0000B8E1

Line numbers for BisDesignHbookAccountsFm(imdesign.bpl\BisDesignHbookAccountsFm.pas) segment .itext

   134 0002:0000038C

Line numbers for BisDesignHbookRoleEditFm(imdesign.bpl\BisDesignHbookRoleEditFm.pas) segment .text

    54 0001:0000C0E0    55 0001:0000C118    56 0001:0000C124    57 0001:0000C12C
    58 0001:0000C132    59 0001:0000C14A    60 0001:0000C171    61 0001:0000C195
    62 0001:0000C1C2    63 0001:0000C1E6    64 0001:0000C200    66 0001:0000C218
    71 0001:0000C364    72 0001:0000C376    73 0001:0000C37F    74 0001:0000C38F
    79 0001:0000C3C0    80 0001:0000C3D2    81 0001:0000C3DB    82 0001:0000C3EB
    87 0001:0000C41C    88 0001:0000C42E    89 0001:0000C437    90 0001:0000C447

Line numbers for BisDesignHbookRoleEditFm(imdesign.bpl\BisDesignHbookRoleEditFm.pas) segment .itext

    92 0002:00000394

Line numbers for BisDesignHbookRolesFm(imdesign.bpl\BisDesignHbookRolesFm.pas) segment .text

    34 0001:0000C7E8    35 0001:0000C816    36 0001:0000C81F    37 0001:0000C827
    38 0001:0000C832    39 0001:0000C83F    40 0001:0000C84A    41 0001:0000C855
    42 0001:0000C85C    43 0001:0000C860    44 0001:0000C870    45 0001:0000C876
    46 0001:0000C882    47 0001:0000C88E    48 0001:0000C89A    49 0001:0000C8A6
    50 0001:0000C8B2    51 0001:0000C8C8    53 0001:0000C8DE    54 0001:0000C90D
    55 0001:0000C91F    60 0001:0000CA24    61 0001:0000CA36    62 0001:0000CA3F

Line numbers for BisDesignHbookRolesFm(imdesign.bpl\BisDesignHbookRolesFm.pas) segment .itext

    64 0002:0000039C

Line numbers for BisDesignHbookRolesAndAccountsFm(imdesign.bpl\BisDesignHbookRolesAndAccountsFm.pas) segment .text

    49 0001:0000D0E4    50 0001:0000D0FB    52 0001:0000D104    53 0001:0000D10D
    54 0001:0000D11F    55 0001:0000D131    56 0001:0000D143    59 0001:0000D155
    60 0001:0000D161    61 0001:0000D16D    62 0001:0000D179    63 0001:0000D185
    65 0001:0000D19B    67 0001:0000D1A8    68 0001:0000D1B5    69 0001:0000D1C2
    70 0001:0000D1CF    71 0001:0000D1DC    73 0001:0000D1E9    75 0001:0000D1F9
    76 0001:0000D210    85 0001:0000D2AC    86 0001:0000D2CE    87 0001:0000D2DF
    88 0001:0000D2F0    89 0001:0000D301    90 0001:0000D30F    91 0001:0000D321
    92 0001:0000D32A    93 0001:0000D336    95 0001:0000D342    96 0001:0000D374
    98 0001:0000D389    99 0001:0000D39B   100 0001:0000D3A4   101 0001:0000D3B0
   103 0001:0000D3BC   104 0001:0000D3C5   105 0001:0000D3ED   107 0001:0000D418
   109 0001:0000D42D   110 0001:0000D43F   111 0001:0000D448   112 0001:0000D454
   113 0001:0000D460   116 0001:0000D46C   117 0001:0000D474   118 0001:0000D47C
   119 0001:0000D484   120 0001:0000D4B4   121 0001:0000D4C6   122 0001:0000D4D4
   123 0001:0000D4E2   126 0001:0000D4EF   127 0001:0000D504   129 0001:0000D517
   130 0001:0000D525   131 0001:0000D543   132 0001:0000D561   133 0001:0000D589
   134 0001:0000D5C4   136 0001:0000D5D5   137 0001:0000D633   138 0001:0000D640
   141 0001:0000D64D   142 0001:0000D68B   143 0001:0000D699   144 0001:0000D6D8
   145 0001:0000D713   146 0001:0000D731   147 0001:0000D76C   150 0001:0000D77D
   139 0001:0000D785   153 0001:0000D795   124 0001:0000D79D   156 0001:0000D7AD
   158 0001:0000D7C6   159 0001:0000D7D4   160 0001:0000D7F2   161 0001:0000D820
   162 0001:0000D84E   163 0001:0000D885   165 0001:0000D896   166 0001:0000D8A3
   168 0001:0000D8B0   171 0001:0000D8BD   173 0001:0000D8FB   174 0001:0000D909
   175 0001:0000D948   176 0001:0000D983   177 0001:0000D9A1   178 0001:0000D9DC
   182 0001:0000D9ED   169 0001:0000D9F5   185 0001:0000DA05   187 0001:0000DA20
   191 0001:0000DA45   192 0001:0000DA4D   193 0001:0000DA55   195 0001:0000DA65
   199 0001:0000DC50   200 0001:0000DC55   203 0001:0000DC58   204 0001:0000DC5B
   205 0001:0000DC62   206 0001:0000DC69   207 0001:0000DC73   211 0001:0000DC78
   216 0001:0000DC7C   217 0001:0000DC8E   218 0001:0000DC97   219 0001:0000DC9F
   220 0001:0000DCA6   221 0001:0000DCAA   222 0001:0000DCB1   227 0001:0000DCCC
   228 0001:0000DCDE   229 0001:0000DCE7   233 0001:0000DD04   234 0001:0000DD09

Line numbers for BisDesignHbookRolesAndAccountsFm(imdesign.bpl\BisDesignHbookRolesAndAccountsFm.pas) segment .itext

   236 0002:000003A4

Line numbers for BisDesignHbookApplicationEditFm(imdesign.bpl\BisDesignHbookApplicationEditFm.pas) segment .text

    53 0001:0000E57C    54 0001:0000E58F    55 0001:0000E598    56 0001:0000E5A0
    57 0001:0000E5A6    58 0001:0000E5BE    59 0001:0000E5D8    60 0001:0000E5F0
    62 0001:0000E601    67 0001:0000E6F8    68 0001:0000E70A    69 0001:0000E713
    70 0001:0000E723    75 0001:0000E758    76 0001:0000E76A    77 0001:0000E773
    78 0001:0000E783    83 0001:0000E7B8    84 0001:0000E7CA    85 0001:0000E7D3
    86 0001:0000E7E3

Line numbers for BisDesignHbookApplicationEditFm(imdesign.bpl\BisDesignHbookApplicationEditFm.pas) segment .itext

    88 0002:000003AC

Line numbers for BisDesignHbookInterfaceFilterFm(imdesign.bpl\BisDesignHbookInterfaceFilterFm.pas) segment .text

    48 0001:0000ECD4    49 0001:0000ECDA    50 0001:0000ECE1    51 0001:0000ECF3
    52 0001:0000ED02    53 0001:0000ED11    54 0001:0000ED20    56 0001:0000ED2C
    61 0001:0000ED78    62 0001:0000ED8B    63 0001:0000ED94    64 0001:0000ED9C
    65 0001:0000EDA2    66 0001:0000EDBA    67 0001:0000EDD2    68 0001:0000EDEC
    69 0001:0000EE04    70 0001:0000EE1C    72 0001:0000EE34    82 0001:0000EFEC
    83 0001:0000F01A    85 0001:0000F024    86 0001:0000F035    87 0001:0000F037
    88 0001:0000F03D    89 0001:0000F041    90 0001:0000F048    91 0001:0000F04C
    92 0001:0000F057    93 0001:0000F078    91 0001:0000F079    95 0001:0000F07C
    96 0001:0000F08D    97 0001:0000F0A9    98 0001:0000F0BF    99 0001:0000F0C5
   100 0001:0000F0DE    96 0001:0000F0DF   102 0001:0000F0E2   110 0001:0000F124
   111 0001:0000F12E   113 0001:0000F137   114 0001:0000F14C   115 0001:0000F161
   116 0001:0000F16F   117 0001:0000F190   118 0001:0000F197   119 0001:0000F1B4
   120 0001:0000F1C5   121 0001:0000F1CB   122 0001:0000F1E1   118 0001:0000F1E4
   125 0001:0000F1EC   128 0001:0000F1FA   129 0001:0000F20B   130 0001:0000F234
   131 0001:0000F238   132 0001:0000F249   136 0001:0000F25A

Line numbers for BisDesignHbookInterfaceFilterFm(imdesign.bpl\BisDesignHbookInterfaceFilterFm.pas) segment .itext

   138 0002:000003B4

Line numbers for BisDesignHbookInterfaceEditFm(imdesign.bpl\BisDesignHbookInterfaceEditFm.pas) segment .text

    63 0001:0000FB4C    64 0001:0000FB7F    65 0001:0000FB8B    66 0001:0000FB93
    67 0001:0000FB99    68 0001:0000FBB1    69 0001:0000FBD5    70 0001:0000FBEF
    71 0001:0000FC07    72 0001:0000FC1F    74 0001:0000FC37    79 0001:0000FDE4
    80 0001:0000FDF6    81 0001:0000FDFF    82 0001:0000FE0F    83 0001:0000FE1C
    88 0001:0000FE74    89 0001:0000FE86    90 0001:0000FE8F    91 0001:0000FE9F
    92 0001:0000FEAC    97 0001:0000FF04    98 0001:0000FF16    99 0001:0000FF1F
   100 0001:0000FF2F   101 0001:0000FF3C   109 0001:0000FF94   110 0001:0000FFAE
   112 0001:0000FFB8   113 0001:0000FFC9   114 0001:0000FFEA   115 0001:0000FFFF
   116 0001:00010005   117 0001:0001001F   113 0001:00010022   119 0001:00010025
   126 0001:00010048   127 0001:00010052   129 0001:0001005B   130 0001:00010070
   131 0001:00010085   132 0001:00010093   133 0001:000100B4   134 0001:000100BB
   135 0001:000100D6   136 0001:000100E5   137 0001:000100EB   138 0001:00010100
   134 0001:00010103   141 0001:00010108   144 0001:00010116   147 0001:00010130
   148 0001:00010133   149 0001:0001013A   150 0001:0001014C   151 0001:00010158
   153 0001:00010164

Line numbers for BisDesignHbookInterfaceEditFm(imdesign.bpl\BisDesignHbookInterfaceEditFm.pas) segment .itext

   155 0002:000003BC

Line numbers for BisDesignHbookInterfacesFm(imdesign.bpl\BisDesignHbookInterfacesFm.pas) segment .text

    40 0001:00010560    41 0001:00010572    42 0001:0001057B    43 0001:00010583
    44 0001:0001058A    45 0001:0001058E    46 0001:00010595    51 0001:000105B0
    52 0001:000105C2    53 0001:000105CB    54 0001:000105D6    56 0001:000105EE
    60 0001:00010608    61 0001:0001060D

Line numbers for BisDesignHbookInterfacesFm(imdesign.bpl\BisDesignHbookInterfacesFm.pas) segment .itext

    63 0002:000003C4

Line numbers for BisDesignHbookReportEditFm(imdesign.bpl\BisDesignHbookReportEditFm.pas) segment .text

    83 0001:00010F9C    84 0001:00010FCF    85 0001:00010FDB    86 0001:00010FE3
    87 0001:00010FE9    88 0001:00011001    89 0001:00011019    90 0001:00011040
    91 0001:0001105A    92 0001:00011072    93 0001:00011096    94 0001:000110BA
    96 0001:000110CC   101 0001:0001128C   102 0001:0001129E   103 0001:000112A7
   104 0001:000112B7   105 0001:000112C4   110 0001:0001130C   111 0001:0001131E
   112 0001:00011327   113 0001:00011337   114 0001:00011344   119 0001:0001138C
   120 0001:0001139E   121 0001:000113A7   122 0001:000113B7   123 0001:000113C4
   131 0001:0001140C   132 0001:00011426   134 0001:00011430   135 0001:00011441
   136 0001:0001145F   137 0001:00011471   138 0001:00011480   139 0001:0001149A
   135 0001:0001149D   141 0001:000114A0   142 0001:000114B3   145 0001:000114D4
   146 0001:000114DF   147 0001:000114EA   148 0001:000114F6   151 0001:00011504
   152 0001:0001151E   153 0001:00011525   154 0001:0001152E   155 0001:00011570
   157 0001:000115AD   159 0001:000115EA   160 0001:00011602   161 0001:0001161A
   162 0001:00011632   165 0001:000116A0   166 0001:000116BC   167 0001:000116D2
   168 0001:000116E0   169 0001:000116EE   171 0001:0001173C   174 0001:00011760
   182 0001:0001179C   183 0001:000117C0   184 0001:000117D0   185 0001:000117E0
   186 0001:000117F1   187 0001:00011802   188 0001:0001180A   189 0001:0001181B
   190 0001:00011829   191 0001:0001183B   192 0001:00011847   193 0001:00011850
   194 0001:0001185D   195 0001:0001186A   197 0001:00011877   198 0001:000118A4
   199 0001:000118AC   200 0001:000118C4   201 0001:000118CD   202 0001:000118EC
   203 0001:0001190C   206 0001:00011939   210 0001:00011949   215 0001:00011A08
   216 0001:00011A2C   217 0001:00011A35   218 0001:00011A46   219 0001:00011A72
   221 0001:00011A7B   222 0001:00011A8C   226 0001:00011AD4   227 0001:00011AE9
   228 0001:00011B0D   229 0001:00011B5A   232 0001:00011BA2   233 0001:00011BBA
   234 0001:00011BD2   235 0001:00011C29   237 0001:00011C4D   238 0001:00011C62
   239 0001:00011C6C   240 0001:00011C7B   241 0001:00011CD9   242 0001:00011D06
   243 0001:00011D1D   244 0001:00011D3F   246 0001:00011D57   251 0001:00011E84
   252 0001:00011EA1   253 0001:00011EBB   254 0001:00011EBF   255 0001:00011ECE
   256 0001:00011EDD   257 0001:00011EF7   258 0001:00011F1A   261 0001:00011F21
   266 0001:00011F64   267 0001:00011F83   268 0001:00011F9D   269 0001:00011FA5
   270 0001:00011FC6   271 0001:00011FD5   272 0001:00011FE4   273 0001:00011FFE
   276 0001:0001203C   281 0001:0001208C   282 0001:00012090   283 0001:000120AA
   284 0001:000120AE   285 0001:000120B5   287 0001:000120BC   290 0001:000120D0
   291 0001:000120F2   292 0001:00012103   293 0001:00012139   294 0001:00012147
   296 0001:0001214B   297 0001:00012156   301 0001:00012194   302 0001:00012199
   307 0001:0001219C   308 0001:000121A1   309 0001:000121A3   310 0001:000121B4
   311 0001:000121D1   312 0001:000121D5   314 0001:000121DB   322 0001:000121E4
   323 0001:00012205   324 0001:0001221F   326 0001:00012244   327 0001:00012253
   328 0001:00012262   329 0001:00012272   330 0001:00012280   331 0001:0001228F
   332 0001:0001229C   333 0001:000122A8   335 0001:000122B4   336 0001:000122C1
   337 0001:000122CE   339 0001:000122E3   341 0001:000122F7   342 0001:00012307
   345 0001:00012317   354 0001:00012354   355 0001:00012378   356 0001:00012385
   357 0001:0001238F   358 0001:000123AC   359 0001:000123BC   360 0001:000123CB
   361 0001:000123D9   362 0001:000123EA   363 0001:000123FF   364 0001:00012406
   365 0001:00012424   366 0001:00012475   367 0001:00012491   368 0001:000124A3
   369 0001:000124AB   371 0001:000124B7   372 0001:000124CE   373 0001:000124DA
   376 0001:000124E5   377 0001:000124F1   378 0001:00012507   379 0001:00012519
   380 0001:00012526   381 0001:00012532   382 0001:00012539   384 0001:0001254B
   385 0001:00012558   386 0001:00012560   389 0001:00012570   392 0001:000125EC
   393 0001:000125EF   394 0001:000125F6   395 0001:00012608   396 0001:00012614
   398 0001:00012620

Line numbers for BisDesignHbookReportEditFm(imdesign.bpl\BisDesignHbookReportEditFm.pas) segment .itext

   401 0002:000003CC

Line numbers for BisDesignHbookScriptEditFm(imdesign.bpl\BisDesignHbookScriptEditFm.pas) segment .text

    77 0001:00012F88    78 0001:00012FBB    79 0001:00012FC7    80 0001:00012FCF
    81 0001:00012FD5    82 0001:00012FED    83 0001:00013005    84 0001:0001302C
    85 0001:00013046    86 0001:0001305E    87 0001:00013082    88 0001:000130A6
    90 0001:000130B8    95 0001:00013278    96 0001:0001328A    97 0001:00013293
    98 0001:000132A3    99 0001:000132B0   104 0001:000132F8   105 0001:0001330A
   106 0001:00013313   107 0001:00013323   108 0001:00013330   113 0001:00013378
   114 0001:0001338A   115 0001:00013393   116 0001:000133A3   117 0001:000133B0
   125 0001:000133F8   126 0001:00013412   128 0001:0001341C   129 0001:0001342D
   130 0001:0001344B   131 0001:0001345D   132 0001:00013469   133 0001:00013483
   129 0001:00013486   135 0001:00013489   136 0001:0001349C   139 0001:000134C0
   140 0001:000134CB   141 0001:000134D7   144 0001:000134E8   145 0001:00013502
   146 0001:00013509   147 0001:00013512   148 0001:00013554   150 0001:00013591
   151 0001:000135A9   153 0001:000135E6   154 0001:000135FE   157 0001:0001366C
   158 0001:00013688   159 0001:0001369E   160 0001:000136AC   161 0001:000136BA
   163 0001:00013708   166 0001:0001372C   174 0001:00013768   175 0001:0001378C
   176 0001:0001379C   177 0001:000137AC   178 0001:000137BD   179 0001:000137CE
   180 0001:000137D6   181 0001:000137E7   182 0001:000137F5   183 0001:00013807
   184 0001:00013813   185 0001:0001381C   186 0001:00013829   187 0001:00013836
   189 0001:00013843   190 0001:00013870   191 0001:00013878   192 0001:00013890
   193 0001:00013899   194 0001:000138B8   195 0001:000138D8   198 0001:00013905
   202 0001:00013915   207 0001:000139D4   208 0001:000139F8   209 0001:00013A01
   210 0001:00013A12   211 0001:00013A3E   213 0001:00013A47   214 0001:00013A5C
   215 0001:00013A80   216 0001:00013ACD   217 0001:00013B24   219 0001:00013B48
   220 0001:00013B5D   221 0001:00013B67   222 0001:00013B76   223 0001:00013BD4
   224 0001:00013C01   225 0001:00013C18   226 0001:00013C3A   228 0001:00013C52
   233 0001:00013D70   234 0001:00013D8D   235 0001:00013DA7   236 0001:00013DAB
   237 0001:00013DBA   238 0001:00013DC9   239 0001:00013DE3   240 0001:00013E06
   243 0001:00013E0D   248 0001:00013E50   249 0001:00013E6F   250 0001:00013E89
   251 0001:00013E91   252 0001:00013EB2   253 0001:00013EC1   254 0001:00013ED0
   255 0001:00013EEA   258 0001:00013F28   263 0001:00013F78   264 0001:00013F7C
   265 0001:00013F96   266 0001:00013F9A   267 0001:00013FA1   269 0001:00013FA8
   272 0001:00013FBC   273 0001:00013FDE   274 0001:00013FEF   275 0001:00014025
   276 0001:00014033   278 0001:00014037   279 0001:00014042   282 0001:00014080
   283 0001:00014083   284 0001:0001408A   285 0001:0001409C   286 0001:000140A8
   288 0001:000140B4

Line numbers for BisDesignHbookScriptEditFm(imdesign.bpl\BisDesignHbookScriptEditFm.pas) segment .itext

   291 0002:000003D4

Line numbers for BisDesignHbookDocumentEditFm(imdesign.bpl\BisDesignHbookDocumentEditFm.pas) segment .text

    78 0001:00014A3C    79 0001:00014A6F    80 0001:00014A7B    81 0001:00014A83
    82 0001:00014A89    83 0001:00014AA1    84 0001:00014AB9    85 0001:00014AE0
    86 0001:00014AFA    87 0001:00014B12    88 0001:00014B36    89 0001:00014B50
    91 0001:00014B62    96 0001:00014D30    97 0001:00014D42    98 0001:00014D4B
    99 0001:00014D5B   100 0001:00014D68   105 0001:00014DB4   106 0001:00014DC6
   107 0001:00014DCF   108 0001:00014DDF   109 0001:00014DEC   114 0001:00014E38
   115 0001:00014E4A   116 0001:00014E53   117 0001:00014E63   118 0001:00014E70
   123 0001:00014EBC   124 0001:00014ECE   125 0001:00014ED7   128 0001:00014EF4
   129 0001:00014EFF   130 0001:00014F0B   133 0001:00014F1C   134 0001:00014F36
   135 0001:00014F3D   136 0001:00014F46   137 0001:00014F88   139 0001:00014FC5
   140 0001:00014FDD   141 0001:00014FF5   142 0001:0001500D   145 0001:0001506C
   146 0001:00015088   147 0001:0001509E   148 0001:000150AC   149 0001:000150BA
   151 0001:00015108   154 0001:0001512C   162 0001:0001516C   163 0001:00015190
   164 0001:000151A0   165 0001:000151B0   166 0001:000151C1   167 0001:000151D2
   168 0001:000151DA   169 0001:000151EB   170 0001:000151F9   171 0001:0001520B
   172 0001:00015217   173 0001:00015220   174 0001:0001522D   175 0001:0001523A
   177 0001:00015247   178 0001:00015274   179 0001:0001527C   180 0001:00015294
   181 0001:0001529D   182 0001:000152BC   183 0001:000152DC   186 0001:00015309
   190 0001:00015319   195 0001:000153E8   196 0001:0001540C   198 0001:00015415
   199 0001:00015426   200 0001:00015452   203 0001:0001545B   204 0001:00015470
   205 0001:00015494   206 0001:000154E1   208 0001:00015508   209 0001:00015520
   210 0001:00015577   213 0001:0001559B   214 0001:000155B0   215 0001:000155BA
   216 0001:000155C9   217 0001:00015627   218 0001:00015654   219 0001:0001566B
   220 0001:0001568D   223 0001:000156A5   230 0001:000157C8   234 0001:000157ED
   235 0001:000157FE   236 0001:0001580C   237 0001:00015816   238 0001:00015820
   239 0001:0001582D   241 0001:00015844   243 0001:00015854   248 0001:00015878
   249 0001:00015899   250 0001:000158B3   251 0001:000158C6   252 0001:000158D5
   253 0001:000158EF   254 0001:00015912   255 0001:0001592C   257 0001:0001595C
   262 0001:000159D0   263 0001:000159EF   264 0001:00015A09   265 0001:00015A2A
   266 0001:00015A39   267 0001:00015A48   268 0001:00015A62   270 0001:00015AA0
   273 0001:00015AF4   274 0001:00015AF7   275 0001:00015B14   278 0001:00015B2C
   279 0001:00015B4E   280 0001:00015B5F   281 0001:00015B95   282 0001:00015BA3
   284 0001:00015BA7   285 0001:00015BB2   288 0001:00015BF4   289 0001:00015BF7
   290 0001:00015BFE   291 0001:00015C10   292 0001:00015C1C   294 0001:00015C28

Line numbers for BisDesignHbookDocumentEditFm(imdesign.bpl\BisDesignHbookDocumentEditFm.pas) segment .itext

   296 0002:000003DC

Line numbers for BisDesignHbookInterfacesFrm(imdesign.bpl\BisDesignHbookInterfacesFrm.pas) segment .text

    73 0001:00016138    74 0001:00016165    75 0001:0001616A    76 0001:00016178
    77 0001:00016184    78 0001:000161A5    79 0001:000161B6    80 0001:000161C5
    81 0001:000161C8    84 0001:000161CA    85 0001:000161CD    88 0001:000161CF
    75 0001:000161D0    89 0001:000161D3    95 0001:00016204    96 0001:0001622F
    97 0001:00016234    98 0001:00016242    99 0001:0001624E   100 0001:00016263
   101 0001:00016275   102 0001:00016278   105 0001:0001627A    97 0001:0001627B
   106 0001:0001627E   111 0001:000162A8   112 0001:000162DD   114 0001:000162E6
   116 0001:000162F8   118 0001:00016303   119 0001:00016314   120 0001:00016325
   121 0001:00016336   123 0001:00016347   124 0001:0001634D   125 0001:0001635D
   126 0001:00016363   127 0001:0001636F   128 0001:0001637B   129 0001:00016387
   130 0001:00016393   131 0001:0001639F   132 0001:000163B5   134 0001:000163D2
   137 0001:000163E4   138 0001:000163F0   141 0001:000163F7   142 0001:0001640D
   145 0001:00016439   146 0001:00016452   149 0001:00016481   150 0001:0001649A
   153 0001:000164C9   154 0001:000164E2   157 0001:00016511   160 0001:00016684
   161 0001:0001668F   162 0001:0001669A   163 0001:000166A6   168 0001:000166B4
   169 0001:000166D0   170 0001:000166D7   171 0001:000166F0   172 0001:00016701
   173 0001:0001670B   176 0001:0001675C   177 0001:00016760   178 0001:00016762
   179 0001:00016780   181 0001:00016797   190 0001:000167C0   191 0001:000167E1
   192 0001:000167E6   193 0001:0001680C   194 0001:00016824   195 0001:0001683C
   196 0001:00016862   197 0001:00016879   198 0001:0001688E   199 0001:000168A5
   200 0001:000168B2   201 0001:000168C1   202 0001:000168CB   204 0001:000168CD
   198 0001:000168D0   206 0001:000168D3   195 0001:000168D6   208 0001:000168DB
   216 0001:0001694C   217 0001:0001697B   218 0001:00016980   219 0001:000169A6
   220 0001:000169B7   221 0001:000169C5   222 0001:000169D7   223 0001:000169EA
   224 0001:00016A0D   225 0001:00016A15   226 0001:00016A2D   227 0001:00016A42
   228 0001:00016A5B   229 0001:00016A6E   230 0001:00016A83   231 0001:00016A89
   233 0001:00016A90   227 0001:00016A91   236 0001:00016AA1   239 0001:00016AB1
   247 0001:00016B2C   248 0001:00016B5B   249 0001:00016B60   250 0001:00016B86
   251 0001:00016B97   252 0001:00016BA5   253 0001:00016BB7   254 0001:00016BCA
   255 0001:00016BED   256 0001:00016BF5   257 0001:00016C0D   258 0001:00016C22
   259 0001:00016C3B   260 0001:00016C4E   261 0001:00016C63   262 0001:00016C69
   264 0001:00016C70   258 0001:00016C71   267 0001:00016C81   270 0001:00016C91
   275 0001:00016D0C   276 0001:00016D3D   277 0001:00016D42   278 0001:00016D68
   279 0001:00016D79   280 0001:00016D87   281 0001:00016D99   282 0001:00016DAC
   283 0001:00016DCF   284 0001:00016DD7   285 0001:00016DEF   286 0001:00016E0E
   287 0001:00016E16   290 0001:00016E2A   293 0001:00016E3A   298 0001:00016EC0
   299 0001:00016EC1   300 0001:00016EC3   301 0001:00016EC8   302 0001:00016ED8
   303 0001:00016EE0   304 0001:00016EE8   305 0001:00016EF0   307 0001:00016EF6
   312 0001:00016EFC   313 0001:00016EFD   314 0001:00016EFF   315 0001:00016F04
   316 0001:00016F14   317 0001:00016F1C   318 0001:00016F24   319 0001:00016F2C
   321 0001:00016F32   326 0001:00016F38   327 0001:00016F39   328 0001:00016F3B
   329 0001:00016F40   330 0001:00016F50   331 0001:00016F58   332 0001:00016F60
   333 0001:00016F68   335 0001:00016F6E   338 0001:00016F74   339 0001:00016F77
   340 0001:00016F8B   344 0001:00016F90   345 0001:00016F95   348 0001:00016F98
   349 0001:00016F9B   350 0001:00016FAF   354 0001:00016FB4   355 0001:00016FB9
   358 0001:00016FBC   359 0001:00016FBF   360 0001:00016FE3   371 0001:00016FE8
   372 0001:00016FF0   373 0001:00016FF8   374 0001:00017013   375 0001:00017017
   376 0001:00017026   377 0001:0001702D   378 0001:00017040   380 0001:00017047
   382 0001:00017055   383 0001:00017068   385 0001:00017078   386 0001:00017089
   388 0001:00017097   389 0001:000170A8   391 0001:000170B9   392 0001:000170CA
   393 0001:000170DD   396 0001:000170EE   397 0001:000170FD   399 0001:00017106
   400 0001:00017117   402 0001:00017120   405 0001:00017127   410 0001:0001712C
   411 0001:00017149   412 0001:00017159   413 0001:00017174   414 0001:0001718F
   415 0001:00017199   416 0001:0001719B   417 0001:000171AC   418 0001:000171B6
   419 0001:000171C3   420 0001:000171D0   422 0001:000171DE   424 0001:000171E5
   427 0001:00017248   428 0001:0001724B   429 0001:0001726F   436 0001:00017274
   437 0001:00017296   438 0001:000172A5   439 0001:000172BD   440 0001:000172D5
   441 0001:000172E5   442 0001:000172E9   443 0001:000172F9   444 0001:00017300
   445 0001:0001730E   446 0001:0001731C   447 0001:00017323   448 0001:00017330
   449 0001:00017337   451 0001:00017357   452 0001:00017392   453 0001:0001739C
   454 0001:000173A5   455 0001:000173AE   457 0001:000173B5

Line numbers for BisDesignHbookInterfacesFrm(imdesign.bpl\BisDesignHbookInterfacesFrm.pas) segment .itext

   459 0002:000003E4

Line numbers for BisDesignHbookPermissionEditFm(imdesign.bpl\BisDesignHbookPermissionEditFm.pas) segment .text

    75 0001:00017D38    76 0001:00017D4B    77 0001:00017D54    78 0001:00017D5C
    79 0001:00017D62    80 0001:00017D7A    82 0001:00017DA8    84 0001:00017DD9
    85 0001:00017DF1    87 0001:00017E09    90 0001:00017FD8    91 0001:00017FDC
    92 0001:00017FE5    94 0001:00017FE9    95 0001:00017FF2    98 0001:00018018
   103 0001:00018038   104 0001:0001804A   105 0001:00018053   106 0001:00018063
   111 0001:00018098   112 0001:000180AA   113 0001:000180B3   114 0001:000180C3
   119 0001:000180F8   120 0001:0001810A   121 0001:00018113   122 0001:00018123
   127 0001:00018158   128 0001:00018163   129 0001:00018174   130 0001:00018180
   133 0001:00018190   134 0001:00018193   135 0001:0001819A   136 0001:000181AC
   137 0001:000181B8   139 0001:000181C4   144 0001:000181C8   145 0001:000181CC
   146 0001:000181D5   147 0001:000181E4   148 0001:000181FC   149 0001:00018200
   151 0001:00018207   158 0001:00018220   159 0001:0001822E   160 0001:00018234
   161 0001:00018249   162 0001:00018258   163 0001:00018268   164 0001:00018271
   165 0001:0001827F   160 0001:00018280   167 0001:00018283   178 0001:0001828C
   179 0001:00018290   180 0001:000182AA   181 0001:000182B4   182 0001:000182C2
   184 0001:000182D4   193 0001:000182D8   194 0001:000182F1   195 0001:00018302
   196 0001:00018310   197 0001:0001831A   198 0001:0001832C   199 0001:00018335
   201 0001:0001833F   202 0001:00018365   203 0001:0001836D   204 0001:0001838D
   205 0001:000183A2   206 0001:000183B4   207 0001:000183BE   208 0001:000183C1
   209 0001:000183C5   210 0001:000183CF   211 0001:000183DD   212 0001:000183E5
   214 0001:00018406   220 0001:00018423   222 0001:00018433   231 0001:000184A0
   232 0001:000184B9   233 0001:000184CA   234 0001:000184D8   235 0001:000184E2
   236 0001:000184F4   237 0001:000184FD   239 0001:00018507   240 0001:0001852D
   241 0001:00018535   242 0001:00018555   243 0001:0001856A   244 0001:0001857C
   245 0001:00018586   246 0001:00018589   247 0001:0001858D   248 0001:00018597
   249 0001:000185A5   250 0001:000185AD   252 0001:000185CE   258 0001:000185EB
   260 0001:000185FB   265 0001:00018668   266 0001:0001866C   267 0001:0001867D
   268 0001:0001868B   269 0001:00018693   271 0001:000186B4   273 0001:000186C4
   278 0001:000186C8   279 0001:000186FE   280 0001:0001870E   281 0001:0001871F
   282 0001:0001872D   283 0001:00018737   284 0001:00018749   285 0001:00018752
   286 0001:0001875E   287 0001:0001876A   289 0001:00018776   290 0001:00018799
   291 0001:000187A1   292 0001:000187B9   293 0001:000187CD   294 0001:000187E2
   295 0001:000187F7   296 0001:00018808   297 0001:00018811   298 0001:0001881A
   299 0001:00018823   303 0001:00018837   306 0001:00018847   314 0001:00018958
   315 0001:0001897C   317 0001:00018985   318 0001:0001899A   319 0001:000189AB
   320 0001:000189B9   321 0001:000189E3   322 0001:000189E7   323 0001:000189EC
   324 0001:000189F0   326 0001:00018A07   328 0001:00018A29   331 0001:00018A49
   332 0001:00018A5E   333 0001:00018A6F   334 0001:00018A7D   335 0001:00018A9D
   336 0001:00018AA3   337 0001:00018ABD   338 0001:00018AE2   336 0001:00018AE5
   341 0001:00018AEA   344 0001:00018AF8

Line numbers for BisDesignHbookPermissionEditFm(imdesign.bpl\BisDesignHbookPermissionEditFm.pas) segment .itext

   346 0002:000003EC

Line numbers for BisDesignHbookPermissionsFm(imdesign.bpl\BisDesignHbookPermissionsFm.pas) segment .text

    54 0001:000191E8    55 0001:00019206    56 0001:0001920F    57 0001:00019217
    58 0001:0001922C    59 0001:00019241    60 0001:0001924F    61 0001:00019279
    62 0001:00019288    63 0001:00019299    66 0001:000192A0    71 0001:000192F8
    72 0001:00019326    73 0001:0001932F    74 0001:00019345    75 0001:0001934D
    76 0001:00019358    77 0001:00019365    78 0001:00019370    79 0001:0001937B
    80 0001:00019382    81 0001:00019386    82 0001:00019396    83 0001:0001939C
    84 0001:000193A8    85 0001:000193B4    86 0001:000193C0    87 0001:000193D3
    88 0001:000193E9    89 0001:000193FC    91 0001:0001940F    92 0001:00019421
    93 0001:00019433    94 0001:00019445    97 0001:0001958C    98 0001:00019591
    99 0001:0001959A   101 0001:0001959E   102 0001:000195B7   105 0001:000195CE
   111 0001:000195D4   112 0001:000195D9

Line numbers for BisDesignHbookPermissionsFm(imdesign.bpl\BisDesignHbookPermissionsFm.pas) segment .itext

   114 0002:000003F4

Line numbers for BisDesignHbookApplicationInterfaceEditFm(imdesign.bpl\BisDesignHbookApplicationInterfaceEditFm.pas) segment .text

    65 0001:00019F88    66 0001:00019F9B    67 0001:00019FA4    68 0001:00019FAC
    70 0001:00019FB2    71 0001:00019FED    73 0001:0001A025    75 0001:0001A060
    76 0001:0001A078    78 0001:0001A089    83 0001:0001A2DC    84 0001:0001A2EE
    85 0001:0001A2F7    86 0001:0001A307    91 0001:0001A344    92 0001:0001A356
    93 0001:0001A35F    94 0001:0001A36F    99 0001:0001A3AC   100 0001:0001A3BE
   101 0001:0001A3C7   102 0001:0001A3D7   109 0001:0001A414   110 0001:0001A418
   111 0001:0001A421   112 0001:0001A430   113 0001:0001A448   114 0001:0001A44C
   116 0001:0001A453   119 0001:0001A470   120 0001:0001A473   121 0001:0001A47A
   122 0001:0001A48C   123 0001:0001A498   125 0001:0001A4A4

Line numbers for BisDesignHbookApplicationInterfaceEditFm(imdesign.bpl\BisDesignHbookApplicationInterfaceEditFm.pas) segment .itext

   127 0002:000003FC

Line numbers for BisDesignHbookApplicationInterfacesFm(imdesign.bpl\BisDesignHbookApplicationInterfacesFm.pas) segment .text

    54 0001:0001AB80    55 0001:0001AB9E    56 0001:0001ABA7    57 0001:0001ABAB
    58 0001:0001ABC0    59 0001:0001ABD5    60 0001:0001ABE3    61 0001:0001AC0D
    64 0001:0001AC1C    69 0001:0001AC78    70 0001:0001ACA6    71 0001:0001ACAF
    72 0001:0001ACC5    73 0001:0001ACCD    74 0001:0001ACD8    75 0001:0001ACE5
    76 0001:0001ACF0    77 0001:0001ACFB    78 0001:0001AD02    79 0001:0001AD06
    80 0001:0001AD16    81 0001:0001AD1C    82 0001:0001AD28    83 0001:0001AD34
    84 0001:0001AD40    85 0001:0001AD53    86 0001:0001AD66    87 0001:0001AD7C
    88 0001:0001AD8F    90 0001:0001ADA2    91 0001:0001ADB4    92 0001:0001ADC6
    93 0001:0001ADD8    96 0001:0001AF64    97 0001:0001AF69    98 0001:0001AF72
   100 0001:0001AF76   101 0001:0001AF8F   104 0001:0001AFA6   110 0001:0001AFAC
   111 0001:0001AFB1

Line numbers for BisDesignHbookApplicationInterfacesFm(imdesign.bpl\BisDesignHbookApplicationInterfacesFm.pas) segment .itext

   113 0002:00000404

Line numbers for BisDesignHbookApplicationsFrm(imdesign.bpl\BisDesignHbookApplicationsFrm.pas) segment .text

    49 0001:0001B438    50 0001:0001B463    51 0001:0001B468    52 0001:0001B476
    53 0001:0001B482    54 0001:0001B497    55 0001:0001B4A9    56 0001:0001B4AC
    59 0001:0001B4AE    51 0001:0001B4AF    60 0001:0001B4B2    65 0001:0001B4DC
    66 0001:0001B4EE    67 0001:0001B4F7    68 0001:0001B509    71 0001:0001B524
    72 0001:0001B52F    73 0001:0001B53A    74 0001:0001B546    78 0001:0001B554
    79 0001:0001B559    82 0001:0001B55C    83 0001:0001B55F    84 0001:0001B573
    89 0001:0001B578    90 0001:0001B581    91 0001:0001B5A8    92 0001:0001B5AE
    93 0001:0001B5BF    94 0001:0001B5CD    95 0001:0001B5D5    97 0001:0001B5ED
   100 0001:0001B5FD   107 0001:0001B608   108 0001:0001B62A   109 0001:0001B639
   110 0001:0001B651   111 0001:0001B669   112 0001:0001B679   113 0001:0001B67D
   114 0001:0001B68D   115 0001:0001B69B   116 0001:0001B6A9   117 0001:0001B6B0
   118 0001:0001B6BD   119 0001:0001B6C4   121 0001:0001B6E4   122 0001:0001B71F
   123 0001:0001B729   124 0001:0001B732   125 0001:0001B73B   127 0001:0001B742

Line numbers for BisDesignHbookApplicationsFrm(imdesign.bpl\BisDesignHbookApplicationsFrm.pas) segment .itext

   130 0002:0000040C

Line numbers for BisDesignHbookApplicationsFm(imdesign.bpl\BisDesignHbookApplicationsFm.pas) segment .text

    36 0001:0001BB70    37 0001:0001BB87    38 0001:0001BB90    39 0001:0001BB98
    40 0001:0001BBA3    41 0001:0001BBB0    42 0001:0001BBBB    43 0001:0001BBC6
    44 0001:0001BBCD    45 0001:0001BBD1    46 0001:0001BBE1    47 0001:0001BBE7
    48 0001:0001BBF3    49 0001:0001BC09    50 0001:0001BC1F    52 0001:0001BC2B
    53 0001:0001BC3D    59 0001:0001BCEC    60 0001:0001BCF1

Line numbers for BisDesignHbookApplicationsFm(imdesign.bpl\BisDesignHbookApplicationsFm.pas) segment .itext

    62 0002:00000414

Line numbers for BisDesignHbookAccountRoleEditFm(imdesign.bpl\BisDesignHbookAccountRoleEditFm.pas) segment .text

    57 0001:0001C57C    58 0001:0001C593    59 0001:0001C59C    60 0001:0001C5A4
    62 0001:0001C5AA    63 0001:0001C5E8    66 0001:0001C620    71 0001:0001C730
    72 0001:0001C742    73 0001:0001C74B    74 0001:0001C75B    79 0001:0001C790
    80 0001:0001C7A2    81 0001:0001C7AB    82 0001:0001C7BB    87 0001:0001C7F0
    88 0001:0001C802    89 0001:0001C80B    90 0001:0001C81B    95 0001:0001C850
    96 0001:0001C853    97 0001:0001C85A    98 0001:0001C86C    99 0001:0001C878
   101 0001:0001C884

Line numbers for BisDesignHbookAccountRoleEditFm(imdesign.bpl\BisDesignHbookAccountRoleEditFm.pas) segment .itext

   103 0002:0000041C

Line numbers for BisDesignHbookAccountRolesFm(imdesign.bpl\BisDesignHbookAccountRolesFm.pas) segment .text

    34 0001:0001CC20    35 0001:0001CC37    36 0001:0001CC40    37 0001:0001CC48
    38 0001:0001CC53    39 0001:0001CC60    40 0001:0001CC6B    41 0001:0001CC76
    42 0001:0001CC7D    43 0001:0001CC81    44 0001:0001CC91    45 0001:0001CC97
    46 0001:0001CCA3    47 0001:0001CCAF    48 0001:0001CCC5    50 0001:0001CCDB
    51 0001:0001CCED    52 0001:0001CCFF

Line numbers for BisDesignHbookAccountRolesFm(imdesign.bpl\BisDesignHbookAccountRolesFm.pas) segment .itext

    54 0002:00000424

Line numbers for BisDesignHbookProfileEditFm(imdesign.bpl\BisDesignHbookProfileEditFm.pas) segment .text

    58 0001:0001D614    59 0001:0001D62B    60 0001:0001D634    61 0001:0001D63C
    63 0001:0001D642    64 0001:0001D67D    66 0001:0001D6B5    68 0001:0001D6CD
    73 0001:0001D854    74 0001:0001D866    75 0001:0001D86F    76 0001:0001D87F
    81 0001:0001D8B0    82 0001:0001D8C2    83 0001:0001D8CB    84 0001:0001D8DB
    89 0001:0001D90C    90 0001:0001D91E    91 0001:0001D927    92 0001:0001D937

Line numbers for BisDesignHbookProfileEditFm(imdesign.bpl\BisDesignHbookProfileEditFm.pas) segment .itext

    94 0002:0000042C

Line numbers for BisDesignHbookProfilesFm(imdesign.bpl\BisDesignHbookProfilesFm.pas) segment .text

    34 0001:0001DCE8    35 0001:0001DCFF    36 0001:0001DD08    37 0001:0001DD10
    38 0001:0001DD1B    39 0001:0001DD28    40 0001:0001DD33    41 0001:0001DD3E
    42 0001:0001DD45    43 0001:0001DD49    44 0001:0001DD59    45 0001:0001DD5F
    46 0001:0001DD6B    47 0001:0001DD77    48 0001:0001DD83    49 0001:0001DD99
    51 0001:0001DDAF    52 0001:0001DDC1    53 0001:0001DDD3

Line numbers for BisDesignHbookProfilesFm(imdesign.bpl\BisDesignHbookProfilesFm.pas) segment .itext

    55 0002:00000434

Line numbers for BisDesignHbookSessionsFm(imdesign.bpl\BisDesignHbookSessionsFm.pas) segment .text

    53 0001:0001E4FC    54 0001:0001E50E    55 0001:0001E517    56 0001:0001E527
    61 0001:0001E564    62 0001:0001E580    63 0001:0001E5B0    64 0001:0001E5C8
    65 0001:0001E5D9    66 0001:0001E5E7    67 0001:0001E5F9    68 0001:0001E608
    69 0001:0001E642    70 0001:0001E64A    72 0001:0001E65F    76 0001:0001E66F
    84 0001:0001E6F0    85 0001:0001E70E    86 0001:0001E73E    87 0001:0001E74F
    88 0001:0001E760    89 0001:0001E76E    90 0001:0001E780    91 0001:0001E793
    92 0001:0001E7CE    93 0001:0001E7D6    94 0001:0001E7EE    95 0001:0001E81A
    96 0001:0001E82A    97 0001:0001E837    99 0001:0001E84F   100 0001:0001E857
   103 0001:0001E867   108 0001:0001E910   109 0001:0001E927   110 0001:0001E930
   111 0001:0001E938   112 0001:0001E943   113 0001:0001E94E   114 0001:0001E955
   115 0001:0001E959   116 0001:0001E969   117 0001:0001E96F   118 0001:0001E97B
   119 0001:0001E987   120 0001:0001E993   121 0001:0001E9A6   122 0001:0001E9B9
   123 0001:0001E9CC   125 0001:0001E9DF   126 0001:0001E9F1   127 0001:0001EA03
   128 0001:0001EA15   135 0001:0001EB3C   136 0001:0001EB72   137 0001:0001EB7B
   139 0001:0001EB8A   140 0001:0001EB93   141 0001:0001EBA0   142 0001:0001EBAD
   143 0001:0001EBBA   146 0001:0001EBD0   148 0001:0001EBE9   149 0001:0001EBFC
   150 0001:0001EC0B   151 0001:0001EC31   153 0001:0001EC68   156 0001:0001EC71
   157 0001:0001EC84   161 0001:0001ECB7   169 0001:0001ED34   170 0001:0001ED4F
   171 0001:0001ED66   172 0001:0001ED6A   173 0001:0001ED76   174 0001:0001ED85
   175 0001:0001ED94   177 0001:0001EDA1

Line numbers for BisDesignHbookSessionsFm(imdesign.bpl\BisDesignHbookSessionsFm.pas) segment .itext

   179 0002:0000043C

Line numbers for BisDesignHbookMenuEditFm(imdesign.bpl\BisDesignHbookMenuEditFm.pas) segment .text

   104 0001:0001F9A8   105 0001:0001F9C0   106 0001:0001F9C9   107 0001:0001F9D1
   108 0001:0001F9D7   109 0001:0001F9E7   110 0001:0001F9F3   112 0001:0001F9FD
   114 0001:0001FA31   115 0001:0001FA4B   116 0001:0001FA63   117 0001:0001FA7B
   118 0001:0001FA93   120 0001:0001FAC4   122 0001:0001FAD2   128 0001:0001FD10
   129 0001:0001FD34   130 0001:0001FD44   131 0001:0001FD4C   132 0001:0001FD5D
   133 0001:0001FD6B   134 0001:0001FD7D   135 0001:0001FD90   136 0001:0001FDBD
   137 0001:0001FDC5   138 0001:0001FDDD   141 0001:0001FE14   144 0001:0001FE24
   149 0001:0001FEA0   150 0001:0001FEB2   151 0001:0001FEBB   152 0001:0001FECB
   155 0001:0001FEF8   156 0001:0001FF18   157 0001:0001FF21   158 0001:0001FF29
   159 0001:0001FF55   160 0001:0001FF62   161 0001:0001FF96   165 0001:0001FFCA
   170 0001:00020058   171 0001:0002006A   172 0001:00020073   173 0001:00020083
   174 0001:00020090   178 0001:000200DC   179 0001:000200FC   180 0001:00020105
   181 0001:0002010D   182 0001:00020139   183 0001:00020146   184 0001:0002017A
   188 0001:000201AE   193 0001:0002022C   194 0001:0002023E   195 0001:00020247
   196 0001:00020257   201 0001:00020284   202 0001:00020296   203 0001:0002029F
   204 0001:000202AF   209 0001:000202DC   210 0001:000202EE   211 0001:000202F7
   212 0001:000202FE   213 0001:0002030B   214 0001:00020312   221 0001:0002032C
   222 0001:00020355   223 0001:00020360   224 0001:00020378   225 0001:00020383
   226 0001:00020389   228 0001:000203A1   229 0001:000203B0   230 0001:000203BE
   231 0001:000203C9   232 0001:000203D5   234 0001:000203F9   237 0001:00020409
   238 0001:0002041B   239 0001:00020430   241 0001:0002044E   242 0001:00020462
   243 0001:0002047F   244 0001:00020496   246 0001:000204AB   249 0001:00020508
   250 0001:0002050B   251 0001:00020525   256 0001:00020528   257 0001:0002052F
   258 0001:00020534   261 0001:00020538   262 0001:0002053B   263 0001:00020542
   264 0001:0002054F   265 0001:0002055C   268 0001:00020569   269 0001:00020570
   274 0001:00020574   275 0001:00020578   276 0001:00020592   277 0001:00020596
   278 0001:0002059D   280 0001:000205A4   285 0001:000205B8   286 0001:000205CF
   287 0001:000205E9   288 0001:000205ED   289 0001:000205FC   290 0001:00020614
   293 0001:0002061B   299 0001:00020650   300 0001:00020669   301 0001:00020683
   302 0001:00020687   303 0001:000206A8   304 0001:000206B7   306 0001:000206CF
   312 0001:0002070C   313 0001:0002072A   314 0001:0002073E   315 0001:00020752
   316 0001:00020763   317 0001:00020771   318 0001:00020783   319 0001:0002078C
   320 0001:00020798   322 0001:000207A4   323 0001:000207AC   324 0001:000207B8
   326 0001:000207C2   327 0001:000207D0   328 0001:000207F0   329 0001:0002081E
   325 0001:00020826   333 0001:0002083F   334 0001:00020847   336 0001:00020863
   345 0001:00020904   346 0001:00020927   347 0001:00020944   348 0001:0002095B
   349 0001:0002096F   350 0001:00020980   351 0001:0002098E   352 0001:000209A0
   353 0001:000209B3   354 0001:000209E0   355 0001:000209E8   356 0001:000209F8
   358 0001:00020A02   359 0001:00020A17   360 0001:00020A35   361 0001:00020A4D
   362 0001:00020A5C   364 0001:00020A6E   359 0001:00020A6F   365 0001:00020A72
   357 0001:00020A7A   369 0001:00020A97   370 0001:00020A9F   373 0001:00020ABB
   381 0001:00020B50   382 0001:00020B6E   383 0001:00020B88   384 0001:00020B9F
   385 0001:00020BB0   386 0001:00020BBE   387 0001:00020BD0   388 0001:00020BDA
   389 0001:00020BE3   390 0001:00020BFB   391 0001:00020C0B   392 0001:00020C17
   395 0001:00020C2B   396 0001:00020C4B   397 0001:00020C61   398 0001:00020C7E
   399 0001:00020C86   395 0001:00020C89   401 0001:00020C99   404 0001:00020CA9
   412 0001:00020D44   413 0001:00020D62   414 0001:00020D7C   415 0001:00020D93
   416 0001:00020DA4   417 0001:00020DB2   418 0001:00020DC4   419 0001:00020DCE
   420 0001:00020DD7   421 0001:00020DE5   423 0001:00020E07   424 0001:00020E22
   425 0001:00020E33   426 0001:00020E49   427 0001:00020E69   429 0001:00020E71
   423 0001:00020E72   431 0001:00020E82   434 0001:00020E92   439 0001:00020EFC
   440 0001:00020F03   441 0001:00020F12   442 0001:00020F22   443 0001:00020F30
   444 0001:00020F37   445 0001:00020F42   446 0001:00020F49   447 0001:00020F54
   448 0001:00020F5B   449 0001:00020F6D   451 0001:00020F86   453 0001:00020F9E

Line numbers for BisDesignHbookMenuEditFm(imdesign.bpl\BisDesignHbookMenuEditFm.pas) segment .itext

   455 0002:00000444

Line numbers for BisDesignHbookMenusFm(imdesign.bpl\BisDesignHbookMenusFm.pas) segment .text

    34 0001:00021314    35 0001:0002132B    36 0001:00021334    37 0001:0002133C
    38 0001:00021347    39 0001:00021358    40 0001:00021369    41 0001:00021374
    42 0001:0002137F    43 0001:00021386    44 0001:0002138A    45 0001:0002139A
    46 0001:000213A0    47 0001:000213AC    48 0001:000213B8    49 0001:000213C4
    50 0001:000213D0    51 0001:000213DC    52 0001:000213E8    53 0001:000213FE
    54 0001:00021414    56 0001:00021427    57 0001:00021439    58 0001:0002144B

Line numbers for BisDesignHbookMenusFm(imdesign.bpl\BisDesignHbookMenusFm.pas) segment .itext

    60 0002:0000044C

Line numbers for BisDesignHbookReportsFrm(imdesign.bpl\BisDesignHbookReportsFrm.pas) segment .text

    71 0001:00021B3C    72 0001:00021B64    73 0001:00021B69    74 0001:00021B77
    75 0001:00021B83    76 0001:00021BA4    77 0001:00021BB3    78 0001:00021BB6
    81 0001:00021BB8    73 0001:00021BB9    82 0001:00021BBC    90 0001:00021BE4
    91 0001:00021C11    92 0001:00021C16    93 0001:00021C24    94 0001:00021C30
    95 0001:00021C51    96 0001:00021C62    97 0001:00021C71    98 0001:00021C74
   101 0001:00021C76   102 0001:00021C79   105 0001:00021C7B    92 0001:00021C7C
   106 0001:00021C7F   112 0001:00021CB0   113 0001:00021CC2   114 0001:00021CCB
   115 0001:00021CDD   116 0001:00021CEF   119 0001:00021D0C   120 0001:00021D17
   121 0001:00021D22   122 0001:00021D2D   123 0001:00021D39   126 0001:00021D48
   127 0001:00021D4B   128 0001:00021D5F   132 0001:00021D64   133 0001:00021D69
   136 0001:00021D6C   137 0001:00021D6F   138 0001:00021D83   142 0001:00021D88
   143 0001:00021D8D   149 0001:00021D90   150 0001:00021D95   151 0001:00021DA1
   152 0001:00021DAA   153 0001:00021DCE   154 0001:00021DDC   156 0001:00021DEA
   162 0001:00021DF0   163 0001:00021E12   164 0001:00021E17   165 0001:00021E30
   166 0001:00021E43   167 0001:00021E52   168 0001:00021E55   170 0001:00021E57
   164 0001:00021E58   171 0001:00021E5B   177 0001:00021E84   178 0001:00021EA1
   179 0001:00021EA6   180 0001:00021EB2   181 0001:00021ECC   182 0001:00021EEA
   183 0001:00021EF7   185 0001:00021F00   191 0001:00021F3C   192 0001:00021F59
   193 0001:00021F5E   194 0001:00021F6A   195 0001:00021F84   196 0001:00021FA2
   197 0001:00021FAC   199 0001:00021FB2   208 0001:00021FEC   209 0001:0002200F
   210 0001:0002201A   212 0001:00022061   213 0001:00022070   214 0001:00022080
   215 0001:0002208C   216 0001:0002209B   217 0001:000220AC   218 0001:000220BA
   219 0001:000220E2   220 0001:000220F4   221 0001:000220FD   222 0001:00022115
   223 0001:00022123   224 0001:00022131   225 0001:0002213F   227 0001:0002214D
   228 0001:00022163   229 0001:00022170   230 0001:0002217C   232 0001:0002219B
   233 0001:000221A8   234 0001:000221B5   236 0001:000221DF   239 0001:000221F4
   240 0001:000221FC   241 0001:00022204   242 0001:0002220E   245 0001:00022226
   250 0001:000222D8   251 0001:000222E2   252 0001:000222EF   254 0001:0002232A
   255 0001:00022336   256 0001:00022344   257 0001:00022366   260 0001:0002237A
   263 0001:0002238C   275 0001:000223AC   276 0001:000223CE   277 0001:000223DD
   278 0001:000223E9   279 0001:0002240F   280 0001:00022418   281 0001:00022420
   282 0001:0002242F   283 0001:00022440   284 0001:00022445   285 0001:00022453
   286 0001:00022467   287 0001:0002247B   288 0001:0002248E   289 0001:00022494
   290 0001:000224A0   291 0001:000224AE   293 0001:000224B6   294 0001:000224C6
   295 0001:000224D4   296 0001:000224E7   297 0001:000224FA   298 0001:0002250C
   299 0001:0002251F   300 0001:00022542   301 0001:0002254A   302 0001:0002256A
   303 0001:0002257F   304 0001:00022593   306 0001:000225AA   307 0001:000225D7
   308 0001:000225E3   311 0001:000225EE   312 0001:000225FA   313 0001:0002260A
   314 0001:00022616   315 0001:00022623   316 0001:0002262C   317 0001:00022636
   320 0001:0002264B   321 0001:00022653   322 0001:00022659   323 0001:00022664
   328 0001:00022674   334 0001:00022750   335 0001:00022755   336 0001:00022761
   337 0001:0002276A   338 0001:0002278E   339 0001:0002279C   341 0001:000227AA
   349 0001:000227B0   350 0001:000227CE   351 0001:000227DD   352 0001:000227E9
   353 0001:0002280F   354 0001:00022819   355 0001:00022823   356 0001:00022837
   357 0001:0002284A   358 0001:0002284E   359 0001:0002285A   360 0001:00022861
   361 0001:0002286E   363 0001:00022875   364 0001:00022880   365 0001:000228A2
   366 0001:000228AC   367 0001:000228B5   368 0001:000228BE   372 0001:000228C5

Line numbers for BisDesignHbookReportsFrm(imdesign.bpl\BisDesignHbookReportsFrm.pas) segment .itext

   375 0002:00000454

Line numbers for BisDesignHbookReportsFm(imdesign.bpl\BisDesignHbookReportsFm.pas) segment .text

    47 0001:00022CA8    48 0001:00022CBF    49 0001:00022CC8    50 0001:00022CD0
    51 0001:00022CDB    52 0001:00022CE8    53 0001:00022CF3    54 0001:00022CFE
    55 0001:00022D05    56 0001:00022D09    57 0001:00022D19    58 0001:00022D1F
    59 0001:00022D2F    60 0001:00022D3B    61 0001:00022D51    63 0001:00022D64
    64 0001:00022D76    67 0001:00022E20    68 0001:00022E23    69 0001:00022E2A
    72 0001:00022E2C    73 0001:00022E31    74 0001:00022E3A    75 0001:00022E55
    76 0001:00022E5E    79 0001:00022E75    83 0001:00022E7C    84 0001:00022E8A
    89 0001:00022E8C    90 0001:00022E9E    91 0001:00022EA7    94 0001:00022EC4
    95 0001:00022EC7    96 0001:00022ECE   100 0001:00022ED0   101 0001:00022ED5

Line numbers for BisDesignHbookReportsFm(imdesign.bpl\BisDesignHbookReportsFm.pas) segment .itext

   103 0002:0000045C

Line numbers for BisDesignHbookScriptsFrm(imdesign.bpl\BisDesignHbookScriptsFrm.pas) segment .text

    53 0001:00023344    54 0001:00023371    55 0001:00023376    56 0001:00023384
    57 0001:00023390    58 0001:000233B1    59 0001:000233C2    60 0001:000233D1
    61 0001:000233D4    64 0001:000233D6    65 0001:000233D9    68 0001:000233DB
    55 0001:000233DC    69 0001:000233DF    75 0001:00023410    76 0001:00023422
    77 0001:0002342B    78 0001:0002343D    81 0001:00023458    82 0001:00023463
    83 0001:0002346E    84 0001:0002347A    88 0001:00023488    89 0001:0002348D
    92 0001:00023490    93 0001:00023493    94 0001:000234A7   100 0001:000234AC
   101 0001:000234CE   102 0001:000234D3   103 0001:000234EC   104 0001:000234FF
   105 0001:0002350E   106 0001:00023511   108 0001:00023513   102 0001:00023514
   109 0001:00023517   115 0001:00023540   116 0001:0002355D   117 0001:00023562
   118 0001:0002356E   119 0001:00023588   120 0001:000235A6   121 0001:000235B0
   123 0001:000235B6   129 0001:000235F0   130 0001:000235F5   131 0001:00023601
   132 0001:0002360A   133 0001:0002362E   134 0001:0002363C   136 0001:0002364A
   144 0001:00023650   145 0001:0002366E   146 0001:0002367D   147 0001:00023689
   148 0001:000236AF   149 0001:000236B9   150 0001:000236C3   151 0001:000236D7
   152 0001:000236EA   153 0001:000236EE   154 0001:000236FA   155 0001:00023701
   156 0001:0002370E   158 0001:00023715   159 0001:00023720   160 0001:0002373F
   164 0001:00023746

Line numbers for BisDesignHbookScriptsFrm(imdesign.bpl\BisDesignHbookScriptsFrm.pas) segment .itext

   167 0002:00000464

Line numbers for BisDesignHbookScriptsFm(imdesign.bpl\BisDesignHbookScriptsFm.pas) segment .text

    46 0001:00023B28    47 0001:00023B3F    48 0001:00023B48    49 0001:00023B50
    50 0001:00023B5B    51 0001:00023B68    52 0001:00023B73    53 0001:00023B7E
    54 0001:00023B85    55 0001:00023B89    56 0001:00023B99    57 0001:00023B9F
    58 0001:00023BAF    59 0001:00023BBB    60 0001:00023BD1    62 0001:00023BE4
    63 0001:00023BF6    66 0001:00023CA0    67 0001:00023CA3    68 0001:00023CAA
    71 0001:00023CAC    72 0001:00023CB0    73 0001:00023CB9    74 0001:00023CD4
    77 0001:00023CDB    82 0001:00023CE0    83 0001:00023CF2    84 0001:00023CFB
    87 0001:00023D18    88 0001:00023D1B    89 0001:00023D22    93 0001:00023D24
    94 0001:00023D29

Line numbers for BisDesignHbookScriptsFm(imdesign.bpl\BisDesignHbookScriptsFm.pas) segment .itext

    96 0002:0000046C

Line numbers for BisDesignJournalActionEditFm(imdesign.bpl\BisDesignJournalActionEditFm.pas) segment .text

    76 0001:00024804    77 0001:0002480A    78 0001:00024811    79 0001:0002481D
    80 0001:0002482C    81 0001:0002483B    83 0001:00024847    89 0001:00024888
    90 0001:0002489B    91 0001:000248A4    92 0001:000248AC    93 0001:000248B2
    94 0001:000248CA    95 0001:000248F3    96 0001:0002490B    98 0001:00024939
   100 0001:0002496A   101 0001:00024984   102 0001:0002499E   103 0001:000249B8
   104 0001:000249D2   106 0001:000249EA   111 0001:00024CFC   112 0001:00024D0E
   113 0001:00024D17   118 0001:00024D34   119 0001:00024D46   120 0001:00024D4F
   121 0001:00024D5F   126 0001:00024D98   127 0001:00024DAA   128 0001:00024DB3
   129 0001:00024DC3   134 0001:00024DFC   135 0001:00024E0E   136 0001:00024E17
   137 0001:00024E27   142 0001:00024E60   143 0001:00024E89   144 0001:00024E92
   145 0001:00024EB0   146 0001:00024ED1   147 0001:00024EF2   150 0001:00024F34
   151 0001:00024F4F   152 0001:00024F5B   154 0001:00024F88   155 0001:00024F8F

Line numbers for BisDesignJournalActionEditFm(imdesign.bpl\BisDesignJournalActionEditFm.pas) segment .itext

   157 0002:00000474

Line numbers for BisDesignJournalActionsFm(imdesign.bpl\BisDesignJournalActionsFm.pas) segment .text

    41 0001:000253B8    42 0001:000253CF    43 0001:000253D8    44 0001:000253E0
    45 0001:000253EB    46 0001:000253F8    47 0001:00025403    48 0001:0002540E
    49 0001:00025415    50 0001:00025419    51 0001:00025420    52 0001:00025430
    53 0001:00025436    54 0001:00025442    55 0001:0002544E    56 0001:0002545A
    57 0001:00025466    58 0001:00025472    59 0001:00025485    60 0001:00025498
    61 0001:000254B5    62 0001:000254C8    63 0001:000254DB    64 0001:000254EE
    65 0001:00025501    67 0001:00025514    68 0001:00025526    73 0001:0002570C
    74 0001:00025728    75 0001:0002572F    76 0001:00025748    77 0001:00025759
    78 0001:00025763    84 0001:000257AC    85 0001:000257BE    86 0001:000257C7
    87 0001:000257DF

Line numbers for BisDesignJournalActionsFm(imdesign.bpl\BisDesignJournalActionsFm.pas) segment .itext

    89 0002:0000047C

Line numbers for BisDesignHbookDocumentsFm(imdesign.bpl\BisDesignHbookDocumentsFm.pas) segment .text

    34 0001:00025B84    35 0001:00025B9B    36 0001:00025BA4    37 0001:00025BAC
    38 0001:00025BB7    39 0001:00025BC4    40 0001:00025BCF    41 0001:00025BDA
    42 0001:00025BE1    43 0001:00025BE5    44 0001:00025BF5    45 0001:00025BFB
    46 0001:00025C0B    47 0001:00025C17    48 0001:00025C2D    50 0001:00025C43
    51 0001:00025C55    56 0001:00025D00    57 0001:00025D12    58 0001:00025D1B

Line numbers for BisDesignHbookDocumentsFm(imdesign.bpl\BisDesignHbookDocumentsFm.pas) segment .itext

    60 0002:00000484

Line numbers for BisDesignHbookConstEditFm(imdesign.bpl\BisDesignHbookConstEditFm.pas) segment .text

    58 0001:00026580    59 0001:00026597    60 0001:000265A0    61 0001:000265A8
    62 0001:000265AE    63 0001:000265C8    64 0001:000265CC    66 0001:000265D6
    67 0001:000265EE    69 0001:00026606    74 0001:000266F0    75 0001:00026702
    76 0001:0002670B    77 0001:0002671B    82 0001:00026748    83 0001:0002675A
    84 0001:00026763    85 0001:00026773    90 0001:000267A0    91 0001:000267B2
    92 0001:000267BB    93 0001:000267CB    98 0001:000267F8    99 0001:000267FB
   100 0001:00026802   101 0001:0002681E   104 0001:00026820   105 0001:0002683B
   106 0001:00026870

Line numbers for BisDesignHbookConstEditFm(imdesign.bpl\BisDesignHbookConstEditFm.pas) segment .itext

   108 0002:0000048C

Line numbers for BisDesignHbookConstsFm(imdesign.bpl\BisDesignHbookConstsFm.pas) segment .text

    34 0001:00026C20    35 0001:00026C37    36 0001:00026C40    37 0001:00026C48
    38 0001:00026C53    39 0001:00026C60    40 0001:00026C6B    41 0001:00026C76
    42 0001:00026C7D    43 0001:00026C81    44 0001:00026C91    45 0001:00026C97
    46 0001:00026CB1    47 0001:00026CC7    49 0001:00026CD3    50 0001:00026CE5
    55 0001:00026D78    56 0001:00026D8A    57 0001:00026D93

Line numbers for BisDesignHbookConstsFm(imdesign.bpl\BisDesignHbookConstsFm.pas) segment .itext

    59 0002:00000494

Line numbers for BisDesignHbookLockEditFm(imdesign.bpl\BisDesignHbookLockEditFm.pas) segment .text

    72 0001:00027710    73 0001:00027723    74 0001:0002772C    75 0001:00027734
    76 0001:0002773A    77 0001:00027752    79 0001:00027783    81 0001:000277B1
    82 0001:000277C9    83 0001:000277E3    84 0001:0002780C    85 0001:00027835
    86 0001:0002784D    88 0001:00027865    93 0001:00027B6C    94 0001:00027B7E
    95 0001:00027B87    96 0001:00027B97   101 0001:00027BC4   102 0001:00027BD6
   103 0001:00027BDF   104 0001:00027BEF   109 0001:00027C1C   110 0001:00027C2E
   111 0001:00027C37   112 0001:00027C47   117 0001:00027C74   118 0001:00027C86
   119 0001:00027C8F   122 0001:00027CAC   123 0001:00027CC7   124 0001:00027CCE
   125 0001:00027CD9   126 0001:00027CE5   129 0001:00027D12   130 0001:00027D19

Line numbers for BisDesignHbookLockEditFm(imdesign.bpl\BisDesignHbookLockEditFm.pas) segment .itext

   133 0002:0000049C

Line numbers for BisDesignHbookLocksFm(imdesign.bpl\BisDesignHbookLocksFm.pas) segment .text

    34 0001:000280C0    35 0001:000280D7    36 0001:000280E0    37 0001:000280E8
    38 0001:000280F3    39 0001:00028100    40 0001:0002810B    41 0001:00028116
    42 0001:0002811D    43 0001:00028121    44 0001:00028131    45 0001:00028137
    46 0001:00028143    47 0001:0002814F    48 0001:0002815B    49 0001:00028167
    50 0001:00028173    51 0001:00028186    52 0001:00028199    53 0001:000281AC
    54 0001:000281BF    55 0001:000281D2    57 0001:000281E9    58 0001:000281FB
    59 0001:0002820D

Line numbers for BisDesignHbookLocksFm(imdesign.bpl\BisDesignHbookLocksFm.pas) segment .itext

    61 0002:000004A4

Line numbers for BisDesignHbookTaskEditFm(imdesign.bpl\BisDesignHbookTaskEditFm.pas) segment .text

   135 0001:000291F8   136 0001:00029230   137 0001:0002923C   138 0001:00029244
   139 0001:0002924A   140 0001:00029262   141 0001:00029289   142 0001:000292A3
   144 0001:000292D4   146 0001:00029302   147 0001:0002931A   148 0001:00029337
   149 0001:00029368   150 0001:00029382   151 0001:0002939C   153 0001:000293CD
   154 0001:000293EA   155 0001:00029402   156 0001:0002941F   157 0001:00029437
   158 0001:0002945B   159 0001:0002946C   160 0001:0002947D   161 0001:0002948E
   162 0001:0002949F   163 0001:000294B0   164 0001:000294C1   165 0001:000294D9
   166 0001:000294FD   167 0001:00029521   168 0001:00029545   169 0001:00029569
   170 0001:00029593   171 0001:000295BD   172 0001:000295E7   173 0001:00029611
   174 0001:0002963B   175 0001:00029665   176 0001:0002968F   177 0001:000296B9
   178 0001:000296CA   179 0001:000296E2   180 0001:000296FA   181 0001:00029712
   182 0001:0002973B   185 0001:0002975F   190 0001:0002A170   191 0001:0002A182
   192 0001:0002A18B   193 0001:0002A19B   194 0001:0002A1A8   199 0001:0002A1EC
   200 0001:0002A1FE   201 0001:0002A207   202 0001:0002A217   203 0001:0002A224
   208 0001:0002A26C   209 0001:0002A27E   210 0001:0002A287   211 0001:0002A297
   212 0001:0002A2A4   217 0001:0002A2E8   218 0001:0002A2FA   219 0001:0002A303
   220 0001:0002A30A   221 0001:0002A321   224 0001:0002A33C   225 0001:0002A357
   227 0001:0002A35E   228 0001:0002A369   229 0001:0002A375   232 0001:0002A3A2
   233 0001:0002A3A9   234 0001:0002A3B4   235 0001:0002A3D8   236 0001:0002A3E5
   237 0001:0002A3F2   240 0001:0002A3FF   241 0001:0002A406   247 0001:0002A450
   248 0001:0002A475   249 0001:0002A47F   251 0001:0002A487   253 0001:0002A4AE
   254 0001:0002A4BD   255 0001:0002A4DB   256 0001:0002A4F9   257 0001:0002A517
   258 0001:0002A535   259 0001:0002A540   260 0001:0002A557   264 0001:0002A584
   265 0001:0002A59B   266 0001:0002A5C3   267 0001:0002A5DA   270 0001:0002A602
   272 0001:0002A629   273 0001:0002A633   274 0001:0002A642   275 0001:0002A657
   276 0001:0002A66C   277 0001:0002A681   278 0001:0002A696   279 0001:0002A6AB
   280 0001:0002A6C0   281 0001:0002A6D5   282 0001:0002A6EA   283 0001:0002A6FF
   284 0001:0002A714   285 0001:0002A729   286 0001:0002A73E   287 0001:0002A753
   288 0001:0002A768   289 0001:0002A77D   290 0001:0002A792   291 0001:0002A7A7
   292 0001:0002A7BC   293 0001:0002A7D1   294 0001:0002A7E6   295 0001:0002A7FB
   296 0001:0002A810   297 0001:0002A825   298 0001:0002A83A   299 0001:0002A855
   301 0001:0002A87D   302 0001:0002A898   305 0001:0002A8CA   308 0001:0002A8E4
   309 0001:0002A8F9   310 0001:0002A90E   313 0001:0002A928   314 0001:0002A93D
   315 0001:0002A952   316 0001:0002A967   317 0001:0002A97C   318 0001:0002A991
   319 0001:0002A9A6   320 0001:0002A9BB   321 0001:0002A9D0   322 0001:0002A9E5
   325 0001:0002A9FF   326 0001:0002AA14   327 0001:0002AA29   328 0001:0002AA3E
   329 0001:0002AA53   330 0001:0002AA68   331 0001:0002AA7D   332 0001:0002AA92
   333 0001:0002AAA7   334 0001:0002AABC   335 0001:0002AAD1   336 0001:0002AAE6
   337 0001:0002AAFB   338 0001:0002AB10   339 0001:0002AB25   346 0001:0002AB3A
   348 0001:0002AB61   349 0001:0002AB70   350 0001:0002AB86   351 0001:0002ABA7
   352 0001:0002ABC8   357 0001:0002ABE9   363 0001:0002AEA4   364 0001:0002AEAE
   365 0001:0002AEBD   366 0001:0002AED3   367 0001:0002AEEB   368 0001:0002AF03
   369 0001:0002AF1B   370 0001:0002AF31   371 0001:0002AF43   372 0001:0002AF55
   373 0001:0002AF63   375 0001:0002AF7A   376 0001:0002AF8D   377 0001:0002AFA0
   378 0001:0002AFB3   379 0001:0002AFC6   382 0001:0002AFE1   389 0001:0002B088
   390 0001:0002B0A7   392 0001:0002B0D1   393 0001:0002B0EB   394 0001:0002B0F9
   395 0001:0002B0FD   396 0001:0002B109   397 0001:0002B115   398 0001:0002B121
   399 0001:0002B12D   400 0001:0002B139   403 0001:0002B151   408 0001:0002B18C
   409 0001:0002B193   410 0001:0002B19D   411 0001:0002B1AB   412 0001:0002B1CB
   413 0001:0002B1F2   414 0001:0002B207   415 0001:0002B21C   416 0001:0002B231
   417 0001:0002B246   420 0001:0002B266   422 0001:0002B278

Line numbers for BisDesignHbookTaskEditFm(imdesign.bpl\BisDesignHbookTaskEditFm.pas) segment .itext

   424 0002:000004AC

Line numbers for BisDesignHbookTasksFm(imdesign.bpl\BisDesignHbookTasksFm.pas) segment .text

    35 0001:0002B600    36 0001:0002B613    37 0001:0002B61C    38 0001:0002B624
    39 0001:0002B62F    40 0001:0002B63C    41 0001:0002B647    42 0001:0002B652
    43 0001:0002B659    44 0001:0002B65D    45 0001:0002B66D    46 0001:0002B673
    47 0001:0002B67F    48 0001:0002B68B    49 0001:0002B697    50 0001:0002B6A3
    51 0001:0002B6AF    52 0001:0002B6BB    53 0001:0002B6C7    54 0001:0002B6D3
    55 0001:0002B6DF    56 0001:0002B6EB    57 0001:0002B6F7    58 0001:0002B703
    59 0001:0002B70F    60 0001:0002B71B    61 0001:0002B727    62 0001:0002B733
    63 0001:0002B73F    64 0001:0002B74B    65 0001:0002B757    66 0001:0002B763
    67 0001:0002B76F    68 0001:0002B77B    69 0001:0002B787    70 0001:0002B793
    71 0001:0002B79F    72 0001:0002B7AB    73 0001:0002B7B7    74 0001:0002B7C3
    75 0001:0002B7CF    76 0001:0002B7DB    77 0001:0002B7E7    78 0001:0002B7F3
    79 0001:0002B7FF    80 0001:0002B80B    81 0001:0002B817    82 0001:0002B823
    83 0001:0002B82F    84 0001:0002B83B    85 0001:0002B847    86 0001:0002B853
    87 0001:0002B869    88 0001:0002B87C    89 0001:0002B892    91 0001:0002B8A5
    92 0001:0002B8B7

Line numbers for BisDesignHbookTasksFm(imdesign.bpl\BisDesignHbookTasksFm.pas) segment .itext

    94 0002:000004B4

Line numbers for BisDesignHbookExchangeEditFm(imdesign.bpl\BisDesignHbookExchangeEditFm.pas) segment .text

    74 0001:0002C68C    75 0001:0002C69F    76 0001:0002C6A8    77 0001:0002C6B0
    78 0001:0002C6B6    79 0001:0002C6CE    80 0001:0002C6DC    81 0001:0002C6EA
    82 0001:0002C6F8    83 0001:0002C706    84 0001:0002C714    85 0001:0002C72E
    86 0001:0002C73F    87 0001:0002C757    88 0001:0002C77E    89 0001:0002C7A5
    91 0001:0002C7BD    96 0001:0002CA18    97 0001:0002CA2A    98 0001:0002CA33
    99 0001:0002CA43   104 0001:0002CA74   105 0001:0002CA86   106 0001:0002CA8F
   107 0001:0002CA9F   112 0001:0002CAD0   113 0001:0002CAE2   114 0001:0002CAEB
   115 0001:0002CAFB   120 0001:0002CB2C   121 0001:0002CB3E   122 0001:0002CB47
   123 0001:0002CB5A   124 0001:0002CB6D   125 0001:0002CB7D   132 0001:0002CBCC
   133 0001:0002CBD7   134 0001:0002CBEF   135 0001:0002CBF7   136 0001:0002CC05
   137 0001:0002CC27   138 0001:0002CC3F   139 0001:0002CC48   140 0001:0002CC62
   141 0001:0002CC70   142 0001:0002CC76   144 0001:0002CC83   139 0001:0002CC86
   146 0001:0002CC89   136 0001:0002CC8C   148 0001:0002CC9E   151 0001:0002CCAE
   154 0001:0002CCB4   155 0001:0002CCB7   157 0001:0002CCBE   158 0001:0002CCCB
   159 0001:0002CCD8   160 0001:0002CCE5   161 0001:0002CCF2   162 0001:0002CCFF
   165 0001:0002CD0C   171 0001:0002CD10   172 0001:0002CD32   173 0001:0002CD34
   174 0001:0002CD51   175 0001:0002CD73   176 0001:0002CD95   177 0001:0002CDB7
   178 0001:0002CDD9   179 0001:0002CDFB   180 0001:0002CE03   181 0001:0002CE14
   182 0001:0002CE22   183 0001:0002CE2D   184 0001:0002CE3D   185 0001:0002CE5E
   186 0001:0002CE68   187 0001:0002CE7D   188 0001:0002CE8B   191 0001:0002CEC4
   195 0001:0002CED4   198 0001:0002CF88   199 0001:0002CFAC   200 0001:0002CFB8
   201 0001:0002CFCF   202 0001:0002D00A   203 0001:0002D017   204 0001:0002D023
   207 0001:0002D027

Line numbers for BisDesignHbookExchangeEditFm(imdesign.bpl\BisDesignHbookExchangeEditFm.pas) segment .itext

   210 0002:000004BC

Line numbers for BisDesignHbookExchangesFm(imdesign.bpl\BisDesignHbookExchangesFm.pas) segment .text

    35 0001:0002D408    36 0001:0002D41B    37 0001:0002D424    38 0001:0002D42C
    39 0001:0002D437    40 0001:0002D444    41 0001:0002D44F    42 0001:0002D45A
    43 0001:0002D461    44 0001:0002D465    45 0001:0002D475    46 0001:0002D47B
    47 0001:0002D487    48 0001:0002D493    49 0001:0002D49F    50 0001:0002D4AB
    51 0001:0002D4B7    52 0001:0002D4C3    53 0001:0002D4CF    54 0001:0002D4E5
    55 0001:0002D4F8    56 0001:0002D50B    57 0001:0002D51E    59 0001:0002D531
    60 0001:0002D543

Line numbers for BisDesignHbookExchangesFm(imdesign.bpl\BisDesignHbookExchangesFm.pas) segment .itext

    62 0002:000004C4

Line numbers for BisExecuteFm(imdesign.bpl\BisExecuteFm.pas) segment .text

    70 0001:0002DB8C    71 0001:0002DB91    90 0001:0002DC00    92 0001:0002DC0C
    93 0001:0002DC10    94 0001:0002DC1A    95 0001:0002DC21    96 0001:0002DC2F
    98 0001:0002DC49   101 0001:0002DC5E   103 0001:0002DC62   104 0001:0002DC68
    91 0001:0002DC70   106 0001:0002DC79   111 0001:0002DC80   112 0001:0002DC97
   113 0001:0002DCA0   114 0001:0002DCB6   115 0001:0002DCC3   116 0001:0002DCD0
   119 0001:0002DCF0   120 0001:0002DCFB   121 0001:0002DD05   122 0001:0002DD10
   123 0001:0002DD1C   126 0001:0002DD2C   127 0001:0002DD2F   128 0001:0002DD3C
   129 0001:0002DD46   133 0001:0002DD48   134 0001:0002DD50   137 0001:0002DD54
   138 0001:0002DD57   139 0001:0002DD6E   143 0001:0002DD70   144 0001:0002DD78
   147 0001:0002DD7C   148 0001:0002DD7F   149 0001:0002DD96   153 0001:0002DD98
   154 0001:0002DD9D   157 0001:0002DDA0   158 0001:0002DDA3   159 0001:0002DDBE
   163 0001:0002DDC0   166 0001:0002DDC4   167 0001:0002DDCA   169 0001:0002DDE3
   170 0001:0002DDF4   173 0001:0002DDFC   174 0001:0002DDFD   175 0001:0002DE07
   176 0001:0002DE17   180 0001:0002DE1C   181 0001:0002DE24   182 0001:0002DE2C
   186 0001:0002DE30   187 0001:0002DE3C   192 0001:0002DE40   193 0001:0002DE43
   194 0001:0002DE51   195 0001:0002DE5E   196 0001:0002DE6C   197 0001:0002DE72
   198 0001:0002DE7C   199 0001:0002DE80   200 0001:0002DE83   202 0001:0002DE88
   206 0001:0002DE8C   207 0001:0002DE96   210 0001:0002DE98   211 0001:0002DE9B
   212 0001:0002DEA9   213 0001:0002DEB4   215 0001:0002DEC1

Line numbers for BisExecuteFm(imdesign.bpl\BisExecuteFm.pas) segment .itext

   218 0002:000004CC

Line numbers for BisDesignExchangeFm(imdesign.bpl\BisDesignExchangeFm.pas) segment .text

    87 0001:0002E68C    88 0001:0002E69E    89 0001:0002E6A7    90 0001:0002E6AF
    91 0001:0002E6B6    92 0001:0002E6BA    93 0001:0002E6BE    98 0001:0002E6D8
    99 0001:0002E6EF   100 0001:0002E6F8   101 0001:0002E6FF   102 0001:0002E70C
   104 0001:0002E713   105 0001:0002E729   106 0001:0002E72C   107 0001:0002E73E
   108 0001:0002E750   109 0001:0002E762   110 0001:0002E777   111 0001:0002E789
   112 0001:0002E79B   113 0001:0002E7AD   114 0001:0002E7BF   116 0001:0002E7D1
   117 0001:0002E7DD   118 0001:0002E7E9   119 0001:0002E7F5   120 0001:0002E80B
   122 0001:0002E822   123 0001:0002E82F   125 0001:0002E840   126 0001:0002E856
   128 0001:0002E863   129 0001:0002E879   130 0001:0002E886   131 0001:0002E893
   132 0001:0002E8A0   133 0001:0002E8A7   134 0001:0002E8B4   135 0001:0002E8C1
   136 0001:0002E8CE   137 0001:0002E8DB   138 0001:0002E8E8   139 0001:0002E8F5
   140 0001:0002E902   141 0001:0002E90F   142 0001:0002E928   143 0001:0002E939
   145 0001:0002E946   147 0001:0002E95C   148 0001:0002E96C   149 0001:0002E97C
   150 0001:0002E98C   151 0001:0002E99C   152 0001:0002E9AC   153 0001:0002E9BC
   154 0001:0002E9CC   155 0001:0002E9DC   156 0001:0002E9EC   157 0001:0002E9FC
   158 0001:0002EA0C   159 0001:0002EA1C   160 0001:0002EA23   161 0001:0002EA34
   162 0001:0002EA3F   164 0001:0002EA4F   167 0001:0002ECBC   168 0001:0002ECC7
   169 0001:0002ECD2   170 0001:0002ECDD   171 0001:0002ECE8   172 0001:0002ECF4
   176 0001:0002ED04   177 0001:0002ED09   181 0001:0002ED0C   182 0001:0002ED11
   185 0001:0002ED14   186 0001:0002ED17   187 0001:0002ED2B   190 0001:0002ED30
   191 0001:0002ED33   192 0001:0002ED62   197 0001:0002ED64   198 0001:0002ED7F
   199 0001:0002EDA3   200 0001:0002EDAB   201 0001:0002EDC0   206 0001:0002EDD1
   209 0001:0002EE2F   217 0001:0002EE98   218 0001:0002EEB9   219 0001:0002EEC8
   220 0001:0002EED9   221 0001:0002EEE7   222 0001:0002EEFF   223 0001:0002EF17
   224 0001:0002EF22   225 0001:0002EF33   226 0001:0002EFA2   227 0001:0002EFAD
   228 0001:0002EFC4   229 0001:0002EFD4   230 0001:0002EFDE   232 0001:0002EFF6
   235 0001:0002F006   239 0001:0002F0A0   240 0001:0002F0A5   254 0001:0002F0A8
   255 0001:0002F0CB   256 0001:0002F0D2   257 0001:0002F0DF   258 0001:0002F0EE
   259 0001:0002F0FC   260 0001:0002F107   261 0001:0002F117   262 0001:0002F12E
   264 0001:0002F131   265 0001:0002F13F   266 0001:0002F147   267 0001:0002F15E
   268 0001:0002F16D   269 0001:0002F171   270 0001:0002F185   271 0001:0002F19E
   272 0001:0002F1AF   273 0001:0002F1C9   274 0001:0002F1D3   277 0001:0002F1DD
   263 0001:0002F1E4   283 0001:0002F1F9   284 0001:0002F20F   286 0001:0002F21F
   300 0001:0002F280   301 0001:0002F2B1   302 0001:0002F2C0   303 0001:0002F2CE
   304 0001:0002F2DB   305 0001:0002F2E3   307 0001:0002F2EE   308 0001:0002F2F9
   309 0001:0002F304   310 0001:0002F31B   311 0001:0002F329   312 0001:0002F34F
   313 0001:0002F355   314 0001:0002F35D   316 0001:0002F363   309 0001:0002F366
   317 0001:0002F369   318 0001:0002F36F   319 0001:0002F379   320 0001:0002F3A8
   321 0001:0002F3AD   322 0001:0002F3B1   324 0001:0002F3C1   325 0001:0002F3DC
   326 0001:0002F3EA   327 0001:0002F3F7   328 0001:0002F3FF   329 0001:0002F40A
   330 0001:0002F41F   331 0001:0002F447   332 0001:0002F44A   333 0001:0002F44E
   335 0001:0002F450   336 0001:0002F463   339 0001:0002F485   324 0001:0002F488
   340 0001:0002F48F   341 0001:0002F495   342 0001:0002F499   323 0001:0002F4A5
   345 0001:0002F4AF   346 0001:0002F4B9   347 0001:0002F4D9   348 0001:0002F512
   349 0001:0002F527   350 0001:0002F52F   351 0001:0002F547   352 0001:0002F55F
   355 0001:0002F56F   306 0001:0002F575   361 0001:0002F587   363 0001:0002F597
   371 0001:0002F608   372 0001:0002F64B   373 0001:0002F660   374 0001:0002F66F
   375 0001:0002F680   376 0001:0002F68E   377 0001:0002F69B   378 0001:0002F6A8
   379 0001:0002F6B5   380 0001:0002F6C2   381 0001:0002F6CF   382 0001:0002F6DC
   383 0001:0002F6E9   384 0001:0002F6F6   385 0001:0002F703   386 0001:0002F710
   387 0001:0002F71D   388 0001:0002F72A   389 0001:0002F737   390 0001:0002F73D
   391 0001:0002F74F   393 0001:0002F764   394 0001:0002F76E   395 0001:0002F77F
   396 0001:0002F79F   398 0001:0002F7AC   399 0001:0002F7B9   400 0001:0002F7EB
   401 0001:0002F815   402 0001:0002F841   403 0001:0002F880   404 0001:0002F8BF
   405 0001:0002F8EA   406 0001:0002F8FA   397 0001:0002F902   410 0001:0002F91F
   411 0001:0002F927   414 0001:0002F937   420 0001:0002FB38   421 0001:0002FB73
   422 0001:0002FB88   423 0001:0002FB97   424 0001:0002FBA8   425 0001:0002FBB6
   426 0001:0002FBC3   427 0001:0002FBC9   428 0001:0002FBDB   430 0001:0002FBF0
   431 0001:0002FBFA   432 0001:0002FC0B   433 0001:0002FC2B   435 0001:0002FC38
   436 0001:0002FC45   437 0001:0002FC77   438 0001:0002FCA1   439 0001:0002FCCF
   440 0001:0002FD0E   441 0001:0002FD4D   442 0001:0002FD78   443 0001:0002FD88
   434 0001:0002FD90   447 0001:0002FDAD   448 0001:0002FDB5   451 0001:0002FDC5
   458 0001:0002FF04   459 0001:0002FF25   460 0001:0002FF33   461 0001:0002FF45
   462 0001:0002FF56   463 0001:0002FF64   464 0001:0002FF76   465 0001:0002FF7F
   466 0001:0002FF8B   467 0001:0002FF97   468 0001:0002FFA3   469 0001:0002FFAF
   470 0001:0002FFBB   471 0001:0002FFC7   472 0001:0002FFD3   474 0001:0002FFDF
   475 0001:0002FFF1   477 0001:00030013   478 0001:00030028   479 0001:00030030
   480 0001:00030050   482 0001:0003005D   483 0001:00030065   484 0001:00030073
   485 0001:0003009E   486 0001:000300C6   487 0001:000300F2   488 0001:00030127
   489 0001:00030167   490 0001:000301B3   491 0001:000301E5   493 0001:000301F6
   494 0001:00030204   495 0001:00030243   496 0001:00030274   497 0001:000302A9
   498 0001:00030325   499 0001:00030357   501 0001:00030368   502 0001:0003037D
   503 0001:00030398   504 0001:000303A0   505 0001:000303AE   506 0001:000303DF
   507 0001:00030410   508 0001:00030445   509 0001:0003047C   510 0001:000304AE
   511 0001:000304BF   514 0001:000304CE   515 0001:000304DC   516 0001:0003051B
   517 0001:0003054C   518 0001:00030581   519 0001:000305FD   520 0001:0003062F
   522 0001:00030640   523 0001:00030655   524 0001:00030670   525 0001:00030678
   526 0001:00030686   527 0001:000306B7   528 0001:000306E8   529 0001:0003071D
   530 0001:00030754   531 0001:00030786   532 0001:00030797   535 0001:000307A6
   536 0001:000307BB   537 0001:000307D6   538 0001:000307DE   539 0001:000307EC
   540 0001:0003081D   541 0001:0003084E   542 0001:00030883   543 0001:000308BA
   544 0001:000308EC   545 0001:000308FD   548 0001:0003090A   549 0001:0003091F
   550 0001:0003093A   551 0001:00030942   552 0001:00030950   553 0001:00030981
   554 0001:000309B2   555 0001:000309E7   556 0001:00030A1E   557 0001:00030A50
   558 0001:00030A61   561 0001:00030A70   562 0001:00030A7E   563 0001:00030ABD
   564 0001:00030AEE   565 0001:00030B23   566 0001:00030B5A   567 0001:00030B8C
   569 0001:00030B9D   570 0001:00030BB2   571 0001:00030BCD   572 0001:00030BD5
   573 0001:00030BE3   574 0001:00030C14   575 0001:00030C45   576 0001:00030C7A
   577 0001:00030CB1   578 0001:00030CE3   579 0001:00030CF4   582 0001:00030D03
   583 0001:00030D11   584 0001:00030D50   585 0001:00030D81   586 0001:00030DB6
   587 0001:00030DED   588 0001:00030E1F   590 0001:00030E30   481 0001:00030E38
   594 0001:00030E55   595 0001:00030E63   596 0001:00030E73   598 0001:00030E83
   603 0001:00031270   604 0001:00031291   605 0001:000312A7   607 0001:000312BB
   608 0001:000312C9   609 0001:0003130D   610 0001:0003131B   611 0001:00031356
   612 0001:00031391   616 0001:000313AF   617 0001:000313CD   620 0001:000313E6
   625 0001:00031458   626 0001:0003148A   627 0001:00031497   628 0001:000314C1
   629 0001:000314ED   630 0001:000314FD   631 0001:0003150E   632 0001:00031555
   633 0001:00031564   636 0001:000315E0   637 0001:00031617   638 0001:0003162C
   639 0001:0003163A   640 0001:0003166D   642 0001:00031689   644 0001:000316A4
   653 0001:000316E4   654 0001:000316E7   655 0001:00031702   658 0001:00031704
   659 0001:00031707   660 0001:00031722   665 0001:00031724   666 0001:00031747
   667 0001:00031765   668 0001:0003176B   669 0001:0003177A   670 0001:00031788
   671 0001:0003179D   672 0001:000317A9   673 0001:000317B8   675 0001:000317C9
   678 0001:000317D9   683 0001:00031800   684 0001:00031820   686 0001:00031863
   687 0001:00031869   688 0001:00031878   689 0001:00031886   690 0001:0003189D
   691 0001:000318A9   692 0001:000318BC   694 0001:000318CD   697 0001:000318DD
   705 0001:00031904   706 0001:00031947   707 0001:00031951   708 0001:00031954
   709 0001:0003198E   710 0001:00031993   711 0001:00031998   712 0001:0003199C
   714 0001:000319AF   715 0001:000319BD   716 0001:000319D1   717 0001:000319EC
   718 0001:00031A07   719 0001:00031A15   720 0001:00031A1F   721 0001:00031A23
   722 0001:00031A33   723 0001:00031A38   724 0001:00031A53   725 0001:00031A6E
   726 0001:00031A86   727 0001:00031A9E   728 0001:00031AA9   729 0001:00031AB4
   730 0001:00031ABC   732 0001:00031AC2   734 0001:00031AD6   736 0001:00031B05
   738 0001:00031B32   739 0001:00031B3C   741 0001:00031B8C   742 0001:00031B9B
   743 0001:00031BA6   747 0001:00031BBE   750 0001:00031BD9   751 0001:00031BE8
   752 0001:00031BF3   756 0001:00031C0B   759 0001:00031C26   762 0001:00031C40
   765 0001:00031C5B   766 0001:00031C7A   767 0001:00031C85   768 0001:00031C8A
   772 0001:00031C9A   775 0001:00031CB5   776 0001:00031CC3   777 0001:00031CDA
   778 0001:00031CE5   779 0001:00031CEA   782 0001:00031D02   783 0001:00031D12
   784 0001:00031D22   785 0001:00031D32   786 0001:00031D42   787 0001:00031D52
   791 0001:00031D6A   792 0001:00031D7A   795 0001:00031DA4   796 0001:00031DB4
   799 0001:00031DDB   800 0001:00031DEB   805 0001:00031E45   806 0001:00031E47
   807 0001:00031E4B   808 0001:00031E8A   809 0001:00031E90   810 0001:00031E96
   811 0001:00031E9C   812 0001:00031EA2   814 0001:00031EA6   818 0001:00031EC4
   713 0001:00031EDA   822 0001:00031EF0

Line numbers for BisDesignExchangeFm(imdesign.bpl\BisDesignExchangeFm.pas) segment .itext

   824 0002:000004D4

Line numbers for BisDesign(imdesign.bpl\BisDesign.pas) segment .text

    30 0001:00031FCC    31 0001:00031FD3    32 0001:00031FEF    34 0001:00031FF2
    35 0001:00031FFC    37 0001:00032009    38 0001:00032016    39 0001:00032023
    40 0001:00032030    41 0001:0003203D    42 0001:0003204A    43 0001:00032057
    44 0001:00032064    45 0001:00032071    46 0001:0003207E    47 0001:0003208B
    48 0001:00032098    49 0001:000320A5    50 0001:000320B2    51 0001:000320BF
    55 0001:000320CC    56 0001:000320D9    57 0001:000320E6    58 0001:000320F3
    60 0001:00032100    62 0001:0003210D    64 0001:0003211A    66 0001:00032127

Line numbers for BisDesign(imdesign.bpl\BisDesign.pas) segment .itext

    68 0002:000004DC

Line numbers for .imdesign(imdesign.dpk) segment .itext

    94 0002:000004E4

Bound resource files

c:\program files\codegear\rad studio\5.0\lib\WindowsXP.res
u:\source\imdesign.bpl\BisDesignMainFm.dfm
u:\source\imdesign.bpl\BisDesignHbookFirmTypeEditFm.dfm
u:\source\imdesign.bpl\BisDesignHbookFirmTypesFm.dfm
u:\source\imdesign.bpl\BisDesignHbookLocalitiesFrm.dfm
u:\source\imdesign.bpl\BisDesignHbookLocalityEditFm.dfm
u:\source\imdesign.bpl\BisDesignHbookLocalitiesFm.dfm
u:\source\imdesign.bpl\BisDesignHbookStreetEditFm.dfm
u:\source\imdesign.bpl\BisDesignHbookStreetsFm.dfm
u:\source\imdesign.bpl\BisDesignHbookFirmEditFm.dfm
u:\source\imdesign.bpl\BisDesignHbookFirmsFm.dfm
u:\source\imdesign.bpl\BisDesignHbookAccountEditFm.dfm
u:\source\imdesign.bpl\BisDesignHbookAccountsFm.dfm
u:\source\imdesign.bpl\BisDesignHbookRoleEditFm.dfm
u:\source\imdesign.bpl\BisDesignHbookRolesFm.dfm
u:\source\imdesign.bpl\BisDesignHbookRolesAndAccountsFm.dfm
u:\source\imdesign.bpl\BisDesignHbookApplicationEditFm.dfm
u:\source\imdesign.bpl\BisDesignHbookInterfaceFilterFm.dfm
u:\source\imdesign.bpl\BisDesignHbookInterfaceEditFm.dfm
u:\source\imdesign.bpl\BisDesignHbookInterfacesFm.dfm
u:\source\imdesign.bpl\BisDesignHbookReportEditFm.dfm
u:\source\imdesign.bpl\BisDesignHbookScriptEditFm.dfm
u:\source\imdesign.bpl\BisDesignHbookDocumentEditFm.dfm
u:\source\imdesign.bpl\BisDesignHbookInterfacesFrm.dfm
u:\source\imdesign.bpl\BisDesignHbookPermissionEditFm.dfm
u:\source\imdesign.bpl\BisDesignHbookPermissionsFm.dfm
u:\source\imdesign.bpl\BisDesignHbookApplicationInterfaceEditFm.dfm
u:\source\imdesign.bpl\BisDesignHbookApplicationInterfacesFm.dfm
u:\source\imdesign.bpl\BisDesignHbookApplicationsFrm.dfm
u:\source\imdesign.bpl\BisDesignHbookApplicationsFm.dfm
u:\source\imdesign.bpl\BisDesignHbookAccountRoleEditFm.dfm
u:\source\imdesign.bpl\BisDesignHbookAccountRolesFm.dfm
u:\source\imdesign.bpl\BisDesignHbookProfileEditFm.dfm
u:\source\imdesign.bpl\BisDesignHbookProfilesFm.dfm
u:\source\imdesign.bpl\BisDesignHbookSessionsFm.dfm
u:\source\imdesign.bpl\BisDesignHbookMenuEditFm.dfm
u:\source\imdesign.bpl\BisDesignHbookMenusFm.dfm
u:\source\imdesign.bpl\BisDesignHbookReportsFrm.dfm
u:\source\imdesign.bpl\BisDesignHbookReportsFm.dfm
u:\source\imdesign.bpl\BisDesignHbookScriptsFrm.dfm
u:\source\imdesign.bpl\BisDesignHbookScriptsFm.dfm
u:\source\imdesign.bpl\BisDesignJournalActionEditFm.dfm
u:\source\imdesign.bpl\BisDesignJournalActionsFm.dfm
u:\source\imdesign.bpl\BisDesignHbookDocumentsFm.dfm
u:\source\imdesign.bpl\BisDesignHbookConstEditFm.dfm
u:\source\imdesign.bpl\BisDesignHbookConstsFm.dfm
u:\source\imdesign.bpl\BisDesignHbookLockEditFm.dfm
u:\source\imdesign.bpl\BisDesignHbookLocksFm.dfm
u:\source\imdesign.bpl\BisDesignHbookTaskEditFm.dfm
u:\source\imdesign.bpl\BisDesignHbookTasksFm.dfm
u:\source\imdesign.bpl\BisDesignHbookExchangeEditFm.dfm
u:\source\imdesign.bpl\BisDesignHbookExchangesFm.dfm
u:\source\imdesign.bpl\BisExecuteFm.dfm
u:\source\imdesign.bpl\BisDesignExchangeFm.dfm
imdesign.res
imdesign.drf


Program entry point at 0002:000004E4
