
 Start         Length     Name                   Class
 0001:00401000 00003874H .text                   CODE
 0002:00405000 00000334H .itext                  ICODE
 0003:00406000 00000050H .data                   DATA
 0004:00407000 00000028H .bss                    BSS
 0005:00000000 00000000H .tls                    TLS


Detailed map of segments

 0001:00000000 000000DE C=CODE     S=.text    G=(none)   M=System   ACBP=A9
 0001:000000E0 000001C3 C=CODE     S=.text    G=(none)   M=SysInit  ACBP=A9
 0001:000002A4 00000006 C=CODE     S=.text    G=(none)   M=BisObjects ACBP=A9
 0001:000002AC 0000008E C=CODE     S=.text    G=(none)   M=Classes  ACBP=A9
 0001:0000033C 0000004C C=CODE     S=.text    G=(none)   M=Windows  ACBP=A9
 0001:00000388 00000006 C=CODE     S=.text    G=(none)   M=TypInfo  ACBP=A9
 0001:00000390 00000016 C=CODE     S=.text    G=(none)   M=SysUtils ACBP=A9
 0001:000003A8 0000001E C=CODE     S=.text    G=(none)   M=Variants ACBP=A9
 0001:000003C8 00000006 C=CODE     S=.text    G=(none)   M=VarUtils ACBP=A9
 0001:000003D0 0000000E C=CODE     S=.text    G=(none)   M=BisObject ACBP=A9
 0001:000003E0 00000036 C=CODE     S=.text    G=(none)   M=BisCoreObjects ACBP=A9
 0001:00000418 00000006 C=CODE     S=.text    G=(none)   M=BisCmdLine ACBP=A9
 0001:00000420 00000006 C=CODE     S=.text    G=(none)   M=IniFiles ACBP=A9
 0001:00000428 00000016 C=CODE     S=.text    G=(none)   M=BisDialogs ACBP=A9
 0001:00000440 0000011E C=CODE     S=.text    G=(none)   M=BisFm    ACBP=A9
 0001:00000560 00000006 C=CODE     S=.text    G=(none)   M=DECUtil  ACBP=A9
 0001:00000568 00000006 C=CODE     S=.text    G=(none)   M=Hash     ACBP=A9
 0001:00000570 00000006 C=CODE     S=.text    G=(none)   M=Cipher   ACBP=A9
 0001:00000578 00000006 C=CODE     S=.text    G=(none)   M=Cipher1  ACBP=A9
 0001:00000580 00000006 C=CODE     S=.text    G=(none)   M=Menus    ACBP=A9
 0001:00000588 00000016 C=CODE     S=.text    G=(none)   M=ActnList ACBP=A9
 0001:000005A0 00000006 C=CODE     S=.text    G=(none)   M=Graphics ACBP=A9
 0001:000005A8 00000006 C=CODE     S=.text    G=(none)   M=Registry ACBP=A9
 0001:000005B0 00000006 C=CODE     S=.text    G=(none)   M=Themes   ACBP=A9
 0001:000005B8 00000116 C=CODE     S=.text    G=(none)   M=Controls ACBP=A9
 0001:000006D0 00000006 C=CODE     S=.text    G=(none)   M=UxTheme  ACBP=A9
 0001:000006D8 00000006 C=CODE     S=.text    G=(none)   M=MultiMon ACBP=A9
 0001:000006E0 00000006 C=CODE     S=.text    G=(none)   M=DwmApi   ACBP=A9
 0001:000006E8 00000126 C=CODE     S=.text    G=(none)   M=Forms    ACBP=A9
 0001:00000810 00000006 C=CODE     S=.text    G=(none)   M=HelpIntfs ACBP=A9
 0001:00000818 0000000E C=CODE     S=.text    G=(none)   M=Dialogs  ACBP=A9
 0001:00000828 00000006 C=CODE     S=.text    G=(none)   M=Printers ACBP=A9
 0001:00000830 0000000E C=CODE     S=.text    G=(none)   M=ExtCtrls ACBP=A9
 0001:00000840 00000006 C=CODE     S=.text    G=(none)   M=GraphUtil ACBP=A9
 0001:00000848 00000006 C=CODE     S=.text    G=(none)   M=Clipbrd  ACBP=A9
 0001:00000850 00000006 C=CODE     S=.text    G=(none)   M=FlatSB   ACBP=A9
 0001:00000858 00000006 C=CODE     S=.text    G=(none)   M=DBGrids  ACBP=A9
 0001:00000860 00000056 C=CODE     S=.text    G=(none)   M=DB       ACBP=A9
 0001:000008B8 00000006 C=CODE     S=.text    G=(none)   M=WideStrings ACBP=A9
 0001:000008C0 00000006 C=CODE     S=.text    G=(none)   M=FMTBcd   ACBP=A9
 0001:000008C8 00000006 C=CODE     S=.text    G=(none)   M=SqlTimSt ACBP=A9
 0001:000008D0 00000006 C=CODE     S=.text    G=(none)   M=ComObj   ACBP=A9
 0001:000008D8 00000006 C=CODE     S=.text    G=(none)   M=DBCtrls  ACBP=A9
 0001:000008E0 00000006 C=CODE     S=.text    G=(none)   M=ComCtrls ACBP=A9
 0001:000008E8 00000006 C=CODE     S=.text    G=(none)   M=ExtActns ACBP=A9
 0001:000008F0 00000006 C=CODE     S=.text    G=(none)   M=ExtDlgs  ACBP=A9
 0001:000008F8 00000006 C=CODE     S=.text    G=(none)   M=Buttons  ACBP=A9
 0001:00000900 00000006 C=CODE     S=.text    G=(none)   M=Mapi     ACBP=A9
 0001:00000908 00000006 C=CODE     S=.text    G=(none)   M=DBPWDlg  ACBP=A9
 0001:00000910 00000006 C=CODE     S=.text    G=(none)   M=DBLogDlg ACBP=A9
 0001:00000918 00000006 C=CODE     S=.text    G=(none)   M=rxToolEdit ACBP=A9
 0001:00000920 00000006 C=CODE     S=.text    G=(none)   M=rxDateUtil ACBP=A9
 0001:00000928 00000006 C=CODE     S=.text    G=(none)   M=RXCtrls  ACBP=A9
 0001:00000930 00000006 C=CODE     S=.text    G=(none)   M=RxHook   ACBP=A9
 0001:00000938 00000006 C=CODE     S=.text    G=(none)   M=RXConst  ACBP=A9
 0001:00000940 00000006 C=CODE     S=.text    G=(none)   M=rxVclutils ACBP=A9
 0001:00000948 00000006 C=CODE     S=.text    G=(none)   M=RXProps  ACBP=A9
 0001:00000950 00000006 C=CODE     S=.text    G=(none)   M=rxAppUtils ACBP=A9
 0001:00000958 00000006 C=CODE     S=.text    G=(none)   M=RxPrgrss ACBP=A9
 0001:00000960 00000006 C=CODE     S=.text    G=(none)   M=rxCurrEdit ACBP=A9
 0001:00000968 00000006 C=CODE     S=.text    G=(none)   M=ThemedDBGrid ACBP=A9
 0001:00000970 00000006 C=CODE     S=.text    G=(none)   M=RxRichEd ACBP=A9
 0001:00000978 00000006 C=CODE     S=.text    G=(none)   M=OleCtnrs ACBP=A9
 0001:00000980 00000006 C=CODE     S=.text    G=(none)   M=CheckLst ACBP=A9
 0001:00000988 0000001E C=CODE     S=.text    G=(none)   M=BisUtils ACBP=A9
 0001:000009A8 00000006 C=CODE     S=.text    G=(none)   M=BisIfaces ACBP=A9
 0001:000009B0 00000006 C=CODE     S=.text    G=(none)   M=BisModules ACBP=A9
 0001:000009B8 0000002E C=CODE     S=.text    G=(none)   M=BisDataSet ACBP=A9
 0001:000009E8 00000006 C=CODE     S=.text    G=(none)   M=GIFImage ACBP=A9
 0001:000009F0 00000006 C=CODE     S=.text    G=(none)   M=jpeg     ACBP=A9
 0001:000009F8 0000000E C=CODE     S=.text    G=(none)   M=BisCore  ACBP=A9
 0001:00000A08 00000016 C=CODE     S=.text    G=(none)   M=BisFieldNames ACBP=A9
 0001:00000A20 0000000E C=CODE     S=.text    G=(none)   M=kbmMemTable ACBP=A9
 0001:00000A30 00000006 C=CODE     S=.text    G=(none)   M=OleServer ACBP=A9
 0001:00000A38 00000006 C=CODE     S=.text    G=(none)   M=OleCtrls ACBP=A9
 0001:00000A40 00000006 C=CODE     S=.text    G=(none)   M=AxCtrls  ACBP=A9
 0001:00000A48 00000006 C=CODE     S=.text    G=(none)   M=BisTimedMsgFm ACBP=A9
 0001:00000A50 00000006 C=CODE     S=.text    G=(none)   M=ActnMan  ACBP=A9
 0001:00000A58 00000006 C=CODE     S=.text    G=(none)   M=ActnMenus ACBP=A9
 0001:00000A60 00000006 C=CODE     S=.text    G=(none)   M=XPStyleActnCtrls ACBP=A9
 0001:00000A68 00000006 C=CODE     S=.text    G=(none)   M=BisConnections ACBP=A9
 0001:00000A70 00000006 C=CODE     S=.text    G=(none)   M=BisMemoFm ACBP=A9
 0001:00000A78 00000006 C=CODE     S=.text    G=(none)   M=SynEditHighlighter ACBP=A9
 0001:00000A80 00000006 C=CODE     S=.text    G=(none)   M=SynEditMiscClasses ACBP=A9
 0001:00000A88 00000006 C=CODE     S=.text    G=(none)   M=SynRegExpr ACBP=A9
 0001:00000A90 00000006 C=CODE     S=.text    G=(none)   M=SynHighlighterSQL ACBP=A9
 0001:00000A98 00000016 C=CODE     S=.text    G=(none)   M=SynEdit  ACBP=A9
 0001:00000AB0 00000006 C=CODE     S=.text    G=(none)   M=SynEditKeyCmds ACBP=A9
 0001:00000AB8 00000006 C=CODE     S=.text    G=(none)   M=SynTextDrawer ACBP=A9
 0001:00000AC0 00000006 C=CODE     S=.text    G=(none)   M=MiTeC_Routines ACBP=A9
 0001:00000AC8 00000006 C=CODE     S=.text    G=(none)   M=MSI_Processes ACBP=A9
 0001:00000AD0 00000006 C=CODE     S=.text    G=(none)   M=MiTeC_PSAPI ACBP=A9
 0001:00000AD8 00000006 C=CODE     S=.text    G=(none)   M=MSI_Devices ACBP=A9
 0001:00000AE0 00000006 C=CODE     S=.text    G=(none)   M=MSI_CPU  ACBP=A9
 0001:00000AE8 00000016 C=CODE     S=.text    G=(none)   M=BisConnectionEditFm ACBP=A9
 0001:00000B00 00000006 C=CODE     S=.text    G=(none)   M=JclDebug ACBP=A9
 0001:00000B08 00000006 C=CODE     S=.text    G=(none)   M=JclSysInfo ACBP=A9
 0001:00000B10 00000006 C=CODE     S=.text    G=(none)   M=JclStrings ACBP=A9
 0001:00000B18 00000006 C=CODE     S=.text    G=(none)   M=JclSysUtils ACBP=A9
 0001:00000B20 00000006 C=CODE     S=.text    G=(none)   M=JclWideStrings ACBP=A9
 0001:00000B28 00000006 C=CODE     S=.text    G=(none)   M=JclShell ACBP=A9
 0001:00000B30 00000006 C=CODE     S=.text    G=(none)   M=JclRegistry ACBP=A9
 0001:00000B38 00000006 C=CODE     S=.text    G=(none)   M=JclHookExcept ACBP=A9
 0001:00000B40 00000006 C=CODE     S=.text    G=(none)   M=BisConnectionModules ACBP=A9
 0001:00000B48 00000006 C=CODE     S=.text    G=(none)   M=BisCoreThreads ACBP=A9
 0001:00000B50 00000006 C=CODE     S=.text    G=(none)   M=AsyncCalls ACBP=A9
 0001:00000B58 00000006 C=CODE     S=.text    G=(none)   M=BisServiceApplication ACBP=A9
 0001:00000B60 00000006 C=CODE     S=.text    G=(none)   M=BisSvcMgr ACBP=A9
 0001:00000B68 00000006 C=CODE     S=.text    G=(none)   M=BisCryptUtils ACBP=A9
 0001:00000B70 00000006 C=CODE     S=.text    G=(none)   M=SvcMgr   ACBP=A9
 0001:00000B78 0000005E C=CODE     S=.text    G=(none)   M=BisDBTree ACBP=A9
 0001:00000BD8 00000006 C=CODE     S=.text    G=(none)   M=VirtualDBTreeEx ACBP=A9
 0001:00000BE0 00000006 C=CODE     S=.text    G=(none)   M=VirtualTrees ACBP=A9
 0001:00000BE8 00000006 C=CODE     S=.text    G=(none)   M=VTAccessibilityFactory ACBP=A9
 0001:00000BF0 00001D7E C=CODE     S=.text    G=(none)   M=BisImportFm ACBP=A9
 0001:00002970 000003C6 C=CODE     S=.text    G=(none)   M=BisImportMainFm ACBP=A9
 0001:00002D38 00000072 C=CODE     S=.text    G=(none)   M=BisImport ACBP=A9
 0001:00002DAC 00000AC7 C=CODE     S=.text    G=(none)   M=.imimport ACBP=A9
 0002:00000000 00000006 C=ICODE    S=.itext   G=(none)   M=System   ACBP=A9
 0002:00000008 00000006 C=ICODE    S=.itext   G=(none)   M=Classes  ACBP=A9
 0002:00000010 00000011 C=ICODE    S=.itext   G=(none)   M=Windows  ACBP=A9
 0002:00000024 00000006 C=ICODE    S=.itext   G=(none)   M=TypInfo  ACBP=A9
 0002:0000002C 00000006 C=ICODE    S=.itext   G=(none)   M=SysUtils ACBP=A9
 0002:00000034 00000006 C=ICODE    S=.itext   G=(none)   M=Variants ACBP=A9
 0002:0000003C 00000006 C=ICODE    S=.itext   G=(none)   M=VarUtils ACBP=A9
 0002:00000044 00000006 C=ICODE    S=.itext   G=(none)   M=IniFiles ACBP=A9
 0002:0000004C 00000006 C=ICODE    S=.itext   G=(none)   M=BisFm    ACBP=A9
 0002:00000054 00000006 C=ICODE    S=.itext   G=(none)   M=DECUtil  ACBP=A9
 0002:0000005C 00000006 C=ICODE    S=.itext   G=(none)   M=Hash     ACBP=A9
 0002:00000064 00000006 C=ICODE    S=.itext   G=(none)   M=Cipher   ACBP=A9
 0002:0000006C 00000006 C=ICODE    S=.itext   G=(none)   M=Cipher1  ACBP=A9
 0002:00000074 00000006 C=ICODE    S=.itext   G=(none)   M=Menus    ACBP=A9
 0002:0000007C 00000006 C=ICODE    S=.itext   G=(none)   M=ActnList ACBP=A9
 0002:00000084 00000006 C=ICODE    S=.itext   G=(none)   M=Graphics ACBP=A9
 0002:0000008C 00000006 C=ICODE    S=.itext   G=(none)   M=Registry ACBP=A9
 0002:00000094 00000006 C=ICODE    S=.itext   G=(none)   M=Themes   ACBP=A9
 0002:0000009C 00000006 C=ICODE    S=.itext   G=(none)   M=Controls ACBP=A9
 0002:000000A4 00000006 C=ICODE    S=.itext   G=(none)   M=UxTheme  ACBP=A9
 0002:000000AC 00000006 C=ICODE    S=.itext   G=(none)   M=MultiMon ACBP=A9
 0002:000000B4 00000006 C=ICODE    S=.itext   G=(none)   M=DwmApi   ACBP=A9
 0002:000000BC 00000006 C=ICODE    S=.itext   G=(none)   M=Forms    ACBP=A9
 0002:000000C4 00000006 C=ICODE    S=.itext   G=(none)   M=HelpIntfs ACBP=A9
 0002:000000CC 00000006 C=ICODE    S=.itext   G=(none)   M=Dialogs  ACBP=A9
 0002:000000D4 00000006 C=ICODE    S=.itext   G=(none)   M=Printers ACBP=A9
 0002:000000DC 00000006 C=ICODE    S=.itext   G=(none)   M=ExtCtrls ACBP=A9
 0002:000000E4 00000006 C=ICODE    S=.itext   G=(none)   M=GraphUtil ACBP=A9
 0002:000000EC 00000006 C=ICODE    S=.itext   G=(none)   M=Clipbrd  ACBP=A9
 0002:000000F4 00000006 C=ICODE    S=.itext   G=(none)   M=FlatSB   ACBP=A9
 0002:000000FC 00000006 C=ICODE    S=.itext   G=(none)   M=DB       ACBP=A9
 0002:00000104 00000006 C=ICODE    S=.itext   G=(none)   M=WideStrings ACBP=A9
 0002:0000010C 00000006 C=ICODE    S=.itext   G=(none)   M=FMTBcd   ACBP=A9
 0002:00000114 00000006 C=ICODE    S=.itext   G=(none)   M=SqlTimSt ACBP=A9
 0002:0000011C 00000006 C=ICODE    S=.itext   G=(none)   M=ComObj   ACBP=A9
 0002:00000124 00000006 C=ICODE    S=.itext   G=(none)   M=DBCtrls  ACBP=A9
 0002:0000012C 00000006 C=ICODE    S=.itext   G=(none)   M=ComCtrls ACBP=A9
 0002:00000134 00000006 C=ICODE    S=.itext   G=(none)   M=ExtActns ACBP=A9
 0002:0000013C 00000006 C=ICODE    S=.itext   G=(none)   M=ExtDlgs  ACBP=A9
 0002:00000144 00000006 C=ICODE    S=.itext   G=(none)   M=Buttons  ACBP=A9
 0002:0000014C 00000006 C=ICODE    S=.itext   G=(none)   M=Mapi     ACBP=A9
 0002:00000154 00000006 C=ICODE    S=.itext   G=(none)   M=DBPWDlg  ACBP=A9
 0002:0000015C 00000006 C=ICODE    S=.itext   G=(none)   M=DBLogDlg ACBP=A9
 0002:00000164 00000006 C=ICODE    S=.itext   G=(none)   M=rxToolEdit ACBP=A9
 0002:0000016C 00000006 C=ICODE    S=.itext   G=(none)   M=rxDateUtil ACBP=A9
 0002:00000174 00000006 C=ICODE    S=.itext   G=(none)   M=RXCtrls  ACBP=A9
 0002:0000017C 00000006 C=ICODE    S=.itext   G=(none)   M=RxHook   ACBP=A9
 0002:00000184 00000006 C=ICODE    S=.itext   G=(none)   M=RXConst  ACBP=A9
 0002:0000018C 00000006 C=ICODE    S=.itext   G=(none)   M=rxVclutils ACBP=A9
 0002:00000194 00000006 C=ICODE    S=.itext   G=(none)   M=RXProps  ACBP=A9
 0002:0000019C 00000006 C=ICODE    S=.itext   G=(none)   M=rxAppUtils ACBP=A9
 0002:000001A4 00000006 C=ICODE    S=.itext   G=(none)   M=RxPrgrss ACBP=A9
 0002:000001AC 00000006 C=ICODE    S=.itext   G=(none)   M=rxCurrEdit ACBP=A9
 0002:000001B4 00000006 C=ICODE    S=.itext   G=(none)   M=ThemedDBGrid ACBP=A9
 0002:000001BC 00000006 C=ICODE    S=.itext   G=(none)   M=RxRichEd ACBP=A9
 0002:000001C4 00000006 C=ICODE    S=.itext   G=(none)   M=OleCtnrs ACBP=A9
 0002:000001CC 00000006 C=ICODE    S=.itext   G=(none)   M=CheckLst ACBP=A9
 0002:000001D4 00000006 C=ICODE    S=.itext   G=(none)   M=BisUtils ACBP=A9
 0002:000001DC 00000006 C=ICODE    S=.itext   G=(none)   M=GIFImage ACBP=A9
 0002:000001E4 00000006 C=ICODE    S=.itext   G=(none)   M=jpeg     ACBP=A9
 0002:000001EC 00000006 C=ICODE    S=.itext   G=(none)   M=BisCore  ACBP=A9
 0002:000001F4 00000006 C=ICODE    S=.itext   G=(none)   M=kbmMemTable ACBP=A9
 0002:000001FC 00000006 C=ICODE    S=.itext   G=(none)   M=OleServer ACBP=A9
 0002:00000204 00000006 C=ICODE    S=.itext   G=(none)   M=OleCtrls ACBP=A9
 0002:0000020C 00000006 C=ICODE    S=.itext   G=(none)   M=AxCtrls  ACBP=A9
 0002:00000214 00000006 C=ICODE    S=.itext   G=(none)   M=BisTimedMsgFm ACBP=A9
 0002:0000021C 00000006 C=ICODE    S=.itext   G=(none)   M=ActnMan  ACBP=A9
 0002:00000224 00000006 C=ICODE    S=.itext   G=(none)   M=ActnMenus ACBP=A9
 0002:0000022C 00000006 C=ICODE    S=.itext   G=(none)   M=XPStyleActnCtrls ACBP=A9
 0002:00000234 00000006 C=ICODE    S=.itext   G=(none)   M=SynEditHighlighter ACBP=A9
 0002:0000023C 00000006 C=ICODE    S=.itext   G=(none)   M=SynEditMiscClasses ACBP=A9
 0002:00000244 00000006 C=ICODE    S=.itext   G=(none)   M=SynRegExpr ACBP=A9
 0002:0000024C 00000006 C=ICODE    S=.itext   G=(none)   M=SynHighlighterSQL ACBP=A9
 0002:00000254 00000006 C=ICODE    S=.itext   G=(none)   M=SynEdit  ACBP=A9
 0002:0000025C 00000006 C=ICODE    S=.itext   G=(none)   M=SynEditKeyCmds ACBP=A9
 0002:00000264 00000006 C=ICODE    S=.itext   G=(none)   M=SynTextDrawer ACBP=A9
 0002:0000026C 00000006 C=ICODE    S=.itext   G=(none)   M=MiTeC_Routines ACBP=A9
 0002:00000274 00000006 C=ICODE    S=.itext   G=(none)   M=MSI_Processes ACBP=A9
 0002:0000027C 00000006 C=ICODE    S=.itext   G=(none)   M=MiTeC_PSAPI ACBP=A9
 0002:00000284 00000006 C=ICODE    S=.itext   G=(none)   M=MSI_Devices ACBP=A9
 0002:0000028C 00000006 C=ICODE    S=.itext   G=(none)   M=MSI_CPU  ACBP=A9
 0002:00000294 00000006 C=ICODE    S=.itext   G=(none)   M=JclDebug ACBP=A9
 0002:0000029C 00000006 C=ICODE    S=.itext   G=(none)   M=JclSysInfo ACBP=A9
 0002:000002A4 00000006 C=ICODE    S=.itext   G=(none)   M=JclStrings ACBP=A9
 0002:000002AC 00000006 C=ICODE    S=.itext   G=(none)   M=JclSysUtils ACBP=A9
 0002:000002B4 00000006 C=ICODE    S=.itext   G=(none)   M=JclWideStrings ACBP=A9
 0002:000002BC 00000006 C=ICODE    S=.itext   G=(none)   M=JclShell ACBP=A9
 0002:000002C4 00000006 C=ICODE    S=.itext   G=(none)   M=JclRegistry ACBP=A9
 0002:000002CC 00000006 C=ICODE    S=.itext   G=(none)   M=JclHookExcept ACBP=A9
 0002:000002D4 00000006 C=ICODE    S=.itext   G=(none)   M=BisCoreThreads ACBP=A9
 0002:000002DC 00000006 C=ICODE    S=.itext   G=(none)   M=AsyncCalls ACBP=A9
 0002:000002E4 00000006 C=ICODE    S=.itext   G=(none)   M=BisServiceApplication ACBP=A9
 0002:000002EC 00000006 C=ICODE    S=.itext   G=(none)   M=BisSvcMgr ACBP=A9
 0002:000002F4 00000006 C=ICODE    S=.itext   G=(none)   M=BisCryptUtils ACBP=A9
 0002:000002FC 00000006 C=ICODE    S=.itext   G=(none)   M=SvcMgr   ACBP=A9
 0002:00000304 00000006 C=ICODE    S=.itext   G=(none)   M=VirtualTrees ACBP=A9
 0002:0000030C 00000006 C=ICODE    S=.itext   G=(none)   M=VTAccessibilityFactory ACBP=A9
 0002:00000314 00000008 C=ICODE    S=.itext   G=(none)   M=BisImportFm ACBP=A9
 0002:0000031C 00000008 C=ICODE    S=.itext   G=(none)   M=BisImportMainFm ACBP=A9
 0002:00000324 00000008 C=ICODE    S=.itext   G=(none)   M=BisImport ACBP=A9
 0002:0000032C 00000005 C=ICODE    S=.itext   G=(none)   M=.imimport ACBP=A9
 0003:00000000 0000002C C=DATA     S=.data    G=DGROUP   M=SysInit  ACBP=A9
 0004:00000000 0000000C C=BSS      S=.bss     G=DGROUP   M=SysInit  ACBP=A9
 0004:0000000C 00000008 C=BSS      S=.bss     G=DGROUP   M=Windows  ACBP=A9
 0004:00000014 00000008 C=BSS      S=.bss     G=DGROUP   M=BisImportFm ACBP=A9
 0004:0000001C 00000008 C=BSS      S=.bss     G=DGROUP   M=BisImportMainFm ACBP=A9
 0004:00000024 00000004 C=BSS      S=.bss     G=DGROUP   M=BisImport ACBP=A9


  Address             Publics by Name

 0002:0000032C       .imimport..imimport
 0001:00003854       .imimport.@GetPackageInfoTable
 0001:0000385C       .imimport.@PackageLoad
 0001:00003868       .imimport.@PackageUnload
 0004:00000024       BisImport..1
 0002:00000324       BisImport.BisImport
 0001:00002D7C       BisImport.Finalization
 0001:00002D38       BisImport.InitIfaceModule
 0004:00000018       BisImportFm..3
 0001:00000BF0       BisImportFm..TBisImportForm
 0001:00001250       BisImportFm..TBisImportFormIface
 0002:00000314       BisImportFm.BisImportFm
 0004:00000014       BisImportFm.BisImportForm
 0001:00002940       BisImportFm.Finalization
 0001:0000273C       BisImportFm.TBisImportForm.ActionConnectionExecute
 0001:00001ECC       BisImportFm.TBisImportForm.ActionConnectionUpdate
 0001:00001F3C       BisImportFm.TBisImportForm.ActionImportCurrentExecute
 0001:00001E7C       BisImportFm.TBisImportForm.ActionImportCurrentUpdate
 0001:000022C4       BisImportFm.TBisImportForm.ActionImportExecute
 0001:00001D64       BisImportFm.TBisImportForm.ActionImportUpdate
 0001:00001C24       BisImportFm.TBisImportForm.ActionInfoExecute
 0001:00001DB4       BisImportFm.TBisImportForm.ActionInfoUpdate
 0001:000028E0       BisImportFm.TBisImportForm.ActionLoadExecute
 0001:00001F0C       BisImportFm.TBisImportForm.ActionLoadUpdate
 0001:0000228C       BisImportFm.TBisImportForm.AfterImport
 0001:0000192C       BisImportFm.TBisImportForm.BeforeShow
 0001:00001508       BisImportFm.TBisImportForm.Create
 0001:00001990       BisImportFm.TBisImportForm.DataSetNewRecord
 0001:000018F0       BisImportFm.TBisImportForm.Destroy
 0001:0000198C       BisImportFm.TBisImportForm.FormShow
 0001:00002728       BisImportFm.TBisImportForm.GridDblClick
 0001:000027D8       BisImportFm.TBisImportForm.LoadFromFile
 0001:00001A88       BisImportFm.TBisImportForm.RefreshConnections
 0001:00001C00       BisImportFm.TBisImportForm.TimerExecuteTimer
 0001:000014C8       BisImportFm.TBisImportFormIface.BeforeFormShow
 0001:00001384       BisImportFm.TBisImportFormIface.Create
 0001:000013D0       BisImportFm.TBisImportFormIface.ShowByCommand
 0004:00000020       BisImportMainFm..3
 0001:00002970       BisImportMainFm..TBisImportMainForm
 0001:00002B4C       BisImportMainFm..TBisImportMainFormIface
 0002:0000031C       BisImportMainFm.BisImportMainFm
 0004:0000001C       BisImportMainFm.BisImportMainForm
 0001:00002D08       BisImportMainFm.Finalization
 0001:00002D04       BisImportMainFm.TBisImportMainForm.CanShow
 0001:00002CCC       BisImportMainFm.TBisImportMainForm.Create
 0001:00002C78       BisImportMainFm.TBisImportMainFormIface.Create
 0001:00000228       SysInit.@InitPkg
 0001:0000028C       SysInit.@PackageLoad
 0001:00000298       SysInit.@PackageUnload
 0001:00000118       SysInit.AllocTlsBuffer
 0001:000001D4       SysInit.ExitProcessTLS
 0001:0000019C       SysInit.ExitThreadTLS
 0001:000000E0       SysInit.FreeLibrary
 0001:00000124       SysInit.GetTlsSize
 0004:00000004       SysInit.HInstance
 0001:000001F8       SysInit.InitializeModule
 0001:00000170       SysInit.InitProcessTLS
 0001:0000012C       SysInit.InitThreadTLS
 0001:000000E8       SysInit.LocalAlloc
 0001:000000F0       SysInit.LocalFree
 0003:00000004       SysInit.Module
 0004:00000000       SysInit.ModuleIsLib
 0004:00000001       SysInit.ModuleIsPackage
 0001:000000F8       SysInit.TlsAlloc
 0004:00000008       SysInit.tlsBuffer
 0001:00000100       SysInit.TlsFree
 0001:00000108       SysInit.TlsGetValue
 0003:00000000       SysInit.TlsIndex
 0005:00000000       SysInit.TlsLast
 0003:0000001C       SysInit.TlsProc
 0001:00000110       SysInit.TlsSetValue
 0001:00000204       SysInit.UninitializeModule
 0004:0000000C       Windows..3
 0001:00000344       Windows.Finalization
 0001:0000033C       Windows.FreeLibrary
 0004:00000010       Windows.HtmlHelpModule
 0002:00000010       Windows.Windows


  Address             Publics by Value

 0001:000000E0       SysInit.FreeLibrary
 0001:000000E8       SysInit.LocalAlloc
 0001:000000F0       SysInit.LocalFree
 0001:000000F8       SysInit.TlsAlloc
 0001:00000100       SysInit.TlsFree
 0001:00000108       SysInit.TlsGetValue
 0001:00000110       SysInit.TlsSetValue
 0001:00000118       SysInit.AllocTlsBuffer
 0001:00000124       SysInit.GetTlsSize
 0001:0000012C       SysInit.InitThreadTLS
 0001:00000170       SysInit.InitProcessTLS
 0001:0000019C       SysInit.ExitThreadTLS
 0001:000001D4       SysInit.ExitProcessTLS
 0001:000001F8       SysInit.InitializeModule
 0001:00000204       SysInit.UninitializeModule
 0001:00000228       SysInit.@InitPkg
 0001:0000028C       SysInit.@PackageLoad
 0001:00000298       SysInit.@PackageUnload
 0001:0000033C       Windows.FreeLibrary
 0001:00000344       Windows.Finalization
 0001:00000BF0       BisImportFm..TBisImportForm
 0001:00001250       BisImportFm..TBisImportFormIface
 0001:00001384       BisImportFm.TBisImportFormIface.Create
 0001:000013D0       BisImportFm.TBisImportFormIface.ShowByCommand
 0001:000014C8       BisImportFm.TBisImportFormIface.BeforeFormShow
 0001:00001508       BisImportFm.TBisImportForm.Create
 0001:000018F0       BisImportFm.TBisImportForm.Destroy
 0001:0000192C       BisImportFm.TBisImportForm.BeforeShow
 0001:0000198C       BisImportFm.TBisImportForm.FormShow
 0001:00001990       BisImportFm.TBisImportForm.DataSetNewRecord
 0001:00001A88       BisImportFm.TBisImportForm.RefreshConnections
 0001:00001C00       BisImportFm.TBisImportForm.TimerExecuteTimer
 0001:00001C24       BisImportFm.TBisImportForm.ActionInfoExecute
 0001:00001D64       BisImportFm.TBisImportForm.ActionImportUpdate
 0001:00001DB4       BisImportFm.TBisImportForm.ActionInfoUpdate
 0001:00001E7C       BisImportFm.TBisImportForm.ActionImportCurrentUpdate
 0001:00001ECC       BisImportFm.TBisImportForm.ActionConnectionUpdate
 0001:00001F0C       BisImportFm.TBisImportForm.ActionLoadUpdate
 0001:00001F3C       BisImportFm.TBisImportForm.ActionImportCurrentExecute
 0001:0000228C       BisImportFm.TBisImportForm.AfterImport
 0001:000022C4       BisImportFm.TBisImportForm.ActionImportExecute
 0001:00002728       BisImportFm.TBisImportForm.GridDblClick
 0001:0000273C       BisImportFm.TBisImportForm.ActionConnectionExecute
 0001:000027D8       BisImportFm.TBisImportForm.LoadFromFile
 0001:000028E0       BisImportFm.TBisImportForm.ActionLoadExecute
 0001:00002940       BisImportFm.Finalization
 0001:00002970       BisImportMainFm..TBisImportMainForm
 0001:00002B4C       BisImportMainFm..TBisImportMainFormIface
 0001:00002C78       BisImportMainFm.TBisImportMainFormIface.Create
 0001:00002CCC       BisImportMainFm.TBisImportMainForm.Create
 0001:00002D04       BisImportMainFm.TBisImportMainForm.CanShow
 0001:00002D08       BisImportMainFm.Finalization
 0001:00002D38       BisImport.InitIfaceModule
 0001:00002D7C       BisImport.Finalization
 0001:00003854       .imimport.@GetPackageInfoTable
 0001:0000385C       .imimport.@PackageLoad
 0001:00003868       .imimport.@PackageUnload
 0002:00000010       Windows.Windows
 0002:00000314       BisImportFm.BisImportFm
 0002:0000031C       BisImportMainFm.BisImportMainFm
 0002:00000324       BisImport.BisImport
 0002:0000032C       .imimport..imimport
 0003:00000000       SysInit.TlsIndex
 0003:00000004       SysInit.Module
 0003:0000001C       SysInit.TlsProc
 0004:00000000       SysInit.ModuleIsLib
 0004:00000001       SysInit.ModuleIsPackage
 0004:00000004       SysInit.HInstance
 0004:00000008       SysInit.tlsBuffer
 0004:0000000C       Windows..3
 0004:00000010       Windows.HtmlHelpModule
 0004:00000014       BisImportFm.BisImportForm
 0004:00000018       BisImportFm..3
 0004:0000001C       BisImportMainFm.BisImportMainForm
 0004:00000020       BisImportMainFm..3
 0004:00000024       BisImport..1
 0005:00000000       SysInit.TlsLast


Line numbers for IpRtrMib(objects.bpl\IPHlpApi\Pas\IpRtrMib.pas) segment .text

  1062 0001:00000000

Line numbers for IpExport(objects.bpl\IPHlpApi\Pas\IpExport.pas) segment .text

   343 0001:00000000

Line numbers for IpTypes(objects.bpl\IPHlpApi\Pas\IpTypes.pas) segment .text

   228 0001:00000000

Line numbers for IpHlpApi(objects.bpl\IPHlpApi\Pas\IpHlpApi.pas) segment .text

   752 0001:00000000

Line numbers for MiTeC_ToolHelp32(MiTeC_ToolHelp32.pas) segment .text

   438 0001:00000000

Line numbers for BisImportFm(imimport.bpl\BisImportFm.pas) segment .text

   108 0001:00001384   109 0001:00001396   110 0001:0000139F   111 0001:000013A7
   112 0001:000013AB   113 0001:000013B2   114 0001:000013B6   117 0001:000013D0
   118 0001:000013EB   119 0001:000013F5   120 0001:00001403   121 0001:0000143B
   122 0001:0000145C   123 0001:00001475   124 0001:00001479   126 0001:0000148E
   128 0001:000014A0   131 0001:000014C8   132 0001:000014CB   133 0001:000014D2
   134 0001:000014E6   135 0001:000014F4   137 0001:00001506   143 0001:00001508
   144 0001:0000153D   145 0001:00001546   147 0001:0000154D   148 0001:0000155D
   150 0001:0000156D   151 0001:0000157D   152 0001:0000158D   156 0001:0000159D
   157 0001:000015B3   158 0001:000015B6   159 0001:000015D3   160 0001:000015F0
   161 0001:00001610   162 0001:0000162D   163 0001:0000164A   165 0001:00001667
   166 0001:00001673   167 0001:0000168A   168 0001:000016AC   170 0001:000016CF
   171 0001:000016DC   172 0001:000016F2   174 0001:000016FF   175 0001:00001715
   176 0001:00001725   177 0001:0000173A   178 0001:00001747   179 0001:0000174E
   180 0001:0000175B   181 0001:00001768   182 0001:00001775   183 0001:00001782
   184 0001:0000178F   185 0001:0000179C   186 0001:000017A9   187 0001:000017B6
   188 0001:000017CF   189 0001:000017E7   190 0001:000017FE   192 0001:00001814
   194 0001:0000181F   196 0001:00001826   199 0001:000018F0   200 0001:000018FB
   201 0001:00001906   202 0001:00001911   203 0001:0000191D   206 0001:0000192C
   207 0001:0000192F   208 0001:00001936   209 0001:0000193F   210 0001:0000194C
   211 0001:00001959   212 0001:00001972   214 0001:0000198A   219 0001:0000198C
   222 0001:00001990   223 0001:000019B1   224 0001:000019F7   225 0001:00001A36
   234 0001:00001A88   235 0001:00001A94   236 0001:00001AA8   237 0001:00001AB6
   238 0001:00001ACA   239 0001:00001AD1   240 0001:00001AF7   241 0001:00001B0F
   242 0001:00001B18   243 0001:00001B32   244 0001:00001B42   245 0001:00001B48
   246 0001:00001B63   247 0001:00001B73   249 0001:00001B76   242 0001:00001B79
   251 0001:00001B7C   239 0001:00001B7F   252 0001:00001B88   253 0001:00001BA0
   254 0001:00001BA6   256 0001:00001BBC   260 0001:00001BDC   262 0001:00001BF8
   265 0001:00001C00   266 0001:00001C04   268 0001:00001C11   269 0001:00001C20
   276 0001:00001C24   277 0001:00001C43   278 0001:00001C69   279 0001:00001C7A
   280 0001:00001C89   281 0001:00001C97   282 0001:00001CC5   283 0001:00001CD1
   284 0001:00001CE8   285 0001:00001CF8   286 0001:00001D08   288 0001:00001D20
   289 0001:00001D28   292 0001:00001D38   295 0001:00001D64   296 0001:00001D67
   298 0001:00001DB0   301 0001:00001DB4   302 0001:00001DCE   304 0001:00001E45
   307 0001:00001E7C   308 0001:00001E7F   310 0001:00001EC8   313 0001:00001ECC
   314 0001:00001ECF   316 0001:00001F09   319 0001:00001F0C   320 0001:00001F0F
   321 0001:00001F38   330 0001:00001F3C   331 0001:00001F60   332 0001:00001F70
   333 0001:00001F88   334 0001:00001FAB   335 0001:00001FB5   336 0001:00001FC4
   337 0001:00001FD4   338 0001:00001FDE   339 0001:00001FEE   340 0001:00002000
   341 0001:0000200F   342 0001:0000201D   343 0001:00002028   344 0001:00002038
   345 0001:00002040   346 0001:00002048   347 0001:00002079   348 0001:00002085
   349 0001:00002089   350 0001:00002097   351 0001:000020D5   353 0001:000020F4
   354 0001:000020F6   355 0001:00002101   359 0001:00002110   360 0001:0000211E
   361 0001:00002162   362 0001:000021A3   364 0001:000021B4   367 0001:000021CC
   368 0001:000021D4   369 0001:000021E4   370 0001:000021F4   371 0001:000021FE
   376 0001:00002216   379 0001:0000228C   380 0001:0000228F   381 0001:00002293
   382 0001:000022A0   383 0001:000022A9   385 0001:000022B2   386 0001:000022BF
   399 0001:000022C4   400 0001:000022E8   401 0001:000022F8   402 0001:00002310
   403 0001:00002333   404 0001:0000233D   405 0001:0000234C   406 0001:0000235C
   407 0001:00002366   408 0001:0000236A   409 0001:0000237A   410 0001:0000238E
   411 0001:0000239D   412 0001:000023B2   413 0001:000023C0   414 0001:000023CB
   415 0001:000023DB   416 0001:000023E2   417 0001:00002408   418 0001:0000241A
   419 0001:0000241E   421 0001:00002431   422 0001:00002439   423 0001:00002441
   424 0001:00002472   425 0001:0000247E   426 0001:00002482   427 0001:00002490
   428 0001:0000249E   429 0001:000024DC   431 0001:000024FB   432 0001:000024FD
   436 0001:0000250D   438 0001:00002517   439 0001:00002525   440 0001:00002569
   441 0001:000025AA   443 0001:000025BB   444 0001:000025C9   445 0001:000025F1
   420 0001:000025F4   447 0001:0000260A   450 0001:00002622   451 0001:00002637
   452 0001:0000263F   453 0001:0000265D   454 0001:0000266E   455 0001:0000267E
   456 0001:00002688   457 0001:00002698   462 0001:000026B2   465 0001:00002728
   466 0001:00002729   467 0001:00002738   473 0001:0000273C   474 0001:00002744
   475 0001:00002755   476 0001:00002774   477 0001:00002778   478 0001:00002789
   479 0001:00002797   480 0001:000027A1   481 0001:000027A9   484 0001:000027C2
   488 0001:000027D2   493 0001:000027D8   494 0001:000027E6   495 0001:000027F4
   496 0001:00002805   497 0001:00002813   498 0001:0000281D   499 0001:0000282B
   500 0001:0000283D   501 0001:0000284B   502 0001:0000285C   504 0001:00002877
   507 0001:0000289C   511 0001:000028C7   513 0001:000028D6   516 0001:000028E0
   517 0001:000028F6   518 0001:00002905   520 0001:0000291D

Line numbers for BisImportFm(imimport.bpl\BisImportFm.pas) segment .itext

   523 0002:00000314

Line numbers for BisImportMainFm(imimport.bpl\BisImportMainFm.pas) segment .text

    36 0001:00002C78    37 0001:00002C8A    38 0001:00002C93    39 0001:00002C9B
    40 0001:00002C9F    41 0001:00002CA3    42 0001:00002CA7    43 0001:00002CAE
    44 0001:00002CB2    49 0001:00002CCC    50 0001:00002CDE    51 0001:00002CE7
    55 0001:00002D04    56 0001:00002D06

Line numbers for BisImportMainFm(imimport.bpl\BisImportMainFm.pas) segment .itext

    58 0002:0000031C

Line numbers for BisImport(imimport.bpl\BisImport.pas) segment .text

    21 0001:00002D38    22 0001:00002D3F    23 0001:00002D53    24 0001:00002D56
    25 0001:00002D5A    26 0001:00002D67    28 0001:00002D74

Line numbers for BisImport(imimport.bpl\BisImport.pas) segment .itext

    30 0002:00000324

Line numbers for .imimport(imimport.dpk) segment .itext

    36 0002:0000032C

Bound resource files

BisImportFm.dfm
BisImportMainFm.dfm
imimport.res
imimport.drf


Program entry point at 0002:0000032C
