
 Start         Length     Name                   Class
 0001:00401000 000375C8H .text                   CODE
 0002:00439000 0000050CH .itext                  ICODE
 0003:0043A000 00000040H .data                   DATA
 0004:0043B000 000001C4H .bss                    BSS
 0005:00000000 00000000H .tls                    TLS


Detailed map of segments

 0001:00000000 0000012E C=CODE     S=.text    G=(none)   M=System   ACBP=A9
 0001:00000130 000001C3 C=CODE     S=.text    G=(none)   M=SysInit  ACBP=A9
 0001:000002F4 0000000E C=CODE     S=.text    G=(none)   M=BisIfaceModules ACBP=A9
 0001:00000304 00000006 C=CODE     S=.text    G=(none)   M=BisObjects ACBP=A9
 0001:0000030C 000000C6 C=CODE     S=.text    G=(none)   M=Classes  ACBP=A9
 0001:000003D4 00000054 C=CODE     S=.text    G=(none)   M=Windows  ACBP=A9
 0001:00000428 0000000E C=CODE     S=.text    G=(none)   M=TypInfo  ACBP=A9
 0001:00000438 0000004E C=CODE     S=.text    G=(none)   M=SysUtils ACBP=A9
 0001:00000488 00000076 C=CODE     S=.text    G=(none)   M=Variants ACBP=A9
 0001:00000500 00000006 C=CODE     S=.text    G=(none)   M=VarUtils ACBP=A9
 0001:00000508 0000000E C=CODE     S=.text    G=(none)   M=BisObject ACBP=A9
 0001:00000518 00000026 C=CODE     S=.text    G=(none)   M=Contnrs  ACBP=A9
 0001:00000540 00000036 C=CODE     S=.text    G=(none)   M=BisCoreObjects ACBP=A9
 0001:00000578 00000006 C=CODE     S=.text    G=(none)   M=IniFiles ACBP=A9
 0001:00000580 0000000E C=CODE     S=.text    G=(none)   M=BisDialogs ACBP=A9
 0001:00000590 00000156 C=CODE     S=.text    G=(none)   M=BisFm    ACBP=A9
 0001:000006E8 00000006 C=CODE     S=.text    G=(none)   M=DECUtil  ACBP=A9
 0001:000006F0 00000006 C=CODE     S=.text    G=(none)   M=Hash     ACBP=A9
 0001:000006F8 00000006 C=CODE     S=.text    G=(none)   M=Cipher   ACBP=A9
 0001:00000700 00000006 C=CODE     S=.text    G=(none)   M=Cipher1  ACBP=A9
 0001:00000708 00000096 C=CODE     S=.text    G=(none)   M=BisParams ACBP=A9
 0001:000007A0 0000005E C=CODE     S=.text    G=(none)   M=BisParam ACBP=A9
 0001:00000800 00000016 C=CODE     S=.text    G=(none)   M=BisFilterGroups ACBP=A9
 0001:00000818 0000000E C=CODE     S=.text    G=(none)   M=Graphics ACBP=A9
 0001:00000828 00000006 C=CODE     S=.text    G=(none)   M=Registry ACBP=A9
 0001:00000830 0000006E C=CODE     S=.text    G=(none)   M=DB       ACBP=A9
 0001:000008A0 00000006 C=CODE     S=.text    G=(none)   M=WideStrings ACBP=A9
 0001:000008A8 00000006 C=CODE     S=.text    G=(none)   M=FMTBcd   ACBP=A9
 0001:000008B0 00000006 C=CODE     S=.text    G=(none)   M=SqlTimSt ACBP=A9
 0001:000008B8 0000000E C=CODE     S=.text    G=(none)   M=DateUtils ACBP=A9
 0001:000008C8 00000006 C=CODE     S=.text    G=(none)   M=ComObj   ACBP=A9
 0001:000008D0 00000196 C=CODE     S=.text    G=(none)   M=Controls ACBP=A9
 0001:00000A68 0000001E C=CODE     S=.text    G=(none)   M=ActnList ACBP=A9
 0001:00000A88 00000006 C=CODE     S=.text    G=(none)   M=Themes   ACBP=A9
 0001:00000A90 00000016 C=CODE     S=.text    G=(none)   M=Menus    ACBP=A9
 0001:00000AA8 00000006 C=CODE     S=.text    G=(none)   M=UxTheme  ACBP=A9
 0001:00000AB0 00000006 C=CODE     S=.text    G=(none)   M=MultiMon ACBP=A9
 0001:00000AB8 00000006 C=CODE     S=.text    G=(none)   M=DwmApi   ACBP=A9
 0001:00000AC0 0000014E C=CODE     S=.text    G=(none)   M=Forms    ACBP=A9
 0001:00000C10 00000006 C=CODE     S=.text    G=(none)   M=HelpIntfs ACBP=A9
 0001:00000C18 0000000E C=CODE     S=.text    G=(none)   M=Dialogs  ACBP=A9
 0001:00000C28 00000006 C=CODE     S=.text    G=(none)   M=StdCtrls ACBP=A9
 0001:00000C30 00000006 C=CODE     S=.text    G=(none)   M=Printers ACBP=A9
 0001:00000C38 00000006 C=CODE     S=.text    G=(none)   M=ExtCtrls ACBP=A9
 0001:00000C40 00000006 C=CODE     S=.text    G=(none)   M=GraphUtil ACBP=A9
 0001:00000C48 00000006 C=CODE     S=.text    G=(none)   M=Clipbrd  ACBP=A9
 0001:00000C50 00000006 C=CODE     S=.text    G=(none)   M=FlatSB   ACBP=A9
 0001:00000C58 00000006 C=CODE     S=.text    G=(none)   M=BisControls ACBP=A9
 0001:00000C60 0000000E C=CODE     S=.text    G=(none)   M=DBCtrls  ACBP=A9
 0001:00000C70 00000026 C=CODE     S=.text    G=(none)   M=ComCtrls ACBP=A9
 0001:00000C98 00000006 C=CODE     S=.text    G=(none)   M=ExtActns ACBP=A9
 0001:00000CA0 00000006 C=CODE     S=.text    G=(none)   M=ExtDlgs  ACBP=A9
 0001:00000CA8 00000006 C=CODE     S=.text    G=(none)   M=Buttons  ACBP=A9
 0001:00000CB0 00000006 C=CODE     S=.text    G=(none)   M=Mapi     ACBP=A9
 0001:00000CB8 00000006 C=CODE     S=.text    G=(none)   M=DBPWDlg  ACBP=A9
 0001:00000CC0 00000006 C=CODE     S=.text    G=(none)   M=DBLogDlg ACBP=A9
 0001:00000CC8 00000006 C=CODE     S=.text    G=(none)   M=rxToolEdit ACBP=A9
 0001:00000CD0 00000006 C=CODE     S=.text    G=(none)   M=rxDateUtil ACBP=A9
 0001:00000CD8 00000006 C=CODE     S=.text    G=(none)   M=RXCtrls  ACBP=A9
 0001:00000CE0 00000006 C=CODE     S=.text    G=(none)   M=RxHook   ACBP=A9
 0001:00000CE8 00000006 C=CODE     S=.text    G=(none)   M=RXConst  ACBP=A9
 0001:00000CF0 00000006 C=CODE     S=.text    G=(none)   M=rxVclutils ACBP=A9
 0001:00000CF8 00000006 C=CODE     S=.text    G=(none)   M=RXProps  ACBP=A9
 0001:00000D00 00000006 C=CODE     S=.text    G=(none)   M=rxAppUtils ACBP=A9
 0001:00000D08 00000006 C=CODE     S=.text    G=(none)   M=RxPrgrss ACBP=A9
 0001:00000D10 00000006 C=CODE     S=.text    G=(none)   M=rxCurrEdit ACBP=A9
 0001:00000D18 00000006 C=CODE     S=.text    G=(none)   M=ThemedDBGrid ACBP=A9
 0001:00000D20 00000006 C=CODE     S=.text    G=(none)   M=RxRichEd ACBP=A9
 0001:00000D28 0000001E C=CODE     S=.text    G=(none)   M=OleCtnrs ACBP=A9
 0001:00000D48 00000016 C=CODE     S=.text    G=(none)   M=CheckLst ACBP=A9
 0001:00000D60 00000046 C=CODE     S=.text    G=(none)   M=BisUtils ACBP=A9
 0001:00000DA8 0000003E C=CODE     S=.text    G=(none)   M=BisFrm   ACBP=A9
 0001:00000DE8 00000006 C=CODE     S=.text    G=(none)   M=BisPicture ACBP=A9
 0001:00000DF0 00000006 C=CODE     S=.text    G=(none)   M=GIFImage ACBP=A9
 0001:00000DF8 00000006 C=CODE     S=.text    G=(none)   M=jpeg     ACBP=A9
 0001:00000E00 00000006 C=CODE     S=.text    G=(none)   M=BisOrders ACBP=A9
 0001:00000E08 0000003E C=CODE     S=.text    G=(none)   M=BisCore  ACBP=A9
 0001:00000E48 0000004E C=CODE     S=.text    G=(none)   M=BisIfaces ACBP=A9
 0001:00000E98 0000000E C=CODE     S=.text    G=(none)   M=BisParamEditDataSelect ACBP=A9
 0001:00000EA8 0000001E C=CODE     S=.text    G=(none)   M=BisPermissions ACBP=A9
 0001:00000EC8 00000006 C=CODE     S=.text    G=(none)   M=BisModules ACBP=A9
 0001:00000ED0 0000004E C=CODE     S=.text    G=(none)   M=BisDataSet ACBP=A9
 0001:00000F20 00000006 C=CODE     S=.text    G=(none)   M=AsyncCalls ACBP=A9
 0001:00000F28 0000002E C=CODE     S=.text    G=(none)   M=BisFieldNames ACBP=A9
 0001:00000F58 00000006 C=CODE     S=.text    G=(none)   M=OleServer ACBP=A9
 0001:00000F60 00000006 C=CODE     S=.text    G=(none)   M=OleCtrls ACBP=A9
 0001:00000F68 00000006 C=CODE     S=.text    G=(none)   M=AxCtrls  ACBP=A9
 0001:00000F70 0000000E C=CODE     S=.text    G=(none)   M=kbmMemTable ACBP=A9
 0001:00000F80 00000006 C=CODE     S=.text    G=(none)   M=BisTimedMsgFm ACBP=A9
 0001:00000F88 00000006 C=CODE     S=.text    G=(none)   M=BisTasks ACBP=A9
 0001:00000F90 00000006 C=CODE     S=.text    G=(none)   M=BisInterfaces ACBP=A9
 0001:00000F98 0000000E C=CODE     S=.text    G=(none)   M=BisScriptModules ACBP=A9
 0001:00000FA8 0000000E C=CODE     S=.text    G=(none)   M=BisReportModules ACBP=A9
 0001:00000FB8 00000016 C=CODE     S=.text    G=(none)   M=ActnMan  ACBP=A9
 0001:00000FD0 00000006 C=CODE     S=.text    G=(none)   M=ActnMenus ACBP=A9
 0001:00000FD8 00000006 C=CODE     S=.text    G=(none)   M=XPStyleActnCtrls ACBP=A9
 0001:00000FE0 00000006 C=CODE     S=.text    G=(none)   M=BisDocumentFm ACBP=A9
 0001:00000FE8 0000000E C=CODE     S=.text    G=(none)   M=BisProvider ACBP=A9
 0001:00000FF8 00000006 C=CODE     S=.text    G=(none)   M=BisConnections ACBP=A9
 0001:00001000 00000086 C=CODE     S=.text    G=(none)   M=BisDataFm ACBP=A9
 0001:00001088 000000D6 C=CODE     S=.text    G=(none)   M=BisDataEditFm ACBP=A9
 0001:00001160 00000186 C=CODE     S=.text    G=(none)   M=BisDataFrm ACBP=A9
 0001:000012E8 0000000E C=CODE     S=.text    G=(none)   M=BisMemoFm ACBP=A9
 0001:000012F8 00000006 C=CODE     S=.text    G=(none)   M=SynEditHighlighter ACBP=A9
 0001:00001300 00000006 C=CODE     S=.text    G=(none)   M=SynEditMiscClasses ACBP=A9
 0001:00001308 00000006 C=CODE     S=.text    G=(none)   M=SynRegExpr ACBP=A9
 0001:00001310 00000006 C=CODE     S=.text    G=(none)   M=SynHighlighterXML ACBP=A9
 0001:00001318 00000006 C=CODE     S=.text    G=(none)   M=SynHighlighterSQL ACBP=A9
 0001:00001320 0000000E C=CODE     S=.text    G=(none)   M=SynEdit  ACBP=A9
 0001:00001330 00000006 C=CODE     S=.text    G=(none)   M=SynEditKeyCmds ACBP=A9
 0001:00001338 00000006 C=CODE     S=.text    G=(none)   M=SynTextDrawer ACBP=A9
 0001:00001340 00000006 C=CODE     S=.text    G=(none)   M=MiTeC_Routines ACBP=A9
 0001:00001348 00000006 C=CODE     S=.text    G=(none)   M=MSI_Processes ACBP=A9
 0001:00001350 00000006 C=CODE     S=.text    G=(none)   M=MiTeC_PSAPI ACBP=A9
 0001:00001358 00000006 C=CODE     S=.text    G=(none)   M=MSI_Devices ACBP=A9
 0001:00001360 00000006 C=CODE     S=.text    G=(none)   M=MSI_CPU  ACBP=A9
 0001:00001368 00000006 C=CODE     S=.text    G=(none)   M=JclDebug ACBP=A9
 0001:00001370 00000006 C=CODE     S=.text    G=(none)   M=JclSysInfo ACBP=A9
 0001:00001378 00000006 C=CODE     S=.text    G=(none)   M=JclStrings ACBP=A9
 0001:00001380 00000006 C=CODE     S=.text    G=(none)   M=JclSysUtils ACBP=A9
 0001:00001388 00000006 C=CODE     S=.text    G=(none)   M=JclWideStrings ACBP=A9
 0001:00001390 00000006 C=CODE     S=.text    G=(none)   M=JclShell ACBP=A9
 0001:00001398 00000006 C=CODE     S=.text    G=(none)   M=JclRegistry ACBP=A9
 0001:000013A0 00000006 C=CODE     S=.text    G=(none)   M=JclHookExcept ACBP=A9
 0001:000013A8 0000000E C=CODE     S=.text    G=(none)   M=BisConnectionModules ACBP=A9
 0001:000013B8 00000006 C=CODE     S=.text    G=(none)   M=BisCoreThreads ACBP=A9
 0001:000013C0 00000006 C=CODE     S=.text    G=(none)   M=BisServiceApplication ACBP=A9
 0001:000013C8 00000006 C=CODE     S=.text    G=(none)   M=BisSvcMgr ACBP=A9
 0001:000013D0 00000006 C=CODE     S=.text    G=(none)   M=BisCryptUtils ACBP=A9
 0001:000013D8 00000006 C=CODE     S=.text    G=(none)   M=SvcMgr   ACBP=A9
 0001:000013E0 0000002E C=CODE     S=.text    G=(none)   M=BisDesignConsts ACBP=A9
 0001:00001410 00000006 C=CODE     S=.text    G=(none)   M=AppEvnts ACBP=A9
 0001:00001418 00000006 C=CODE     S=.text    G=(none)   M=CustomizeDlg ACBP=A9
 0001:00001420 00000066 C=CODE     S=.text    G=(none)   M=BisMdiMainFm ACBP=A9
 0001:00001488 00000026 C=CODE     S=.text    G=(none)   M=BisMainFm ACBP=A9
 0001:000014B0 00000006 C=CODE     S=.text    G=(none)   M=BisInternetProtocol ACBP=A9
 0001:000014B8 000007AA C=CODE     S=.text    G=(none)   M=BisDesignMainFm ACBP=A9
 0001:00001C64 0000001E C=CODE     S=.text    G=(none)   M=BisDataGridFm ACBP=A9
 0001:00001C84 000000AE C=CODE     S=.text    G=(none)   M=BisDataGridFrm ACBP=A9
 0001:00001D34 0000005E C=CODE     S=.text    G=(none)   M=BisDBTree ACBP=A9
 0001:00001D94 0000000E C=CODE     S=.text    G=(none)   M=VirtualDBTreeEx ACBP=A9
 0001:00001DA4 0000000E C=CODE     S=.text    G=(none)   M=VirtualTrees ACBP=A9
 0001:00001DB4 00000006 C=CODE     S=.text    G=(none)   M=VTAccessibilityFactory ACBP=A9
 0001:00001DBC 00000B86 C=CODE     S=.text    G=(none)   M=BisDesignDataFirmTypeEditFm ACBP=A9
 0001:00002944 00000536 C=CODE     S=.text    G=(none)   M=BisDesignDataFirmTypesFm ACBP=A9
 0001:00002E7C 0000001E C=CODE     S=.text    G=(none)   M=BisDataTreeFm ACBP=A9
 0001:00002E9C 0000001E C=CODE     S=.text    G=(none)   M=BisDataTreeFrm ACBP=A9
 0001:00002EBC 0000084E C=CODE     S=.text    G=(none)   M=BisDesignDataLocalitiesFrm ACBP=A9
 0001:0000370C 00000AE6 C=CODE     S=.text    G=(none)   M=BisDesignDataLocalityEditFm ACBP=A9
 0001:000041F4 00000516 C=CODE     S=.text    G=(none)   M=BisDesignDataLocalitiesFm ACBP=A9
 0001:0000470C 00000DCE C=CODE     S=.text    G=(none)   M=BisDesignDataStreetEditFm ACBP=A9
 0001:000054DC 00000B1A C=CODE     S=.text    G=(none)   M=BisDesignDataStreetsFm ACBP=A9
 0001:00005FF8 00002262 C=CODE     S=.text    G=(none)   M=BisDesignDataFirmEditFm ACBP=A9
 0001:0000825C 00000A12 C=CODE     S=.text    G=(none)   M=BisDesignDataFirmsFm ACBP=A9
 0001:00008C70 00002636 C=CODE     S=.text    G=(none)   M=BisDesignDataAccountEditFm ACBP=A9
 0001:0000B2A8 00000C7A C=CODE     S=.text    G=(none)   M=BisDesignDataAccountsFm ACBP=A9
 0001:0000BF24 00000C0E C=CODE     S=.text    G=(none)   M=BisDesignDataRoleEditFm ACBP=A9
 0001:0000CB34 00000612 C=CODE     S=.text    G=(none)   M=BisDesignDataRolesFm ACBP=A9
 0001:0000D148 0000179E C=CODE     S=.text    G=(none)   M=BisDesignDataRolesAndAccountsFm ACBP=A9
 0001:0000E8E8 00000B96 C=CODE     S=.text    G=(none)   M=BisDesignDataApplicationEditFm ACBP=A9
 0001:0000F480 00000ADA C=CODE     S=.text    G=(none)   M=BisDesignDataInterfaceFilterFm ACBP=A9
 0001:0000FF5C 00000F96 C=CODE     S=.text    G=(none)   M=BisDesignDataInterfaceEditFm ACBP=A9
 0001:00010EF4 000004DA C=CODE     S=.text    G=(none)   M=BisDesignDataInterfacesFm ACBP=A9
 0001:000113D0 000020A6 C=CODE     S=.text    G=(none)   M=BisDesignDataReportEditFm ACBP=A9
 0001:00013478 00001AFE C=CODE     S=.text    G=(none)   M=BisDesignDataScriptEditFm ACBP=A9
 0001:00014F78 00001BE6 C=CODE     S=.text    G=(none)   M=BisDesignDataDocumentEditFm ACBP=A9
 0001:00016B60 00001B3A C=CODE     S=.text    G=(none)   M=BisDesignDataInterfacesFrm ACBP=A9
 0001:0001869C 000017BA C=CODE     S=.text    G=(none)   M=BisDesignDataPermissionEditFm ACBP=A9
 0001:00019E58 00000AB2 C=CODE     S=.text    G=(none)   M=BisDesignDataPermissionsFm ACBP=A9
 0001:0001A90C 00000F46 C=CODE     S=.text    G=(none)   M=BisDesignDataApplicationInterfaceEditFm ACBP=A9
 0001:0001B854 00000B46 C=CODE     S=.text    G=(none)   M=BisDesignDataApplicationInterfacesFm ACBP=A9
 0001:0001C39C 00000832 C=CODE     S=.text    G=(none)   M=BisDesignDataApplicationsFrm ACBP=A9
 0001:0001CBD0 0000054A C=CODE     S=.text    G=(none)   M=BisDesignDataApplicationsFm ACBP=A9
 0001:0001D11C 00000C1E C=CODE     S=.text    G=(none)   M=BisDesignDataAccountRoleEditFm ACBP=A9
 0001:0001DD3C 0000054A C=CODE     S=.text    G=(none)   M=BisDesignDataAccountRolesFm ACBP=A9
 0001:0001E288 00000C4E C=CODE     S=.text    G=(none)   M=BisDesignDataProfileEditFm ACBP=A9
 0001:0001EED8 0000055E C=CODE     S=.text    G=(none)   M=BisDesignDataProfilesFm ACBP=A9
 0001:0001F438 00000FAE C=CODE     S=.text    G=(none)   M=BisDesignDataSessionsFm ACBP=A9
 0001:000203E8 0000224E C=CODE     S=.text    G=(none)   M=BisDesignDataMenuEditFm ACBP=A9
 0001:00022638 00000606 C=CODE     S=.text    G=(none)   M=BisDesignDataMenusFm ACBP=A9
 0001:00022C40 000013AE C=CODE     S=.text    G=(none)   M=BisDesignDataReportsFrm ACBP=A9
 0001:00023FF0 000005DA C=CODE     S=.text    G=(none)   M=BisDesignDataReportsFm ACBP=A9
 0001:000245CC 000008DE C=CODE     S=.text    G=(none)   M=BisDesignDataScriptsFrm ACBP=A9
 0001:00024EAC 000005AE C=CODE     S=.text    G=(none)   M=BisDesignDataScriptsFm ACBP=A9
 0001:0002545C 00001346 C=CODE     S=.text    G=(none)   M=BisDesignJournalActionEditFm ACBP=A9
 0001:000267A4 00000866 C=CODE     S=.text    G=(none)   M=BisDesignJournalActionsFm ACBP=A9
 0001:0002700C 0000056A C=CODE     S=.text    G=(none)   M=BisDesignDataDocumentsFm ACBP=A9
 0001:00027578 00000BFE C=CODE     S=.text    G=(none)   M=BisDesignDataConstEditFm ACBP=A9
 0001:00028178 00000536 C=CODE     S=.text    G=(none)   M=BisDesignDataConstsFm ACBP=A9
 0001:000286B0 0000101A C=CODE     S=.text    G=(none)   M=BisDesignDataLockEditFm ACBP=A9
 0001:000296CC 0000066A C=CODE     S=.text    G=(none)   M=BisDesignDataLocksFm ACBP=A9
 0001:00029D38 00002F72 C=CODE     S=.text    G=(none)   M=BisDesignDataTaskEditFm ACBP=A9
 0001:0002CCAC 00000EA6 C=CODE     S=.text    G=(none)   M=BisDesignDataTasksFrm ACBP=A9
 0001:0002DB54 000003F6 C=CODE     S=.text    G=(none)   M=BisDesignDataTasksFm ACBP=A9
 0001:0002DF4C 0000144A C=CODE     S=.text    G=(none)   M=BisDesignDataExchangeEditFm ACBP=A9
 0001:0002F398 0000067E C=CODE     S=.text    G=(none)   M=BisDesignDataExchangesFm ACBP=A9
 0001:0002FA18 00000096 C=CODE     S=.text    G=(none)   M=BisExecuteFm ACBP=A9
 0001:0002FAB0 0000473A C=CODE     S=.text    G=(none)   M=BisDesignExchangeFm ACBP=A9
 0001:000341EC 000011BE C=CODE     S=.text    G=(none)   M=BisDesignDataAlarmEditFm ACBP=A9
 0001:000353AC 00000006 C=CODE     S=.text    G=(none)   M=BisPeriodFm ACBP=A9
 0001:000353B4 00000A0A C=CODE     S=.text    G=(none)   M=BisDesignDataAlarmFilterFm ACBP=A9
 0001:00035DC0 00000922 C=CODE     S=.text    G=(none)   M=BisDesignDataAlarmsFm ACBP=A9
 0001:000366E4 000001B2 C=CODE     S=.text    G=(none)   M=BisDesign ACBP=A9
 0001:00036898 00000D2F C=CODE     S=.text    G=(none)   M=.imdesign ACBP=A9
 0002:00000000 00000006 C=ICODE    S=.itext   G=(none)   M=System   ACBP=A9
 0002:00000008 00000006 C=ICODE    S=.itext   G=(none)   M=Classes  ACBP=A9
 0002:00000010 00000011 C=ICODE    S=.itext   G=(none)   M=Windows  ACBP=A9
 0002:00000024 00000006 C=ICODE    S=.itext   G=(none)   M=TypInfo  ACBP=A9
 0002:0000002C 00000006 C=ICODE    S=.itext   G=(none)   M=SysUtils ACBP=A9
 0002:00000034 00000006 C=ICODE    S=.itext   G=(none)   M=Variants ACBP=A9
 0002:0000003C 00000006 C=ICODE    S=.itext   G=(none)   M=VarUtils ACBP=A9
 0002:00000044 00000006 C=ICODE    S=.itext   G=(none)   M=IniFiles ACBP=A9
 0002:0000004C 00000006 C=ICODE    S=.itext   G=(none)   M=BisFm    ACBP=A9
 0002:00000054 00000006 C=ICODE    S=.itext   G=(none)   M=DECUtil  ACBP=A9
 0002:0000005C 00000006 C=ICODE    S=.itext   G=(none)   M=Hash     ACBP=A9
 0002:00000064 00000006 C=ICODE    S=.itext   G=(none)   M=Cipher   ACBP=A9
 0002:0000006C 00000006 C=ICODE    S=.itext   G=(none)   M=Cipher1  ACBP=A9
 0002:00000074 00000006 C=ICODE    S=.itext   G=(none)   M=Graphics ACBP=A9
 0002:0000007C 00000006 C=ICODE    S=.itext   G=(none)   M=Registry ACBP=A9
 0002:00000084 00000006 C=ICODE    S=.itext   G=(none)   M=DB       ACBP=A9
 0002:0000008C 00000006 C=ICODE    S=.itext   G=(none)   M=WideStrings ACBP=A9
 0002:00000094 00000006 C=ICODE    S=.itext   G=(none)   M=FMTBcd   ACBP=A9
 0002:0000009C 00000006 C=ICODE    S=.itext   G=(none)   M=SqlTimSt ACBP=A9
 0002:000000A4 00000006 C=ICODE    S=.itext   G=(none)   M=ComObj   ACBP=A9
 0002:000000AC 00000006 C=ICODE    S=.itext   G=(none)   M=Controls ACBP=A9
 0002:000000B4 00000006 C=ICODE    S=.itext   G=(none)   M=ActnList ACBP=A9
 0002:000000BC 00000006 C=ICODE    S=.itext   G=(none)   M=Themes   ACBP=A9
 0002:000000C4 00000006 C=ICODE    S=.itext   G=(none)   M=Menus    ACBP=A9
 0002:000000CC 00000006 C=ICODE    S=.itext   G=(none)   M=UxTheme  ACBP=A9
 0002:000000D4 00000006 C=ICODE    S=.itext   G=(none)   M=MultiMon ACBP=A9
 0002:000000DC 00000006 C=ICODE    S=.itext   G=(none)   M=DwmApi   ACBP=A9
 0002:000000E4 00000006 C=ICODE    S=.itext   G=(none)   M=Forms    ACBP=A9
 0002:000000EC 00000006 C=ICODE    S=.itext   G=(none)   M=HelpIntfs ACBP=A9
 0002:000000F4 00000006 C=ICODE    S=.itext   G=(none)   M=Dialogs  ACBP=A9
 0002:000000FC 00000006 C=ICODE    S=.itext   G=(none)   M=Printers ACBP=A9
 0002:00000104 00000006 C=ICODE    S=.itext   G=(none)   M=ExtCtrls ACBP=A9
 0002:0000010C 00000006 C=ICODE    S=.itext   G=(none)   M=GraphUtil ACBP=A9
 0002:00000114 00000006 C=ICODE    S=.itext   G=(none)   M=Clipbrd  ACBP=A9
 0002:0000011C 00000006 C=ICODE    S=.itext   G=(none)   M=FlatSB   ACBP=A9
 0002:00000124 00000006 C=ICODE    S=.itext   G=(none)   M=DBCtrls  ACBP=A9
 0002:0000012C 00000006 C=ICODE    S=.itext   G=(none)   M=ComCtrls ACBP=A9
 0002:00000134 00000006 C=ICODE    S=.itext   G=(none)   M=ExtActns ACBP=A9
 0002:0000013C 00000006 C=ICODE    S=.itext   G=(none)   M=ExtDlgs  ACBP=A9
 0002:00000144 00000006 C=ICODE    S=.itext   G=(none)   M=Buttons  ACBP=A9
 0002:0000014C 00000006 C=ICODE    S=.itext   G=(none)   M=Mapi     ACBP=A9
 0002:00000154 00000006 C=ICODE    S=.itext   G=(none)   M=DBPWDlg  ACBP=A9
 0002:0000015C 00000006 C=ICODE    S=.itext   G=(none)   M=DBLogDlg ACBP=A9
 0002:00000164 00000006 C=ICODE    S=.itext   G=(none)   M=rxToolEdit ACBP=A9
 0002:0000016C 00000006 C=ICODE    S=.itext   G=(none)   M=rxDateUtil ACBP=A9
 0002:00000174 00000006 C=ICODE    S=.itext   G=(none)   M=RXCtrls  ACBP=A9
 0002:0000017C 00000006 C=ICODE    S=.itext   G=(none)   M=RxHook   ACBP=A9
 0002:00000184 00000006 C=ICODE    S=.itext   G=(none)   M=RXConst  ACBP=A9
 0002:0000018C 00000006 C=ICODE    S=.itext   G=(none)   M=rxVclutils ACBP=A9
 0002:00000194 00000006 C=ICODE    S=.itext   G=(none)   M=RXProps  ACBP=A9
 0002:0000019C 00000006 C=ICODE    S=.itext   G=(none)   M=rxAppUtils ACBP=A9
 0002:000001A4 00000006 C=ICODE    S=.itext   G=(none)   M=RxPrgrss ACBP=A9
 0002:000001AC 00000006 C=ICODE    S=.itext   G=(none)   M=rxCurrEdit ACBP=A9
 0002:000001B4 00000006 C=ICODE    S=.itext   G=(none)   M=ThemedDBGrid ACBP=A9
 0002:000001BC 00000006 C=ICODE    S=.itext   G=(none)   M=RxRichEd ACBP=A9
 0002:000001C4 00000006 C=ICODE    S=.itext   G=(none)   M=OleCtnrs ACBP=A9
 0002:000001CC 00000006 C=ICODE    S=.itext   G=(none)   M=CheckLst ACBP=A9
 0002:000001D4 00000006 C=ICODE    S=.itext   G=(none)   M=BisUtils ACBP=A9
 0002:000001DC 00000006 C=ICODE    S=.itext   G=(none)   M=GIFImage ACBP=A9
 0002:000001E4 00000006 C=ICODE    S=.itext   G=(none)   M=jpeg     ACBP=A9
 0002:000001EC 00000006 C=ICODE    S=.itext   G=(none)   M=BisCore  ACBP=A9
 0002:000001F4 00000006 C=ICODE    S=.itext   G=(none)   M=AsyncCalls ACBP=A9
 0002:000001FC 00000006 C=ICODE    S=.itext   G=(none)   M=OleServer ACBP=A9
 0002:00000204 00000006 C=ICODE    S=.itext   G=(none)   M=OleCtrls ACBP=A9
 0002:0000020C 00000006 C=ICODE    S=.itext   G=(none)   M=AxCtrls  ACBP=A9
 0002:00000214 00000006 C=ICODE    S=.itext   G=(none)   M=kbmMemTable ACBP=A9
 0002:0000021C 00000006 C=ICODE    S=.itext   G=(none)   M=BisTimedMsgFm ACBP=A9
 0002:00000224 00000006 C=ICODE    S=.itext   G=(none)   M=ActnMan  ACBP=A9
 0002:0000022C 00000006 C=ICODE    S=.itext   G=(none)   M=ActnMenus ACBP=A9
 0002:00000234 00000006 C=ICODE    S=.itext   G=(none)   M=XPStyleActnCtrls ACBP=A9
 0002:0000023C 00000006 C=ICODE    S=.itext   G=(none)   M=SynEditHighlighter ACBP=A9
 0002:00000244 00000006 C=ICODE    S=.itext   G=(none)   M=SynEditMiscClasses ACBP=A9
 0002:0000024C 00000006 C=ICODE    S=.itext   G=(none)   M=SynRegExpr ACBP=A9
 0002:00000254 00000006 C=ICODE    S=.itext   G=(none)   M=SynHighlighterXML ACBP=A9
 0002:0000025C 00000006 C=ICODE    S=.itext   G=(none)   M=SynHighlighterSQL ACBP=A9
 0002:00000264 00000006 C=ICODE    S=.itext   G=(none)   M=SynEdit  ACBP=A9
 0002:0000026C 00000006 C=ICODE    S=.itext   G=(none)   M=SynEditKeyCmds ACBP=A9
 0002:00000274 00000006 C=ICODE    S=.itext   G=(none)   M=SynTextDrawer ACBP=A9
 0002:0000027C 00000006 C=ICODE    S=.itext   G=(none)   M=MiTeC_Routines ACBP=A9
 0002:00000284 00000006 C=ICODE    S=.itext   G=(none)   M=MSI_Processes ACBP=A9
 0002:0000028C 00000006 C=ICODE    S=.itext   G=(none)   M=MiTeC_PSAPI ACBP=A9
 0002:00000294 00000006 C=ICODE    S=.itext   G=(none)   M=MSI_Devices ACBP=A9
 0002:0000029C 00000006 C=ICODE    S=.itext   G=(none)   M=MSI_CPU  ACBP=A9
 0002:000002A4 00000006 C=ICODE    S=.itext   G=(none)   M=JclDebug ACBP=A9
 0002:000002AC 00000006 C=ICODE    S=.itext   G=(none)   M=JclSysInfo ACBP=A9
 0002:000002B4 00000006 C=ICODE    S=.itext   G=(none)   M=JclStrings ACBP=A9
 0002:000002BC 00000006 C=ICODE    S=.itext   G=(none)   M=JclSysUtils ACBP=A9
 0002:000002C4 00000006 C=ICODE    S=.itext   G=(none)   M=JclWideStrings ACBP=A9
 0002:000002CC 00000006 C=ICODE    S=.itext   G=(none)   M=JclShell ACBP=A9
 0002:000002D4 00000006 C=ICODE    S=.itext   G=(none)   M=JclRegistry ACBP=A9
 0002:000002DC 00000006 C=ICODE    S=.itext   G=(none)   M=JclHookExcept ACBP=A9
 0002:000002E4 00000006 C=ICODE    S=.itext   G=(none)   M=BisCoreThreads ACBP=A9
 0002:000002EC 00000006 C=ICODE    S=.itext   G=(none)   M=BisServiceApplication ACBP=A9
 0002:000002F4 00000006 C=ICODE    S=.itext   G=(none)   M=BisSvcMgr ACBP=A9
 0002:000002FC 00000006 C=ICODE    S=.itext   G=(none)   M=BisCryptUtils ACBP=A9
 0002:00000304 00000006 C=ICODE    S=.itext   G=(none)   M=SvcMgr   ACBP=A9
 0002:0000030C 00000008 C=ICODE    S=.itext   G=(none)   M=BisDesignConsts ACBP=A9
 0002:00000314 00000006 C=ICODE    S=.itext   G=(none)   M=AppEvnts ACBP=A9
 0002:0000031C 00000006 C=ICODE    S=.itext   G=(none)   M=CustomizeDlg ACBP=A9
 0002:00000324 00000006 C=ICODE    S=.itext   G=(none)   M=BisInternetProtocol ACBP=A9
 0002:0000032C 00000008 C=ICODE    S=.itext   G=(none)   M=BisDesignMainFm ACBP=A9
 0002:00000334 00000006 C=ICODE    S=.itext   G=(none)   M=VirtualTrees ACBP=A9
 0002:0000033C 00000006 C=ICODE    S=.itext   G=(none)   M=VTAccessibilityFactory ACBP=A9
 0002:00000344 00000008 C=ICODE    S=.itext   G=(none)   M=BisDesignDataFirmTypeEditFm ACBP=A9
 0002:0000034C 00000008 C=ICODE    S=.itext   G=(none)   M=BisDesignDataFirmTypesFm ACBP=A9
 0002:00000354 00000008 C=ICODE    S=.itext   G=(none)   M=BisDesignDataLocalitiesFrm ACBP=A9
 0002:0000035C 00000008 C=ICODE    S=.itext   G=(none)   M=BisDesignDataLocalityEditFm ACBP=A9
 0002:00000364 00000008 C=ICODE    S=.itext   G=(none)   M=BisDesignDataLocalitiesFm ACBP=A9
 0002:0000036C 00000008 C=ICODE    S=.itext   G=(none)   M=BisDesignDataStreetEditFm ACBP=A9
 0002:00000374 00000008 C=ICODE    S=.itext   G=(none)   M=BisDesignDataStreetsFm ACBP=A9
 0002:0000037C 00000008 C=ICODE    S=.itext   G=(none)   M=BisDesignDataFirmEditFm ACBP=A9
 0002:00000384 00000008 C=ICODE    S=.itext   G=(none)   M=BisDesignDataFirmsFm ACBP=A9
 0002:0000038C 00000008 C=ICODE    S=.itext   G=(none)   M=BisDesignDataAccountEditFm ACBP=A9
 0002:00000394 00000008 C=ICODE    S=.itext   G=(none)   M=BisDesignDataAccountsFm ACBP=A9
 0002:0000039C 00000008 C=ICODE    S=.itext   G=(none)   M=BisDesignDataRoleEditFm ACBP=A9
 0002:000003A4 00000008 C=ICODE    S=.itext   G=(none)   M=BisDesignDataRolesFm ACBP=A9
 0002:000003AC 00000008 C=ICODE    S=.itext   G=(none)   M=BisDesignDataRolesAndAccountsFm ACBP=A9
 0002:000003B4 00000008 C=ICODE    S=.itext   G=(none)   M=BisDesignDataApplicationEditFm ACBP=A9
 0002:000003BC 00000008 C=ICODE    S=.itext   G=(none)   M=BisDesignDataInterfaceFilterFm ACBP=A9
 0002:000003C4 00000008 C=ICODE    S=.itext   G=(none)   M=BisDesignDataInterfaceEditFm ACBP=A9
 0002:000003CC 00000008 C=ICODE    S=.itext   G=(none)   M=BisDesignDataInterfacesFm ACBP=A9
 0002:000003D4 00000008 C=ICODE    S=.itext   G=(none)   M=BisDesignDataReportEditFm ACBP=A9
 0002:000003DC 00000008 C=ICODE    S=.itext   G=(none)   M=BisDesignDataScriptEditFm ACBP=A9
 0002:000003E4 00000008 C=ICODE    S=.itext   G=(none)   M=BisDesignDataDocumentEditFm ACBP=A9
 0002:000003EC 00000008 C=ICODE    S=.itext   G=(none)   M=BisDesignDataInterfacesFrm ACBP=A9
 0002:000003F4 00000008 C=ICODE    S=.itext   G=(none)   M=BisDesignDataPermissionEditFm ACBP=A9
 0002:000003FC 00000008 C=ICODE    S=.itext   G=(none)   M=BisDesignDataPermissionsFm ACBP=A9
 0002:00000404 00000008 C=ICODE    S=.itext   G=(none)   M=BisDesignDataApplicationInterfaceEditFm ACBP=A9
 0002:0000040C 00000008 C=ICODE    S=.itext   G=(none)   M=BisDesignDataApplicationInterfacesFm ACBP=A9
 0002:00000414 00000008 C=ICODE    S=.itext   G=(none)   M=BisDesignDataApplicationsFrm ACBP=A9
 0002:0000041C 00000008 C=ICODE    S=.itext   G=(none)   M=BisDesignDataApplicationsFm ACBP=A9
 0002:00000424 00000008 C=ICODE    S=.itext   G=(none)   M=BisDesignDataAccountRoleEditFm ACBP=A9
 0002:0000042C 00000008 C=ICODE    S=.itext   G=(none)   M=BisDesignDataAccountRolesFm ACBP=A9
 0002:00000434 00000008 C=ICODE    S=.itext   G=(none)   M=BisDesignDataProfileEditFm ACBP=A9
 0002:0000043C 00000008 C=ICODE    S=.itext   G=(none)   M=BisDesignDataProfilesFm ACBP=A9
 0002:00000444 00000008 C=ICODE    S=.itext   G=(none)   M=BisDesignDataSessionsFm ACBP=A9
 0002:0000044C 00000008 C=ICODE    S=.itext   G=(none)   M=BisDesignDataMenuEditFm ACBP=A9
 0002:00000454 00000008 C=ICODE    S=.itext   G=(none)   M=BisDesignDataMenusFm ACBP=A9
 0002:0000045C 00000008 C=ICODE    S=.itext   G=(none)   M=BisDesignDataReportsFrm ACBP=A9
 0002:00000464 00000008 C=ICODE    S=.itext   G=(none)   M=BisDesignDataReportsFm ACBP=A9
 0002:0000046C 00000008 C=ICODE    S=.itext   G=(none)   M=BisDesignDataScriptsFrm ACBP=A9
 0002:00000474 00000008 C=ICODE    S=.itext   G=(none)   M=BisDesignDataScriptsFm ACBP=A9
 0002:0000047C 00000008 C=ICODE    S=.itext   G=(none)   M=BisDesignJournalActionEditFm ACBP=A9
 0002:00000484 00000008 C=ICODE    S=.itext   G=(none)   M=BisDesignJournalActionsFm ACBP=A9
 0002:0000048C 00000008 C=ICODE    S=.itext   G=(none)   M=BisDesignDataDocumentsFm ACBP=A9
 0002:00000494 00000008 C=ICODE    S=.itext   G=(none)   M=BisDesignDataConstEditFm ACBP=A9
 0002:0000049C 00000008 C=ICODE    S=.itext   G=(none)   M=BisDesignDataConstsFm ACBP=A9
 0002:000004A4 00000008 C=ICODE    S=.itext   G=(none)   M=BisDesignDataLockEditFm ACBP=A9
 0002:000004AC 00000008 C=ICODE    S=.itext   G=(none)   M=BisDesignDataLocksFm ACBP=A9
 0002:000004B4 00000008 C=ICODE    S=.itext   G=(none)   M=BisDesignDataTaskEditFm ACBP=A9
 0002:000004BC 00000008 C=ICODE    S=.itext   G=(none)   M=BisDesignDataTasksFrm ACBP=A9
 0002:000004C4 00000008 C=ICODE    S=.itext   G=(none)   M=BisDesignDataTasksFm ACBP=A9
 0002:000004CC 00000008 C=ICODE    S=.itext   G=(none)   M=BisDesignDataExchangeEditFm ACBP=A9
 0002:000004D4 00000008 C=ICODE    S=.itext   G=(none)   M=BisDesignDataExchangesFm ACBP=A9
 0002:000004DC 00000008 C=ICODE    S=.itext   G=(none)   M=BisDesignExchangeFm ACBP=A9
 0002:000004E4 00000008 C=ICODE    S=.itext   G=(none)   M=BisDesignDataAlarmEditFm ACBP=A9
 0002:000004EC 00000008 C=ICODE    S=.itext   G=(none)   M=BisDesignDataAlarmFilterFm ACBP=A9
 0002:000004F4 00000008 C=ICODE    S=.itext   G=(none)   M=BisDesignDataAlarmsFm ACBP=A9
 0002:000004FC 00000008 C=ICODE    S=.itext   G=(none)   M=BisDesign ACBP=A9
 0002:00000504 00000005 C=ICODE    S=.itext   G=(none)   M=.imdesign ACBP=A9
 0003:00000000 00000030 C=DATA     S=.data    G=DGROUP   M=SysInit  ACBP=A9
 0003:00000030 00000001 C=DATA     S=.data    G=DGROUP   M=BisDesignConsts ACBP=A9
 0004:00000000 0000000C C=BSS      S=.bss     G=DGROUP   M=SysInit  ACBP=A9
 0004:0000000C 00000008 C=BSS      S=.bss     G=DGROUP   M=Windows  ACBP=A9
 0004:00000014 00000004 C=BSS      S=.bss     G=DGROUP   M=BisDesignConsts ACBP=A9
 0004:00000018 00000008 C=BSS      S=.bss     G=DGROUP   M=BisDesignMainFm ACBP=A9
 0004:00000020 00000008 C=BSS      S=.bss     G=DGROUP   M=BisDesignDataFirmTypeEditFm ACBP=A9
 0004:00000028 00000008 C=BSS      S=.bss     G=DGROUP   M=BisDesignDataFirmTypesFm ACBP=A9
 0004:00000030 00000004 C=BSS      S=.bss     G=DGROUP   M=BisDesignDataLocalitiesFrm ACBP=A9
 0004:00000034 00000008 C=BSS      S=.bss     G=DGROUP   M=BisDesignDataLocalityEditFm ACBP=A9
 0004:0000003C 00000008 C=BSS      S=.bss     G=DGROUP   M=BisDesignDataLocalitiesFm ACBP=A9
 0004:00000044 00000008 C=BSS      S=.bss     G=DGROUP   M=BisDesignDataStreetEditFm ACBP=A9
 0004:0000004C 00000008 C=BSS      S=.bss     G=DGROUP   M=BisDesignDataStreetsFm ACBP=A9
 0004:00000054 00000008 C=BSS      S=.bss     G=DGROUP   M=BisDesignDataFirmEditFm ACBP=A9
 0004:0000005C 00000008 C=BSS      S=.bss     G=DGROUP   M=BisDesignDataFirmsFm ACBP=A9
 0004:00000064 00000008 C=BSS      S=.bss     G=DGROUP   M=BisDesignDataAccountEditFm ACBP=A9
 0004:0000006C 00000008 C=BSS      S=.bss     G=DGROUP   M=BisDesignDataAccountsFm ACBP=A9
 0004:00000074 00000008 C=BSS      S=.bss     G=DGROUP   M=BisDesignDataRoleEditFm ACBP=A9
 0004:0000007C 00000008 C=BSS      S=.bss     G=DGROUP   M=BisDesignDataRolesFm ACBP=A9
 0004:00000084 00000008 C=BSS      S=.bss     G=DGROUP   M=BisDesignDataRolesAndAccountsFm ACBP=A9
 0004:0000008C 00000008 C=BSS      S=.bss     G=DGROUP   M=BisDesignDataApplicationEditFm ACBP=A9
 0004:00000094 00000008 C=BSS      S=.bss     G=DGROUP   M=BisDesignDataInterfaceFilterFm ACBP=A9
 0004:0000009C 00000008 C=BSS      S=.bss     G=DGROUP   M=BisDesignDataInterfaceEditFm ACBP=A9
 0004:000000A4 00000008 C=BSS      S=.bss     G=DGROUP   M=BisDesignDataInterfacesFm ACBP=A9
 0004:000000AC 00000008 C=BSS      S=.bss     G=DGROUP   M=BisDesignDataReportEditFm ACBP=A9
 0004:000000B4 00000008 C=BSS      S=.bss     G=DGROUP   M=BisDesignDataScriptEditFm ACBP=A9
 0004:000000BC 00000008 C=BSS      S=.bss     G=DGROUP   M=BisDesignDataDocumentEditFm ACBP=A9
 0004:000000C4 00000004 C=BSS      S=.bss     G=DGROUP   M=BisDesignDataInterfacesFrm ACBP=A9
 0004:000000C8 00000008 C=BSS      S=.bss     G=DGROUP   M=BisDesignDataPermissionEditFm ACBP=A9
 0004:000000D0 00000008 C=BSS      S=.bss     G=DGROUP   M=BisDesignDataPermissionsFm ACBP=A9
 0004:000000D8 00000008 C=BSS      S=.bss     G=DGROUP   M=BisDesignDataApplicationInterfaceEditFm ACBP=A9
 0004:000000E0 00000008 C=BSS      S=.bss     G=DGROUP   M=BisDesignDataApplicationInterfacesFm ACBP=A9
 0004:000000E8 00000004 C=BSS      S=.bss     G=DGROUP   M=BisDesignDataApplicationsFrm ACBP=A9
 0004:000000EC 00000008 C=BSS      S=.bss     G=DGROUP   M=BisDesignDataApplicationsFm ACBP=A9
 0004:000000F4 00000008 C=BSS      S=.bss     G=DGROUP   M=BisDesignDataAccountRoleEditFm ACBP=A9
 0004:000000FC 00000008 C=BSS      S=.bss     G=DGROUP   M=BisDesignDataAccountRolesFm ACBP=A9
 0004:00000104 00000008 C=BSS      S=.bss     G=DGROUP   M=BisDesignDataProfileEditFm ACBP=A9
 0004:0000010C 00000008 C=BSS      S=.bss     G=DGROUP   M=BisDesignDataProfilesFm ACBP=A9
 0004:00000114 00000008 C=BSS      S=.bss     G=DGROUP   M=BisDesignDataSessionsFm ACBP=A9
 0004:0000011C 00000008 C=BSS      S=.bss     G=DGROUP   M=BisDesignDataMenuEditFm ACBP=A9
 0004:00000124 00000008 C=BSS      S=.bss     G=DGROUP   M=BisDesignDataMenusFm ACBP=A9
 0004:0000012C 00000004 C=BSS      S=.bss     G=DGROUP   M=BisDesignDataReportsFrm ACBP=A9
 0004:00000130 00000008 C=BSS      S=.bss     G=DGROUP   M=BisDesignDataReportsFm ACBP=A9
 0004:00000138 00000004 C=BSS      S=.bss     G=DGROUP   M=BisDesignDataScriptsFrm ACBP=A9
 0004:0000013C 00000008 C=BSS      S=.bss     G=DGROUP   M=BisDesignDataScriptsFm ACBP=A9
 0004:00000144 00000008 C=BSS      S=.bss     G=DGROUP   M=BisDesignJournalActionEditFm ACBP=A9
 0004:0000014C 00000008 C=BSS      S=.bss     G=DGROUP   M=BisDesignJournalActionsFm ACBP=A9
 0004:00000154 00000008 C=BSS      S=.bss     G=DGROUP   M=BisDesignDataDocumentsFm ACBP=A9
 0004:0000015C 00000008 C=BSS      S=.bss     G=DGROUP   M=BisDesignDataConstEditFm ACBP=A9
 0004:00000164 00000008 C=BSS      S=.bss     G=DGROUP   M=BisDesignDataConstsFm ACBP=A9
 0004:0000016C 00000008 C=BSS      S=.bss     G=DGROUP   M=BisDesignDataLockEditFm ACBP=A9
 0004:00000174 00000008 C=BSS      S=.bss     G=DGROUP   M=BisDesignDataLocksFm ACBP=A9
 0004:0000017C 00000008 C=BSS      S=.bss     G=DGROUP   M=BisDesignDataTaskEditFm ACBP=A9
 0004:00000184 00000004 C=BSS      S=.bss     G=DGROUP   M=BisDesignDataTasksFrm ACBP=A9
 0004:00000188 00000008 C=BSS      S=.bss     G=DGROUP   M=BisDesignDataTasksFm ACBP=A9
 0004:00000190 00000008 C=BSS      S=.bss     G=DGROUP   M=BisDesignDataExchangeEditFm ACBP=A9
 0004:00000198 00000008 C=BSS      S=.bss     G=DGROUP   M=BisDesignDataExchangesFm ACBP=A9
 0004:000001A0 00000008 C=BSS      S=.bss     G=DGROUP   M=BisDesignExchangeFm ACBP=A9
 0004:000001A8 00000008 C=BSS      S=.bss     G=DGROUP   M=BisDesignDataAlarmEditFm ACBP=A9
 0004:000001B0 00000008 C=BSS      S=.bss     G=DGROUP   M=BisDesignDataAlarmFilterFm ACBP=A9
 0004:000001B8 00000008 C=BSS      S=.bss     G=DGROUP   M=BisDesignDataAlarmsFm ACBP=A9
 0004:000001C0 00000004 C=BSS      S=.bss     G=DGROUP   M=BisDesign ACBP=A9


  Address             Publics by Name

 0002:00000504       .imdesign..imdesign
 0001:000375A8       .imdesign.@GetPackageInfoTable
 0001:000375B0       .imdesign.@PackageLoad
 0001:000375BC       .imdesign.@PackageUnload
 0004:000001C0       BisDesign..1
 0002:000004FC       BisDesign.BisDesign
 0001:00036868       BisDesign.Finalization
 0001:000366E4       BisDesign.InitIfaceModule
 0004:00000014       BisDesignConsts..1
 0002:0000030C       BisDesignConsts.BisDesignConsts
 0001:000013E0       BisDesignConsts.Finalization
 0003:00000030       BisDesignConsts.IsMainModule
 0004:00000068       BisDesignDataAccountEditFm..6
 0001:000097C0       BisDesignDataAccountEditFm..TBisDesignDataAccountDeleteFormIface
 0001:00008C70       BisDesignDataAccountEditFm..TBisDesignDataAccountEditForm
 0001:0000936C       BisDesignDataAccountEditFm..TBisDesignDataAccountEditFormIface
 0001:000094D8       BisDesignDataAccountEditFm..TBisDesignDataAccountInsertFormIface
 0001:0000964C       BisDesignDataAccountEditFm..TBisDesignDataAccountUpdateFormIface
 0001:00009934       BisDesignDataAccountEditFm..TBisRoleInfo
 0002:0000038C       BisDesignDataAccountEditFm.BisDesignDataAccountEditFm
 0004:00000064       BisDesignDataAccountEditFm.BisDesignDataAccountEditForm
 0001:0000B278       BisDesignDataAccountEditFm.Finalization
 0001:0000A1D8       BisDesignDataAccountEditFm.TBisDesignDataAccountDeleteFormIface.Create
 0001:0000A2B8       BisDesignDataAccountEditFm.TBisDesignDataAccountEditForm.BeforeShow
 0001:0000A444       BisDesignDataAccountEditFm.TBisDesignDataAccountEditForm.ButtonPhotoClick
 0001:0000A48C       BisDesignDataAccountEditFm.TBisDesignDataAccountEditForm.ChangeParam
 0001:0000A64C       BisDesignDataAccountEditFm.TBisDesignDataAccountEditForm.ChangesExists
 0001:0000A674       BisDesignDataAccountEditFm.TBisDesignDataAccountEditForm.CheckBoxProfileClick
 0001:0000A67C       BisDesignDataAccountEditFm.TBisDesignDataAccountEditForm.CheckListBoxRolesClickCheck
 0001:0000A234       BisDesignDataAccountEditFm.TBisDesignDataAccountEditForm.Create
 0001:0000A68C       BisDesignDataAccountEditFm.TBisDesignDataAccountEditForm.DeleteAccountRoles
 0001:0000B1B8       BisDesignDataAccountEditFm.TBisDesignDataAccountEditForm.Execute
 0001:0000A86C       BisDesignDataAccountEditFm.TBisDesignDataAccountEditForm.InsertAccountRoles
 0001:0000AE9C       BisDesignDataAccountEditFm.TBisDesignDataAccountEditForm.InsertProfile
 0001:0000B014       BisDesignDataAccountEditFm.TBisDesignDataAccountEditForm.MenuItemClearPhotoClick
 0001:0000B048       BisDesignDataAccountEditFm.TBisDesignDataAccountEditForm.MenuItemLoadPhotoClick
 0001:0000B0D0       BisDesignDataAccountEditFm.TBisDesignDataAccountEditForm.MenuItemSavePhotoClick
 0001:0000B158       BisDesignDataAccountEditFm.TBisDesignDataAccountEditForm.PopupActionBarPhotoPopup
 0001:0000AA18       BisDesignDataAccountEditFm.TBisDesignDataAccountEditForm.RefreshAccountRoles
 0001:0000AC48       BisDesignDataAccountEditFm.TBisDesignDataAccountEditForm.RefreshRoles
 0001:000099A0       BisDesignDataAccountEditFm.TBisDesignDataAccountEditFormIface.Create
 0001:0000A120       BisDesignDataAccountEditFm.TBisDesignDataAccountInsertFormIface.Create
 0001:0000A17C       BisDesignDataAccountEditFm.TBisDesignDataAccountUpdateFormIface.Create
 0004:000000F8       BisDesignDataAccountRoleEditFm..6
 0001:0001D880       BisDesignDataAccountRoleEditFm..TBisDesignDataAccountRoleDeleteFormIface
 0001:0001D11C       BisDesignDataAccountRoleEditFm..TBisDesignDataAccountRoleEditForm
 0001:0001D408       BisDesignDataAccountRoleEditFm..TBisDesignDataAccountRoleEditFormIface
 0001:0001D580       BisDesignDataAccountRoleEditFm..TBisDesignDataAccountRoleInsertFormIface
 0001:0001D700       BisDesignDataAccountRoleEditFm..TBisDesignDataAccountRoleUpdateFormIface
 0002:00000424       BisDesignDataAccountRoleEditFm.BisDesignDataAccountRoleEditFm
 0004:000000F4       BisDesignDataAccountRoleEditFm.BisDesignDataAccountRoleEditForm
 0001:0001DD0C       BisDesignDataAccountRoleEditFm.Finalization
 0001:0001DC74       BisDesignDataAccountRoleEditFm.TBisDesignDataAccountRoleDeleteFormIface.Create
 0001:0001DCD4       BisDesignDataAccountRoleEditFm.TBisDesignDataAccountRoleEditForm.Execute
 0001:0001DA00       BisDesignDataAccountRoleEditFm.TBisDesignDataAccountRoleEditFormIface.Create
 0001:0001DBB4       BisDesignDataAccountRoleEditFm.TBisDesignDataAccountRoleInsertFormIface.Create
 0001:0001DC14       BisDesignDataAccountRoleEditFm.TBisDesignDataAccountRoleUpdateFormIface.Create
 0004:00000100       BisDesignDataAccountRolesFm..3
 0001:0001DD3C       BisDesignDataAccountRolesFm..TBisDesignDataAccountRolesForm
 0001:0001DF60       BisDesignDataAccountRolesFm..TBisDesignDataAccountRolesFormIface
 0004:000000FC       BisDesignDataAccountRolesFm.BiDesignDataAccountRolesForm
 0002:0000042C       BisDesignDataAccountRolesFm.BisDesignDataAccountRolesFm
 0001:0001E258       BisDesignDataAccountRolesFm.Finalization
 0001:0001E0D8       BisDesignDataAccountRolesFm.TBisDesignDataAccountRolesFormIface.Create
 0004:00000070       BisDesignDataAccountsFm..4
 0001:0000B5C4       BisDesignDataAccountsFm..TBisDesignDataAccountsForm
 0001:0000B7DC       BisDesignDataAccountsFm..TBisDesignDataAccountsFormIface
 0001:0000B2A8       BisDesignDataAccountsFm..TBisDesignDataAccountsFrame
 0004:0000006C       BisDesignDataAccountsFm.BiDesignDataAccountsForm
 0002:00000394       BisDesignDataAccountsFm.BisDesignDataAccountsFm
 0001:0000BEF4       BisDesignDataAccountsFm.Finalization
 0001:0000BE8C       BisDesignDataAccountsFm.TBisDesignDataAccountsForm.Create
 0001:0000BEC4       BisDesignDataAccountsFm.TBisDesignDataAccountsForm.Destroy
 0001:0000BEEC       BisDesignDataAccountsFm.TBisDesignDataAccountsForm.GetDataFrameClass
 0001:0000BE40       BisDesignDataAccountsFm.TBisDesignDataAccountsFormIface.Create
 0001:0000B948       BisDesignDataAccountsFm.TBisDesignDataAccountsFrame.Create
 0001:0000BE10       BisDesignDataAccountsFm.TBisDesignDataAccountsFrame.Init
 0004:000001AC       BisDesignDataAlarmEditFm..6
 0001:000349F4       BisDesignDataAlarmEditFm..TBisDesignDataAlarmDeleteFormIface
 0001:000341EC       BisDesignDataAlarmEditFm..TBisDesignDataAlarmEditForm
 0001:000345B4       BisDesignDataAlarmEditFm..TBisDesignDataAlarmEditFormIface
 0001:0003471C       BisDesignDataAlarmEditFm..TBisDesignDataAlarmInsertFormIface
 0001:00034888       BisDesignDataAlarmEditFm..TBisDesignDataAlarmUpdateFormIface
 0002:000004E4       BisDesignDataAlarmEditFm.BisDesignDataAlarmEditFm
 0004:000001A8       BisDesignDataAlarmEditFm.BisDesignDataAlarmEditForm
 0001:0003537C       BisDesignDataAlarmEditFm.Finalization
 0001:00034B60       BisDesignDataAlarmEditFm.GetTypeAlarmNameByIndex
 0001:000350D8       BisDesignDataAlarmEditFm.TBisDesignDataAlarmDeleteFormIface.Create
 0001:000351F8       BisDesignDataAlarmEditFm.TBisDesignDataAlarmEditForm.BeforeShow
 0001:00035158       BisDesignDataAlarmEditFm.TBisDesignDataAlarmEditForm.Create
 0001:00034BE4       BisDesignDataAlarmEditFm.TBisDesignDataAlarmEditFormIface.Create
 0001:00034FD8       BisDesignDataAlarmEditFm.TBisDesignDataAlarmInsertFormIface.Create
 0001:00035058       BisDesignDataAlarmEditFm.TBisDesignDataAlarmUpdateFormIface.Create
 0004:000001B4       BisDesignDataAlarmFilterFm..3
 0001:000353B4       BisDesignDataAlarmFilterFm..TBisDesignDataAlarmFilterForm
 0001:00035718       BisDesignDataAlarmFilterFm..TBisDesignDataAlarmFilterFormIface
 0002:000004EC       BisDesignDataAlarmFilterFm.BisDesignDataAlarmFilterFm
 0004:000001B0       BisDesignDataAlarmFilterFm.BisDesignDataAlarmFilterForm
 0001:00035D90       BisDesignDataAlarmFilterFm.Finalization
 0001:00035AA8       BisDesignDataAlarmFilterFm.TBisDesignDataAlarmFilterForm.ButtonDateBeginClick
 0001:00035C1C       BisDesignDataAlarmFilterFm.TBisDesignDataAlarmFilterForm.ButtonDateEndClick
 0001:00035884       BisDesignDataAlarmFilterFm.TBisDesignDataAlarmFilterFormIface.Create
 0004:000001BC       BisDesignDataAlarmsFm..3
 0001:00035DC0       BisDesignDataAlarmsFm..TBisDesignDataAlarmsForm
 0001:00036024       BisDesignDataAlarmsFm..TBisDesignDataAlarmsFormIface
 0002:000004F4       BisDesignDataAlarmsFm.BisDesignDataAlarmsFm
 0004:000001B8       BisDesignDataAlarmsFm.BisDesignDataAlarmsForm
 0001:000366B4       BisDesignDataAlarmsFm.Finalization
 0001:000364E8       BisDesignDataAlarmsFm.TBisDesignDataAlarmsForm.Create
 0001:0003618C       BisDesignDataAlarmsFm.TBisDesignDataAlarmsFormIface.Create
 0001:00036448       BisDesignDataAlarmsFm.TBisDesignDataAlarmsFormIface.GetTypeAlarmName
 0004:00000090       BisDesignDataApplicationEditFm..6
 0001:0000F034       BisDesignDataApplicationEditFm..TBisDesignDataApplicationDeleteFormIface
 0001:0000E8E8       BisDesignDataApplicationEditFm..TBisDesignDataApplicationEditForm
 0001:0000EBBC       BisDesignDataApplicationEditFm..TBisDesignDataApplicationEditFormIface
 0001:0000ED34       BisDesignDataApplicationEditFm..TBisDesignDataApplicationInsertFormIface
 0001:0000EEB4       BisDesignDataApplicationEditFm..TBisDesignDataApplicationUpdateFormIface
 0002:000003B4       BisDesignDataApplicationEditFm.BisDesignDataApplicationEditFm
 0004:0000008C       BisDesignDataApplicationEditFm.BisDesignDataApplicationEditForm
 0001:0000F450       BisDesignDataApplicationEditFm.Finalization
 0001:0000F3F0       BisDesignDataApplicationEditFm.TBisDesignDataApplicationDeleteFormIface.Create
 0001:0000F1B4       BisDesignDataApplicationEditFm.TBisDesignDataApplicationEditFormIface.Create
 0001:0000F330       BisDesignDataApplicationEditFm.TBisDesignDataApplicationInsertFormIface.Create
 0001:0000F390       BisDesignDataApplicationEditFm.TBisDesignDataApplicationUpdateFormIface.Create
 0004:000000DC       BisDesignDataApplicationInterfaceEditFm..6
 0001:0001B16C       BisDesignDataApplicationInterfaceEditFm..TBisDesignDataApplicationInterfaceDeleteFormIface
 0001:0001A90C       BisDesignDataApplicationInterfaceEditFm..TBisDesignDataApplicationInterfaceEditForm
 0001:0001ACA8       BisDesignDataApplicationInterfaceEditFm..TBisDesignDataApplicationInterfaceEditFormIface
 0001:0001AE3C       BisDesignDataApplicationInterfaceEditFm..TBisDesignDataApplicationInterfaceInsertFormIface
 0001:0001AFD4       BisDesignDataApplicationInterfaceEditFm..TBisDesignDataApplicationInterfaceUpdateFormIface
 0002:00000404       BisDesignDataApplicationInterfaceEditFm.BisDesignDataApplicationInterfaceEditFm
 0004:000000D8       BisDesignDataApplicationInterfaceEditFm.BisDesignDataApplicationInterfaceEditForm
 0001:0001B824       BisDesignDataApplicationInterfaceEditFm.Finalization
 0001:0001B728       BisDesignDataApplicationInterfaceEditFm.TBisDesignDataApplicationInterfaceDeleteFormIface.Create
 0001:0001B790       BisDesignDataApplicationInterfaceEditFm.TBisDesignDataApplicationInterfaceEditForm.CanShow
 0001:0001B7EC       BisDesignDataApplicationInterfaceEditFm.TBisDesignDataApplicationInterfaceEditForm.Execute
 0001:0001B304       BisDesignDataApplicationInterfaceEditFm.TBisDesignDataApplicationInterfaceEditFormIface.Create
 0001:0001B658       BisDesignDataApplicationInterfaceEditFm.TBisDesignDataApplicationInterfaceInsertFormIface.Create
 0001:0001B6C0       BisDesignDataApplicationInterfaceEditFm.TBisDesignDataApplicationInterfaceUpdateFormIface.Create
 0004:000000E4       BisDesignDataApplicationInterfacesFm..4
 0001:0001BB50       BisDesignDataApplicationInterfacesFm..TBisDesignDataApplicationInterfacesForm
 0001:0001BD90       BisDesignDataApplicationInterfacesFm..TBisDesignDataApplicationInterfacesFormIface
 0001:0001B854       BisDesignDataApplicationInterfacesFm..TBisDesignDataApplicationInterfacesFrame
 0004:000000E0       BisDesignDataApplicationInterfacesFm.BiDesignDataApplicationInterfacesForm
 0002:0000040C       BisDesignDataApplicationInterfacesFm.BisDesignDataApplicationInterfacesFm
 0001:0001C36C       BisDesignDataApplicationInterfacesFm.Finalization
 0001:0001C364       BisDesignDataApplicationInterfacesFm.TBisDesignDataApplicationInterfacesForm.GetDataFrameClass
 0001:0001C034       BisDesignDataApplicationInterfacesFm.TBisDesignDataApplicationInterfacesFormIface.Create
 0001:0001C31C       BisDesignDataApplicationInterfacesFm.TBisDesignDataApplicationInterfacesFormIface.CreateForm
 0001:0001BF3C       BisDesignDataApplicationInterfacesFm.TBisDesignDataApplicationInterfacesFrame.BeforeIfaceExecute
 0004:000000F0       BisDesignDataApplicationsFm..3
 0001:0001CBD0       BisDesignDataApplicationsFm..TBisDesignDataApplicationsForm
 0001:0001CDF4       BisDesignDataApplicationsFm..TBisDesignDataApplicationsFormIface
 0002:0000041C       BisDesignDataApplicationsFm.BisDesignDataApplicationsFm
 0004:000000EC       BisDesignDataApplicationsFm.BisDesignDataApplicationsForm
 0001:0001D0EC       BisDesignDataApplicationsFm.Finalization
 0001:0001D0E4       BisDesignDataApplicationsFm.TBisDesignDataApplicationsForm.GetDataFrameClass
 0001:0001CF6C       BisDesignDataApplicationsFm.TBisDesignDataApplicationsFormIface.Create
 0004:000000E8       BisDesignDataApplicationsFrm..3
 0001:0001C39C       BisDesignDataApplicationsFrm..TBisDesignDataApplicationFrameIfaces
 0001:0001C474       BisDesignDataApplicationsFrm..TBisDesignDataApplicationsFrame
 0002:00000414       BisDesignDataApplicationsFrm.BisDesignDataApplicationsFrm
 0001:0001CBA0       BisDesignDataApplicationsFrm.Finalization
 0001:0001C7FC       BisDesignDataApplicationsFrm.TBisDesignDataApplicationFrameIfaces.FindApplicationById
 0001:0001C918       BisDesignDataApplicationsFrm.TBisDesignDataApplicationsFrame.ActionInterfacesExecute
 0001:0001C920       BisDesignDataApplicationsFrm.TBisDesignDataApplicationsFrame.ActionInterfacesUpdate
 0001:0001C93C       BisDesignDataApplicationsFrm.TBisDesignDataApplicationsFrame.CanInterfaces
 0001:0001C8A0       BisDesignDataApplicationsFrm.TBisDesignDataApplicationsFrame.Create
 0001:0001C8E8       BisDesignDataApplicationsFrm.TBisDesignDataApplicationsFrame.Destroy
 0001:0001C9CC       BisDesignDataApplicationsFrm.TBisDesignDataApplicationsFrame.Interfaces
 0004:00000160       BisDesignDataConstEditFm..6
 0001:00027CB0       BisDesignDataConstEditFm..TBisDesignDataConstDeleteFormIface
 0001:00027578       BisDesignDataConstEditFm..TBisDesignDataConstEditForm
 0001:00027870       BisDesignDataConstEditFm..TBisDesignDataConstEditFormIface
 0001:000279D8       BisDesignDataConstEditFm..TBisDesignDataConstInsertFormIface
 0001:00027B44       BisDesignDataConstEditFm..TBisDesignDataConstUpdateFormIface
 0002:00000494       BisDesignDataConstEditFm.BisDesignDataConstEditFm
 0004:0000015C       BisDesignDataConstEditFm.BisDesignDataConstEditForm
 0001:00028148       BisDesignDataConstEditFm.Finalization
 0001:0002803C       BisDesignDataConstEditFm.TBisDesignDataConstDeleteFormIface.Create
 0001:00028094       BisDesignDataConstEditFm.TBisDesignDataConstEditForm.BeforeShow
 0001:000280BC       BisDesignDataConstEditFm.TBisDesignDataConstEditForm.ButtonNameClick
 0001:00027E1C       BisDesignDataConstEditFm.TBisDesignDataConstEditFormIface.Create
 0001:00027F8C       BisDesignDataConstEditFm.TBisDesignDataConstInsertFormIface.Create
 0001:00027FE4       BisDesignDataConstEditFm.TBisDesignDataConstUpdateFormIface.Create
 0004:00000168       BisDesignDataConstsFm..3
 0001:00028178       BisDesignDataConstsFm..TBisDesignDataConstsForm
 0001:0002838C       BisDesignDataConstsFm..TBisDesignDataConstsFormIface
 0002:0000049C       BisDesignDataConstsFm.BisDesignDataConstsFm
 0004:00000164       BisDesignDataConstsFm.BisDesignDataConstsForm
 0001:00028680       BisDesignDataConstsFm.Finalization
 0001:00028648       BisDesignDataConstsFm.TBisDesignDataConstsForm.Create
 0001:000284F4       BisDesignDataConstsFm.TBisDesignDataConstsFormIface.Create
 0004:000000C0       BisDesignDataDocumentEditFm..6
 0001:000157D0       BisDesignDataDocumentEditFm..TBisDesignDataDocumentDeleteFormIface
 0001:00014F78       BisDesignDataDocumentEditFm..TBisDesignDataDocumentEditForm
 0001:00015378       BisDesignDataDocumentEditFm..TBisDesignDataDocumentEditFormIface
 0001:000154E8       BisDesignDataDocumentEditFm..TBisDesignDataDocumentInsertFormIface
 0001:0001565C       BisDesignDataDocumentEditFm..TBisDesignDataDocumentUpdateFormIface
 0002:000003E4       BisDesignDataDocumentEditFm.BisDesignDataDocumentEditFm
 0004:000000BC       BisDesignDataDocumentEditFm.BisDesignDataDocumentEditForm
 0001:00016B30       BisDesignDataDocumentEditFm.Finalization
 0001:00015D40       BisDesignDataDocumentEditFm.TBisDesignDataDocumentDeleteFormIface.Create
 0001:00015E24       BisDesignDataDocumentEditFm.TBisDesignDataDocumentEditForm.BeforeShow
 0001:000169F8       BisDesignDataDocumentEditFm.TBisDesignDataDocumentEditForm.ButtonClearClick
 0001:0001677C       BisDesignDataDocumentEditFm.TBisDesignDataDocumentEditForm.ButtonLoadClick
 0001:000168D4       BisDesignDataDocumentEditFm.TBisDesignDataDocumentEditForm.ButtonSaveClick
 0001:00016074       BisDesignDataDocumentEditFm.TBisDesignDataDocumentEditForm.ChangeInterfaceId
 0001:000162EC       BisDesignDataDocumentEditFm.TBisDesignDataDocumentEditForm.ChangeParam
 0001:00016A30       BisDesignDataDocumentEditFm.TBisDesignDataDocumentEditForm.CheckParam
 0001:00015DC4       BisDesignDataDocumentEditFm.TBisDesignDataDocumentEditForm.Create
 0001:00015DFC       BisDesignDataDocumentEditFm.TBisDesignDataDocumentEditForm.Destroy
 0001:00015F74       BisDesignDataDocumentEditFm.TBisDesignDataDocumentEditForm.EditDocumentChange
 0001:00016AF8       BisDesignDataDocumentEditFm.TBisDesignDataDocumentEditForm.Execute
 0001:000166CC       BisDesignDataDocumentEditFm.TBisDesignDataDocumentEditForm.GetOleClass
 0001:00015944       BisDesignDataDocumentEditFm.TBisDesignDataDocumentEditFormIface.Create
 0001:00015C38       BisDesignDataDocumentEditFm.TBisDesignDataDocumentInsertFormIface.Create
 0001:00015CBC       BisDesignDataDocumentEditFm.TBisDesignDataDocumentUpdateFormIface.Create
 0004:00000158       BisDesignDataDocumentsFm..3
 0001:0002700C       BisDesignDataDocumentsFm..TBisDesignDataDocumentsForm
 0001:00027228       BisDesignDataDocumentsFm..TBisDesignDataDocumentsFormIface
 0002:0000048C       BisDesignDataDocumentsFm.BisDesignDataDocumentsFm
 0004:00000154       BisDesignDataDocumentsFm.BisDesignDataDocumentsForm
 0001:00027548       BisDesignDataDocumentsFm.Finalization
 0001:00027510       BisDesignDataDocumentsFm.TBisDesignDataDocumentsForm.Create
 0001:00027398       BisDesignDataDocumentsFm.TBisDesignDataDocumentsFormIface.Create
 0004:00000194       BisDesignDataExchangeEditFm..6
 0001:0002E80C       BisDesignDataExchangeEditFm..TBisDesignDataExchangeDeleteFormIface
 0001:0002DF4C       BisDesignDataExchangeEditFm..TBisDesignDataExchangeEditForm
 0001:0002E3B4       BisDesignDataExchangeEditFm..TBisDesignDataExchangeEditFormIface
 0001:0002E524       BisDesignDataExchangeEditFm..TBisDesignDataExchangeInsertFormIface
 0001:0002E698       BisDesignDataExchangeEditFm..TBisDesignDataExchangeUpdateFormIface
 0002:000004CC       BisDesignDataExchangeEditFm.BisDesignDataExchangeEditFm
 0004:00000190       BisDesignDataExchangeEditFm.BisDesignDataExchangeEditForm
 0001:0002F368       BisDesignDataExchangeEditFm.Finalization
 0001:0002EDC4       BisDesignDataExchangeEditFm.TBisDesignDataExchangeDeleteFormIface.Create
 0001:0002EF9C       BisDesignDataExchangeEditFm.TBisDesignDataExchangeEditForm.BeforeShow
 0001:0002EFF8       BisDesignDataExchangeEditFm.TBisDesignDataExchangeEditForm.ButtonScriptClick
 0001:0002F270       BisDesignDataExchangeEditFm.TBisDesignDataExchangeEditForm.CheckParam
 0001:0002EE20       BisDesignDataExchangeEditFm.TBisDesignDataExchangeEditForm.Create
 0001:0002EEC0       BisDesignDataExchangeEditFm.TBisDesignDataExchangeEditForm.RefreshConnections
 0001:0002E980       BisDesignDataExchangeEditFm.TBisDesignDataExchangeEditFormIface.Create
 0001:0002ED0C       BisDesignDataExchangeEditFm.TBisDesignDataExchangeInsertFormIface.Create
 0001:0002ED68       BisDesignDataExchangeEditFm.TBisDesignDataExchangeUpdateFormIface.Create
 0004:0000019C       BisDesignDataExchangesFm..3
 0001:0002F398       BisDesignDataExchangesFm..TBisDesignDataExchangesForm
 0001:0002F5B4       BisDesignDataExchangesFm..TBisDesignDataExchangesFormIface
 0002:000004D4       BisDesignDataExchangesFm.BisDesignDataExchangesFm
 0004:00000198       BisDesignDataExchangesFm.BisDesignDataExchangesForm
 0001:0002F9E8       BisDesignDataExchangesFm.Finalization
 0001:0002F724       BisDesignDataExchangesFm.TBisDesignDataExchangesFormIface.Create
 0004:00000058       BisDesignDataFirmEditFm..7
 0001:00006C90       BisDesignDataFirmEditFm..TBisDesignDataFirmDeleteFormIface
 0001:00005FF8       BisDesignDataFirmEditFm..TBisDesignDataFirmEditForm
 0001:000066EC       BisDesignDataFirmEditFm..TBisDesignDataFirmEditFormIface
 0001:000069B8       BisDesignDataFirmEditFm..TBisDesignDataFirmInsertChildFormIface
 0001:00006850       BisDesignDataFirmEditFm..TBisDesignDataFirmInsertFormIface
 0001:00006B28       BisDesignDataFirmEditFm..TBisDesignDataFirmUpdateFormIface
 0002:0000037C       BisDesignDataFirmEditFm.BisDesignDataFirmEditFm
 0004:00000054       BisDesignDataFirmEditFm.BisDesignDataFirmEditForm
 0001:0000822C       BisDesignDataFirmEditFm.Finalization
 0001:000080EC       BisDesignDataFirmEditFm.TBisDesignDataFirmDeleteFormIface.Create
 0001:0000816C       BisDesignDataFirmEditFm.TBisDesignDataFirmEditForm.EditSmallNameExit
 0001:00006DF8       BisDesignDataFirmEditFm.TBisDesignDataFirmEditFormIface.Create
 0001:00007E78       BisDesignDataFirmEditFm.TBisDesignDataFirmInsertChildFormIface.Create
 0001:00007F04       BisDesignDataFirmEditFm.TBisDesignDataFirmInsertChildFormIface.CreateForm
 0001:00007C18       BisDesignDataFirmEditFm.TBisDesignDataFirmInsertFormIface.Create
 0001:00007D04       BisDesignDataFirmEditFm.TBisDesignDataFirmInsertFormIface.CreateForm
 0001:00008068       BisDesignDataFirmEditFm.TBisDesignDataFirmUpdateFormIface.Create
 0004:00000060       BisDesignDataFirmsFm..3
 0001:0000825C       BisDesignDataFirmsFm..TBisDesignDataFirmsForm
 0001:0000846C       BisDesignDataFirmsFm..TBisDesignDataFirmsFormIface
 0002:00000384       BisDesignDataFirmsFm.BisDesignDataFirmsFm
 0004:0000005C       BisDesignDataFirmsFm.BisDesignDataFirmsForm
 0001:00008C40       BisDesignDataFirmsFm.Finalization
 0001:000085D0       BisDesignDataFirmsFm.TBisDesignDataFirmsFormIface.Create
 0004:00000024       BisDesignDataFirmTypeEditFm..6
 0001:000024EC       BisDesignDataFirmTypeEditFm..TBisDesignDataFirmTypeDeleteFormIface
 0001:00001DBC       BisDesignDataFirmTypeEditFm..TBisDesignDataFirmTypeEditForm
 0001:00002094       BisDesignDataFirmTypeEditFm..TBisDesignDataFirmTypeEditFormIface
 0001:00002204       BisDesignDataFirmTypeEditFm..TBisDesignDataFirmTypeInsertFormIface
 0001:00002378       BisDesignDataFirmTypeEditFm..TBisDesignDataFirmTypeUpdateFormIface
 0002:00000344       BisDesignDataFirmTypeEditFm.BisDesignDataFirmTypeEditFm
 0004:00000020       BisDesignDataFirmTypeEditFm.BisDesignDataFirmTypeEditForm
 0001:00002914       BisDesignDataFirmTypeEditFm.Finalization
 0001:000028B8       BisDesignDataFirmTypeEditFm.TBisDesignDataFirmTypeDeleteFormIface.Create
 0001:00002660       BisDesignDataFirmTypeEditFm.TBisDesignDataFirmTypeEditFormIface.Create
 0001:00002800       BisDesignDataFirmTypeEditFm.TBisDesignDataFirmTypeInsertFormIface.Create
 0001:0000285C       BisDesignDataFirmTypeEditFm.TBisDesignDataFirmTypeUpdateFormIface.Create
 0004:0000002C       BisDesignDataFirmTypesFm..3
 0001:00002944       BisDesignDataFirmTypesFm..TBisDesignDataFirmTypesForm
 0001:00002B60       BisDesignDataFirmTypesFm..TBisDesignDataFirmTypesFormIface
 0002:0000034C       BisDesignDataFirmTypesFm.BisDesignDataFirmTypesFm
 0004:00000028       BisDesignDataFirmTypesFm.BisDesignDataFirmTypesForm
 0001:00002E4C       BisDesignDataFirmTypesFm.Finalization
 0001:00002CD0       BisDesignDataFirmTypesFm.TBisDesignDataFirmTypesFormIface.Create
 0004:000000A0       BisDesignDataInterfaceEditFm..6
 0001:000106FC       BisDesignDataInterfaceEditFm..TBisDesignDataInterfaceDeleteFormIface
 0001:0000FF5C       BisDesignDataInterfaceEditFm..TBisDesignDataInterfaceEditForm
 0001:00010298       BisDesignDataInterfaceEditFm..TBisDesignDataInterfaceEditFormIface
 0001:0001040C       BisDesignDataInterfaceEditFm..TBisDesignDataInterfaceInsertFormIface
 0001:00010584       BisDesignDataInterfaceEditFm..TBisDesignDataInterfaceUpdateFormIface
 0002:000003C4       BisDesignDataInterfaceEditFm.BisDesignDataInterfaceEditFm
 0004:0000009C       BisDesignDataInterfaceEditFm.BisDesignDataInterfaceEditForm
 0001:00010EC4       BisDesignDataInterfaceEditFm.Finalization
 0001:00010C2C       BisDesignDataInterfaceEditFm.TBisDesignDataInterfaceDeleteFormIface.Create
 0001:00010D70       BisDesignDataInterfaceEditFm.TBisDesignDataInterfaceEditForm.ChangeParam
 0001:00010CBC       BisDesignDataInterfaceEditFm.TBisDesignDataInterfaceEditForm.Create
 0001:00010E8C       BisDesignDataInterfaceEditFm.TBisDesignDataInterfaceEditForm.Execute
 0001:00010874       BisDesignDataInterfaceEditFm.TBisDesignDataInterfaceEditFormIface.Create
 0001:00010B0C       BisDesignDataInterfaceEditFm.TBisDesignDataInterfaceInsertFormIface.Create
 0001:00010B9C       BisDesignDataInterfaceEditFm.TBisDesignDataInterfaceUpdateFormIface.Create
 0004:00000098       BisDesignDataInterfaceFilterFm..3
 0001:0000F480       BisDesignDataInterfaceFilterFm..TBisDesignDataInterfaceFilterForm
 0001:0000F7CC       BisDesignDataInterfaceFilterFm..TBisDesignDataInterfaceFilterFormIface
 0002:000003BC       BisDesignDataInterfaceFilterFm.BisDesignDataInterfaceFilterFm
 0004:00000094       BisDesignDataInterfaceFilterFm.BisDesignDataInterfaceFilterForm
 0001:0000FF2C       BisDesignDataInterfaceFilterFm.Finalization
 0001:0000F944       BisDesignDataInterfaceFilterFm.GetInterfaceTypeByIndex
 0001:0000FD94       BisDesignDataInterfaceFilterFm.TBisDesignDataInterfaceFilterForm.ChangeParam
 0001:0000FC5C       BisDesignDataInterfaceFilterFm.TBisDesignDataInterfaceFilterForm.Create
 0001:0000F9E8       BisDesignDataInterfaceFilterFm.TBisDesignDataInterfaceFilterFormIface.Create
 0004:000000A8       BisDesignDataInterfacesFm..3
 0001:00010EF4       BisDesignDataInterfacesFm..TBisDesignDataInterfacesForm
 0001:00011180       BisDesignDataInterfacesFm..TBisDesignDataInterfacesFormIface
 0002:000003CC       BisDesignDataInterfacesFm.BisDesignDataInterfacesFm
 0004:000000A4       BisDesignDataInterfacesFm.BisDesignDataInterfacesForm
 0001:000113A0       BisDesignDataInterfacesFm.Finalization
 0001:00011340       BisDesignDataInterfacesFm.TBisDesignDataInterfacesForm.Create
 0001:00011398       BisDesignDataInterfacesFm.TBisDesignDataInterfacesForm.GetDataFrameClass
 0001:000112F4       BisDesignDataInterfacesFm.TBisDesignDataInterfacesFormIface.Create
 0004:000000C4       BisDesignDataInterfacesFrm..3
 0001:00016C30       BisDesignDataInterfacesFrm..TBisDesignDataInterfacesFrame
 0001:00016B60       BisDesignDataInterfacesFrm..TBisDesignDataReportsFrameIfaces
 0002:000003EC       BisDesignDataInterfacesFrm.BisDesignDataInterfacesFrm
 0001:0001866C       BisDesignDataInterfacesFrm.Finalization
 0001:000182F8       BisDesignDataInterfacesFrm.LocalShow
 0001:000180A4       BisDesignDataInterfacesFrm.LocalShow
 0001:000182D0       BisDesignDataInterfacesFrm.OtherIfaceLoadOptions
 0001:0001804C       BisDesignDataInterfacesFrm.TBisDesignDataInterfacesFrame.ActionInterfaceOptionsExecute
 0001:00018054       BisDesignDataInterfacesFrm.TBisDesignDataInterfacesFrame.ActionInterfaceOptionsUpdate
 0001:00018070       BisDesignDataInterfacesFrm.TBisDesignDataInterfacesFrame.ActionInterfaceShowExecute
 0001:0001800C       BisDesignDataInterfacesFrm.TBisDesignDataInterfacesFrame.ActionInterfaceShowUpdate
 0001:00018028       BisDesignDataInterfacesFrm.TBisDesignDataInterfacesFrame.ActionPermissionsExecute
 0001:00018030       BisDesignDataInterfacesFrm.TBisDesignDataInterfacesFrame.ActionPermissionsUpdate
 0001:000182A4       BisDesignDataInterfacesFrm.TBisDesignDataInterfacesFrame.CanInterfaceOptions
 0001:00018078       BisDesignDataInterfacesFrm.TBisDesignDataInterfacesFrame.CanInterfaceShow
 0001:00018468       BisDesignDataInterfacesFrm.TBisDesignDataInterfacesFrame.CanPermissions
 0001:00017260       BisDesignDataInterfacesFrm.TBisDesignDataInterfacesFrame.Create
 0001:00017638       BisDesignDataInterfacesFrm.TBisDesignDataInterfacesFrame.Destroy
 0001:00017FD0       BisDesignDataInterfacesFrm.TBisDesignDataInterfacesFrame.GetCurrentDeleteClass
 0001:00017F58       BisDesignDataInterfacesFrm.TBisDesignDataInterfacesFrame.GetCurrentDuplicateClass
 0001:00017F94       BisDesignDataInterfacesFrm.TBisDesignDataInterfacesFrame.GetCurrentUpdateClass
 0001:00017DAC       BisDesignDataInterfacesFrm.TBisDesignDataInterfacesFrame.GetDocumentClass
 0001:00017774       BisDesignDataInterfacesFrm.TBisDesignDataInterfacesFrame.GetInterfaceClass
 0001:00017710       BisDesignDataInterfacesFrm.TBisDesignDataInterfacesFrame.GetInterfaceType
 0001:00017668       BisDesignDataInterfacesFrm.TBisDesignDataInterfacesFrame.GetInterfaceTypeName
 0001:00017860       BisDesignDataInterfacesFrm.TBisDesignDataInterfacesFrame.GetInternalClass
 0001:00017BD0       BisDesignDataInterfacesFrm.TBisDesignDataInterfacesFrame.GetReportClass
 0001:000179F4       BisDesignDataInterfacesFrm.TBisDesignDataInterfacesFrame.GetScriptClass
 0001:000183FC       BisDesignDataInterfacesFrm.TBisDesignDataInterfacesFrame.InterfaceOptions
 0001:000181D0       BisDesignDataInterfacesFrm.TBisDesignDataInterfacesFrame.InterfaceShow
 0001:00018494       BisDesignDataInterfacesFrm.TBisDesignDataInterfacesFrame.Permissions
 0001:000170F0       BisDesignDataInterfacesFrm.TBisDesignDataReportsFrameIfaces.FindByClass
 0001:000171BC       BisDesignDataInterfacesFrm.TBisDesignDataReportsFrameIfaces.FindPermissionById
 0004:00000040       BisDesignDataLocalitiesFm..3
 0001:000041F4       BisDesignDataLocalitiesFm..TBisDesignDataLocalitiesForm
 0001:00004414       BisDesignDataLocalitiesFm..TBisDesignDataLocalitiesFormIface
 0002:00000364       BisDesignDataLocalitiesFm.BisDesignDataLocalitiesFm
 0004:0000003C       BisDesignDataLocalitiesFm.BisDesignDataLocalitiesForm
 0001:000046DC       BisDesignDataLocalitiesFm.Finalization
 0001:000046D4       BisDesignDataLocalitiesFm.TBisDesignDataLocalitiesForm.GetDataFrameClass
 0001:00004588       BisDesignDataLocalitiesFm.TBisDesignDataLocalitiesFormIface.Create
 0004:00000030       BisDesignDataLocalitiesFrm..3
 0001:00002F8C       BisDesignDataLocalitiesFrm..TBisDesignDataLocalitiesFrame
 0001:00002EBC       BisDesignDataLocalitiesFrm..TBisDesignDataStreetsFrameIfaces
 0002:00000354       BisDesignDataLocalitiesFrm.BisDesignDataLocalitiesFrm
 0001:000036DC       BisDesignDataLocalitiesFrm.Finalization
 0001:00003414       BisDesignDataLocalitiesFrm.TBisDesignDataLocalitiesFrame.ActionStreetsExecute
 0001:0000341C       BisDesignDataLocalitiesFrm.TBisDesignDataLocalitiesFrame.ActionStreetsUpdate
 0001:00003438       BisDesignDataLocalitiesFrm.TBisDesignDataLocalitiesFrame.CanStreets
 0001:0000339C       BisDesignDataLocalitiesFrm.TBisDesignDataLocalitiesFrame.Create
 0001:000033E4       BisDesignDataLocalitiesFrm.TBisDesignDataLocalitiesFrame.Destroy
 0001:000034D0       BisDesignDataLocalitiesFrm.TBisDesignDataLocalitiesFrame.Streets
 0001:000032F8       BisDesignDataLocalitiesFrm.TBisDesignDataStreetsFrameIfaces.FindById
 0004:00000038       BisDesignDataLocalityEditFm..6
 0001:00003E08       BisDesignDataLocalityEditFm..TBisDesignDataLocalityDeleteFormIface
 0001:0000370C       BisDesignDataLocalityEditFm..TBisDesignDataLocalityEditForm
 0001:000039B0       BisDesignDataLocalityEditFm..TBisDesignDataLocalityEditFormIface
 0001:00003B20       BisDesignDataLocalityEditFm..TBisDesignDataLocalityInsertFormIface
 0001:00003C94       BisDesignDataLocalityEditFm..TBisDesignDataLocalityUpdateFormIface
 0002:0000035C       BisDesignDataLocalityEditFm.BisDesignDataLocalityEditFm
 0004:00000034       BisDesignDataLocalityEditFm.BisDesignDataLocalityEditForm
 0001:000041C4       BisDesignDataLocalityEditFm.Finalization
 0001:00004168       BisDesignDataLocalityEditFm.TBisDesignDataLocalityDeleteFormIface.Create
 0001:00003F7C       BisDesignDataLocalityEditFm.TBisDesignDataLocalityEditFormIface.Create
 0001:000040B0       BisDesignDataLocalityEditFm.TBisDesignDataLocalityInsertFormIface.Create
 0001:0000410C       BisDesignDataLocalityEditFm.TBisDesignDataLocalityUpdateFormIface.Create
 0004:00000170       BisDesignDataLockEditFm..6
 0001:00028EF4       BisDesignDataLockEditFm..TBisDesignDataLockDeleteFormIface
 0001:000286B0       BisDesignDataLockEditFm..TBisDesignDataLockEditForm
 0001:00028AC0       BisDesignDataLockEditFm..TBisDesignDataLockEditFormIface
 0001:00028C24       BisDesignDataLockEditFm..TBisDesignDataLockInsertFormIface
 0001:00028D8C       BisDesignDataLockEditFm..TBisDesignDataLockUpdateFormIface
 0002:000004A4       BisDesignDataLockEditFm.BisDesignDataLockEditFm
 0004:0000016C       BisDesignDataLockEditFm.BisDesignDataLockEditForm
 0001:0002969C       BisDesignDataLockEditFm.Finalization
 0001:00029568       BisDesignDataLockEditFm.TBisDesignDataLockDeleteFormIface.Create
 0001:000295F8       BisDesignDataLockEditFm.TBisDesignDataLockEditForm.BeforeShow
 0001:000295C0       BisDesignDataLockEditFm.TBisDesignDataLockEditForm.Create
 0001:0002905C       BisDesignDataLockEditFm.TBisDesignDataLockEditFormIface.Create
 0001:000294B8       BisDesignDataLockEditFm.TBisDesignDataLockInsertFormIface.Create
 0001:00029510       BisDesignDataLockEditFm.TBisDesignDataLockUpdateFormIface.Create
 0004:00000178       BisDesignDataLocksFm..3
 0001:000296CC       BisDesignDataLocksFm..TBisDesignDataLocksForm
 0001:000298DC       BisDesignDataLocksFm..TBisDesignDataLocksFormIface
 0004:00000174       BisDesignDataLocksFm.BiDesignDataLocksForm
 0002:000004AC       BisDesignDataLocksFm.BisDesignDataLocksFm
 0001:00029D08       BisDesignDataLocksFm.Finalization
 0001:00029A40       BisDesignDataLocksFm.TBisDesignDataLocksFormIface.Create
 0004:00000120       BisDesignDataMenuEditFm..7
 0001:00020FB4       BisDesignDataMenuEditFm..TBisApplicationInfo
 0001:00020E4C       BisDesignDataMenuEditFm..TBisDesignDataMenuDeleteFormIface
 0001:000203E8       BisDesignDataMenuEditFm..TBisDesignDataMenuEditForm
 0001:000208A8       BisDesignDataMenuEditFm..TBisDesignDataMenuEditFormIface
 0001:00020B74       BisDesignDataMenuEditFm..TBisDesignDataMenuInsertChildFormIface
 0001:00020A0C       BisDesignDataMenuEditFm..TBisDesignDataMenuInsertFormIface
 0001:00020CE4       BisDesignDataMenuEditFm..TBisDesignDataMenuUpdateFormIface
 0002:0000044C       BisDesignDataMenuEditFm.BisDesignDataMenuEditFm
 0004:0000011C       BisDesignDataMenuEditFm.BisDesignDataMenuEditForm
 0001:00022608       BisDesignDataMenuEditFm.Finalization
 0001:00021900       BisDesignDataMenuEditFm.TBisDesignDataMenuDeleteFormIface.Create
 0001:00021BB4       BisDesignDataMenuEditFm.TBisDesignDataMenuEditForm.BeforeShow
 0001:00021BF0       BisDesignDataMenuEditFm.TBisDesignDataMenuEditForm.ButtonClearClick
 0001:00021C34       BisDesignDataMenuEditFm.TBisDesignDataMenuEditForm.ButtonLoadClick
 0001:00021CCC       BisDesignDataMenuEditFm.TBisDesignDataMenuEditForm.ButtonSaveClick
 0001:000219A8       BisDesignDataMenuEditFm.TBisDesignDataMenuEditForm.ChangeParam
 0001:00021B84       BisDesignDataMenuEditFm.TBisDesignDataMenuEditForm.ChangesExists
 0001:00021BA4       BisDesignDataMenuEditFm.TBisDesignDataMenuEditForm.CheckListBoxApplicationsClickCheck
 0001:00021958       BisDesignDataMenuEditFm.TBisDesignDataMenuEditForm.Create
 0001:000221C0       BisDesignDataMenuEditFm.TBisDesignDataMenuEditForm.DeleteApplicationMenus
 0001:00022560       BisDesignDataMenuEditFm.TBisDesignDataMenuEditForm.Execute
 0001:000223AC       BisDesignDataMenuEditFm.TBisDesignDataMenuEditForm.InsertApplicationMenus
 0001:00021F78       BisDesignDataMenuEditFm.TBisDesignDataMenuEditForm.RefreshApplicationMenus
 0001:00021D88       BisDesignDataMenuEditFm.TBisDesignDataMenuEditForm.RefreshApplications
 0001:00021028       BisDesignDataMenuEditFm.TBisDesignDataMenuEditFormIface.Create
 0001:00021390       BisDesignDataMenuEditFm.TBisDesignDataMenuEditFormIface.PictureIdChange
 0001:000216D4       BisDesignDataMenuEditFm.TBisDesignDataMenuInsertChildFormIface.Create
 0001:00021758       BisDesignDataMenuEditFm.TBisDesignDataMenuInsertChildFormIface.CreateForm
 0001:0002151C       BisDesignDataMenuEditFm.TBisDesignDataMenuInsertFormIface.Create
 0001:00021574       BisDesignDataMenuEditFm.TBisDesignDataMenuInsertFormIface.CreateForm
 0001:000218A8       BisDesignDataMenuEditFm.TBisDesignDataMenuUpdateFormIface.Create
 0004:00000128       BisDesignDataMenusFm..3
 0001:00022638       BisDesignDataMenusFm..TBisDesignDataMenusForm
 0001:00022848       BisDesignDataMenusFm..TBisDesignDataMenusFormIface
 0002:00000454       BisDesignDataMenusFm.BisDesignDataMenusFm
 0004:00000124       BisDesignDataMenusFm.BisDesignDataMenusForm
 0001:00022C10       BisDesignDataMenusFm.Finalization
 0001:000229AC       BisDesignDataMenusFm.TBisDesignDataMenusFormIface.Create
 0004:000000CC       BisDesignDataPermissionEditFm..6
 0001:00018E5C       BisDesignDataPermissionEditFm..TBisDesignDataPermissionDeleteFormIface
 0001:0001869C       BisDesignDataPermissionEditFm..TBisDesignDataPermissionEditForm
 0001:000189F4       BisDesignDataPermissionEditFm..TBisDesignDataPermissionEditFormIface
 0001:00018B6C       BisDesignDataPermissionEditFm..TBisDesignDataPermissionInsertFormIface
 0001:00018CE4       BisDesignDataPermissionEditFm..TBisDesignDataPermissionUpdateFormIface
 0002:000003F4       BisDesignDataPermissionEditFm.BisDesignDataPermissionEditFm
 0004:000000C8       BisDesignDataPermissionEditFm.BisDesignDataPermissionEditForm
 0001:0001993C       BisDesignDataPermissionEditFm.FillDocument
 0001:00019528       BisDesignDataPermissionEditFm.FillInternal
 0001:00019778       BisDesignDataPermissionEditFm.FillReport
 0001:000195B4       BisDesignDataPermissionEditFm.FillScript
 0001:00019E28       BisDesignDataPermissionEditFm.Finalization
 0001:00019394       BisDesignDataPermissionEditFm.TBisDesignDataPermissionDeleteFormIface.Create
 0001:00019464       BisDesignDataPermissionEditFm.TBisDesignDataPermissionEditForm.CanShow
 0001:00019C28       BisDesignDataPermissionEditFm.TBisDesignDataPermissionEditForm.ChangeParam
 0001:000193F4       BisDesignDataPermissionEditFm.TBisDesignDataPermissionEditForm.Destroy
 0001:0001942C       BisDesignDataPermissionEditFm.TBisDesignDataPermissionEditForm.Execute
 0001:0001999C       BisDesignDataPermissionEditFm.TBisDesignDataPermissionEditForm.FillPermissions
 0001:000194BC       BisDesignDataPermissionEditFm.TBisDesignDataPermissionEditForm.GetIfacePermissions
 0001:00018FD4       BisDesignDataPermissionEditFm.TBisDesignDataPermissionEditFormIface.Create
 0001:00019274       BisDesignDataPermissionEditFm.TBisDesignDataPermissionEditFormIface.CreateForm
 0001:000192D4       BisDesignDataPermissionEditFm.TBisDesignDataPermissionInsertFormIface.Create
 0001:00019334       BisDesignDataPermissionEditFm.TBisDesignDataPermissionUpdateFormIface.Create
 0004:000000D4       BisDesignDataPermissionsFm..4
 0001:0001A138       BisDesignDataPermissionsFm..TBisDesignDataPermissionsForm
 0001:0001A35C       BisDesignDataPermissionsFm..TBisDesignDataPermissionsFormIface
 0001:00019E58       BisDesignDataPermissionsFm..TBisDesignDataPermissionsFrame
 0004:000000D0       BisDesignDataPermissionsFm.BiDesignDataPermissionsForm
 0002:000003FC       BisDesignDataPermissionsFm.BisDesignDataPermissionsFm
 0001:0001A8DC       BisDesignDataPermissionsFm.Finalization
 0001:0001A8D4       BisDesignDataPermissionsFm.TBisDesignDataPermissionsForm.GetDataFrameClass
 0001:0001A5FC       BisDesignDataPermissionsFm.TBisDesignDataPermissionsFormIface.Create
 0001:0001A88C       BisDesignDataPermissionsFm.TBisDesignDataPermissionsFormIface.CreateForm
 0001:0001A4EC       BisDesignDataPermissionsFm.TBisDesignDataPermissionsFrame.BeforeIfaceExecute
 0004:00000108       BisDesignDataProfileEditFm..6
 0001:0001E9E0       BisDesignDataProfileEditFm..TBisDesignDataProfileDeleteFormIface
 0001:0001E288       BisDesignDataProfileEditFm..TBisDesignDataProfileEditForm
 0001:0001E58C       BisDesignDataProfileEditFm..TBisDesignDataProfileEditFormIface
 0001:0001E6F8       BisDesignDataProfileEditFm..TBisDesignDataProfileInsertFormIface
 0001:0001E86C       BisDesignDataProfileEditFm..TBisDesignDataProfileUpdateFormIface
 0002:00000434       BisDesignDataProfileEditFm.BisDesignDataProfileEditFm
 0004:00000104       BisDesignDataProfileEditFm.BisDesignDataProfileEditForm
 0001:0001EEA8       BisDesignDataProfileEditFm.Finalization
 0001:0001EE4C       BisDesignDataProfileEditFm.TBisDesignDataProfileDeleteFormIface.Create
 0001:0001EB54       BisDesignDataProfileEditFm.TBisDesignDataProfileEditFormIface.Create
 0001:0001ED94       BisDesignDataProfileEditFm.TBisDesignDataProfileInsertFormIface.Create
 0001:0001EDF0       BisDesignDataProfileEditFm.TBisDesignDataProfileUpdateFormIface.Create
 0004:00000110       BisDesignDataProfilesFm..3
 0001:0001EED8       BisDesignDataProfilesFm..TBisDesignDataProfilesForm
 0001:0001F0F0       BisDesignDataProfilesFm..TBisDesignDataProfilesFormIface
 0004:0000010C       BisDesignDataProfilesFm.BiDesignDataProfilesForm
 0002:0000043C       BisDesignDataProfilesFm.BisDesignDataProfilesFm
 0001:0001F408       BisDesignDataProfilesFm.Finalization
 0001:0001F25C       BisDesignDataProfilesFm.TBisDesignDataProfilesFormIface.Create
 0004:000000B0       BisDesignDataReportEditFm..6
 0001:00011C34       BisDesignDataReportEditFm..TBisDesignDataReportDeleteFormIface
 0001:000113D0       BisDesignDataReportEditFm..TBisDesignDataReportEditForm
 0001:000117F0       BisDesignDataReportEditFm..TBisDesignDataReportEditFormIface
 0001:0001195C       BisDesignDataReportEditFm..TBisDesignDataReportInsertFormIface
 0001:00011AC8       BisDesignDataReportEditFm..TBisDesignDataReportUpdateFormIface
 0002:000003D4       BisDesignDataReportEditFm.BisDesignDataReportEditFm
 0004:000000AC       BisDesignDataReportEditFm.BisDesignDataReportEditForm
 0001:00013448       BisDesignDataReportEditFm.Finalization
 0001:00012190       BisDesignDataReportEditFm.TBisDesignDataReportDeleteFormIface.Create
 0001:00012308       BisDesignDataReportEditFm.TBisDesignDataReportEditForm.BeforeShow
 0001:00012E8C       BisDesignDataReportEditFm.TBisDesignDataReportEditForm.ButtonClearClick
 0001:00012FA4       BisDesignDataReportEditFm.TBisDesignDataReportEditForm.ButtonEditorClick
 0001:00012C84       BisDesignDataReportEditFm.TBisDesignDataReportEditForm.ButtonLoadClick
 0001:00012D64       BisDesignDataReportEditFm.TBisDesignDataReportEditForm.ButtonSaveClick
 0001:000125A0       BisDesignDataReportEditFm.TBisDesignDataReportEditForm.ChangeInterfaceId
 0001:00012808       BisDesignDataReportEditFm.TBisDesignDataReportEditForm.ChangeParam
 0001:00012ED0       BisDesignDataReportEditFm.TBisDesignDataReportEditForm.CheckParam
 0001:00012210       BisDesignDataReportEditFm.TBisDesignDataReportEditForm.Create
 0001:000122D8       BisDesignDataReportEditFm.TBisDesignDataReportEditForm.Destroy
 0001:00012FF0       BisDesignDataReportEditFm.TBisDesignDataReportEditForm.EditorSaveChanges
 0001:000124A4       BisDesignDataReportEditFm.TBisDesignDataReportEditForm.EditReportChange
 0001:00013410       BisDesignDataReportEditFm.TBisDesignDataReportEditForm.Execute
 0001:00012FAC       BisDesignDataReportEditFm.TBisDesignDataReportEditForm.GetReportEditorClass
 0001:00013160       BisDesignDataReportEditFm.TBisDesignDataReportEditForm.RunEditor
 0001:00011DA0       BisDesignDataReportEditFm.TBisDesignDataReportEditFormIface.Create
 0001:00012090       BisDesignDataReportEditFm.TBisDesignDataReportInsertFormIface.Create
 0001:00012110       BisDesignDataReportEditFm.TBisDesignDataReportUpdateFormIface.Create
 0004:00000134       BisDesignDataReportsFm..3
 0001:00023FF0       BisDesignDataReportsFm..TBisDesignDataReportsForm
 0001:00024208       BisDesignDataReportsFm..TBisDesignDataReportsFormIface
 0002:00000464       BisDesignDataReportsFm.BisDesignDataReportsFm
 0004:00000130       BisDesignDataReportsFm.BisDesignDataReportsForm
 0001:0002459C       BisDesignDataReportsFm.Finalization
 0001:00024550       BisDesignDataReportsFm.TBisDesignDataReportsForm.Create
 0001:00024588       BisDesignDataReportsFm.TBisDesignDataReportsForm.GetDataFrame
 0001:00024594       BisDesignDataReportsFm.TBisDesignDataReportsForm.GetDataFrameClass
 0001:00024540       BisDesignDataReportsFm.TBisDesignDataReportsFormIface.CanReportEdit
 0001:00024370       BisDesignDataReportsFm.TBisDesignDataReportsFormIface.Create
 0001:000244F0       BisDesignDataReportsFm.TBisDesignDataReportsFormIface.CreateForm
 0001:000244E4       BisDesignDataReportsFm.TBisDesignDataReportsFormIface.GetLastForm
 0004:0000012C       BisDesignDataReportsFrm..4
 0001:00022DD8       BisDesignDataReportsFrm..TBisDesignDataReportsFrame
 0001:00022C40       BisDesignDataReportsFrm..TBisDesignDataReportsFrameEditors
 0001:00022D0C       BisDesignDataReportsFrm..TBisDesignDataReportsFrameReports
 0002:0000045C       BisDesignDataReportsFrm.BisDesignDataReportsFrm
 0001:00023FC0       BisDesignDataReportsFrm.Finalization
 0001:00023420       BisDesignDataReportsFrm.TBisDesignDataReportsFrame.ActionReportEditExecute
 0001:000233E0       BisDesignDataReportsFrm.TBisDesignDataReportsFrame.ActionReportEditUpdate
 0001:000233FC       BisDesignDataReportsFrm.TBisDesignDataReportsFrame.ActionReportShowExecute
 0001:00023404       BisDesignDataReportsFrm.TBisDesignDataReportsFrame.ActionReportShowUpdate
 0001:00023428       BisDesignDataReportsFrm.TBisDesignDataReportsFrame.CanReportEdit
 0001:00023DDC       BisDesignDataReportsFrm.TBisDesignDataReportsFrame.CanReportShow
 0001:00023348       BisDesignDataReportsFrm.TBisDesignDataReportsFrame.Create
 0001:000233A4       BisDesignDataReportsFrm.TBisDesignDataReportsFrame.Destroy
 0001:00023964       BisDesignDataReportsFrm.TBisDesignDataReportsFrame.EditorPreview
 0001:0002367C       BisDesignDataReportsFrm.TBisDesignDataReportsFrame.EditorSaveChanges
 0001:00023488       BisDesignDataReportsFrm.TBisDesignDataReportsFrame.GetModuleByName
 0001:000235CC       BisDesignDataReportsFrm.TBisDesignDataReportsFrame.GetReportClass
 0001:0002351C       BisDesignDataReportsFrm.TBisDesignDataReportsFrame.GetReportEditorClass
 0001:00023A38       BisDesignDataReportsFrm.TBisDesignDataReportsFrame.ReportEdit
 0001:00023E3C       BisDesignDataReportsFrm.TBisDesignDataReportsFrame.ReportShow
 0001:000231D4       BisDesignDataReportsFrm.TBisDesignDataReportsFrameEditors.FindByClass
 0001:0002327C       BisDesignDataReportsFrm.TBisDesignDataReportsFrameReports.FindByClass
 0004:00000078       BisDesignDataRoleEditFm..6
 0001:0000C604       BisDesignDataRoleEditFm..TBisDesignDataRoleDeleteFormIface
 0001:0000BF24       BisDesignDataRoleEditFm..TBisDesignDataRoleEditForm
 0001:0000C1D0       BisDesignDataRoleEditFm..TBisDesignDataRoleEditFormIface
 0001:0000C334       BisDesignDataRoleEditFm..TBisDesignDataRoleInsertFormIface
 0001:0000C49C       BisDesignDataRoleEditFm..TBisDesignDataRoleUpdateFormIface
 0002:0000039C       BisDesignDataRoleEditFm.BisDesignDataRoleEditFm
 0004:00000074       BisDesignDataRoleEditFm.BisDesignDataRoleEditForm
 0001:0000CB04       BisDesignDataRoleEditFm.Finalization
 0001:0000CAA8       BisDesignDataRoleEditFm.TBisDesignDataRoleDeleteFormIface.Create
 0001:0000C76C       BisDesignDataRoleEditFm.TBisDesignDataRoleEditFormIface.Create
 0001:0000C9F0       BisDesignDataRoleEditFm.TBisDesignDataRoleInsertFormIface.Create
 0001:0000CA4C       BisDesignDataRoleEditFm.TBisDesignDataRoleUpdateFormIface.Create
 0004:00000088       BisDesignDataRolesAndAccountsFm..4
 0001:0000D430       BisDesignDataRolesAndAccountsFm..TBisDesignDataRolesAndAccountsForm
 0001:0000D660       BisDesignDataRolesAndAccountsFm..TBisDesignDataRolesAndAccountsFormIface
 0001:0000D148       BisDesignDataRolesAndAccountsFm..TBisDesignDataRolesAndAccountsFrame
 0002:000003AC       BisDesignDataRolesAndAccountsFm.BisDesignDataRolesAndAccountsFm
 0004:00000084       BisDesignDataRolesAndAccountsFm.BisDesignDataRolesAndAccountsForm
 0001:0000E8B8       BisDesignDataRolesAndAccountsFm.Finalization
 0001:0000E878       BisDesignDataRolesAndAccountsFm.TBisDesignDataRolesAndAccountsForm.Create
 0001:0000E8B0       BisDesignDataRolesAndAccountsFm.TBisDesignDataRolesAndAccountsForm.GetDataFrameClass
 0001:0000E82C       BisDesignDataRolesAndAccountsFm.TBisDesignDataRolesAndAccountsFormIface.Create
 0001:0000D7E4       BisDesignDataRolesAndAccountsFm.TBisDesignDataRolesAndAccountsFrame.Create
 0001:0000DA90       BisDesignDataRolesAndAccountsFm.TBisDesignDataRolesAndAccountsFrame.FillProvider
 0001:0000E620       BisDesignDataRolesAndAccountsFm.TBisDesignDataRolesAndAccountsFrame.GetNewUserName
 0001:0000E800       BisDesignDataRolesAndAccountsFm.TBisDesignDataRolesAndAccountsFrame.Init
 0001:0000E808       BisDesignDataRolesAndAccountsFm.TBisDesignDataRolesAndAccountsFrame.OpenRecords
 0001:0000E828       BisDesignDataRolesAndAccountsFm.TBisDesignDataRolesAndAccountsFrame.TreeClick
 0004:00000080       BisDesignDataRolesFm..3
 0001:0000CB34       BisDesignDataRolesFm..TBisDesignDataRolesForm
 0001:0000CD44       BisDesignDataRolesFm..TBisDesignDataRolesFormIface
 0002:000003A4       BisDesignDataRolesFm.BisDesignDataRolesFm
 0004:0000007C       BisDesignDataRolesFm.BisDesignDataRolesForm
 0001:0000D118       BisDesignDataRolesFm.Finalization
 0001:0000D0E0       BisDesignDataRolesFm.TBisDesignDataRolesForm.Create
 0001:0000CEA8       BisDesignDataRolesFm.TBisDesignDataRolesFormIface.Create
 0004:000000B8       BisDesignDataScriptEditFm..6
 0001:00013CB0       BisDesignDataScriptEditFm..TBisDesignDataScriptDeleteFormIface
 0001:00013478       BisDesignDataScriptEditFm..TBisDesignDataScriptEditForm
 0001:0001386C       BisDesignDataScriptEditFm..TBisDesignDataScriptEditFormIface
 0001:000139D8       BisDesignDataScriptEditFm..TBisDesignDataScriptInsertFormIface
 0001:00013B44       BisDesignDataScriptEditFm..TBisDesignDataScriptUpdateFormIface
 0002:000003DC       BisDesignDataScriptEditFm.BisDesignDataScriptEditFm
 0004:000000B4       BisDesignDataScriptEditFm.BisDesignDataScriptEditForm
 0001:00014F48       BisDesignDataScriptEditFm.Finalization
 0001:0001420C       BisDesignDataScriptEditFm.TBisDesignDataScriptDeleteFormIface.Create
 0001:0001437C       BisDesignDataScriptEditFm.TBisDesignDataScriptEditForm.BeforeShow
 0001:00014E08       BisDesignDataScriptEditFm.TBisDesignDataScriptEditForm.ButtonClearClick
 0001:00014C00       BisDesignDataScriptEditFm.TBisDesignDataScriptEditForm.ButtonLoadClick
 0001:00014CE0       BisDesignDataScriptEditFm.TBisDesignDataScriptEditForm.ButtonSaveClick
 0001:000145FC       BisDesignDataScriptEditFm.TBisDesignDataScriptEditForm.ChangeInterfaceId
 0001:00014864       BisDesignDataScriptEditFm.TBisDesignDataScriptEditForm.ChangeParam
 0001:00014E4C       BisDesignDataScriptEditFm.TBisDesignDataScriptEditForm.CheckParam
 0001:0001428C       BisDesignDataScriptEditFm.TBisDesignDataScriptEditForm.Create
 0001:00014354       BisDesignDataScriptEditFm.TBisDesignDataScriptEditForm.Destroy
 0001:00014500       BisDesignDataScriptEditFm.TBisDesignDataScriptEditForm.EditScriptChange
 0001:00014F10       BisDesignDataScriptEditFm.TBisDesignDataScriptEditForm.Execute
 0001:00013E1C       BisDesignDataScriptEditFm.TBisDesignDataScriptEditFormIface.Create
 0001:0001410C       BisDesignDataScriptEditFm.TBisDesignDataScriptInsertFormIface.Create
 0001:0001418C       BisDesignDataScriptEditFm.TBisDesignDataScriptUpdateFormIface.Create
 0004:00000140       BisDesignDataScriptsFm..3
 0001:00024EAC       BisDesignDataScriptsFm..TBisDesignDataScriptsForm
 0001:000250C4       BisDesignDataScriptsFm..TBisDesignDataScriptsFormIface
 0002:00000474       BisDesignDataScriptsFm.BisDesignDataScriptsFm
 0004:0000013C       BisDesignDataScriptsFm.BisDesignDataScriptsForm
 0001:0002542C       BisDesignDataScriptsFm.Finalization
 0001:000253E0       BisDesignDataScriptsFm.TBisDesignDataScriptsForm.Create
 0001:00025418       BisDesignDataScriptsFm.TBisDesignDataScriptsForm.GetDataFrame
 0001:00025424       BisDesignDataScriptsFm.TBisDesignDataScriptsForm.GetDataFrameClass
 0001:0002522C       BisDesignDataScriptsFm.TBisDesignDataScriptsFormIface.Create
 0001:000253AC       BisDesignDataScriptsFm.TBisDesignDataScriptsFormIface.CreateForm
 0001:000253A0       BisDesignDataScriptsFm.TBisDesignDataScriptsFormIface.GetLastForm
 0004:00000138       BisDesignDataScriptsFrm..3
 0001:00024698       BisDesignDataScriptsFrm..TBisDesignDataScriptsFrame
 0001:000245CC       BisDesignDataScriptsFrm..TBisDesignDataScriptsFrameScripts
 0002:0000046C       BisDesignDataScriptsFrm.BisDesignDataScriptsFrm
 0001:00024E7C       BisDesignDataScriptsFrm.Finalization
 0001:00024B54       BisDesignDataScriptsFrm.TBisDesignDataScriptsFrame.ActionScriptShowExecute
 0001:00024B5C       BisDesignDataScriptsFrm.TBisDesignDataScriptsFrame.ActionScriptShowUpdate
 0001:00024CBC       BisDesignDataScriptsFrm.TBisDesignDataScriptsFrame.CanScriptShow
 0001:00024ADC       BisDesignDataScriptsFrm.TBisDesignDataScriptsFrame.Create
 0001:00024B24       BisDesignDataScriptsFrm.TBisDesignDataScriptsFrame.Destroy
 0001:00024B78       BisDesignDataScriptsFrm.TBisDesignDataScriptsFrame.GetModuleByName
 0001:00024C0C       BisDesignDataScriptsFrm.TBisDesignDataScriptsFrame.GetScriptClass
 0001:00024D1C       BisDesignDataScriptsFrm.TBisDesignDataScriptsFrame.ScriptShow
 0001:00024A10       BisDesignDataScriptsFrm.TBisDesignDataScriptsFrameScripts.FindByClass
 0004:00000118       BisDesignDataSessionsFm..5
 0001:0001F990       BisDesignDataSessionsFm..TBisDesignDataSessionDeleteFormIface
 0001:0001F438       BisDesignDataSessionsFm..TBisDesignDataSessionsForm
 0001:0001F6BC       BisDesignDataSessionsFm..TBisDesignDataSessionsFormIface
 0001:0001F828       BisDesignDataSessionsFm..TBisDesignDataSessionViewFormIface
 0004:00000114       BisDesignDataSessionsFm.BiDesignDataSessionsForm
 0002:00000444       BisDesignDataSessionsFm.BisDesignDataSessionsFm
 0001:000203B8       BisDesignDataSessionsFm.Finalization
 0001:0001FB40       BisDesignDataSessionsFm.TBisDesignDataSessionDeleteFormIface.Create
 0001:0001FBA8       BisDesignDataSessionsFm.TBisDesignDataSessionDeleteFormIface.Execute
 0001:000200E0       BisDesignDataSessionsFm.TBisDesignDataSessionsForm.Create
 0001:00020304       BisDesignDataSessionsFm.TBisDesignDataSessionsForm.GridPaintText
 0001:0001FE5C       BisDesignDataSessionsFm.TBisDesignDataSessionsFormIface.Create
 0001:0001FD30       BisDesignDataSessionsFm.TBisDesignDataSessionViewFormIface.Execute
 0004:00000048       BisDesignDataStreetEditFm..7
 0001:00004F98       BisDesignDataStreetEditFm..TBisDesignDataStreetDeleteFormIface
 0001:0000470C       BisDesignDataStreetEditFm..TBisDesignDataStreetEditForm
 0001:000049E8       BisDesignDataStreetEditFm..TBisDesignDataStreetEditFormIface
 0001:00004B54       BisDesignDataStreetEditFm..TBisDesignDataStreetFilterFormIface
 0001:00004CC0       BisDesignDataStreetEditFm..TBisDesignDataStreetInsertFormIface
 0001:00004E2C       BisDesignDataStreetEditFm..TBisDesignDataStreetUpdateFormIface
 0002:0000036C       BisDesignDataStreetEditFm.BisDesignDataStreetEditFm
 0004:00000044       BisDesignDataStreetEditFm.BisDesignDataStreetEditForm
 0001:000054AC       BisDesignDataStreetEditFm.Finalization
 0001:00005450       BisDesignDataStreetEditFm.TBisDesignDataStreetDeleteFormIface.Create
 0001:00005104       BisDesignDataStreetEditFm.TBisDesignDataStreetEditFormIface.Create
 0001:00005360       BisDesignDataStreetEditFm.TBisDesignDataStreetFilterFormIface.Create
 0001:00005398       BisDesignDataStreetEditFm.TBisDesignDataStreetInsertFormIface.Create
 0001:000053F4       BisDesignDataStreetEditFm.TBisDesignDataStreetUpdateFormIface.Create
 0004:00000050       BisDesignDataStreetsFm..4
 0001:000057B8       BisDesignDataStreetsFm..TBisDesignDataStreetsForm
 0001:000059D0       BisDesignDataStreetsFm..TBisDesignDataStreetsFormIface
 0001:000054DC       BisDesignDataStreetsFm..TBisDesignDataStreetsFrame
 0002:00000374       BisDesignDataStreetsFm.BisDesignDataStreetsFm
 0004:0000004C       BisDesignDataStreetsFm.BisDesignDataStreetsForm
 0001:00005FC8       BisDesignDataStreetsFm.Finalization
 0001:00005FC0       BisDesignDataStreetsFm.TBisDesignDataStreetsForm.GetDataFrameClass
 0001:00005D3C       BisDesignDataStreetsFm.TBisDesignDataStreetsFormIface.Create
 0001:00005F60       BisDesignDataStreetsFm.TBisDesignDataStreetsFormIface.CreateForm
 0001:00005B5C       BisDesignDataStreetsFm.TBisDesignDataStreetsFrame.BeforeIfaceExecute
 0004:00000180       BisDesignDataTaskEditFm..6
 0001:0002AA88       BisDesignDataTaskEditFm..TBisDesignDataTaskDeleteFormIface
 0001:00029D38       BisDesignDataTaskEditFm..TBisDesignDataTaskEditForm
 0001:0002A654       BisDesignDataTaskEditFm..TBisDesignDataTaskEditFormIface
 0001:0002A7B8       BisDesignDataTaskEditFm..TBisDesignDataTaskInsertFormIface
 0001:0002A920       BisDesignDataTaskEditFm..TBisDesignDataTaskUpdateFormIface
 0002:000004B4       BisDesignDataTaskEditFm.BisDesignDataTaskEditFm
 0004:0000017C       BisDesignDataTaskEditFm.BisDesignDataTaskEditForm
 0001:0002CC7C       BisDesignDataTaskEditFm.Finalization
 0001:0002BC58       BisDesignDataTaskEditFm.TBisDesignDataTaskDeleteFormIface.Create
 0001:0002BD28       BisDesignDataTaskEditFm.TBisDesignDataTaskEditForm.BeforeShow
 0001:0002BE3C       BisDesignDataTaskEditFm.TBisDesignDataTaskEditForm.ChangeParam
 0001:0002C890       BisDesignDataTaskEditFm.TBisDesignDataTaskEditForm.CheckParams
 0001:0002BCD4       BisDesignDataTaskEditFm.TBisDesignDataTaskEditForm.Create
 0001:0002CA74       BisDesignDataTaskEditFm.TBisDesignDataTaskEditForm.RadioButtonOnceClick
 0001:0002CB78       BisDesignDataTaskEditFm.TBisDesignDataTaskEditForm.SetTaskSchedule
 0001:0002ABF0       BisDesignDataTaskEditFm.TBisDesignDataTaskEditFormIface.Create
 0001:0002BB5C       BisDesignDataTaskEditFm.TBisDesignDataTaskInsertFormIface.Create
 0001:0002BBD8       BisDesignDataTaskEditFm.TBisDesignDataTaskUpdateFormIface.Create
 0004:0000018C       BisDesignDataTasksFm..3
 0001:0002DB54       BisDesignDataTasksFm..TBisDesignDataTasksForm
 0001:0002DD64       BisDesignDataTasksFm..TBisDesignDataTasksFormIface
 0004:00000188       BisDesignDataTasksFm.BiDesignDataTasksForm
 0002:000004C4       BisDesignDataTasksFm.BisDesignDataTasksFm
 0001:0002DF1C       BisDesignDataTasksFm.Finalization
 0001:0002DF14       BisDesignDataTasksFm.TBisDesignDataTasksForm.GetDataFrameClass
 0001:0002DEC8       BisDesignDataTasksFm.TBisDesignDataTasksFormIface.Create
 0004:00000184       BisDesignDataTasksFrm..2
 0001:0002CCAC       BisDesignDataTasksFrm..TBisDesignDataTasksFrame
 0002:000004BC       BisDesignDataTasksFrm.BisDesignDataTasksFrm
 0001:0002DB24       BisDesignDataTasksFrm.Finalization
 0001:0002D6F0       BisDesignDataTasksFrm.TBisDesignDataTasksFrame.ActionTaskRunExecute
 0001:0002D6D4       BisDesignDataTasksFrm.TBisDesignDataTasksFrame.ActionTaskRunUpdate
 0001:0002D6F8       BisDesignDataTasksFrm.TBisDesignDataTasksFrame.CanTaskRun
 0001:0002D00C       BisDesignDataTasksFrm.TBisDesignDataTasksFrame.Create
 0001:0002D6AC       BisDesignDataTasksFrm.TBisDesignDataTasksFrame.Destroy
 0001:0002D92C       BisDesignDataTasksFrm.TBisDesignDataTasksFrame.TaskRun
 0001:0002D724       BisDesignDataTasksFrm.TBisDesignDataTasksFrame.TaskTerminate
 0004:000001A4       BisDesignExchangeFm..3
 0001:0002FC1C       BisDesignExchangeFm..TBisDesignExchangeForm
 0001:00030130       BisDesignExchangeFm..TBisDesignExchangeFormIface
 0002:000004DC       BisDesignExchangeFm.BisDesignExchangeFm
 0004:000001A0       BisDesignExchangeFm.BisDesignExchangeForm
 0001:00033700       BisDesignExchangeFm.DestinationExists
 0001:000337E8       BisDesignExchangeFm.Exchange
 0001:000341BC       BisDesignExchangeFm.Finalization
 0001:00030CB4       BisDesignExchangeFm.GetDescription
 0001:00030E8C       BisDesignExchangeFm.GetFetchCount
 0001:00033710       BisDesignExchangeFm.Import
 0001:00031A48       BisDesignExchangeFm.SetExchange
 0001:00033A1C       BisDesignExchangeFm.SetFlags
 0001:00031468       BisDesignExchangeFm.SetImport
 0001:00033444       BisDesignExchangeFm.SetResult
 0001:000335EC       BisDesignExchangeFm.SetResultById
 0001:000336F0       BisDesignExchangeFm.SourceExists
 0001:00030CAC       BisDesignExchangeFm.TBisDesignExchangeForm.ActionInfoExecute
 0001:00030900       BisDesignExchangeFm.TBisDesignExchangeForm.ActionInfoUpdate
 0001:00030950       BisDesignExchangeFm.TBisDesignExchangeForm.CanInfo
 0001:0003091C       BisDesignExchangeFm.TBisDesignExchangeForm.CanStart
 0001:000302CC       BisDesignExchangeFm.TBisDesignExchangeForm.Create
 0001:000308B8       BisDesignExchangeFm.TBisDesignExchangeForm.Destroy
 0001:000308E0       BisDesignExchangeFm.TBisDesignExchangeForm.DoTerminate
 0001:000308F8       BisDesignExchangeFm.TBisDesignExchangeForm.GridDblClick
 0001:00030A84       BisDesignExchangeFm.TBisDesignExchangeForm.Info
 0001:0003105C       BisDesignExchangeFm.TBisDesignExchangeForm.ParseScript
 0001:00031428       BisDesignExchangeFm.TBisDesignExchangeForm.ProgressVisible
 0001:00031EA8       BisDesignExchangeFm.TBisDesignExchangeForm.RefreshDataSet
 0001:0003320C       BisDesignExchangeFm.TBisDesignExchangeForm.Start
 0001:00033224       BisDesignExchangeFm.TBisDesignExchangeForm.SyncDataSet
 0001:0003340C       BisDesignExchangeFm.TBisDesignExchangeForm.SyncProgress
 0001:00033A34       BisDesignExchangeFm.TBisDesignExchangeForm.ThreadExecute
 0001:00030284       BisDesignExchangeFm.TBisDesignExchangeFormIface.Create
 0004:00000148       BisDesignJournalActionEditFm..7
 0001:00025E38       BisDesignJournalActionEditFm..TBisDesignJournalActionDeleteFormIface
 0001:0002545C       BisDesignJournalActionEditFm..TBisDesignJournalActionEditForm
 0001:0002585C       BisDesignJournalActionEditFm..TBisDesignJournalActionEditFormIface
 0001:000259D0       BisDesignJournalActionEditFm..TBisDesignJournalActionFilterFormIface
 0001:00025B48       BisDesignJournalActionEditFm..TBisDesignJournalActionInsertFormIface
 0001:00025CC0       BisDesignJournalActionEditFm..TBisDesignJournalActionUpdateFormIface
 0002:0000047C       BisDesignJournalActionEditFm.BisDesignJournalActionEditFm
 0004:00000144       BisDesignJournalActionEditFm.BisDesignJournalActionEditForm
 0001:00026774       BisDesignJournalActionEditFm.Finalization
 0001:00025FB0       BisDesignJournalActionEditFm.GetActionTypeByIndex
 0001:000265A8       BisDesignJournalActionEditFm.TBisDesignJournalActionDeleteFormIface.Create
 0001:000266E0       BisDesignJournalActionEditFm.TBisDesignJournalActionEditForm.BeforeShow
 0001:0002660C       BisDesignJournalActionEditFm.TBisDesignJournalActionEditForm.Create
 0001:00026034       BisDesignJournalActionEditFm.TBisDesignJournalActionEditFormIface.Create
 0001:000264A8       BisDesignJournalActionEditFm.TBisDesignJournalActionFilterFormIface.Create
 0001:000264E0       BisDesignJournalActionEditFm.TBisDesignJournalActionInsertFormIface.Create
 0001:00026544       BisDesignJournalActionEditFm.TBisDesignJournalActionUpdateFormIface.Create
 0004:00000150       BisDesignJournalActionsFm..3
 0001:000267A4       BisDesignJournalActionsFm..TBisDesignJournalActionsForm
 0001:00026A2C       BisDesignJournalActionsFm..TBisDesignJournalActionsFormIface
 0004:0000014C       BisDesignJournalActionsFm.BiDesignJournalActionsForm
 0002:00000484       BisDesignJournalActionsFm.BisDesignJournalActionsFm
 0001:00026FDC       BisDesignJournalActionsFm.Finalization
 0001:00026F8C       BisDesignJournalActionsFm.TBisDesignJournalActionsForm.Create
 0001:00026BA0       BisDesignJournalActionsFm.TBisDesignJournalActionsFormIface.Create
 0001:00026EEC       BisDesignJournalActionsFm.TBisDesignJournalActionsFormIface.GetActionTypeName
 0004:0000001C       BisDesignMainFm..3
 0001:000014B8       BisDesignMainFm..TBisDesignMainForm
 0001:000017B8       BisDesignMainFm..TBisDesignMainFormIface
 0002:0000032C       BisDesignMainFm.BisDesignMainFm
 0004:00000018       BisDesignMainFm.BisDesignMainForm
 0001:00001C34       BisDesignMainFm.Finalization
 0001:00001940       BisDesignMainFm.TBisDesignMainForm.Create
 0001:0000197C       BisDesignMainFm.TBisDesignMainForm.RefreshMenus
 0001:00001BA4       BisDesignMainFm.TBisDesignMainForm.Timer1Timer
 0001:00001900       BisDesignMainFm.TBisDesignMainFormIface.Create
 0001:00000278       SysInit.@InitPkg
 0001:000002DC       SysInit.@PackageLoad
 0001:000002E8       SysInit.@PackageUnload
 0001:00000168       SysInit.AllocTlsBuffer
 0001:00000224       SysInit.ExitProcessTLS
 0001:000001EC       SysInit.ExitThreadTLS
 0001:00000130       SysInit.FreeLibrary
 0001:00000174       SysInit.GetTlsSize
 0004:00000004       SysInit.HInstance
 0001:00000248       SysInit.InitializeModule
 0001:000001C0       SysInit.InitProcessTLS
 0001:0000017C       SysInit.InitThreadTLS
 0001:00000138       SysInit.LocalAlloc
 0001:00000140       SysInit.LocalFree
 0003:00000008       SysInit.Module
 0004:00000000       SysInit.ModuleIsLib
 0004:00000001       SysInit.ModuleIsPackage
 0003:00000004       SysInit.PtrToNil
 0001:00000148       SysInit.TlsAlloc
 0004:00000008       SysInit.tlsBuffer
 0001:00000150       SysInit.TlsFree
 0001:00000158       SysInit.TlsGetValue
 0003:00000000       SysInit.TlsIndex
 0005:00000000       SysInit.TlsLast
 0003:00000020       SysInit.TlsProc
 0001:00000160       SysInit.TlsSetValue
 0001:00000254       SysInit.UninitializeModule
 0004:0000000C       Windows..3
 0001:000003D4       Windows.CopyFile
 0001:000003E4       Windows.Finalization
 0001:000003DC       Windows.FreeLibrary
 0004:00000010       Windows.HtmlHelpModule
 0002:00000010       Windows.Windows


  Address             Publics by Value

 0001:00000130       SysInit.FreeLibrary
 0001:00000138       SysInit.LocalAlloc
 0001:00000140       SysInit.LocalFree
 0001:00000148       SysInit.TlsAlloc
 0001:00000150       SysInit.TlsFree
 0001:00000158       SysInit.TlsGetValue
 0001:00000160       SysInit.TlsSetValue
 0001:00000168       SysInit.AllocTlsBuffer
 0001:00000174       SysInit.GetTlsSize
 0001:0000017C       SysInit.InitThreadTLS
 0001:000001C0       SysInit.InitProcessTLS
 0001:000001EC       SysInit.ExitThreadTLS
 0001:00000224       SysInit.ExitProcessTLS
 0001:00000248       SysInit.InitializeModule
 0001:00000254       SysInit.UninitializeModule
 0001:00000278       SysInit.@InitPkg
 0001:000002DC       SysInit.@PackageLoad
 0001:000002E8       SysInit.@PackageUnload
 0001:000003D4       Windows.CopyFile
 0001:000003DC       Windows.FreeLibrary
 0001:000003E4       Windows.Finalization
 0001:000013E0       BisDesignConsts.Finalization
 0001:000014B8       BisDesignMainFm..TBisDesignMainForm
 0001:000017B8       BisDesignMainFm..TBisDesignMainFormIface
 0001:00001900       BisDesignMainFm.TBisDesignMainFormIface.Create
 0001:00001940       BisDesignMainFm.TBisDesignMainForm.Create
 0001:0000197C       BisDesignMainFm.TBisDesignMainForm.RefreshMenus
 0001:00001BA4       BisDesignMainFm.TBisDesignMainForm.Timer1Timer
 0001:00001C34       BisDesignMainFm.Finalization
 0001:00001DBC       BisDesignDataFirmTypeEditFm..TBisDesignDataFirmTypeEditForm
 0001:00002094       BisDesignDataFirmTypeEditFm..TBisDesignDataFirmTypeEditFormIface
 0001:00002204       BisDesignDataFirmTypeEditFm..TBisDesignDataFirmTypeInsertFormIface
 0001:00002378       BisDesignDataFirmTypeEditFm..TBisDesignDataFirmTypeUpdateFormIface
 0001:000024EC       BisDesignDataFirmTypeEditFm..TBisDesignDataFirmTypeDeleteFormIface
 0001:00002660       BisDesignDataFirmTypeEditFm.TBisDesignDataFirmTypeEditFormIface.Create
 0001:00002800       BisDesignDataFirmTypeEditFm.TBisDesignDataFirmTypeInsertFormIface.Create
 0001:0000285C       BisDesignDataFirmTypeEditFm.TBisDesignDataFirmTypeUpdateFormIface.Create
 0001:000028B8       BisDesignDataFirmTypeEditFm.TBisDesignDataFirmTypeDeleteFormIface.Create
 0001:00002914       BisDesignDataFirmTypeEditFm.Finalization
 0001:00002944       BisDesignDataFirmTypesFm..TBisDesignDataFirmTypesForm
 0001:00002B60       BisDesignDataFirmTypesFm..TBisDesignDataFirmTypesFormIface
 0001:00002CD0       BisDesignDataFirmTypesFm.TBisDesignDataFirmTypesFormIface.Create
 0001:00002E4C       BisDesignDataFirmTypesFm.Finalization
 0001:00002EBC       BisDesignDataLocalitiesFrm..TBisDesignDataStreetsFrameIfaces
 0001:00002F8C       BisDesignDataLocalitiesFrm..TBisDesignDataLocalitiesFrame
 0001:000032F8       BisDesignDataLocalitiesFrm.TBisDesignDataStreetsFrameIfaces.FindById
 0001:0000339C       BisDesignDataLocalitiesFrm.TBisDesignDataLocalitiesFrame.Create
 0001:000033E4       BisDesignDataLocalitiesFrm.TBisDesignDataLocalitiesFrame.Destroy
 0001:00003414       BisDesignDataLocalitiesFrm.TBisDesignDataLocalitiesFrame.ActionStreetsExecute
 0001:0000341C       BisDesignDataLocalitiesFrm.TBisDesignDataLocalitiesFrame.ActionStreetsUpdate
 0001:00003438       BisDesignDataLocalitiesFrm.TBisDesignDataLocalitiesFrame.CanStreets
 0001:000034D0       BisDesignDataLocalitiesFrm.TBisDesignDataLocalitiesFrame.Streets
 0001:000036DC       BisDesignDataLocalitiesFrm.Finalization
 0001:0000370C       BisDesignDataLocalityEditFm..TBisDesignDataLocalityEditForm
 0001:000039B0       BisDesignDataLocalityEditFm..TBisDesignDataLocalityEditFormIface
 0001:00003B20       BisDesignDataLocalityEditFm..TBisDesignDataLocalityInsertFormIface
 0001:00003C94       BisDesignDataLocalityEditFm..TBisDesignDataLocalityUpdateFormIface
 0001:00003E08       BisDesignDataLocalityEditFm..TBisDesignDataLocalityDeleteFormIface
 0001:00003F7C       BisDesignDataLocalityEditFm.TBisDesignDataLocalityEditFormIface.Create
 0001:000040B0       BisDesignDataLocalityEditFm.TBisDesignDataLocalityInsertFormIface.Create
 0001:0000410C       BisDesignDataLocalityEditFm.TBisDesignDataLocalityUpdateFormIface.Create
 0001:00004168       BisDesignDataLocalityEditFm.TBisDesignDataLocalityDeleteFormIface.Create
 0001:000041C4       BisDesignDataLocalityEditFm.Finalization
 0001:000041F4       BisDesignDataLocalitiesFm..TBisDesignDataLocalitiesForm
 0001:00004414       BisDesignDataLocalitiesFm..TBisDesignDataLocalitiesFormIface
 0001:00004588       BisDesignDataLocalitiesFm.TBisDesignDataLocalitiesFormIface.Create
 0001:000046D4       BisDesignDataLocalitiesFm.TBisDesignDataLocalitiesForm.GetDataFrameClass
 0001:000046DC       BisDesignDataLocalitiesFm.Finalization
 0001:0000470C       BisDesignDataStreetEditFm..TBisDesignDataStreetEditForm
 0001:000049E8       BisDesignDataStreetEditFm..TBisDesignDataStreetEditFormIface
 0001:00004B54       BisDesignDataStreetEditFm..TBisDesignDataStreetFilterFormIface
 0001:00004CC0       BisDesignDataStreetEditFm..TBisDesignDataStreetInsertFormIface
 0001:00004E2C       BisDesignDataStreetEditFm..TBisDesignDataStreetUpdateFormIface
 0001:00004F98       BisDesignDataStreetEditFm..TBisDesignDataStreetDeleteFormIface
 0001:00005104       BisDesignDataStreetEditFm.TBisDesignDataStreetEditFormIface.Create
 0001:00005360       BisDesignDataStreetEditFm.TBisDesignDataStreetFilterFormIface.Create
 0001:00005398       BisDesignDataStreetEditFm.TBisDesignDataStreetInsertFormIface.Create
 0001:000053F4       BisDesignDataStreetEditFm.TBisDesignDataStreetUpdateFormIface.Create
 0001:00005450       BisDesignDataStreetEditFm.TBisDesignDataStreetDeleteFormIface.Create
 0001:000054AC       BisDesignDataStreetEditFm.Finalization
 0001:000054DC       BisDesignDataStreetsFm..TBisDesignDataStreetsFrame
 0001:000057B8       BisDesignDataStreetsFm..TBisDesignDataStreetsForm
 0001:000059D0       BisDesignDataStreetsFm..TBisDesignDataStreetsFormIface
 0001:00005B5C       BisDesignDataStreetsFm.TBisDesignDataStreetsFrame.BeforeIfaceExecute
 0001:00005D3C       BisDesignDataStreetsFm.TBisDesignDataStreetsFormIface.Create
 0001:00005F60       BisDesignDataStreetsFm.TBisDesignDataStreetsFormIface.CreateForm
 0001:00005FC0       BisDesignDataStreetsFm.TBisDesignDataStreetsForm.GetDataFrameClass
 0001:00005FC8       BisDesignDataStreetsFm.Finalization
 0001:00005FF8       BisDesignDataFirmEditFm..TBisDesignDataFirmEditForm
 0001:000066EC       BisDesignDataFirmEditFm..TBisDesignDataFirmEditFormIface
 0001:00006850       BisDesignDataFirmEditFm..TBisDesignDataFirmInsertFormIface
 0001:000069B8       BisDesignDataFirmEditFm..TBisDesignDataFirmInsertChildFormIface
 0001:00006B28       BisDesignDataFirmEditFm..TBisDesignDataFirmUpdateFormIface
 0001:00006C90       BisDesignDataFirmEditFm..TBisDesignDataFirmDeleteFormIface
 0001:00006DF8       BisDesignDataFirmEditFm.TBisDesignDataFirmEditFormIface.Create
 0001:00007C18       BisDesignDataFirmEditFm.TBisDesignDataFirmInsertFormIface.Create
 0001:00007D04       BisDesignDataFirmEditFm.TBisDesignDataFirmInsertFormIface.CreateForm
 0001:00007E78       BisDesignDataFirmEditFm.TBisDesignDataFirmInsertChildFormIface.Create
 0001:00007F04       BisDesignDataFirmEditFm.TBisDesignDataFirmInsertChildFormIface.CreateForm
 0001:00008068       BisDesignDataFirmEditFm.TBisDesignDataFirmUpdateFormIface.Create
 0001:000080EC       BisDesignDataFirmEditFm.TBisDesignDataFirmDeleteFormIface.Create
 0001:0000816C       BisDesignDataFirmEditFm.TBisDesignDataFirmEditForm.EditSmallNameExit
 0001:0000822C       BisDesignDataFirmEditFm.Finalization
 0001:0000825C       BisDesignDataFirmsFm..TBisDesignDataFirmsForm
 0001:0000846C       BisDesignDataFirmsFm..TBisDesignDataFirmsFormIface
 0001:000085D0       BisDesignDataFirmsFm.TBisDesignDataFirmsFormIface.Create
 0001:00008C40       BisDesignDataFirmsFm.Finalization
 0001:00008C70       BisDesignDataAccountEditFm..TBisDesignDataAccountEditForm
 0001:0000936C       BisDesignDataAccountEditFm..TBisDesignDataAccountEditFormIface
 0001:000094D8       BisDesignDataAccountEditFm..TBisDesignDataAccountInsertFormIface
 0001:0000964C       BisDesignDataAccountEditFm..TBisDesignDataAccountUpdateFormIface
 0001:000097C0       BisDesignDataAccountEditFm..TBisDesignDataAccountDeleteFormIface
 0001:00009934       BisDesignDataAccountEditFm..TBisRoleInfo
 0001:000099A0       BisDesignDataAccountEditFm.TBisDesignDataAccountEditFormIface.Create
 0001:0000A120       BisDesignDataAccountEditFm.TBisDesignDataAccountInsertFormIface.Create
 0001:0000A17C       BisDesignDataAccountEditFm.TBisDesignDataAccountUpdateFormIface.Create
 0001:0000A1D8       BisDesignDataAccountEditFm.TBisDesignDataAccountDeleteFormIface.Create
 0001:0000A234       BisDesignDataAccountEditFm.TBisDesignDataAccountEditForm.Create
 0001:0000A2B8       BisDesignDataAccountEditFm.TBisDesignDataAccountEditForm.BeforeShow
 0001:0000A444       BisDesignDataAccountEditFm.TBisDesignDataAccountEditForm.ButtonPhotoClick
 0001:0000A48C       BisDesignDataAccountEditFm.TBisDesignDataAccountEditForm.ChangeParam
 0001:0000A64C       BisDesignDataAccountEditFm.TBisDesignDataAccountEditForm.ChangesExists
 0001:0000A674       BisDesignDataAccountEditFm.TBisDesignDataAccountEditForm.CheckBoxProfileClick
 0001:0000A67C       BisDesignDataAccountEditFm.TBisDesignDataAccountEditForm.CheckListBoxRolesClickCheck
 0001:0000A68C       BisDesignDataAccountEditFm.TBisDesignDataAccountEditForm.DeleteAccountRoles
 0001:0000A86C       BisDesignDataAccountEditFm.TBisDesignDataAccountEditForm.InsertAccountRoles
 0001:0000AA18       BisDesignDataAccountEditFm.TBisDesignDataAccountEditForm.RefreshAccountRoles
 0001:0000AC48       BisDesignDataAccountEditFm.TBisDesignDataAccountEditForm.RefreshRoles
 0001:0000AE9C       BisDesignDataAccountEditFm.TBisDesignDataAccountEditForm.InsertProfile
 0001:0000B014       BisDesignDataAccountEditFm.TBisDesignDataAccountEditForm.MenuItemClearPhotoClick
 0001:0000B048       BisDesignDataAccountEditFm.TBisDesignDataAccountEditForm.MenuItemLoadPhotoClick
 0001:0000B0D0       BisDesignDataAccountEditFm.TBisDesignDataAccountEditForm.MenuItemSavePhotoClick
 0001:0000B158       BisDesignDataAccountEditFm.TBisDesignDataAccountEditForm.PopupActionBarPhotoPopup
 0001:0000B1B8       BisDesignDataAccountEditFm.TBisDesignDataAccountEditForm.Execute
 0001:0000B278       BisDesignDataAccountEditFm.Finalization
 0001:0000B2A8       BisDesignDataAccountsFm..TBisDesignDataAccountsFrame
 0001:0000B5C4       BisDesignDataAccountsFm..TBisDesignDataAccountsForm
 0001:0000B7DC       BisDesignDataAccountsFm..TBisDesignDataAccountsFormIface
 0001:0000B948       BisDesignDataAccountsFm.TBisDesignDataAccountsFrame.Create
 0001:0000BE10       BisDesignDataAccountsFm.TBisDesignDataAccountsFrame.Init
 0001:0000BE40       BisDesignDataAccountsFm.TBisDesignDataAccountsFormIface.Create
 0001:0000BE8C       BisDesignDataAccountsFm.TBisDesignDataAccountsForm.Create
 0001:0000BEC4       BisDesignDataAccountsFm.TBisDesignDataAccountsForm.Destroy
 0001:0000BEEC       BisDesignDataAccountsFm.TBisDesignDataAccountsForm.GetDataFrameClass
 0001:0000BEF4       BisDesignDataAccountsFm.Finalization
 0001:0000BF24       BisDesignDataRoleEditFm..TBisDesignDataRoleEditForm
 0001:0000C1D0       BisDesignDataRoleEditFm..TBisDesignDataRoleEditFormIface
 0001:0000C334       BisDesignDataRoleEditFm..TBisDesignDataRoleInsertFormIface
 0001:0000C49C       BisDesignDataRoleEditFm..TBisDesignDataRoleUpdateFormIface
 0001:0000C604       BisDesignDataRoleEditFm..TBisDesignDataRoleDeleteFormIface
 0001:0000C76C       BisDesignDataRoleEditFm.TBisDesignDataRoleEditFormIface.Create
 0001:0000C9F0       BisDesignDataRoleEditFm.TBisDesignDataRoleInsertFormIface.Create
 0001:0000CA4C       BisDesignDataRoleEditFm.TBisDesignDataRoleUpdateFormIface.Create
 0001:0000CAA8       BisDesignDataRoleEditFm.TBisDesignDataRoleDeleteFormIface.Create
 0001:0000CB04       BisDesignDataRoleEditFm.Finalization
 0001:0000CB34       BisDesignDataRolesFm..TBisDesignDataRolesForm
 0001:0000CD44       BisDesignDataRolesFm..TBisDesignDataRolesFormIface
 0001:0000CEA8       BisDesignDataRolesFm.TBisDesignDataRolesFormIface.Create
 0001:0000D0E0       BisDesignDataRolesFm.TBisDesignDataRolesForm.Create
 0001:0000D118       BisDesignDataRolesFm.Finalization
 0001:0000D148       BisDesignDataRolesAndAccountsFm..TBisDesignDataRolesAndAccountsFrame
 0001:0000D430       BisDesignDataRolesAndAccountsFm..TBisDesignDataRolesAndAccountsForm
 0001:0000D660       BisDesignDataRolesAndAccountsFm..TBisDesignDataRolesAndAccountsFormIface
 0001:0000D7E4       BisDesignDataRolesAndAccountsFm.TBisDesignDataRolesAndAccountsFrame.Create
 0001:0000DA90       BisDesignDataRolesAndAccountsFm.TBisDesignDataRolesAndAccountsFrame.FillProvider
 0001:0000E620       BisDesignDataRolesAndAccountsFm.TBisDesignDataRolesAndAccountsFrame.GetNewUserName
 0001:0000E800       BisDesignDataRolesAndAccountsFm.TBisDesignDataRolesAndAccountsFrame.Init
 0001:0000E808       BisDesignDataRolesAndAccountsFm.TBisDesignDataRolesAndAccountsFrame.OpenRecords
 0001:0000E828       BisDesignDataRolesAndAccountsFm.TBisDesignDataRolesAndAccountsFrame.TreeClick
 0001:0000E82C       BisDesignDataRolesAndAccountsFm.TBisDesignDataRolesAndAccountsFormIface.Create
 0001:0000E878       BisDesignDataRolesAndAccountsFm.TBisDesignDataRolesAndAccountsForm.Create
 0001:0000E8B0       BisDesignDataRolesAndAccountsFm.TBisDesignDataRolesAndAccountsForm.GetDataFrameClass
 0001:0000E8B8       BisDesignDataRolesAndAccountsFm.Finalization
 0001:0000E8E8       BisDesignDataApplicationEditFm..TBisDesignDataApplicationEditForm
 0001:0000EBBC       BisDesignDataApplicationEditFm..TBisDesignDataApplicationEditFormIface
 0001:0000ED34       BisDesignDataApplicationEditFm..TBisDesignDataApplicationInsertFormIface
 0001:0000EEB4       BisDesignDataApplicationEditFm..TBisDesignDataApplicationUpdateFormIface
 0001:0000F034       BisDesignDataApplicationEditFm..TBisDesignDataApplicationDeleteFormIface
 0001:0000F1B4       BisDesignDataApplicationEditFm.TBisDesignDataApplicationEditFormIface.Create
 0001:0000F330       BisDesignDataApplicationEditFm.TBisDesignDataApplicationInsertFormIface.Create
 0001:0000F390       BisDesignDataApplicationEditFm.TBisDesignDataApplicationUpdateFormIface.Create
 0001:0000F3F0       BisDesignDataApplicationEditFm.TBisDesignDataApplicationDeleteFormIface.Create
 0001:0000F450       BisDesignDataApplicationEditFm.Finalization
 0001:0000F480       BisDesignDataInterfaceFilterFm..TBisDesignDataInterfaceFilterForm
 0001:0000F7CC       BisDesignDataInterfaceFilterFm..TBisDesignDataInterfaceFilterFormIface
 0001:0000F944       BisDesignDataInterfaceFilterFm.GetInterfaceTypeByIndex
 0001:0000F9E8       BisDesignDataInterfaceFilterFm.TBisDesignDataInterfaceFilterFormIface.Create
 0001:0000FC5C       BisDesignDataInterfaceFilterFm.TBisDesignDataInterfaceFilterForm.Create
 0001:0000FD94       BisDesignDataInterfaceFilterFm.TBisDesignDataInterfaceFilterForm.ChangeParam
 0001:0000FF2C       BisDesignDataInterfaceFilterFm.Finalization
 0001:0000FF5C       BisDesignDataInterfaceEditFm..TBisDesignDataInterfaceEditForm
 0001:00010298       BisDesignDataInterfaceEditFm..TBisDesignDataInterfaceEditFormIface
 0001:0001040C       BisDesignDataInterfaceEditFm..TBisDesignDataInterfaceInsertFormIface
 0001:00010584       BisDesignDataInterfaceEditFm..TBisDesignDataInterfaceUpdateFormIface
 0001:000106FC       BisDesignDataInterfaceEditFm..TBisDesignDataInterfaceDeleteFormIface
 0001:00010874       BisDesignDataInterfaceEditFm.TBisDesignDataInterfaceEditFormIface.Create
 0001:00010B0C       BisDesignDataInterfaceEditFm.TBisDesignDataInterfaceInsertFormIface.Create
 0001:00010B9C       BisDesignDataInterfaceEditFm.TBisDesignDataInterfaceUpdateFormIface.Create
 0001:00010C2C       BisDesignDataInterfaceEditFm.TBisDesignDataInterfaceDeleteFormIface.Create
 0001:00010CBC       BisDesignDataInterfaceEditFm.TBisDesignDataInterfaceEditForm.Create
 0001:00010D70       BisDesignDataInterfaceEditFm.TBisDesignDataInterfaceEditForm.ChangeParam
 0001:00010E8C       BisDesignDataInterfaceEditFm.TBisDesignDataInterfaceEditForm.Execute
 0001:00010EC4       BisDesignDataInterfaceEditFm.Finalization
 0001:00010EF4       BisDesignDataInterfacesFm..TBisDesignDataInterfacesForm
 0001:00011180       BisDesignDataInterfacesFm..TBisDesignDataInterfacesFormIface
 0001:000112F4       BisDesignDataInterfacesFm.TBisDesignDataInterfacesFormIface.Create
 0001:00011340       BisDesignDataInterfacesFm.TBisDesignDataInterfacesForm.Create
 0001:00011398       BisDesignDataInterfacesFm.TBisDesignDataInterfacesForm.GetDataFrameClass
 0001:000113A0       BisDesignDataInterfacesFm.Finalization
 0001:000113D0       BisDesignDataReportEditFm..TBisDesignDataReportEditForm
 0001:000117F0       BisDesignDataReportEditFm..TBisDesignDataReportEditFormIface
 0001:0001195C       BisDesignDataReportEditFm..TBisDesignDataReportInsertFormIface
 0001:00011AC8       BisDesignDataReportEditFm..TBisDesignDataReportUpdateFormIface
 0001:00011C34       BisDesignDataReportEditFm..TBisDesignDataReportDeleteFormIface
 0001:00011DA0       BisDesignDataReportEditFm.TBisDesignDataReportEditFormIface.Create
 0001:00012090       BisDesignDataReportEditFm.TBisDesignDataReportInsertFormIface.Create
 0001:00012110       BisDesignDataReportEditFm.TBisDesignDataReportUpdateFormIface.Create
 0001:00012190       BisDesignDataReportEditFm.TBisDesignDataReportDeleteFormIface.Create
 0001:00012210       BisDesignDataReportEditFm.TBisDesignDataReportEditForm.Create
 0001:000122D8       BisDesignDataReportEditFm.TBisDesignDataReportEditForm.Destroy
 0001:00012308       BisDesignDataReportEditFm.TBisDesignDataReportEditForm.BeforeShow
 0001:000124A4       BisDesignDataReportEditFm.TBisDesignDataReportEditForm.EditReportChange
 0001:000125A0       BisDesignDataReportEditFm.TBisDesignDataReportEditForm.ChangeInterfaceId
 0001:00012808       BisDesignDataReportEditFm.TBisDesignDataReportEditForm.ChangeParam
 0001:00012C84       BisDesignDataReportEditFm.TBisDesignDataReportEditForm.ButtonLoadClick
 0001:00012D64       BisDesignDataReportEditFm.TBisDesignDataReportEditForm.ButtonSaveClick
 0001:00012E8C       BisDesignDataReportEditFm.TBisDesignDataReportEditForm.ButtonClearClick
 0001:00012ED0       BisDesignDataReportEditFm.TBisDesignDataReportEditForm.CheckParam
 0001:00012FA4       BisDesignDataReportEditFm.TBisDesignDataReportEditForm.ButtonEditorClick
 0001:00012FAC       BisDesignDataReportEditFm.TBisDesignDataReportEditForm.GetReportEditorClass
 0001:00012FF0       BisDesignDataReportEditFm.TBisDesignDataReportEditForm.EditorSaveChanges
 0001:00013160       BisDesignDataReportEditFm.TBisDesignDataReportEditForm.RunEditor
 0001:00013410       BisDesignDataReportEditFm.TBisDesignDataReportEditForm.Execute
 0001:00013448       BisDesignDataReportEditFm.Finalization
 0001:00013478       BisDesignDataScriptEditFm..TBisDesignDataScriptEditForm
 0001:0001386C       BisDesignDataScriptEditFm..TBisDesignDataScriptEditFormIface
 0001:000139D8       BisDesignDataScriptEditFm..TBisDesignDataScriptInsertFormIface
 0001:00013B44       BisDesignDataScriptEditFm..TBisDesignDataScriptUpdateFormIface
 0001:00013CB0       BisDesignDataScriptEditFm..TBisDesignDataScriptDeleteFormIface
 0001:00013E1C       BisDesignDataScriptEditFm.TBisDesignDataScriptEditFormIface.Create
 0001:0001410C       BisDesignDataScriptEditFm.TBisDesignDataScriptInsertFormIface.Create
 0001:0001418C       BisDesignDataScriptEditFm.TBisDesignDataScriptUpdateFormIface.Create
 0001:0001420C       BisDesignDataScriptEditFm.TBisDesignDataScriptDeleteFormIface.Create
 0001:0001428C       BisDesignDataScriptEditFm.TBisDesignDataScriptEditForm.Create
 0001:00014354       BisDesignDataScriptEditFm.TBisDesignDataScriptEditForm.Destroy
 0001:0001437C       BisDesignDataScriptEditFm.TBisDesignDataScriptEditForm.BeforeShow
 0001:00014500       BisDesignDataScriptEditFm.TBisDesignDataScriptEditForm.EditScriptChange
 0001:000145FC       BisDesignDataScriptEditFm.TBisDesignDataScriptEditForm.ChangeInterfaceId
 0001:00014864       BisDesignDataScriptEditFm.TBisDesignDataScriptEditForm.ChangeParam
 0001:00014C00       BisDesignDataScriptEditFm.TBisDesignDataScriptEditForm.ButtonLoadClick
 0001:00014CE0       BisDesignDataScriptEditFm.TBisDesignDataScriptEditForm.ButtonSaveClick
 0001:00014E08       BisDesignDataScriptEditFm.TBisDesignDataScriptEditForm.ButtonClearClick
 0001:00014E4C       BisDesignDataScriptEditFm.TBisDesignDataScriptEditForm.CheckParam
 0001:00014F10       BisDesignDataScriptEditFm.TBisDesignDataScriptEditForm.Execute
 0001:00014F48       BisDesignDataScriptEditFm.Finalization
 0001:00014F78       BisDesignDataDocumentEditFm..TBisDesignDataDocumentEditForm
 0001:00015378       BisDesignDataDocumentEditFm..TBisDesignDataDocumentEditFormIface
 0001:000154E8       BisDesignDataDocumentEditFm..TBisDesignDataDocumentInsertFormIface
 0001:0001565C       BisDesignDataDocumentEditFm..TBisDesignDataDocumentUpdateFormIface
 0001:000157D0       BisDesignDataDocumentEditFm..TBisDesignDataDocumentDeleteFormIface
 0001:00015944       BisDesignDataDocumentEditFm.TBisDesignDataDocumentEditFormIface.Create
 0001:00015C38       BisDesignDataDocumentEditFm.TBisDesignDataDocumentInsertFormIface.Create
 0001:00015CBC       BisDesignDataDocumentEditFm.TBisDesignDataDocumentUpdateFormIface.Create
 0001:00015D40       BisDesignDataDocumentEditFm.TBisDesignDataDocumentDeleteFormIface.Create
 0001:00015DC4       BisDesignDataDocumentEditFm.TBisDesignDataDocumentEditForm.Create
 0001:00015DFC       BisDesignDataDocumentEditFm.TBisDesignDataDocumentEditForm.Destroy
 0001:00015E24       BisDesignDataDocumentEditFm.TBisDesignDataDocumentEditForm.BeforeShow
 0001:00015F74       BisDesignDataDocumentEditFm.TBisDesignDataDocumentEditForm.EditDocumentChange
 0001:00016074       BisDesignDataDocumentEditFm.TBisDesignDataDocumentEditForm.ChangeInterfaceId
 0001:000162EC       BisDesignDataDocumentEditFm.TBisDesignDataDocumentEditForm.ChangeParam
 0001:000166CC       BisDesignDataDocumentEditFm.TBisDesignDataDocumentEditForm.GetOleClass
 0001:0001677C       BisDesignDataDocumentEditFm.TBisDesignDataDocumentEditForm.ButtonLoadClick
 0001:000168D4       BisDesignDataDocumentEditFm.TBisDesignDataDocumentEditForm.ButtonSaveClick
 0001:000169F8       BisDesignDataDocumentEditFm.TBisDesignDataDocumentEditForm.ButtonClearClick
 0001:00016A30       BisDesignDataDocumentEditFm.TBisDesignDataDocumentEditForm.CheckParam
 0001:00016AF8       BisDesignDataDocumentEditFm.TBisDesignDataDocumentEditForm.Execute
 0001:00016B30       BisDesignDataDocumentEditFm.Finalization
 0001:00016B60       BisDesignDataInterfacesFrm..TBisDesignDataReportsFrameIfaces
 0001:00016C30       BisDesignDataInterfacesFrm..TBisDesignDataInterfacesFrame
 0001:000170F0       BisDesignDataInterfacesFrm.TBisDesignDataReportsFrameIfaces.FindByClass
 0001:000171BC       BisDesignDataInterfacesFrm.TBisDesignDataReportsFrameIfaces.FindPermissionById
 0001:00017260       BisDesignDataInterfacesFrm.TBisDesignDataInterfacesFrame.Create
 0001:00017638       BisDesignDataInterfacesFrm.TBisDesignDataInterfacesFrame.Destroy
 0001:00017668       BisDesignDataInterfacesFrm.TBisDesignDataInterfacesFrame.GetInterfaceTypeName
 0001:00017710       BisDesignDataInterfacesFrm.TBisDesignDataInterfacesFrame.GetInterfaceType
 0001:00017774       BisDesignDataInterfacesFrm.TBisDesignDataInterfacesFrame.GetInterfaceClass
 0001:00017860       BisDesignDataInterfacesFrm.TBisDesignDataInterfacesFrame.GetInternalClass
 0001:000179F4       BisDesignDataInterfacesFrm.TBisDesignDataInterfacesFrame.GetScriptClass
 0001:00017BD0       BisDesignDataInterfacesFrm.TBisDesignDataInterfacesFrame.GetReportClass
 0001:00017DAC       BisDesignDataInterfacesFrm.TBisDesignDataInterfacesFrame.GetDocumentClass
 0001:00017F58       BisDesignDataInterfacesFrm.TBisDesignDataInterfacesFrame.GetCurrentDuplicateClass
 0001:00017F94       BisDesignDataInterfacesFrm.TBisDesignDataInterfacesFrame.GetCurrentUpdateClass
 0001:00017FD0       BisDesignDataInterfacesFrm.TBisDesignDataInterfacesFrame.GetCurrentDeleteClass
 0001:0001800C       BisDesignDataInterfacesFrm.TBisDesignDataInterfacesFrame.ActionInterfaceShowUpdate
 0001:00018028       BisDesignDataInterfacesFrm.TBisDesignDataInterfacesFrame.ActionPermissionsExecute
 0001:00018030       BisDesignDataInterfacesFrm.TBisDesignDataInterfacesFrame.ActionPermissionsUpdate
 0001:0001804C       BisDesignDataInterfacesFrm.TBisDesignDataInterfacesFrame.ActionInterfaceOptionsExecute
 0001:00018054       BisDesignDataInterfacesFrm.TBisDesignDataInterfacesFrame.ActionInterfaceOptionsUpdate
 0001:00018070       BisDesignDataInterfacesFrm.TBisDesignDataInterfacesFrame.ActionInterfaceShowExecute
 0001:00018078       BisDesignDataInterfacesFrm.TBisDesignDataInterfacesFrame.CanInterfaceShow
 0001:000180A4       BisDesignDataInterfacesFrm.LocalShow
 0001:000181D0       BisDesignDataInterfacesFrm.TBisDesignDataInterfacesFrame.InterfaceShow
 0001:000182A4       BisDesignDataInterfacesFrm.TBisDesignDataInterfacesFrame.CanInterfaceOptions
 0001:000182D0       BisDesignDataInterfacesFrm.OtherIfaceLoadOptions
 0001:000182F8       BisDesignDataInterfacesFrm.LocalShow
 0001:000183FC       BisDesignDataInterfacesFrm.TBisDesignDataInterfacesFrame.InterfaceOptions
 0001:00018468       BisDesignDataInterfacesFrm.TBisDesignDataInterfacesFrame.CanPermissions
 0001:00018494       BisDesignDataInterfacesFrm.TBisDesignDataInterfacesFrame.Permissions
 0001:0001866C       BisDesignDataInterfacesFrm.Finalization
 0001:0001869C       BisDesignDataPermissionEditFm..TBisDesignDataPermissionEditForm
 0001:000189F4       BisDesignDataPermissionEditFm..TBisDesignDataPermissionEditFormIface
 0001:00018B6C       BisDesignDataPermissionEditFm..TBisDesignDataPermissionInsertFormIface
 0001:00018CE4       BisDesignDataPermissionEditFm..TBisDesignDataPermissionUpdateFormIface
 0001:00018E5C       BisDesignDataPermissionEditFm..TBisDesignDataPermissionDeleteFormIface
 0001:00018FD4       BisDesignDataPermissionEditFm.TBisDesignDataPermissionEditFormIface.Create
 0001:00019274       BisDesignDataPermissionEditFm.TBisDesignDataPermissionEditFormIface.CreateForm
 0001:000192D4       BisDesignDataPermissionEditFm.TBisDesignDataPermissionInsertFormIface.Create
 0001:00019334       BisDesignDataPermissionEditFm.TBisDesignDataPermissionUpdateFormIface.Create
 0001:00019394       BisDesignDataPermissionEditFm.TBisDesignDataPermissionDeleteFormIface.Create
 0001:000193F4       BisDesignDataPermissionEditFm.TBisDesignDataPermissionEditForm.Destroy
 0001:0001942C       BisDesignDataPermissionEditFm.TBisDesignDataPermissionEditForm.Execute
 0001:00019464       BisDesignDataPermissionEditFm.TBisDesignDataPermissionEditForm.CanShow
 0001:000194BC       BisDesignDataPermissionEditFm.TBisDesignDataPermissionEditForm.GetIfacePermissions
 0001:00019528       BisDesignDataPermissionEditFm.FillInternal
 0001:000195B4       BisDesignDataPermissionEditFm.FillScript
 0001:00019778       BisDesignDataPermissionEditFm.FillReport
 0001:0001993C       BisDesignDataPermissionEditFm.FillDocument
 0001:0001999C       BisDesignDataPermissionEditFm.TBisDesignDataPermissionEditForm.FillPermissions
 0001:00019C28       BisDesignDataPermissionEditFm.TBisDesignDataPermissionEditForm.ChangeParam
 0001:00019E28       BisDesignDataPermissionEditFm.Finalization
 0001:00019E58       BisDesignDataPermissionsFm..TBisDesignDataPermissionsFrame
 0001:0001A138       BisDesignDataPermissionsFm..TBisDesignDataPermissionsForm
 0001:0001A35C       BisDesignDataPermissionsFm..TBisDesignDataPermissionsFormIface
 0001:0001A4EC       BisDesignDataPermissionsFm.TBisDesignDataPermissionsFrame.BeforeIfaceExecute
 0001:0001A5FC       BisDesignDataPermissionsFm.TBisDesignDataPermissionsFormIface.Create
 0001:0001A88C       BisDesignDataPermissionsFm.TBisDesignDataPermissionsFormIface.CreateForm
 0001:0001A8D4       BisDesignDataPermissionsFm.TBisDesignDataPermissionsForm.GetDataFrameClass
 0001:0001A8DC       BisDesignDataPermissionsFm.Finalization
 0001:0001A90C       BisDesignDataApplicationInterfaceEditFm..TBisDesignDataApplicationInterfaceEditForm
 0001:0001ACA8       BisDesignDataApplicationInterfaceEditFm..TBisDesignDataApplicationInterfaceEditFormIface
 0001:0001AE3C       BisDesignDataApplicationInterfaceEditFm..TBisDesignDataApplicationInterfaceInsertFormIface
 0001:0001AFD4       BisDesignDataApplicationInterfaceEditFm..TBisDesignDataApplicationInterfaceUpdateFormIface
 0001:0001B16C       BisDesignDataApplicationInterfaceEditFm..TBisDesignDataApplicationInterfaceDeleteFormIface
 0001:0001B304       BisDesignDataApplicationInterfaceEditFm.TBisDesignDataApplicationInterfaceEditFormIface.Create
 0001:0001B658       BisDesignDataApplicationInterfaceEditFm.TBisDesignDataApplicationInterfaceInsertFormIface.Create
 0001:0001B6C0       BisDesignDataApplicationInterfaceEditFm.TBisDesignDataApplicationInterfaceUpdateFormIface.Create
 0001:0001B728       BisDesignDataApplicationInterfaceEditFm.TBisDesignDataApplicationInterfaceDeleteFormIface.Create
 0001:0001B790       BisDesignDataApplicationInterfaceEditFm.TBisDesignDataApplicationInterfaceEditForm.CanShow
 0001:0001B7EC       BisDesignDataApplicationInterfaceEditFm.TBisDesignDataApplicationInterfaceEditForm.Execute
 0001:0001B824       BisDesignDataApplicationInterfaceEditFm.Finalization
 0001:0001B854       BisDesignDataApplicationInterfacesFm..TBisDesignDataApplicationInterfacesFrame
 0001:0001BB50       BisDesignDataApplicationInterfacesFm..TBisDesignDataApplicationInterfacesForm
 0001:0001BD90       BisDesignDataApplicationInterfacesFm..TBisDesignDataApplicationInterfacesFormIface
 0001:0001BF3C       BisDesignDataApplicationInterfacesFm.TBisDesignDataApplicationInterfacesFrame.BeforeIfaceExecute
 0001:0001C034       BisDesignDataApplicationInterfacesFm.TBisDesignDataApplicationInterfacesFormIface.Create
 0001:0001C31C       BisDesignDataApplicationInterfacesFm.TBisDesignDataApplicationInterfacesFormIface.CreateForm
 0001:0001C364       BisDesignDataApplicationInterfacesFm.TBisDesignDataApplicationInterfacesForm.GetDataFrameClass
 0001:0001C36C       BisDesignDataApplicationInterfacesFm.Finalization
 0001:0001C39C       BisDesignDataApplicationsFrm..TBisDesignDataApplicationFrameIfaces
 0001:0001C474       BisDesignDataApplicationsFrm..TBisDesignDataApplicationsFrame
 0001:0001C7FC       BisDesignDataApplicationsFrm.TBisDesignDataApplicationFrameIfaces.FindApplicationById
 0001:0001C8A0       BisDesignDataApplicationsFrm.TBisDesignDataApplicationsFrame.Create
 0001:0001C8E8       BisDesignDataApplicationsFrm.TBisDesignDataApplicationsFrame.Destroy
 0001:0001C918       BisDesignDataApplicationsFrm.TBisDesignDataApplicationsFrame.ActionInterfacesExecute
 0001:0001C920       BisDesignDataApplicationsFrm.TBisDesignDataApplicationsFrame.ActionInterfacesUpdate
 0001:0001C93C       BisDesignDataApplicationsFrm.TBisDesignDataApplicationsFrame.CanInterfaces
 0001:0001C9CC       BisDesignDataApplicationsFrm.TBisDesignDataApplicationsFrame.Interfaces
 0001:0001CBA0       BisDesignDataApplicationsFrm.Finalization
 0001:0001CBD0       BisDesignDataApplicationsFm..TBisDesignDataApplicationsForm
 0001:0001CDF4       BisDesignDataApplicationsFm..TBisDesignDataApplicationsFormIface
 0001:0001CF6C       BisDesignDataApplicationsFm.TBisDesignDataApplicationsFormIface.Create
 0001:0001D0E4       BisDesignDataApplicationsFm.TBisDesignDataApplicationsForm.GetDataFrameClass
 0001:0001D0EC       BisDesignDataApplicationsFm.Finalization
 0001:0001D11C       BisDesignDataAccountRoleEditFm..TBisDesignDataAccountRoleEditForm
 0001:0001D408       BisDesignDataAccountRoleEditFm..TBisDesignDataAccountRoleEditFormIface
 0001:0001D580       BisDesignDataAccountRoleEditFm..TBisDesignDataAccountRoleInsertFormIface
 0001:0001D700       BisDesignDataAccountRoleEditFm..TBisDesignDataAccountRoleUpdateFormIface
 0001:0001D880       BisDesignDataAccountRoleEditFm..TBisDesignDataAccountRoleDeleteFormIface
 0001:0001DA00       BisDesignDataAccountRoleEditFm.TBisDesignDataAccountRoleEditFormIface.Create
 0001:0001DBB4       BisDesignDataAccountRoleEditFm.TBisDesignDataAccountRoleInsertFormIface.Create
 0001:0001DC14       BisDesignDataAccountRoleEditFm.TBisDesignDataAccountRoleUpdateFormIface.Create
 0001:0001DC74       BisDesignDataAccountRoleEditFm.TBisDesignDataAccountRoleDeleteFormIface.Create
 0001:0001DCD4       BisDesignDataAccountRoleEditFm.TBisDesignDataAccountRoleEditForm.Execute
 0001:0001DD0C       BisDesignDataAccountRoleEditFm.Finalization
 0001:0001DD3C       BisDesignDataAccountRolesFm..TBisDesignDataAccountRolesForm
 0001:0001DF60       BisDesignDataAccountRolesFm..TBisDesignDataAccountRolesFormIface
 0001:0001E0D8       BisDesignDataAccountRolesFm.TBisDesignDataAccountRolesFormIface.Create
 0001:0001E258       BisDesignDataAccountRolesFm.Finalization
 0001:0001E288       BisDesignDataProfileEditFm..TBisDesignDataProfileEditForm
 0001:0001E58C       BisDesignDataProfileEditFm..TBisDesignDataProfileEditFormIface
 0001:0001E6F8       BisDesignDataProfileEditFm..TBisDesignDataProfileInsertFormIface
 0001:0001E86C       BisDesignDataProfileEditFm..TBisDesignDataProfileUpdateFormIface
 0001:0001E9E0       BisDesignDataProfileEditFm..TBisDesignDataProfileDeleteFormIface
 0001:0001EB54       BisDesignDataProfileEditFm.TBisDesignDataProfileEditFormIface.Create
 0001:0001ED94       BisDesignDataProfileEditFm.TBisDesignDataProfileInsertFormIface.Create
 0001:0001EDF0       BisDesignDataProfileEditFm.TBisDesignDataProfileUpdateFormIface.Create
 0001:0001EE4C       BisDesignDataProfileEditFm.TBisDesignDataProfileDeleteFormIface.Create
 0001:0001EEA8       BisDesignDataProfileEditFm.Finalization
 0001:0001EED8       BisDesignDataProfilesFm..TBisDesignDataProfilesForm
 0001:0001F0F0       BisDesignDataProfilesFm..TBisDesignDataProfilesFormIface
 0001:0001F25C       BisDesignDataProfilesFm.TBisDesignDataProfilesFormIface.Create
 0001:0001F408       BisDesignDataProfilesFm.Finalization
 0001:0001F438       BisDesignDataSessionsFm..TBisDesignDataSessionsForm
 0001:0001F6BC       BisDesignDataSessionsFm..TBisDesignDataSessionsFormIface
 0001:0001F828       BisDesignDataSessionsFm..TBisDesignDataSessionViewFormIface
 0001:0001F990       BisDesignDataSessionsFm..TBisDesignDataSessionDeleteFormIface
 0001:0001FB40       BisDesignDataSessionsFm.TBisDesignDataSessionDeleteFormIface.Create
 0001:0001FBA8       BisDesignDataSessionsFm.TBisDesignDataSessionDeleteFormIface.Execute
 0001:0001FD30       BisDesignDataSessionsFm.TBisDesignDataSessionViewFormIface.Execute
 0001:0001FE5C       BisDesignDataSessionsFm.TBisDesignDataSessionsFormIface.Create
 0001:000200E0       BisDesignDataSessionsFm.TBisDesignDataSessionsForm.Create
 0001:00020304       BisDesignDataSessionsFm.TBisDesignDataSessionsForm.GridPaintText
 0001:000203B8       BisDesignDataSessionsFm.Finalization
 0001:000203E8       BisDesignDataMenuEditFm..TBisDesignDataMenuEditForm
 0001:000208A8       BisDesignDataMenuEditFm..TBisDesignDataMenuEditFormIface
 0001:00020A0C       BisDesignDataMenuEditFm..TBisDesignDataMenuInsertFormIface
 0001:00020B74       BisDesignDataMenuEditFm..TBisDesignDataMenuInsertChildFormIface
 0001:00020CE4       BisDesignDataMenuEditFm..TBisDesignDataMenuUpdateFormIface
 0001:00020E4C       BisDesignDataMenuEditFm..TBisDesignDataMenuDeleteFormIface
 0001:00020FB4       BisDesignDataMenuEditFm..TBisApplicationInfo
 0001:00021028       BisDesignDataMenuEditFm.TBisDesignDataMenuEditFormIface.Create
 0001:00021390       BisDesignDataMenuEditFm.TBisDesignDataMenuEditFormIface.PictureIdChange
 0001:0002151C       BisDesignDataMenuEditFm.TBisDesignDataMenuInsertFormIface.Create
 0001:00021574       BisDesignDataMenuEditFm.TBisDesignDataMenuInsertFormIface.CreateForm
 0001:000216D4       BisDesignDataMenuEditFm.TBisDesignDataMenuInsertChildFormIface.Create
 0001:00021758       BisDesignDataMenuEditFm.TBisDesignDataMenuInsertChildFormIface.CreateForm
 0001:000218A8       BisDesignDataMenuEditFm.TBisDesignDataMenuUpdateFormIface.Create
 0001:00021900       BisDesignDataMenuEditFm.TBisDesignDataMenuDeleteFormIface.Create
 0001:00021958       BisDesignDataMenuEditFm.TBisDesignDataMenuEditForm.Create
 0001:000219A8       BisDesignDataMenuEditFm.TBisDesignDataMenuEditForm.ChangeParam
 0001:00021B84       BisDesignDataMenuEditFm.TBisDesignDataMenuEditForm.ChangesExists
 0001:00021BA4       BisDesignDataMenuEditFm.TBisDesignDataMenuEditForm.CheckListBoxApplicationsClickCheck
 0001:00021BB4       BisDesignDataMenuEditFm.TBisDesignDataMenuEditForm.BeforeShow
 0001:00021BF0       BisDesignDataMenuEditFm.TBisDesignDataMenuEditForm.ButtonClearClick
 0001:00021C34       BisDesignDataMenuEditFm.TBisDesignDataMenuEditForm.ButtonLoadClick
 0001:00021CCC       BisDesignDataMenuEditFm.TBisDesignDataMenuEditForm.ButtonSaveClick
 0001:00021D88       BisDesignDataMenuEditFm.TBisDesignDataMenuEditForm.RefreshApplications
 0001:00021F78       BisDesignDataMenuEditFm.TBisDesignDataMenuEditForm.RefreshApplicationMenus
 0001:000221C0       BisDesignDataMenuEditFm.TBisDesignDataMenuEditForm.DeleteApplicationMenus
 0001:000223AC       BisDesignDataMenuEditFm.TBisDesignDataMenuEditForm.InsertApplicationMenus
 0001:00022560       BisDesignDataMenuEditFm.TBisDesignDataMenuEditForm.Execute
 0001:00022608       BisDesignDataMenuEditFm.Finalization
 0001:00022638       BisDesignDataMenusFm..TBisDesignDataMenusForm
 0001:00022848       BisDesignDataMenusFm..TBisDesignDataMenusFormIface
 0001:000229AC       BisDesignDataMenusFm.TBisDesignDataMenusFormIface.Create
 0001:00022C10       BisDesignDataMenusFm.Finalization
 0001:00022C40       BisDesignDataReportsFrm..TBisDesignDataReportsFrameEditors
 0001:00022D0C       BisDesignDataReportsFrm..TBisDesignDataReportsFrameReports
 0001:00022DD8       BisDesignDataReportsFrm..TBisDesignDataReportsFrame
 0001:000231D4       BisDesignDataReportsFrm.TBisDesignDataReportsFrameEditors.FindByClass
 0001:0002327C       BisDesignDataReportsFrm.TBisDesignDataReportsFrameReports.FindByClass
 0001:00023348       BisDesignDataReportsFrm.TBisDesignDataReportsFrame.Create
 0001:000233A4       BisDesignDataReportsFrm.TBisDesignDataReportsFrame.Destroy
 0001:000233E0       BisDesignDataReportsFrm.TBisDesignDataReportsFrame.ActionReportEditUpdate
 0001:000233FC       BisDesignDataReportsFrm.TBisDesignDataReportsFrame.ActionReportShowExecute
 0001:00023404       BisDesignDataReportsFrm.TBisDesignDataReportsFrame.ActionReportShowUpdate
 0001:00023420       BisDesignDataReportsFrm.TBisDesignDataReportsFrame.ActionReportEditExecute
 0001:00023428       BisDesignDataReportsFrm.TBisDesignDataReportsFrame.CanReportEdit
 0001:00023488       BisDesignDataReportsFrm.TBisDesignDataReportsFrame.GetModuleByName
 0001:0002351C       BisDesignDataReportsFrm.TBisDesignDataReportsFrame.GetReportEditorClass
 0001:000235CC       BisDesignDataReportsFrm.TBisDesignDataReportsFrame.GetReportClass
 0001:0002367C       BisDesignDataReportsFrm.TBisDesignDataReportsFrame.EditorSaveChanges
 0001:00023964       BisDesignDataReportsFrm.TBisDesignDataReportsFrame.EditorPreview
 0001:00023A38       BisDesignDataReportsFrm.TBisDesignDataReportsFrame.ReportEdit
 0001:00023DDC       BisDesignDataReportsFrm.TBisDesignDataReportsFrame.CanReportShow
 0001:00023E3C       BisDesignDataReportsFrm.TBisDesignDataReportsFrame.ReportShow
 0001:00023FC0       BisDesignDataReportsFrm.Finalization
 0001:00023FF0       BisDesignDataReportsFm..TBisDesignDataReportsForm
 0001:00024208       BisDesignDataReportsFm..TBisDesignDataReportsFormIface
 0001:00024370       BisDesignDataReportsFm.TBisDesignDataReportsFormIface.Create
 0001:000244E4       BisDesignDataReportsFm.TBisDesignDataReportsFormIface.GetLastForm
 0001:000244F0       BisDesignDataReportsFm.TBisDesignDataReportsFormIface.CreateForm
 0001:00024540       BisDesignDataReportsFm.TBisDesignDataReportsFormIface.CanReportEdit
 0001:00024550       BisDesignDataReportsFm.TBisDesignDataReportsForm.Create
 0001:00024588       BisDesignDataReportsFm.TBisDesignDataReportsForm.GetDataFrame
 0001:00024594       BisDesignDataReportsFm.TBisDesignDataReportsForm.GetDataFrameClass
 0001:0002459C       BisDesignDataReportsFm.Finalization
 0001:000245CC       BisDesignDataScriptsFrm..TBisDesignDataScriptsFrameScripts
 0001:00024698       BisDesignDataScriptsFrm..TBisDesignDataScriptsFrame
 0001:00024A10       BisDesignDataScriptsFrm.TBisDesignDataScriptsFrameScripts.FindByClass
 0001:00024ADC       BisDesignDataScriptsFrm.TBisDesignDataScriptsFrame.Create
 0001:00024B24       BisDesignDataScriptsFrm.TBisDesignDataScriptsFrame.Destroy
 0001:00024B54       BisDesignDataScriptsFrm.TBisDesignDataScriptsFrame.ActionScriptShowExecute
 0001:00024B5C       BisDesignDataScriptsFrm.TBisDesignDataScriptsFrame.ActionScriptShowUpdate
 0001:00024B78       BisDesignDataScriptsFrm.TBisDesignDataScriptsFrame.GetModuleByName
 0001:00024C0C       BisDesignDataScriptsFrm.TBisDesignDataScriptsFrame.GetScriptClass
 0001:00024CBC       BisDesignDataScriptsFrm.TBisDesignDataScriptsFrame.CanScriptShow
 0001:00024D1C       BisDesignDataScriptsFrm.TBisDesignDataScriptsFrame.ScriptShow
 0001:00024E7C       BisDesignDataScriptsFrm.Finalization
 0001:00024EAC       BisDesignDataScriptsFm..TBisDesignDataScriptsForm
 0001:000250C4       BisDesignDataScriptsFm..TBisDesignDataScriptsFormIface
 0001:0002522C       BisDesignDataScriptsFm.TBisDesignDataScriptsFormIface.Create
 0001:000253A0       BisDesignDataScriptsFm.TBisDesignDataScriptsFormIface.GetLastForm
 0001:000253AC       BisDesignDataScriptsFm.TBisDesignDataScriptsFormIface.CreateForm
 0001:000253E0       BisDesignDataScriptsFm.TBisDesignDataScriptsForm.Create
 0001:00025418       BisDesignDataScriptsFm.TBisDesignDataScriptsForm.GetDataFrame
 0001:00025424       BisDesignDataScriptsFm.TBisDesignDataScriptsForm.GetDataFrameClass
 0001:0002542C       BisDesignDataScriptsFm.Finalization
 0001:0002545C       BisDesignJournalActionEditFm..TBisDesignJournalActionEditForm
 0001:0002585C       BisDesignJournalActionEditFm..TBisDesignJournalActionEditFormIface
 0001:000259D0       BisDesignJournalActionEditFm..TBisDesignJournalActionFilterFormIface
 0001:00025B48       BisDesignJournalActionEditFm..TBisDesignJournalActionInsertFormIface
 0001:00025CC0       BisDesignJournalActionEditFm..TBisDesignJournalActionUpdateFormIface
 0001:00025E38       BisDesignJournalActionEditFm..TBisDesignJournalActionDeleteFormIface
 0001:00025FB0       BisDesignJournalActionEditFm.GetActionTypeByIndex
 0001:00026034       BisDesignJournalActionEditFm.TBisDesignJournalActionEditFormIface.Create
 0001:000264A8       BisDesignJournalActionEditFm.TBisDesignJournalActionFilterFormIface.Create
 0001:000264E0       BisDesignJournalActionEditFm.TBisDesignJournalActionInsertFormIface.Create
 0001:00026544       BisDesignJournalActionEditFm.TBisDesignJournalActionUpdateFormIface.Create
 0001:000265A8       BisDesignJournalActionEditFm.TBisDesignJournalActionDeleteFormIface.Create
 0001:0002660C       BisDesignJournalActionEditFm.TBisDesignJournalActionEditForm.Create
 0001:000266E0       BisDesignJournalActionEditFm.TBisDesignJournalActionEditForm.BeforeShow
 0001:00026774       BisDesignJournalActionEditFm.Finalization
 0001:000267A4       BisDesignJournalActionsFm..TBisDesignJournalActionsForm
 0001:00026A2C       BisDesignJournalActionsFm..TBisDesignJournalActionsFormIface
 0001:00026BA0       BisDesignJournalActionsFm.TBisDesignJournalActionsFormIface.Create
 0001:00026EEC       BisDesignJournalActionsFm.TBisDesignJournalActionsFormIface.GetActionTypeName
 0001:00026F8C       BisDesignJournalActionsFm.TBisDesignJournalActionsForm.Create
 0001:00026FDC       BisDesignJournalActionsFm.Finalization
 0001:0002700C       BisDesignDataDocumentsFm..TBisDesignDataDocumentsForm
 0001:00027228       BisDesignDataDocumentsFm..TBisDesignDataDocumentsFormIface
 0001:00027398       BisDesignDataDocumentsFm.TBisDesignDataDocumentsFormIface.Create
 0001:00027510       BisDesignDataDocumentsFm.TBisDesignDataDocumentsForm.Create
 0001:00027548       BisDesignDataDocumentsFm.Finalization
 0001:00027578       BisDesignDataConstEditFm..TBisDesignDataConstEditForm
 0001:00027870       BisDesignDataConstEditFm..TBisDesignDataConstEditFormIface
 0001:000279D8       BisDesignDataConstEditFm..TBisDesignDataConstInsertFormIface
 0001:00027B44       BisDesignDataConstEditFm..TBisDesignDataConstUpdateFormIface
 0001:00027CB0       BisDesignDataConstEditFm..TBisDesignDataConstDeleteFormIface
 0001:00027E1C       BisDesignDataConstEditFm.TBisDesignDataConstEditFormIface.Create
 0001:00027F8C       BisDesignDataConstEditFm.TBisDesignDataConstInsertFormIface.Create
 0001:00027FE4       BisDesignDataConstEditFm.TBisDesignDataConstUpdateFormIface.Create
 0001:0002803C       BisDesignDataConstEditFm.TBisDesignDataConstDeleteFormIface.Create
 0001:00028094       BisDesignDataConstEditFm.TBisDesignDataConstEditForm.BeforeShow
 0001:000280BC       BisDesignDataConstEditFm.TBisDesignDataConstEditForm.ButtonNameClick
 0001:00028148       BisDesignDataConstEditFm.Finalization
 0001:00028178       BisDesignDataConstsFm..TBisDesignDataConstsForm
 0001:0002838C       BisDesignDataConstsFm..TBisDesignDataConstsFormIface
 0001:000284F4       BisDesignDataConstsFm.TBisDesignDataConstsFormIface.Create
 0001:00028648       BisDesignDataConstsFm.TBisDesignDataConstsForm.Create
 0001:00028680       BisDesignDataConstsFm.Finalization
 0001:000286B0       BisDesignDataLockEditFm..TBisDesignDataLockEditForm
 0001:00028AC0       BisDesignDataLockEditFm..TBisDesignDataLockEditFormIface
 0001:00028C24       BisDesignDataLockEditFm..TBisDesignDataLockInsertFormIface
 0001:00028D8C       BisDesignDataLockEditFm..TBisDesignDataLockUpdateFormIface
 0001:00028EF4       BisDesignDataLockEditFm..TBisDesignDataLockDeleteFormIface
 0001:0002905C       BisDesignDataLockEditFm.TBisDesignDataLockEditFormIface.Create
 0001:000294B8       BisDesignDataLockEditFm.TBisDesignDataLockInsertFormIface.Create
 0001:00029510       BisDesignDataLockEditFm.TBisDesignDataLockUpdateFormIface.Create
 0001:00029568       BisDesignDataLockEditFm.TBisDesignDataLockDeleteFormIface.Create
 0001:000295C0       BisDesignDataLockEditFm.TBisDesignDataLockEditForm.Create
 0001:000295F8       BisDesignDataLockEditFm.TBisDesignDataLockEditForm.BeforeShow
 0001:0002969C       BisDesignDataLockEditFm.Finalization
 0001:000296CC       BisDesignDataLocksFm..TBisDesignDataLocksForm
 0001:000298DC       BisDesignDataLocksFm..TBisDesignDataLocksFormIface
 0001:00029A40       BisDesignDataLocksFm.TBisDesignDataLocksFormIface.Create
 0001:00029D08       BisDesignDataLocksFm.Finalization
 0001:00029D38       BisDesignDataTaskEditFm..TBisDesignDataTaskEditForm
 0001:0002A654       BisDesignDataTaskEditFm..TBisDesignDataTaskEditFormIface
 0001:0002A7B8       BisDesignDataTaskEditFm..TBisDesignDataTaskInsertFormIface
 0001:0002A920       BisDesignDataTaskEditFm..TBisDesignDataTaskUpdateFormIface
 0001:0002AA88       BisDesignDataTaskEditFm..TBisDesignDataTaskDeleteFormIface
 0001:0002ABF0       BisDesignDataTaskEditFm.TBisDesignDataTaskEditFormIface.Create
 0001:0002BB5C       BisDesignDataTaskEditFm.TBisDesignDataTaskInsertFormIface.Create
 0001:0002BBD8       BisDesignDataTaskEditFm.TBisDesignDataTaskUpdateFormIface.Create
 0001:0002BC58       BisDesignDataTaskEditFm.TBisDesignDataTaskDeleteFormIface.Create
 0001:0002BCD4       BisDesignDataTaskEditFm.TBisDesignDataTaskEditForm.Create
 0001:0002BD28       BisDesignDataTaskEditFm.TBisDesignDataTaskEditForm.BeforeShow
 0001:0002BE3C       BisDesignDataTaskEditFm.TBisDesignDataTaskEditForm.ChangeParam
 0001:0002C890       BisDesignDataTaskEditFm.TBisDesignDataTaskEditForm.CheckParams
 0001:0002CA74       BisDesignDataTaskEditFm.TBisDesignDataTaskEditForm.RadioButtonOnceClick
 0001:0002CB78       BisDesignDataTaskEditFm.TBisDesignDataTaskEditForm.SetTaskSchedule
 0001:0002CC7C       BisDesignDataTaskEditFm.Finalization
 0001:0002CCAC       BisDesignDataTasksFrm..TBisDesignDataTasksFrame
 0001:0002D00C       BisDesignDataTasksFrm.TBisDesignDataTasksFrame.Create
 0001:0002D6AC       BisDesignDataTasksFrm.TBisDesignDataTasksFrame.Destroy
 0001:0002D6D4       BisDesignDataTasksFrm.TBisDesignDataTasksFrame.ActionTaskRunUpdate
 0001:0002D6F0       BisDesignDataTasksFrm.TBisDesignDataTasksFrame.ActionTaskRunExecute
 0001:0002D6F8       BisDesignDataTasksFrm.TBisDesignDataTasksFrame.CanTaskRun
 0001:0002D724       BisDesignDataTasksFrm.TBisDesignDataTasksFrame.TaskTerminate
 0001:0002D92C       BisDesignDataTasksFrm.TBisDesignDataTasksFrame.TaskRun
 0001:0002DB24       BisDesignDataTasksFrm.Finalization
 0001:0002DB54       BisDesignDataTasksFm..TBisDesignDataTasksForm
 0001:0002DD64       BisDesignDataTasksFm..TBisDesignDataTasksFormIface
 0001:0002DEC8       BisDesignDataTasksFm.TBisDesignDataTasksFormIface.Create
 0001:0002DF14       BisDesignDataTasksFm.TBisDesignDataTasksForm.GetDataFrameClass
 0001:0002DF1C       BisDesignDataTasksFm.Finalization
 0001:0002DF4C       BisDesignDataExchangeEditFm..TBisDesignDataExchangeEditForm
 0001:0002E3B4       BisDesignDataExchangeEditFm..TBisDesignDataExchangeEditFormIface
 0001:0002E524       BisDesignDataExchangeEditFm..TBisDesignDataExchangeInsertFormIface
 0001:0002E698       BisDesignDataExchangeEditFm..TBisDesignDataExchangeUpdateFormIface
 0001:0002E80C       BisDesignDataExchangeEditFm..TBisDesignDataExchangeDeleteFormIface
 0001:0002E980       BisDesignDataExchangeEditFm.TBisDesignDataExchangeEditFormIface.Create
 0001:0002ED0C       BisDesignDataExchangeEditFm.TBisDesignDataExchangeInsertFormIface.Create
 0001:0002ED68       BisDesignDataExchangeEditFm.TBisDesignDataExchangeUpdateFormIface.Create
 0001:0002EDC4       BisDesignDataExchangeEditFm.TBisDesignDataExchangeDeleteFormIface.Create
 0001:0002EE20       BisDesignDataExchangeEditFm.TBisDesignDataExchangeEditForm.Create
 0001:0002EEC0       BisDesignDataExchangeEditFm.TBisDesignDataExchangeEditForm.RefreshConnections
 0001:0002EF9C       BisDesignDataExchangeEditFm.TBisDesignDataExchangeEditForm.BeforeShow
 0001:0002EFF8       BisDesignDataExchangeEditFm.TBisDesignDataExchangeEditForm.ButtonScriptClick
 0001:0002F270       BisDesignDataExchangeEditFm.TBisDesignDataExchangeEditForm.CheckParam
 0001:0002F368       BisDesignDataExchangeEditFm.Finalization
 0001:0002F398       BisDesignDataExchangesFm..TBisDesignDataExchangesForm
 0001:0002F5B4       BisDesignDataExchangesFm..TBisDesignDataExchangesFormIface
 0001:0002F724       BisDesignDataExchangesFm.TBisDesignDataExchangesFormIface.Create
 0001:0002F9E8       BisDesignDataExchangesFm.Finalization
 0001:0002FC1C       BisDesignExchangeFm..TBisDesignExchangeForm
 0001:00030130       BisDesignExchangeFm..TBisDesignExchangeFormIface
 0001:00030284       BisDesignExchangeFm.TBisDesignExchangeFormIface.Create
 0001:000302CC       BisDesignExchangeFm.TBisDesignExchangeForm.Create
 0001:000308B8       BisDesignExchangeFm.TBisDesignExchangeForm.Destroy
 0001:000308E0       BisDesignExchangeFm.TBisDesignExchangeForm.DoTerminate
 0001:000308F8       BisDesignExchangeFm.TBisDesignExchangeForm.GridDblClick
 0001:00030900       BisDesignExchangeFm.TBisDesignExchangeForm.ActionInfoUpdate
 0001:0003091C       BisDesignExchangeFm.TBisDesignExchangeForm.CanStart
 0001:00030950       BisDesignExchangeFm.TBisDesignExchangeForm.CanInfo
 0001:00030A84       BisDesignExchangeFm.TBisDesignExchangeForm.Info
 0001:00030CAC       BisDesignExchangeFm.TBisDesignExchangeForm.ActionInfoExecute
 0001:00030CB4       BisDesignExchangeFm.GetDescription
 0001:00030E8C       BisDesignExchangeFm.GetFetchCount
 0001:0003105C       BisDesignExchangeFm.TBisDesignExchangeForm.ParseScript
 0001:00031428       BisDesignExchangeFm.TBisDesignExchangeForm.ProgressVisible
 0001:00031468       BisDesignExchangeFm.SetImport
 0001:00031A48       BisDesignExchangeFm.SetExchange
 0001:00031EA8       BisDesignExchangeFm.TBisDesignExchangeForm.RefreshDataSet
 0001:0003320C       BisDesignExchangeFm.TBisDesignExchangeForm.Start
 0001:00033224       BisDesignExchangeFm.TBisDesignExchangeForm.SyncDataSet
 0001:0003340C       BisDesignExchangeFm.TBisDesignExchangeForm.SyncProgress
 0001:00033444       BisDesignExchangeFm.SetResult
 0001:000335EC       BisDesignExchangeFm.SetResultById
 0001:000336F0       BisDesignExchangeFm.SourceExists
 0001:00033700       BisDesignExchangeFm.DestinationExists
 0001:00033710       BisDesignExchangeFm.Import
 0001:000337E8       BisDesignExchangeFm.Exchange
 0001:00033A1C       BisDesignExchangeFm.SetFlags
 0001:00033A34       BisDesignExchangeFm.TBisDesignExchangeForm.ThreadExecute
 0001:000341BC       BisDesignExchangeFm.Finalization
 0001:000341EC       BisDesignDataAlarmEditFm..TBisDesignDataAlarmEditForm
 0001:000345B4       BisDesignDataAlarmEditFm..TBisDesignDataAlarmEditFormIface
 0001:0003471C       BisDesignDataAlarmEditFm..TBisDesignDataAlarmInsertFormIface
 0001:00034888       BisDesignDataAlarmEditFm..TBisDesignDataAlarmUpdateFormIface
 0001:000349F4       BisDesignDataAlarmEditFm..TBisDesignDataAlarmDeleteFormIface
 0001:00034B60       BisDesignDataAlarmEditFm.GetTypeAlarmNameByIndex
 0001:00034BE4       BisDesignDataAlarmEditFm.TBisDesignDataAlarmEditFormIface.Create
 0001:00034FD8       BisDesignDataAlarmEditFm.TBisDesignDataAlarmInsertFormIface.Create
 0001:00035058       BisDesignDataAlarmEditFm.TBisDesignDataAlarmUpdateFormIface.Create
 0001:000350D8       BisDesignDataAlarmEditFm.TBisDesignDataAlarmDeleteFormIface.Create
 0001:00035158       BisDesignDataAlarmEditFm.TBisDesignDataAlarmEditForm.Create
 0001:000351F8       BisDesignDataAlarmEditFm.TBisDesignDataAlarmEditForm.BeforeShow
 0001:0003537C       BisDesignDataAlarmEditFm.Finalization
 0001:000353B4       BisDesignDataAlarmFilterFm..TBisDesignDataAlarmFilterForm
 0001:00035718       BisDesignDataAlarmFilterFm..TBisDesignDataAlarmFilterFormIface
 0001:00035884       BisDesignDataAlarmFilterFm.TBisDesignDataAlarmFilterFormIface.Create
 0001:00035AA8       BisDesignDataAlarmFilterFm.TBisDesignDataAlarmFilterForm.ButtonDateBeginClick
 0001:00035C1C       BisDesignDataAlarmFilterFm.TBisDesignDataAlarmFilterForm.ButtonDateEndClick
 0001:00035D90       BisDesignDataAlarmFilterFm.Finalization
 0001:00035DC0       BisDesignDataAlarmsFm..TBisDesignDataAlarmsForm
 0001:00036024       BisDesignDataAlarmsFm..TBisDesignDataAlarmsFormIface
 0001:0003618C       BisDesignDataAlarmsFm.TBisDesignDataAlarmsFormIface.Create
 0001:00036448       BisDesignDataAlarmsFm.TBisDesignDataAlarmsFormIface.GetTypeAlarmName
 0001:000364E8       BisDesignDataAlarmsFm.TBisDesignDataAlarmsForm.Create
 0001:000366B4       BisDesignDataAlarmsFm.Finalization
 0001:000366E4       BisDesign.InitIfaceModule
 0001:00036868       BisDesign.Finalization
 0001:000375A8       .imdesign.@GetPackageInfoTable
 0001:000375B0       .imdesign.@PackageLoad
 0001:000375BC       .imdesign.@PackageUnload
 0002:00000010       Windows.Windows
 0002:0000030C       BisDesignConsts.BisDesignConsts
 0002:0000032C       BisDesignMainFm.BisDesignMainFm
 0002:00000344       BisDesignDataFirmTypeEditFm.BisDesignDataFirmTypeEditFm
 0002:0000034C       BisDesignDataFirmTypesFm.BisDesignDataFirmTypesFm
 0002:00000354       BisDesignDataLocalitiesFrm.BisDesignDataLocalitiesFrm
 0002:0000035C       BisDesignDataLocalityEditFm.BisDesignDataLocalityEditFm
 0002:00000364       BisDesignDataLocalitiesFm.BisDesignDataLocalitiesFm
 0002:0000036C       BisDesignDataStreetEditFm.BisDesignDataStreetEditFm
 0002:00000374       BisDesignDataStreetsFm.BisDesignDataStreetsFm
 0002:0000037C       BisDesignDataFirmEditFm.BisDesignDataFirmEditFm
 0002:00000384       BisDesignDataFirmsFm.BisDesignDataFirmsFm
 0002:0000038C       BisDesignDataAccountEditFm.BisDesignDataAccountEditFm
 0002:00000394       BisDesignDataAccountsFm.BisDesignDataAccountsFm
 0002:0000039C       BisDesignDataRoleEditFm.BisDesignDataRoleEditFm
 0002:000003A4       BisDesignDataRolesFm.BisDesignDataRolesFm
 0002:000003AC       BisDesignDataRolesAndAccountsFm.BisDesignDataRolesAndAccountsFm
 0002:000003B4       BisDesignDataApplicationEditFm.BisDesignDataApplicationEditFm
 0002:000003BC       BisDesignDataInterfaceFilterFm.BisDesignDataInterfaceFilterFm
 0002:000003C4       BisDesignDataInterfaceEditFm.BisDesignDataInterfaceEditFm
 0002:000003CC       BisDesignDataInterfacesFm.BisDesignDataInterfacesFm
 0002:000003D4       BisDesignDataReportEditFm.BisDesignDataReportEditFm
 0002:000003DC       BisDesignDataScriptEditFm.BisDesignDataScriptEditFm
 0002:000003E4       BisDesignDataDocumentEditFm.BisDesignDataDocumentEditFm
 0002:000003EC       BisDesignDataInterfacesFrm.BisDesignDataInterfacesFrm
 0002:000003F4       BisDesignDataPermissionEditFm.BisDesignDataPermissionEditFm
 0002:000003FC       BisDesignDataPermissionsFm.BisDesignDataPermissionsFm
 0002:00000404       BisDesignDataApplicationInterfaceEditFm.BisDesignDataApplicationInterfaceEditFm
 0002:0000040C       BisDesignDataApplicationInterfacesFm.BisDesignDataApplicationInterfacesFm
 0002:00000414       BisDesignDataApplicationsFrm.BisDesignDataApplicationsFrm
 0002:0000041C       BisDesignDataApplicationsFm.BisDesignDataApplicationsFm
 0002:00000424       BisDesignDataAccountRoleEditFm.BisDesignDataAccountRoleEditFm
 0002:0000042C       BisDesignDataAccountRolesFm.BisDesignDataAccountRolesFm
 0002:00000434       BisDesignDataProfileEditFm.BisDesignDataProfileEditFm
 0002:0000043C       BisDesignDataProfilesFm.BisDesignDataProfilesFm
 0002:00000444       BisDesignDataSessionsFm.BisDesignDataSessionsFm
 0002:0000044C       BisDesignDataMenuEditFm.BisDesignDataMenuEditFm
 0002:00000454       BisDesignDataMenusFm.BisDesignDataMenusFm
 0002:0000045C       BisDesignDataReportsFrm.BisDesignDataReportsFrm
 0002:00000464       BisDesignDataReportsFm.BisDesignDataReportsFm
 0002:0000046C       BisDesignDataScriptsFrm.BisDesignDataScriptsFrm
 0002:00000474       BisDesignDataScriptsFm.BisDesignDataScriptsFm
 0002:0000047C       BisDesignJournalActionEditFm.BisDesignJournalActionEditFm
 0002:00000484       BisDesignJournalActionsFm.BisDesignJournalActionsFm
 0002:0000048C       BisDesignDataDocumentsFm.BisDesignDataDocumentsFm
 0002:00000494       BisDesignDataConstEditFm.BisDesignDataConstEditFm
 0002:0000049C       BisDesignDataConstsFm.BisDesignDataConstsFm
 0002:000004A4       BisDesignDataLockEditFm.BisDesignDataLockEditFm
 0002:000004AC       BisDesignDataLocksFm.BisDesignDataLocksFm
 0002:000004B4       BisDesignDataTaskEditFm.BisDesignDataTaskEditFm
 0002:000004BC       BisDesignDataTasksFrm.BisDesignDataTasksFrm
 0002:000004C4       BisDesignDataTasksFm.BisDesignDataTasksFm
 0002:000004CC       BisDesignDataExchangeEditFm.BisDesignDataExchangeEditFm
 0002:000004D4       BisDesignDataExchangesFm.BisDesignDataExchangesFm
 0002:000004DC       BisDesignExchangeFm.BisDesignExchangeFm
 0002:000004E4       BisDesignDataAlarmEditFm.BisDesignDataAlarmEditFm
 0002:000004EC       BisDesignDataAlarmFilterFm.BisDesignDataAlarmFilterFm
 0002:000004F4       BisDesignDataAlarmsFm.BisDesignDataAlarmsFm
 0002:000004FC       BisDesign.BisDesign
 0002:00000504       .imdesign..imdesign
 0003:00000000       SysInit.TlsIndex
 0003:00000004       SysInit.PtrToNil
 0003:00000008       SysInit.Module
 0003:00000020       SysInit.TlsProc
 0003:00000030       BisDesignConsts.IsMainModule
 0004:00000000       SysInit.ModuleIsLib
 0004:00000001       SysInit.ModuleIsPackage
 0004:00000004       SysInit.HInstance
 0004:00000008       SysInit.tlsBuffer
 0004:0000000C       Windows..3
 0004:00000010       Windows.HtmlHelpModule
 0004:00000014       BisDesignConsts..1
 0004:00000018       BisDesignMainFm.BisDesignMainForm
 0004:0000001C       BisDesignMainFm..3
 0004:00000020       BisDesignDataFirmTypeEditFm.BisDesignDataFirmTypeEditForm
 0004:00000024       BisDesignDataFirmTypeEditFm..6
 0004:00000028       BisDesignDataFirmTypesFm.BisDesignDataFirmTypesForm
 0004:0000002C       BisDesignDataFirmTypesFm..3
 0004:00000030       BisDesignDataLocalitiesFrm..3
 0004:00000034       BisDesignDataLocalityEditFm.BisDesignDataLocalityEditForm
 0004:00000038       BisDesignDataLocalityEditFm..6
 0004:0000003C       BisDesignDataLocalitiesFm.BisDesignDataLocalitiesForm
 0004:00000040       BisDesignDataLocalitiesFm..3
 0004:00000044       BisDesignDataStreetEditFm.BisDesignDataStreetEditForm
 0004:00000048       BisDesignDataStreetEditFm..7
 0004:0000004C       BisDesignDataStreetsFm.BisDesignDataStreetsForm
 0004:00000050       BisDesignDataStreetsFm..4
 0004:00000054       BisDesignDataFirmEditFm.BisDesignDataFirmEditForm
 0004:00000058       BisDesignDataFirmEditFm..7
 0004:0000005C       BisDesignDataFirmsFm.BisDesignDataFirmsForm
 0004:00000060       BisDesignDataFirmsFm..3
 0004:00000064       BisDesignDataAccountEditFm.BisDesignDataAccountEditForm
 0004:00000068       BisDesignDataAccountEditFm..6
 0004:0000006C       BisDesignDataAccountsFm.BiDesignDataAccountsForm
 0004:00000070       BisDesignDataAccountsFm..4
 0004:00000074       BisDesignDataRoleEditFm.BisDesignDataRoleEditForm
 0004:00000078       BisDesignDataRoleEditFm..6
 0004:0000007C       BisDesignDataRolesFm.BisDesignDataRolesForm
 0004:00000080       BisDesignDataRolesFm..3
 0004:00000084       BisDesignDataRolesAndAccountsFm.BisDesignDataRolesAndAccountsForm
 0004:00000088       BisDesignDataRolesAndAccountsFm..4
 0004:0000008C       BisDesignDataApplicationEditFm.BisDesignDataApplicationEditForm
 0004:00000090       BisDesignDataApplicationEditFm..6
 0004:00000094       BisDesignDataInterfaceFilterFm.BisDesignDataInterfaceFilterForm
 0004:00000098       BisDesignDataInterfaceFilterFm..3
 0004:0000009C       BisDesignDataInterfaceEditFm.BisDesignDataInterfaceEditForm
 0004:000000A0       BisDesignDataInterfaceEditFm..6
 0004:000000A4       BisDesignDataInterfacesFm.BisDesignDataInterfacesForm
 0004:000000A8       BisDesignDataInterfacesFm..3
 0004:000000AC       BisDesignDataReportEditFm.BisDesignDataReportEditForm
 0004:000000B0       BisDesignDataReportEditFm..6
 0004:000000B4       BisDesignDataScriptEditFm.BisDesignDataScriptEditForm
 0004:000000B8       BisDesignDataScriptEditFm..6
 0004:000000BC       BisDesignDataDocumentEditFm.BisDesignDataDocumentEditForm
 0004:000000C0       BisDesignDataDocumentEditFm..6
 0004:000000C4       BisDesignDataInterfacesFrm..3
 0004:000000C8       BisDesignDataPermissionEditFm.BisDesignDataPermissionEditForm
 0004:000000CC       BisDesignDataPermissionEditFm..6
 0004:000000D0       BisDesignDataPermissionsFm.BiDesignDataPermissionsForm
 0004:000000D4       BisDesignDataPermissionsFm..4
 0004:000000D8       BisDesignDataApplicationInterfaceEditFm.BisDesignDataApplicationInterfaceEditForm
 0004:000000DC       BisDesignDataApplicationInterfaceEditFm..6
 0004:000000E0       BisDesignDataApplicationInterfacesFm.BiDesignDataApplicationInterfacesForm
 0004:000000E4       BisDesignDataApplicationInterfacesFm..4
 0004:000000E8       BisDesignDataApplicationsFrm..3
 0004:000000EC       BisDesignDataApplicationsFm.BisDesignDataApplicationsForm
 0004:000000F0       BisDesignDataApplicationsFm..3
 0004:000000F4       BisDesignDataAccountRoleEditFm.BisDesignDataAccountRoleEditForm
 0004:000000F8       BisDesignDataAccountRoleEditFm..6
 0004:000000FC       BisDesignDataAccountRolesFm.BiDesignDataAccountRolesForm
 0004:00000100       BisDesignDataAccountRolesFm..3
 0004:00000104       BisDesignDataProfileEditFm.BisDesignDataProfileEditForm
 0004:00000108       BisDesignDataProfileEditFm..6
 0004:0000010C       BisDesignDataProfilesFm.BiDesignDataProfilesForm
 0004:00000110       BisDesignDataProfilesFm..3
 0004:00000114       BisDesignDataSessionsFm.BiDesignDataSessionsForm
 0004:00000118       BisDesignDataSessionsFm..5
 0004:0000011C       BisDesignDataMenuEditFm.BisDesignDataMenuEditForm
 0004:00000120       BisDesignDataMenuEditFm..7
 0004:00000124       BisDesignDataMenusFm.BisDesignDataMenusForm
 0004:00000128       BisDesignDataMenusFm..3
 0004:0000012C       BisDesignDataReportsFrm..4
 0004:00000130       BisDesignDataReportsFm.BisDesignDataReportsForm
 0004:00000134       BisDesignDataReportsFm..3
 0004:00000138       BisDesignDataScriptsFrm..3
 0004:0000013C       BisDesignDataScriptsFm.BisDesignDataScriptsForm
 0004:00000140       BisDesignDataScriptsFm..3
 0004:00000144       BisDesignJournalActionEditFm.BisDesignJournalActionEditForm
 0004:00000148       BisDesignJournalActionEditFm..7
 0004:0000014C       BisDesignJournalActionsFm.BiDesignJournalActionsForm
 0004:00000150       BisDesignJournalActionsFm..3
 0004:00000154       BisDesignDataDocumentsFm.BisDesignDataDocumentsForm
 0004:00000158       BisDesignDataDocumentsFm..3
 0004:0000015C       BisDesignDataConstEditFm.BisDesignDataConstEditForm
 0004:00000160       BisDesignDataConstEditFm..6
 0004:00000164       BisDesignDataConstsFm.BisDesignDataConstsForm
 0004:00000168       BisDesignDataConstsFm..3
 0004:0000016C       BisDesignDataLockEditFm.BisDesignDataLockEditForm
 0004:00000170       BisDesignDataLockEditFm..6
 0004:00000174       BisDesignDataLocksFm.BiDesignDataLocksForm
 0004:00000178       BisDesignDataLocksFm..3
 0004:0000017C       BisDesignDataTaskEditFm.BisDesignDataTaskEditForm
 0004:00000180       BisDesignDataTaskEditFm..6
 0004:00000184       BisDesignDataTasksFrm..2
 0004:00000188       BisDesignDataTasksFm.BiDesignDataTasksForm
 0004:0000018C       BisDesignDataTasksFm..3
 0004:00000190       BisDesignDataExchangeEditFm.BisDesignDataExchangeEditForm
 0004:00000194       BisDesignDataExchangeEditFm..6
 0004:00000198       BisDesignDataExchangesFm.BisDesignDataExchangesForm
 0004:0000019C       BisDesignDataExchangesFm..3
 0004:000001A0       BisDesignExchangeFm.BisDesignExchangeForm
 0004:000001A4       BisDesignExchangeFm..3
 0004:000001A8       BisDesignDataAlarmEditFm.BisDesignDataAlarmEditForm
 0004:000001AC       BisDesignDataAlarmEditFm..6
 0004:000001B0       BisDesignDataAlarmFilterFm.BisDesignDataAlarmFilterForm
 0004:000001B4       BisDesignDataAlarmFilterFm..3
 0004:000001B8       BisDesignDataAlarmsFm.BisDesignDataAlarmsForm
 0004:000001BC       BisDesignDataAlarmsFm..3
 0004:000001C0       BisDesign..1
 0005:00000000       SysInit.TlsLast


Line numbers for MiTeC_ToolHelp32(MiTeC_ToolHelp32.pas) segment .text

   438 0001:00000000

Line numbers for IpRtrMib(objects.bpl\IPHlpApi\Pas\IpRtrMib.pas) segment .text

  1062 0001:00000000

Line numbers for IpExport(objects.bpl\IPHlpApi\Pas\IpExport.pas) segment .text

   343 0001:00000000

Line numbers for IpTypes(objects.bpl\IPHlpApi\Pas\IpTypes.pas) segment .text

   228 0001:00000000

Line numbers for IpHlpApi(objects.bpl\IPHlpApi\Pas\IpHlpApi.pas) segment .text

   752 0001:00000000

Line numbers for BisDesignConsts(imdesign.bpl\BisDesignConsts.pas) segment .itext

    11 0002:0000030C

Line numbers for BisDesignMainFm(imdesign.bpl\BisDesignMainFm.pas) segment .text

    50 0001:00001900    51 0001:00001912    52 0001:0000191B    53 0001:00001923
    58 0001:00001940    59 0001:00001952    60 0001:0000195B    61 0001:00001962
    75 0001:0000197C    76 0001:00001981    77 0001:00001989    79 0001:00001991
    80 0001:000019A5    81 0001:000019AC    82 0001:000019B4    84 0001:000019BB
    85 0001:000019D1    86 0001:000019D5    87 0001:000019EC    88 0001:000019F0
    89 0001:000019FE    93 0001:00001A0B    94 0001:00001A21    95 0001:00001A29
    96 0001:00001A40    97 0001:00001A44    98 0001:00001A52   100 0001:00001A5F
   101 0001:00001A7A   102 0001:00001A7E   103 0001:00001A8C   105 0001:00001A99
   106 0001:00001AB4   107 0001:00001AB8   108 0001:00001AC6   110 0001:00001AD3
   111 0001:00001AEE   112 0001:00001AF2   113 0001:00001B00   117 0001:00001B0D
   120 0001:00001B1B   123 0001:00001BA4   124 0001:00001BBA   125 0001:00001BD9
   127 0001:00001C11

Line numbers for BisDesignMainFm(imdesign.bpl\BisDesignMainFm.pas) segment .itext

   129 0002:0000032C

Line numbers for BisDesignDataFirmTypeEditFm(imdesign.bpl\BisDesignDataFirmTypeEditFm.pas) segment .text

    54 0001:00002660    55 0001:00002673    56 0001:0000267C    57 0001:00002684
    58 0001:0000268A    59 0001:000026A2    60 0001:000026BC    61 0001:000026D4
    63 0001:000026EC    68 0001:00002800    69 0001:00002812    70 0001:0000281B
    71 0001:0000282B    76 0001:0000285C    77 0001:0000286E    78 0001:00002877
    79 0001:00002887    84 0001:000028B8    85 0001:000028CA    86 0001:000028D3
    87 0001:000028E3

Line numbers for BisDesignDataFirmTypeEditFm(imdesign.bpl\BisDesignDataFirmTypeEditFm.pas) segment .itext

    89 0002:00000344

Line numbers for BisDesignDataFirmTypesFm(imdesign.bpl\BisDesignDataFirmTypesFm.pas) segment .text

    34 0001:00002CD0    35 0001:00002CE7    36 0001:00002CF0    37 0001:00002CF8
    38 0001:00002D03    39 0001:00002D10    40 0001:00002D1B    41 0001:00002D26
    43 0001:00002D2D    44 0001:00002D3D    45 0001:00002D43    46 0001:00002D4F
    47 0001:00002D65    48 0001:00002D7B    50 0001:00002D87    51 0001:00002D99

Line numbers for BisDesignDataFirmTypesFm(imdesign.bpl\BisDesignDataFirmTypesFm.pas) segment .itext

    53 0002:0000034C

Line numbers for BisDesignDataLocalitiesFrm(imdesign.bpl\BisDesignDataLocalitiesFrm.pas) segment .text

    49 0001:000032F8    50 0001:00003323    51 0001:00003328    52 0001:00003336
    53 0001:00003342    54 0001:00003357    55 0001:00003369    56 0001:0000336C
    59 0001:0000336E    51 0001:0000336F    60 0001:00003372    65 0001:0000339C
    66 0001:000033AE    67 0001:000033B7    68 0001:000033C9    71 0001:000033E4
    72 0001:000033EF    73 0001:000033FA    74 0001:00003406    78 0001:00003414
    79 0001:00003419    82 0001:0000341C    83 0001:0000341F    84 0001:00003433
    90 0001:00003438    91 0001:00003442    92 0001:0000344E    93 0001:00003471
    94 0001:00003477    95 0001:00003488    96 0001:00003496    97 0001:0000349E
    99 0001:000034B6   102 0001:000034C6   110 0001:000034D0   111 0001:000034F2
   112 0001:00003501   113 0001:0000350D   114 0001:00003521   115 0001:00003535
   116 0001:00003545   117 0001:0000354D   118 0001:0000355D   119 0001:0000356B
   120 0001:00003579   121 0001:0000359B   122 0001:000035A2   123 0001:000035AF
   124 0001:000035B6   126 0001:000035D6   127 0001:00003611   128 0001:0000361F
   129 0001:00003628   130 0001:00003634   132 0001:0000363B

Line numbers for BisDesignDataLocalitiesFrm(imdesign.bpl\BisDesignDataLocalitiesFrm.pas) segment .itext

   134 0002:00000354

Line numbers for BisDesignDataLocalityEditFm(imdesign.bpl\BisDesignDataLocalityEditFm.pas) segment .text

    52 0001:00003F7C    53 0001:00003F93    54 0001:00003F9C    55 0001:00003FA4
    56 0001:00003FAA    57 0001:00003FC2    58 0001:00003FDC    60 0001:00003FF6
    65 0001:000040B0    66 0001:000040C2    67 0001:000040CB    68 0001:000040DB
    73 0001:0000410C    74 0001:0000411E    75 0001:00004127    76 0001:00004137
    81 0001:00004168    82 0001:0000417A    83 0001:00004183    84 0001:00004193

Line numbers for BisDesignDataLocalityEditFm(imdesign.bpl\BisDesignDataLocalityEditFm.pas) segment .itext

    86 0002:0000035C

Line numbers for BisDesignDataLocalitiesFm(imdesign.bpl\BisDesignDataLocalitiesFm.pas) segment .text

    37 0001:00004588    38 0001:0000459F    39 0001:000045A8    40 0001:000045B0
    41 0001:000045BB    42 0001:000045C8    43 0001:000045D3    44 0001:000045DE
    46 0001:000045E5    47 0001:000045F5    48 0001:000045FB    49 0001:00004607
    50 0001:0000461D    52 0001:00004630    53 0001:00004642    59 0001:000046D4
    60 0001:000046D9

Line numbers for BisDesignDataLocalitiesFm(imdesign.bpl\BisDesignDataLocalitiesFm.pas) segment .itext

    62 0002:00000364

Line numbers for BisDesignDataStreetEditFm(imdesign.bpl\BisDesignDataStreetEditFm.pas) segment .text

    62 0001:00005104    63 0001:00005117    64 0001:00005120    65 0001:00005128
    66 0001:0000512E    67 0001:00005146    68 0001:00005154    69 0001:00005162
    70 0001:0000517C    71 0001:00005196    74 0001:000051D1    80 0001:00005360
    81 0001:00005372    82 0001:0000537B    87 0001:00005398    88 0001:000053AA
    89 0001:000053B3    90 0001:000053C3    95 0001:000053F4    96 0001:00005406
    97 0001:0000540F    98 0001:0000541F   103 0001:00005450   104 0001:00005462
   105 0001:0000546B   106 0001:0000547B

Line numbers for BisDesignDataStreetEditFm(imdesign.bpl\BisDesignDataStreetEditFm.pas) segment .itext

   108 0002:0000036C

Line numbers for BisDesignDataStreetsFm(imdesign.bpl\BisDesignDataStreetsFm.pas) segment .text

    59 0001:00005B5C    60 0001:00005B7F    61 0001:00005B88    62 0001:00005B90
    63 0001:00005BA5    64 0001:00005BC2    65 0001:00005BD0    66 0001:00005BFA
    67 0001:00005C24    68 0001:00005C38    69 0001:00005C3C    71 0001:00005C85
    74 0001:00005C94    79 0001:00005D3C    80 0001:00005D6A    81 0001:00005D73
    82 0001:00005D89    83 0001:00005D91    84 0001:00005D9C    85 0001:00005DA9
    86 0001:00005DB4    87 0001:00005DBF    89 0001:00005DC6    90 0001:00005DD6
    91 0001:00005DDC    92 0001:00005DE8    93 0001:00005DF4    94 0001:00005E00
    95 0001:00005E16    96 0001:00005E29    98 0001:00005E3F    99 0001:00005E51
   102 0001:00005F60   103 0001:00005F65   104 0001:00005F6E   106 0001:00005F72
   107 0001:00005F8B   108 0001:00005FA2   111 0001:00005FB9   117 0001:00005FC0
   118 0001:00005FC5

Line numbers for BisDesignDataStreetsFm(imdesign.bpl\BisDesignDataStreetsFm.pas) segment .itext

   120 0002:00000374

Line numbers for BisDesignDataFirmEditFm(imdesign.bpl\BisDesignDataFirmEditFm.pas) segment .text

   118 0001:00006DF8   119 0001:00006E10   120 0001:00006E19   121 0001:00006E21
   122 0001:00006E27   123 0001:00006E3F   124 0001:00006E4D   125 0001:00006E5B
   126 0001:00006E69   127 0001:00006E77   128 0001:00006E85   129 0001:00006E93
   130 0001:00006EA1   131 0001:00006EAF   132 0001:00006EBD   133 0001:00006ECB
   135 0001:00006EFF   136 0001:00006F19   138 0001:00006F47   139 0001:00006F61
   140 0001:00006F7B   141 0001:00006F95   142 0001:00006FAF   143 0001:00006FC9
   146 0001:00006FE3   147 0001:00007019   148 0001:00007025   150 0001:00007033
   151 0001:0000704D   152 0001:00007067   155 0001:00007081   156 0001:000070B7
   157 0001:000070C3   159 0001:000070D1   160 0001:000070EB   161 0001:00007105
   162 0001:0000711F   163 0001:00007139   164 0001:00007153   165 0001:0000716D
   166 0001:00007187   167 0001:000071A1   168 0001:000071BB   169 0001:000071D5
   170 0001:000071EF   171 0001:00007209   173 0001:00007223   178 0001:00007C18
   179 0001:00007C2A   180 0001:00007C33   182 0001:00007C3A   183 0001:00007C4A
   184 0001:00007C5A   185 0001:00007C67   186 0001:00007C77   189 0001:00007D04
   190 0001:00007D24   191 0001:00007D2D   192 0001:00007D35   193 0001:00007D61
   194 0001:00007D6E   195 0001:00007DA2   199 0001:00007DD6   204 0001:00007E78
   205 0001:00007E8A   206 0001:00007E93   207 0001:00007EA3   208 0001:00007EB0
   211 0001:00007F04   212 0001:00007F24   213 0001:00007F2D   214 0001:00007F35
   215 0001:00007F61   216 0001:00007F6E   217 0001:00007FA2   221 0001:00007FD6
   226 0001:00008068   227 0001:0000807A   228 0001:00008083   229 0001:00008093
   230 0001:000080A0   235 0001:000080EC   236 0001:000080FE   237 0001:00008107
   238 0001:00008117   239 0001:00008124   244 0001:0000816C   245 0001:00008187
   247 0001:000081D0   248 0001:000081EC

Line numbers for BisDesignDataFirmEditFm(imdesign.bpl\BisDesignDataFirmEditFm.pas) segment .itext

   250 0002:0000037C

Line numbers for BisDesignDataFirmsFm(imdesign.bpl\BisDesignDataFirmsFm.pas) segment .text

    35 0001:000085D0    36 0001:000085E3    37 0001:000085EC    38 0001:000085F4
    39 0001:000085FF    40 0001:00008610    41 0001:00008621    42 0001:0000862C
    43 0001:00008637    45 0001:0000863E    46 0001:0000864E    47 0001:00008654
    48 0001:00008660    49 0001:0000866C    50 0001:00008678    51 0001:00008684
    52 0001:00008690    53 0001:0000869C    54 0001:000086A8    55 0001:000086B4
    56 0001:000086C0    57 0001:000086CC    58 0001:000086D8    59 0001:000086E4
    60 0001:000086F0    61 0001:000086FC    62 0001:00008708    63 0001:00008714
    64 0001:00008720    65 0001:0000872C    66 0001:00008738    67 0001:00008744
    68 0001:00008750    69 0001:0000875C    70 0001:00008768    71 0001:00008774
    72 0001:00008780    73 0001:0000878C    74 0001:00008798    75 0001:000087A4
    76 0001:000087B0    77 0001:000087BC    78 0001:000087C8    79 0001:000087D4
    80 0001:000087E0    81 0001:000087EC    82 0001:000087F8    83 0001:00008804
    84 0001:00008810    85 0001:0000881C    86 0001:00008832    87 0001:00008845
    89 0001:0000885B    90 0001:0000886D

Line numbers for BisDesignDataFirmsFm(imdesign.bpl\BisDesignDataFirmsFm.pas) segment .itext

    92 0002:00000384

Line numbers for BisDesignDataAccountEditFm(imdesign.bpl\BisDesignDataAccountEditFm.pas) segment .text

   120 0001:000099A0   121 0001:000099D8   122 0001:000099E4   123 0001:000099EC
   124 0001:000099F2   125 0001:00009A00   127 0001:00009A0A   128 0001:00009A2E
   129 0001:00009A52   130 0001:00009A6C   131 0001:00009A86   132 0001:00009AA3
   133 0001:00009AC9   134 0001:00009AEF   135 0001:00009B02   136 0001:00009B1C
   137 0001:00009B36   138 0001:00009B50   139 0001:00009B68   140 0001:00009B82
   141 0001:00009B9C   142 0001:00009BB6   144 0001:00009BE7   145 0001:00009C01
   147 0001:00009C2A   152 0001:0000A120   153 0001:0000A132   154 0001:0000A13B
   155 0001:0000A14B   160 0001:0000A17C   161 0001:0000A18E   162 0001:0000A197
   163 0001:0000A1A7   168 0001:0000A1D8   169 0001:0000A1EA   170 0001:0000A1F3
   171 0001:0000A203   176 0001:0000A234   177 0001:0000A24B   178 0001:0000A254
   179 0001:0000A25B   180 0001:0000A262   181 0001:0000A26F   182 0001:0000A27C
   183 0001:0000A28E   184 0001:0000A295   187 0001:0000A2B8   188 0001:0000A2D9
   189 0001:0000A2E0   190 0001:0000A2F7   191 0001:0000A30D   192 0001:0000A324
   193 0001:0000A375   194 0001:0000A389   195 0001:0000A3A1   196 0001:0000A3AC
   197 0001:0000A3B8   200 0001:0000A3E5   201 0001:0000A3EC   202 0001:0000A3FB
   203 0001:0000A402   208 0001:0000A444   209 0001:0000A44B   210 0001:0000A474
   211 0001:0000A486   216 0001:0000A48C   217 0001:0000A4AF   218 0001:0000A4B8
   219 0001:0000A4DC   220 0001:0000A4ED   221 0001:0000A4FB   222 0001:0000A508
   223 0001:0000A51B   224 0001:0000A54C   225 0001:0000A554   226 0001:0000A56C
   227 0001:0000A586   231 0001:0000A5BD   235 0001:0000A5CD   238 0001:0000A64C
   239 0001:0000A64F   240 0001:0000A672   244 0001:0000A674   245 0001:0000A67B
   250 0001:0000A67C   251 0001:0000A683   252 0001:0000A688   260 0001:0000A68C
   261 0001:0000A6AA   262 0001:0000A6C4   263 0001:0000A6DB   264 0001:0000A6EC
   265 0001:0000A6FA   266 0001:0000A707   267 0001:0000A711   268 0001:0000A71A
   269 0001:0000A732   270 0001:0000A742   271 0001:0000A74E   274 0001:0000A762
   275 0001:0000A782   276 0001:0000A798   277 0001:0000A7B5   278 0001:0000A7BD
   274 0001:0000A7C0   280 0001:0000A7D0   283 0001:0000A7E0   291 0001:0000A86C
   292 0001:0000A88A   293 0001:0000A8A4   294 0001:0000A8BB   295 0001:0000A8CC
   296 0001:0000A8DA   297 0001:0000A8E7   298 0001:0000A8F1   299 0001:0000A8FA
   300 0001:0000A908   302 0001:0000A92A   303 0001:0000A945   304 0001:0000A956
   305 0001:0000A96C   306 0001:0000A98C   308 0001:0000A994   302 0001:0000A995
   310 0001:0000A9A5   313 0001:0000A9B5   322 0001:0000AA18   323 0001:0000AA3B
   324 0001:0000AA58   325 0001:0000AA6F   326 0001:0000AA83   327 0001:0000AA94
   328 0001:0000AAA2   329 0001:0000AAAF   330 0001:0000AAC2   331 0001:0000AAEF
   332 0001:0000AAF7   333 0001:0000AB07   335 0001:0000AB11   336 0001:0000AB26
   337 0001:0000AB44   338 0001:0000AB5C   339 0001:0000AB6B   341 0001:0000AB7D
   336 0001:0000AB7E   342 0001:0000AB81   334 0001:0000AB89   346 0001:0000ABA6
   347 0001:0000ABAE   350 0001:0000ABCA   356 0001:0000AC48   357 0001:0000AC6A
   358 0001:0000AC7E   359 0001:0000AC92   360 0001:0000ACA3   361 0001:0000ACB1
   362 0001:0000ACBE   363 0001:0000ACC7   364 0001:0000ACD3   366 0001:0000ACDF
   367 0001:0000AD11   368 0001:0000AD26   369 0001:0000AD2E   370 0001:0000AD3A
   372 0001:0000AD44   373 0001:0000AD52   374 0001:0000AD72   375 0001:0000ADA0
   371 0001:0000ADA8   379 0001:0000ADC1   380 0001:0000ADC9   382 0001:0000ADE5
   388 0001:0000AE9C   389 0001:0000AEBC   390 0001:0000AED6   391 0001:0000AEED
   392 0001:0000AEFE   393 0001:0000AF0C   394 0001:0000AF19   395 0001:0000AF23
   396 0001:0000AF2C   397 0001:0000AF4E   399 0001:0000AF7F   401 0001:0000AF94
   404 0001:0000AFA4   408 0001:0000B014   409 0001:0000B017   410 0001:0000B034
   414 0001:0000B048   415 0001:0000B05E   416 0001:0000B06D   417 0001:0000B09D
   421 0001:0000B0D0   422 0001:0000B0E6   423 0001:0000B0F5   424 0001:0000B125
   430 0001:0000B158   431 0001:0000B15C   432 0001:0000B176   433 0001:0000B18D
   434 0001:0000B1A2   439 0001:0000B1B8   440 0001:0000B1BF   441 0001:0000B1CE
   442 0001:0000B1DE   443 0001:0000B1EC   444 0001:0000B1F7   445 0001:0000B1FE
   446 0001:0000B205   447 0001:0000B210   448 0001:0000B217   449 0001:0000B222
   450 0001:0000B229   451 0001:0000B234   452 0001:0000B246   454 0001:0000B25A
   456 0001:0000B272

Line numbers for BisDesignDataAccountEditFm(imdesign.bpl\BisDesignDataAccountEditFm.pas) segment .itext

   459 0002:0000038C

Line numbers for BisDesignDataAccountsFm(imdesign.bpl\BisDesignDataAccountsFm.pas) segment .text

    51 0001:0000B948    52 0001:0000B97D    54 0001:0000B986    55 0001:0000B991
    56 0001:0000B99E    57 0001:0000B9A9    58 0001:0000B9B4    59 0001:0000B9BA
    60 0001:0000B9C6    61 0001:0000B9CC    62 0001:0000B9D8    63 0001:0000B9E4
    64 0001:0000B9F0    65 0001:0000B9FC    66 0001:0000BA08    67 0001:0000BA14
    68 0001:0000BA20    69 0001:0000BA2C    70 0001:0000BA38    71 0001:0000BA44
    72 0001:0000BA50    73 0001:0000BA5C    74 0001:0000BA68    75 0001:0000BA74
    76 0001:0000BA87    77 0001:0000BA9A    78 0001:0000BAAD    79 0001:0000BAC0
    81 0001:0000BAD3    82 0001:0000BAFF    85 0001:0000BB11    86 0001:0000BB21
    88 0001:0000BB31    90 0001:0000BB46    91 0001:0000BB75    94 0001:0000BB7E
    96 0001:0000BB93    99 0001:0000BBC2   102 0001:0000BE10   103 0001:0000BE13
   104 0001:0000BE1A   105 0001:0000BE2B   106 0001:0000BE3C   111 0001:0000BE40
   112 0001:0000BE52   113 0001:0000BE5B   115 0001:0000BE63   116 0001:0000BE6A
   117 0001:0000BE71   122 0001:0000BE8C   123 0001:0000BE9E   124 0001:0000BEA7
   127 0001:0000BEC4   128 0001:0000BECF   129 0001:0000BEDB   133 0001:0000BEEC
   134 0001:0000BEF1

Line numbers for BisDesignDataAccountsFm(imdesign.bpl\BisDesignDataAccountsFm.pas) segment .itext

   136 0002:00000394

Line numbers for BisDesignDataRoleEditFm(imdesign.bpl\BisDesignDataRoleEditFm.pas) segment .text

    54 0001:0000C76C    55 0001:0000C7A4    56 0001:0000C7B0    57 0001:0000C7B8
    58 0001:0000C7BE    59 0001:0000C7D6    60 0001:0000C7FD    61 0001:0000C821
    62 0001:0000C84E    63 0001:0000C872    64 0001:0000C88C    66 0001:0000C8A4
    71 0001:0000C9F0    72 0001:0000CA02    73 0001:0000CA0B    74 0001:0000CA1B
    79 0001:0000CA4C    80 0001:0000CA5E    81 0001:0000CA67    82 0001:0000CA77
    87 0001:0000CAA8    88 0001:0000CABA    89 0001:0000CAC3    90 0001:0000CAD3

Line numbers for BisDesignDataRoleEditFm(imdesign.bpl\BisDesignDataRoleEditFm.pas) segment .itext

    92 0002:0000039C

Line numbers for BisDesignDataRolesFm(imdesign.bpl\BisDesignDataRolesFm.pas) segment .text

    34 0001:0000CEA8    35 0001:0000CED6    36 0001:0000CEDF    37 0001:0000CEE7
    38 0001:0000CEF2    39 0001:0000CEFF    40 0001:0000CF0A    41 0001:0000CF15
    43 0001:0000CF1C    44 0001:0000CF2C    45 0001:0000CF32    46 0001:0000CF3E
    47 0001:0000CF4A    48 0001:0000CF56    49 0001:0000CF62    50 0001:0000CF6E
    51 0001:0000CF84    53 0001:0000CF9A    54 0001:0000CFC9    55 0001:0000CFDB
    60 0001:0000D0E0    61 0001:0000D0F2    62 0001:0000D0FB

Line numbers for BisDesignDataRolesFm(imdesign.bpl\BisDesignDataRolesFm.pas) segment .itext

    64 0002:000003A4

Line numbers for BisDesignDataRolesAndAccountsFm(imdesign.bpl\BisDesignDataRolesAndAccountsFm.pas) segment .text

    50 0001:0000D7E4    51 0001:0000D7FB    53 0001:0000D804    54 0001:0000D80D
    55 0001:0000D81F    56 0001:0000D831    57 0001:0000D843    58 0001:0000D855
    59 0001:0000D867    60 0001:0000D879    61 0001:0000D88B    62 0001:0000D8A0
    65 0001:0000D8B0    66 0001:0000D8BC    67 0001:0000D8C8    68 0001:0000D8D4
    69 0001:0000D8E0    70 0001:0000D8EC    71 0001:0000D8F8    72 0001:0000D904
    73 0001:0000D910    75 0001:0000D933    77 0001:0000D940    78 0001:0000D94D
    79 0001:0000D95A    80 0001:0000D967    81 0001:0000D974    83 0001:0000D981
    85 0001:0000D991    86 0001:0000D9A8    95 0001:0000DA90    96 0001:0000DAB2
    97 0001:0000DAC3    98 0001:0000DAD4    99 0001:0000DAE5   100 0001:0000DAF3
   101 0001:0000DB00   102 0001:0000DB09   103 0001:0000DB15   105 0001:0000DB21
   106 0001:0000DB53   108 0001:0000DB68   109 0001:0000DB75   110 0001:0000DB7E
   111 0001:0000DB8A   112 0001:0000DB96   113 0001:0000DBA2   114 0001:0000DBAE
   116 0001:0000DBBA   117 0001:0000DBC3   118 0001:0000DBEB   120 0001:0000DC16
   122 0001:0000DC2B   123 0001:0000DC38   124 0001:0000DC41   125 0001:0000DC4D
   126 0001:0000DC59   129 0001:0000DC65   130 0001:0000DC6D   131 0001:0000DC75
   132 0001:0000DC7D   133 0001:0000DCAD   134 0001:0000DCBF   135 0001:0000DCCD
   136 0001:0000DCDB   139 0001:0000DCE8   140 0001:0000DCFD   142 0001:0000DD10
   143 0001:0000DD1E   144 0001:0000DD3C   145 0001:0000DD5A   146 0001:0000DD82
   147 0001:0000DDBD   149 0001:0000DDCE   150 0001:0000DE2C   151 0001:0000DE39
   154 0001:0000DE46   155 0001:0000DE84   156 0001:0000DE92   157 0001:0000DED1
   158 0001:0000DF0C   159 0001:0000DF2A   160 0001:0000DF65   161 0001:0000DFA0
   162 0001:0000DFDB   163 0001:0000E016   166 0001:0000E027   152 0001:0000E02F
   169 0001:0000E03F   137 0001:0000E047   172 0001:0000E057   174 0001:0000E070
   175 0001:0000E07E   176 0001:0000E09C   177 0001:0000E0CA   178 0001:0000E0F8
   179 0001:0000E12F   181 0001:0000E140   182 0001:0000E14D   184 0001:0000E15A
   187 0001:0000E167   189 0001:0000E1A5   190 0001:0000E1B3   191 0001:0000E1F2
   192 0001:0000E22D   193 0001:0000E24B   194 0001:0000E286   195 0001:0000E2C1
   196 0001:0000E2FC   197 0001:0000E337   201 0001:0000E348   185 0001:0000E350
   204 0001:0000E360   206 0001:0000E37B   210 0001:0000E3A0   211 0001:0000E3A8
   212 0001:0000E3B0   214 0001:0000E3C0   219 0001:0000E620   220 0001:0000E648
   221 0001:0000E64F   222 0001:0000E66D   223 0001:0000E68D   225 0001:0000E6A5
   226 0001:0000E6B9   227 0001:0000E6CD   228 0001:0000E6E1   229 0001:0000E6F5
   232 0001:0000E73D   236 0001:0000E800   237 0001:0000E805   240 0001:0000E808
   241 0001:0000E80B   242 0001:0000E812   243 0001:0000E819   244 0001:0000E823
   248 0001:0000E828   253 0001:0000E82C   254 0001:0000E83E   255 0001:0000E847
   256 0001:0000E84F   258 0001:0000E856   259 0001:0000E85D   264 0001:0000E878
   265 0001:0000E88A   266 0001:0000E893   270 0001:0000E8B0   271 0001:0000E8B5

Line numbers for BisDesignDataRolesAndAccountsFm(imdesign.bpl\BisDesignDataRolesAndAccountsFm.pas) segment .itext

   273 0002:000003AC

Line numbers for BisDesignDataApplicationEditFm(imdesign.bpl\BisDesignDataApplicationEditFm.pas) segment .text

    53 0001:0000F1B4    54 0001:0000F1C7    55 0001:0000F1D0    56 0001:0000F1D8
    57 0001:0000F1DE    58 0001:0000F1F6    59 0001:0000F210    60 0001:0000F228
    62 0001:0000F239    67 0001:0000F330    68 0001:0000F342    69 0001:0000F34B
    70 0001:0000F35B    75 0001:0000F390    76 0001:0000F3A2    77 0001:0000F3AB
    78 0001:0000F3BB    83 0001:0000F3F0    84 0001:0000F402    85 0001:0000F40B
    86 0001:0000F41B

Line numbers for BisDesignDataApplicationEditFm(imdesign.bpl\BisDesignDataApplicationEditFm.pas) segment .itext

    88 0002:000003B4

Line numbers for BisDesignDataInterfaceFilterFm(imdesign.bpl\BisDesignDataInterfaceFilterFm.pas) segment .text

    48 0001:0000F944    49 0001:0000F94A    50 0001:0000F951    51 0001:0000F963
    52 0001:0000F972    53 0001:0000F981    54 0001:0000F990    56 0001:0000F99C
    61 0001:0000F9E8    62 0001:0000F9FB    63 0001:0000FA04    64 0001:0000FA0C
    65 0001:0000FA12    66 0001:0000FA2A    67 0001:0000FA42    68 0001:0000FA5C
    69 0001:0000FA74    70 0001:0000FA8C    72 0001:0000FAA4    82 0001:0000FC5C
    83 0001:0000FC8A    85 0001:0000FC94    86 0001:0000FCA5    87 0001:0000FCA7
    88 0001:0000FCAD    89 0001:0000FCB1    90 0001:0000FCB8    91 0001:0000FCBC
    92 0001:0000FCC7    93 0001:0000FCE8    91 0001:0000FCE9    95 0001:0000FCEC
    96 0001:0000FCFD    97 0001:0000FD19    98 0001:0000FD2F    99 0001:0000FD35
   100 0001:0000FD4E    96 0001:0000FD4F   102 0001:0000FD52   111 0001:0000FD94
   112 0001:0000FDB4   114 0001:0000FDBD   115 0001:0000FDD2   116 0001:0000FDE7
   117 0001:0000FDF5   118 0001:0000FE15   119 0001:0000FE1B   120 0001:0000FE34
   125 0001:0000FE44   129 0001:0000FE62   119 0001:0000FE65   137 0001:0000FE6C
   140 0001:0000FE7A   141 0001:0000FE8B   142 0001:0000FEB4   143 0001:0000FEB8
   144 0001:0000FEC9   148 0001:0000FEDA

Line numbers for BisDesignDataInterfaceFilterFm(imdesign.bpl\BisDesignDataInterfaceFilterFm.pas) segment .itext

   150 0002:000003BC

Line numbers for BisDesignDataInterfaceEditFm(imdesign.bpl\BisDesignDataInterfaceEditFm.pas) segment .text

    63 0001:00010874    64 0001:000108A7    65 0001:000108B3    66 0001:000108BB
    67 0001:000108C1    68 0001:000108D9    69 0001:000108FD    70 0001:00010917
    71 0001:0001092F    72 0001:00010947    74 0001:0001095F    79 0001:00010B0C
    80 0001:00010B1E    81 0001:00010B27    82 0001:00010B37    83 0001:00010B44
    88 0001:00010B9C    89 0001:00010BAE    90 0001:00010BB7    91 0001:00010BC7
    92 0001:00010BD4    97 0001:00010C2C    98 0001:00010C3E    99 0001:00010C47
   100 0001:00010C57   101 0001:00010C64   109 0001:00010CBC   110 0001:00010CD6
   112 0001:00010CE0   113 0001:00010CF1   114 0001:00010D12   115 0001:00010D27
   116 0001:00010D2D   117 0001:00010D47   113 0001:00010D4A   119 0001:00010D4D
   127 0001:00010D70   128 0001:00010D8F   130 0001:00010D98   131 0001:00010DAD
   132 0001:00010DC2   133 0001:00010DD0   134 0001:00010DF0   135 0001:00010DF6
   136 0001:00010E0F   141 0001:00010E1F   145 0001:00010E3D   135 0001:00010E40
   153 0001:00010E47   156 0001:00010E55   159 0001:00010E8C   160 0001:00010E8F
   161 0001:00010E96   162 0001:00010EA8   163 0001:00010EB4   165 0001:00010EC0

Line numbers for BisDesignDataInterfaceEditFm(imdesign.bpl\BisDesignDataInterfaceEditFm.pas) segment .itext

   167 0002:000003C4

Line numbers for BisDesignDataInterfacesFm(imdesign.bpl\BisDesignDataInterfacesFm.pas) segment .text

    40 0001:000112F4    41 0001:00011306    42 0001:0001130F    43 0001:00011317
    44 0001:0001131E    45 0001:00011325    50 0001:00011340    51 0001:00011352
    52 0001:0001135B    53 0001:00011366    55 0001:0001137E    59 0001:00011398
    60 0001:0001139D

Line numbers for BisDesignDataInterfacesFm(imdesign.bpl\BisDesignDataInterfacesFm.pas) segment .itext

    62 0002:000003CC

Line numbers for BisDesignDataReportEditFm(imdesign.bpl\BisDesignDataReportEditFm.pas) segment .text

    83 0001:00011DA0    84 0001:00011DD3    85 0001:00011DDF    86 0001:00011DE7
    87 0001:00011DED    88 0001:00011E05    89 0001:00011E1D    90 0001:00011E44
    91 0001:00011E5E    92 0001:00011E76    93 0001:00011E9A    94 0001:00011EBE
    96 0001:00011ED0   101 0001:00012090   102 0001:000120A2   103 0001:000120AB
   104 0001:000120BB   105 0001:000120C8   110 0001:00012110   111 0001:00012122
   112 0001:0001212B   113 0001:0001213B   114 0001:00012148   119 0001:00012190
   120 0001:000121A2   121 0001:000121AB   122 0001:000121BB   123 0001:000121C8
   131 0001:00012210   132 0001:0001222A   134 0001:00012234   135 0001:00012245
   136 0001:00012263   137 0001:00012275   138 0001:00012281   139 0001:0001229B
   135 0001:0001229E   141 0001:000122A1   142 0001:000122B4   145 0001:000122D8
   146 0001:000122E3   147 0001:000122EE   148 0001:000122FA   151 0001:00012308
   152 0001:00012322   153 0001:00012329   154 0001:00012332   155 0001:00012374
   157 0001:000123B1   159 0001:000123EE   160 0001:00012406   161 0001:0001241E
   162 0001:00012436   165 0001:000124A4   166 0001:000124C0   167 0001:000124D6
   168 0001:000124E4   169 0001:000124F2   171 0001:00012540   174 0001:00012564
   182 0001:000125A0   183 0001:000125C4   184 0001:000125D4   185 0001:000125E4
   186 0001:000125F5   187 0001:00012606   188 0001:0001260E   189 0001:0001261F
   190 0001:0001262D   191 0001:0001263A   192 0001:00012646   193 0001:0001264F
   194 0001:0001265C   195 0001:00012669   197 0001:00012676   198 0001:000126A3
   199 0001:000126AB   200 0001:000126C3   201 0001:000126CC   202 0001:000126EB
   203 0001:0001270B   206 0001:00012738   210 0001:00012748   215 0001:00012808
   216 0001:0001282C   217 0001:00012835   218 0001:00012846   219 0001:00012872
   221 0001:0001287B   222 0001:0001288C   226 0001:000128D4   227 0001:000128E9
   228 0001:0001290D   229 0001:0001295A   232 0001:000129A2   233 0001:000129BA
   234 0001:000129D2   235 0001:00012A29   237 0001:00012A4D   238 0001:00012A62
   239 0001:00012A6C   240 0001:00012A7B   241 0001:00012AD9   242 0001:00012B06
   243 0001:00012B1D   244 0001:00012B3F   246 0001:00012B57   251 0001:00012C84
   252 0001:00012CA1   253 0001:00012CBB   254 0001:00012CBF   255 0001:00012CCE
   256 0001:00012CDD   257 0001:00012CF7   258 0001:00012D1A   261 0001:00012D21
   266 0001:00012D64   267 0001:00012D83   268 0001:00012D9D   269 0001:00012DA5
   270 0001:00012DC6   271 0001:00012DD5   272 0001:00012DE4   273 0001:00012DFE
   276 0001:00012E3C   281 0001:00012E8C   282 0001:00012E90   283 0001:00012EAA
   284 0001:00012EAE   285 0001:00012EB5   287 0001:00012EBC   290 0001:00012ED0
   291 0001:00012EF2   292 0001:00012F03   293 0001:00012F0E   294 0001:00012F44
   295 0001:00012F52   297 0001:00012F56   299 0001:00012F5A   300 0001:00012F65
   304 0001:00012FA4   305 0001:00012FA9   310 0001:00012FAC   311 0001:00012FB1
   312 0001:00012FB3   313 0001:00012FC4   314 0001:00012FE1   315 0001:00012FE5
   317 0001:00012FE8   325 0001:00012FF0   326 0001:00013011   327 0001:0001302B
   329 0001:00013050   330 0001:0001305F   331 0001:0001306E   332 0001:0001307E
   333 0001:0001308C   334 0001:0001309B   335 0001:000130A8   336 0001:000130B4
   338 0001:000130C0   339 0001:000130CD   340 0001:000130DA   342 0001:000130EF
   344 0001:00013103   345 0001:00013113   348 0001:00013123   357 0001:00013160
   358 0001:00013184   359 0001:00013191   360 0001:0001319B   361 0001:000131B8
   362 0001:000131C8   363 0001:000131D7   364 0001:000131E5   365 0001:000131F6
   366 0001:0001320B   367 0001:00013212   368 0001:00013230   369 0001:00013281
   370 0001:0001329D   371 0001:000132AF   372 0001:000132B7   374 0001:000132C3
   375 0001:000132DA   376 0001:000132E6   379 0001:000132F1   380 0001:000132FD
   381 0001:00013313   382 0001:00013325   383 0001:00013334   384 0001:00013340
   385 0001:00013350   387 0001:0001336E   388 0001:0001337B   389 0001:00013383
   392 0001:00013393   395 0001:00013410   396 0001:00013413   397 0001:0001341A
   398 0001:0001342C   399 0001:00013438   401 0001:00013444

Line numbers for BisDesignDataReportEditFm(imdesign.bpl\BisDesignDataReportEditFm.pas) segment .itext

   404 0002:000003D4

Line numbers for BisDesignDataScriptEditFm(imdesign.bpl\BisDesignDataScriptEditFm.pas) segment .text

    77 0001:00013E1C    78 0001:00013E4F    79 0001:00013E5B    80 0001:00013E63
    81 0001:00013E69    82 0001:00013E81    83 0001:00013E99    84 0001:00013EC0
    85 0001:00013EDA    86 0001:00013EF2    87 0001:00013F16    88 0001:00013F3A
    90 0001:00013F4C    95 0001:0001410C    96 0001:0001411E    97 0001:00014127
    98 0001:00014137    99 0001:00014144   104 0001:0001418C   105 0001:0001419E
   106 0001:000141A7   107 0001:000141B7   108 0001:000141C4   113 0001:0001420C
   114 0001:0001421E   115 0001:00014227   116 0001:00014237   117 0001:00014244
   125 0001:0001428C   126 0001:000142A6   128 0001:000142B0   129 0001:000142C1
   130 0001:000142DF   131 0001:000142F1   132 0001:000142FD   133 0001:00014317
   129 0001:0001431A   135 0001:0001431D   136 0001:00014330   139 0001:00014354
   140 0001:0001435F   141 0001:0001436B   144 0001:0001437C   145 0001:00014396
   146 0001:0001439D   147 0001:000143A6   148 0001:000143E8   150 0001:00014425
   151 0001:0001443D   153 0001:0001447A   154 0001:00014492   157 0001:00014500
   158 0001:0001451C   159 0001:00014532   160 0001:00014540   161 0001:0001454E
   163 0001:0001459C   166 0001:000145C0   174 0001:000145FC   175 0001:00014620
   176 0001:00014630   177 0001:00014640   178 0001:00014651   179 0001:00014662
   180 0001:0001466A   181 0001:0001467B   182 0001:00014689   183 0001:00014696
   184 0001:000146A2   185 0001:000146AB   186 0001:000146B8   187 0001:000146C5
   189 0001:000146D2   190 0001:000146FF   191 0001:00014707   192 0001:0001471F
   193 0001:00014728   194 0001:00014747   195 0001:00014767   198 0001:00014794
   202 0001:000147A4   207 0001:00014864   208 0001:00014888   209 0001:00014891
   210 0001:000148A2   211 0001:000148CE   213 0001:000148D7   214 0001:000148EC
   215 0001:00014910   216 0001:0001495D   217 0001:000149B4   219 0001:000149D8
   220 0001:000149ED   221 0001:000149F7   222 0001:00014A06   223 0001:00014A64
   224 0001:00014A91   225 0001:00014AA8   226 0001:00014ACA   228 0001:00014AE2
   233 0001:00014C00   234 0001:00014C1D   235 0001:00014C37   236 0001:00014C3B
   237 0001:00014C4A   238 0001:00014C59   239 0001:00014C73   240 0001:00014C96
   243 0001:00014C9D   248 0001:00014CE0   249 0001:00014CFF   250 0001:00014D19
   251 0001:00014D21   252 0001:00014D42   253 0001:00014D51   254 0001:00014D60
   255 0001:00014D7A   258 0001:00014DB8   263 0001:00014E08   264 0001:00014E0C
   265 0001:00014E26   266 0001:00014E2A   267 0001:00014E31   269 0001:00014E38
   272 0001:00014E4C   273 0001:00014E6E   274 0001:00014E7F   275 0001:00014EB5
   276 0001:00014EC3   278 0001:00014EC7   279 0001:00014ED2   282 0001:00014F10
   283 0001:00014F13   284 0001:00014F1A   285 0001:00014F2C   286 0001:00014F38
   288 0001:00014F44

Line numbers for BisDesignDataScriptEditFm(imdesign.bpl\BisDesignDataScriptEditFm.pas) segment .itext

   291 0002:000003DC

Line numbers for BisDesignDataDocumentEditFm(imdesign.bpl\BisDesignDataDocumentEditFm.pas) segment .text

    78 0001:00015944    79 0001:00015977    80 0001:00015983    81 0001:0001598B
    82 0001:00015991    83 0001:000159A9    84 0001:000159C1    85 0001:000159E8
    86 0001:00015A02    87 0001:00015A1A    88 0001:00015A3E    89 0001:00015A58
    91 0001:00015A6A    96 0001:00015C38    97 0001:00015C4A    98 0001:00015C53
    99 0001:00015C63   100 0001:00015C70   105 0001:00015CBC   106 0001:00015CCE
   107 0001:00015CD7   108 0001:00015CE7   109 0001:00015CF4   114 0001:00015D40
   115 0001:00015D52   116 0001:00015D5B   117 0001:00015D6B   118 0001:00015D78
   123 0001:00015DC4   124 0001:00015DD6   125 0001:00015DDF   128 0001:00015DFC
   129 0001:00015E07   130 0001:00015E13   133 0001:00015E24   134 0001:00015E3E
   135 0001:00015E45   136 0001:00015E4E   137 0001:00015E90   139 0001:00015ECD
   140 0001:00015EE5   141 0001:00015EFD   142 0001:00015F15   145 0001:00015F74
   146 0001:00015F90   147 0001:00015FA6   148 0001:00015FB4   149 0001:00015FC2
   151 0001:00016010   154 0001:00016034   162 0001:00016074   163 0001:00016098
   164 0001:000160A8   165 0001:000160B8   166 0001:000160C9   167 0001:000160DA
   168 0001:000160E2   169 0001:000160F3   170 0001:00016101   171 0001:0001610E
   172 0001:0001611A   173 0001:00016123   174 0001:00016130   175 0001:0001613D
   177 0001:0001614A   178 0001:00016177   179 0001:0001617F   180 0001:00016197
   181 0001:000161A0   182 0001:000161BF   183 0001:000161DF   186 0001:0001620C
   190 0001:0001621C   195 0001:000162EC   196 0001:00016310   198 0001:00016319
   199 0001:0001632A   200 0001:00016356   203 0001:0001635F   204 0001:00016374
   205 0001:00016398   206 0001:000163E5   208 0001:0001640C   209 0001:00016424
   210 0001:0001647B   213 0001:0001649F   214 0001:000164B4   215 0001:000164BE
   216 0001:000164CD   217 0001:0001652B   218 0001:00016558   219 0001:0001656F
   220 0001:00016591   223 0001:000165A9   230 0001:000166CC   234 0001:000166F1
   235 0001:00016702   236 0001:00016710   237 0001:0001671A   238 0001:00016724
   239 0001:00016731   241 0001:00016748   243 0001:00016758   248 0001:0001677C
   249 0001:0001679D   250 0001:000167B7   251 0001:000167CA   252 0001:000167D9
   253 0001:000167F3   254 0001:00016816   255 0001:00016830   257 0001:00016860
   262 0001:000168D4   263 0001:000168F3   264 0001:0001690D   265 0001:0001692E
   266 0001:0001693D   267 0001:0001694C   268 0001:00016966   270 0001:000169A4
   273 0001:000169F8   274 0001:000169FB   275 0001:00016A18   278 0001:00016A30
   279 0001:00016A52   280 0001:00016A63   281 0001:00016A99   282 0001:00016AA7
   284 0001:00016AAB   285 0001:00016AB6   288 0001:00016AF8   289 0001:00016AFB
   290 0001:00016B02   291 0001:00016B14   292 0001:00016B20   294 0001:00016B2C

Line numbers for BisDesignDataDocumentEditFm(imdesign.bpl\BisDesignDataDocumentEditFm.pas) segment .itext

   296 0002:000003E4

Line numbers for BisDesignDataInterfacesFrm(imdesign.bpl\BisDesignDataInterfacesFrm.pas) segment .text

    81 0001:000170F0    82 0001:0001711D    83 0001:00017122    84 0001:00017130
    85 0001:0001713C    86 0001:0001715D    87 0001:0001716E    88 0001:0001717D
    89 0001:00017180    92 0001:00017182    93 0001:00017185    96 0001:00017187
    83 0001:00017188    97 0001:0001718B   103 0001:000171BC   104 0001:000171E7
   105 0001:000171EC   106 0001:000171FA   107 0001:00017206   108 0001:0001721B
   109 0001:0001722D   110 0001:00017230   113 0001:00017232   105 0001:00017233
   114 0001:00017236   119 0001:00017260   120 0001:00017295   122 0001:0001729E
   124 0001:000172B0   126 0001:000172BB   127 0001:000172CC   128 0001:000172DD
   129 0001:000172EE   131 0001:000172FF   132 0001:00017305   133 0001:00017311
   134 0001:00017317   135 0001:00017323   136 0001:0001732F   137 0001:0001733B
   138 0001:00017347   139 0001:00017353   140 0001:00017369   142 0001:00017386
   145 0001:00017398   146 0001:000173A4   149 0001:000173AB   150 0001:000173C1
   153 0001:000173ED   154 0001:00017406   157 0001:00017435   158 0001:0001744E
   161 0001:0001747D   162 0001:00017496   165 0001:000174C5   168 0001:00017638
   169 0001:00017643   170 0001:0001764E   171 0001:0001765A   176 0001:00017668
   177 0001:00017684   178 0001:0001768B   179 0001:000176A4   180 0001:000176B5
   181 0001:000176BF   184 0001:00017710   185 0001:00017714   186 0001:00017716
   187 0001:00017734   189 0001:0001774B   195 0001:00017774   196 0001:00017793
   197 0001:00017795   198 0001:000177B3   199 0001:000177CB   200 0001:000177D2
   201 0001:000177E2   202 0001:000177ED   203 0001:000177FB   204 0001:00017809
   207 0001:00017818   216 0001:00017860   217 0001:00017884   218 0001:00017889
   219 0001:000178AF   220 0001:000178C7   221 0001:000178DF   222 0001:00017905
   223 0001:0001791C   224 0001:00017931   225 0001:00017944   226 0001:00017951
   227 0001:00017968   228 0001:0001796B   230 0001:0001796D   224 0001:00017970
   232 0001:00017973   221 0001:00017976   234 0001:0001797B   242 0001:000179F4
   243 0001:00017A23   244 0001:00017A28   245 0001:00017A4E   246 0001:00017A5F
   247 0001:00017A6D   248 0001:00017A7A   249 0001:00017A8D   250 0001:00017AB0
   251 0001:00017AB8   252 0001:00017AD0   253 0001:00017AE5   254 0001:00017AFE
   255 0001:00017B11   256 0001:00017B26   257 0001:00017B2C   259 0001:00017B33
   253 0001:00017B34   262 0001:00017B44   265 0001:00017B54   273 0001:00017BD0
   274 0001:00017BFF   275 0001:00017C04   276 0001:00017C2A   277 0001:00017C3B
   278 0001:00017C49   279 0001:00017C56   280 0001:00017C69   281 0001:00017C8C
   282 0001:00017C94   283 0001:00017CAC   284 0001:00017CC1   285 0001:00017CDA
   286 0001:00017CED   287 0001:00017D02   288 0001:00017D08   290 0001:00017D0F
   284 0001:00017D10   293 0001:00017D20   296 0001:00017D30   301 0001:00017DAC
   302 0001:00017DDD   303 0001:00017DE2   304 0001:00017E08   305 0001:00017E19
   306 0001:00017E27   307 0001:00017E34   308 0001:00017E47   309 0001:00017E6A
   310 0001:00017E72   311 0001:00017E8A   312 0001:00017EA9   313 0001:00017EB1
   316 0001:00017EC5   319 0001:00017ED5   324 0001:00017F58   325 0001:00017F59
   326 0001:00017F5B   327 0001:00017F60   328 0001:00017F70   329 0001:00017F78
   330 0001:00017F80   331 0001:00017F88   333 0001:00017F8E   338 0001:00017F94
   339 0001:00017F95   340 0001:00017F97   341 0001:00017F9C   342 0001:00017FAC
   343 0001:00017FB4   344 0001:00017FBC   345 0001:00017FC4   347 0001:00017FCA
   352 0001:00017FD0   353 0001:00017FD1   354 0001:00017FD3   355 0001:00017FD8
   356 0001:00017FE8   357 0001:00017FF0   358 0001:00017FF8   359 0001:00018000
   361 0001:00018006   364 0001:0001800C   365 0001:0001800F   366 0001:00018023
   370 0001:00018028   371 0001:0001802D   374 0001:00018030   375 0001:00018033
   376 0001:00018047   380 0001:0001804C   381 0001:00018051   384 0001:00018054
   385 0001:00018057   386 0001:0001806B   390 0001:00018070   391 0001:00018075
   394 0001:00018078   395 0001:0001807B   396 0001:0001809F   407 0001:000180A4
   408 0001:000180AB   409 0001:000180B3   410 0001:000180CE   411 0001:000180D2
   412 0001:000180E1   413 0001:000180E8   414 0001:000180FB   416 0001:00018102
   417 0001:00018109   422 0001:00018117   423 0001:00018128   425 0001:00018136
   426 0001:00018147   428 0001:00018158   429 0001:00018169   430 0001:0001817C
   433 0001:0001818D   434 0001:0001819C   436 0001:000181A5   437 0001:000181B6
   439 0001:000181C2   442 0001:000181C9   446 0001:000181D0   447 0001:000181ED
   448 0001:000181F9   449 0001:00018214   450 0001:0001822F   451 0001:0001823A
   453 0001:00018241   456 0001:000182A4   457 0001:000182A7   458 0001:000182CB
   470 0001:000182D0   471 0001:000182DB   472 0001:000182EC   473 0001:000182F0
   475 0001:000182F5   480 0001:000182F8   481 0001:000182FD   482 0001:00018305
   483 0001:00018313   484 0001:00018321   485 0001:0001832B   486 0001:00018333
   488 0001:0001833B   493 0001:0001834C   494 0001:0001835E   496 0001:0001836F
   497 0001:00018381   499 0001:00018394   500 0001:000183A6   501 0001:000183BA
   504 0001:000183CB   505 0001:000183D3   507 0001:000183E8   510 0001:000183F8
   514 0001:000183FC   515 0001:00018419   516 0001:00018425   517 0001:00018430
   519 0001:00018437   522 0001:00018468   523 0001:0001846B   524 0001:0001848F
   531 0001:00018494   532 0001:000184B6   533 0001:000184C5   534 0001:000184DD
   535 0001:000184F5   536 0001:00018505   537 0001:00018509   538 0001:00018519
   539 0001:00018520   540 0001:0001852E   541 0001:0001853C   542 0001:00018543
   543 0001:00018550   544 0001:00018557   546 0001:00018577   547 0001:000185B2
   548 0001:000185C0   549 0001:000185C9   550 0001:000185D5   552 0001:000185DC

Line numbers for BisDesignDataInterfacesFrm(imdesign.bpl\BisDesignDataInterfacesFrm.pas) segment .itext

   554 0002:000003EC

Line numbers for BisDesignDataPermissionEditFm(imdesign.bpl\BisDesignDataPermissionEditFm.pas) segment .text

    75 0001:00018FD4    76 0001:00018FE7    77 0001:00018FF0    78 0001:00018FF8
    79 0001:00018FFE    80 0001:00019016    82 0001:00019044    84 0001:00019075
    85 0001:0001908D    87 0001:000190A5    90 0001:00019274    91 0001:00019278
    92 0001:00019281    94 0001:00019285    95 0001:0001928E    98 0001:000192B4
   103 0001:000192D4   104 0001:000192E6   105 0001:000192EF   106 0001:000192FF
   111 0001:00019334   112 0001:00019346   113 0001:0001934F   114 0001:0001935F
   119 0001:00019394   120 0001:000193A6   121 0001:000193AF   122 0001:000193BF
   127 0001:000193F4   128 0001:000193FF   129 0001:00019410   130 0001:0001941C
   133 0001:0001942C   134 0001:0001942F   135 0001:00019436   136 0001:00019448
   137 0001:00019454   139 0001:00019460   144 0001:00019464   145 0001:00019468
   146 0001:00019471   147 0001:00019480   148 0001:00019498   149 0001:0001949C
   151 0001:000194A3   158 0001:000194BC   159 0001:000194CA   160 0001:000194D0
   161 0001:000194E5   162 0001:000194F4   163 0001:00019504   164 0001:0001950D
   165 0001:0001951B   160 0001:0001951C   167 0001:0001951F   179 0001:00019528
   180 0001:0001952C   181 0001:00019544   182 0001:0001954E   183 0001:0001955C
   184 0001:00019560   185 0001:0001956A   186 0001:00019578   187 0001:00019580
   189 0001:000195A1   196 0001:000195B1   205 0001:000195B4   206 0001:000195CD
   207 0001:000195DE   208 0001:000195EC   209 0001:000195F6   210 0001:00019603
   211 0001:0001960C   213 0001:00019616   214 0001:0001963C   215 0001:00019644
   216 0001:00019664   217 0001:00019679   218 0001:0001968B   219 0001:00019695
   220 0001:00019698   221 0001:0001969C   222 0001:000196A6   223 0001:000196B4
   224 0001:000196BC   226 0001:000196DD   232 0001:000196FA   234 0001:0001970A
   243 0001:00019778   244 0001:00019791   245 0001:000197A2   246 0001:000197B0
   247 0001:000197BA   248 0001:000197C7   249 0001:000197D0   251 0001:000197DA
   252 0001:00019800   253 0001:00019808   254 0001:00019828   255 0001:0001983D
   256 0001:0001984F   257 0001:00019859   258 0001:0001985C   259 0001:00019860
   260 0001:0001986A   261 0001:00019878   262 0001:00019880   264 0001:000198A1
   270 0001:000198BE   272 0001:000198CE   277 0001:0001993C   278 0001:00019940
   279 0001:00019951   280 0001:0001995F   281 0001:00019967   283 0001:00019988
   285 0001:00019998   290 0001:0001999C   291 0001:000199D2   292 0001:000199E2
   293 0001:000199F3   294 0001:00019A01   295 0001:00019A0B   296 0001:00019A18
   297 0001:00019A21   298 0001:00019A2D   299 0001:00019A39   301 0001:00019A45
   302 0001:00019A68   303 0001:00019A70   304 0001:00019A88   305 0001:00019A9C
   306 0001:00019AB1   307 0001:00019AC6   308 0001:00019AD7   309 0001:00019AE0
   310 0001:00019AE9   311 0001:00019AF2   315 0001:00019B06   318 0001:00019B16
   326 0001:00019C28   327 0001:00019C4D   329 0001:00019C56   330 0001:00019C6B
   331 0001:00019C7C   332 0001:00019C8A   333 0001:00019CA9   334 0001:00019CAD
   335 0001:00019CB2   336 0001:00019CB6   338 0001:00019CCD   340 0001:00019CEF
   343 0001:00019D0F   344 0001:00019D24   345 0001:00019D35   346 0001:00019D43
   347 0001:00019D63   348 0001:00019D69   349 0001:00019D83   350 0001:00019DA8
   348 0001:00019DAB   353 0001:00019DB0   356 0001:00019DBE

Line numbers for BisDesignDataPermissionEditFm(imdesign.bpl\BisDesignDataPermissionEditFm.pas) segment .itext

   358 0002:000003F4

Line numbers for BisDesignDataPermissionsFm(imdesign.bpl\BisDesignDataPermissionsFm.pas) segment .text

    54 0001:0001A4EC    55 0001:0001A50A    56 0001:0001A513    57 0001:0001A51B
    58 0001:0001A530    59 0001:0001A545    60 0001:0001A553    61 0001:0001A57D
    62 0001:0001A58C    63 0001:0001A59D    66 0001:0001A5A4    71 0001:0001A5FC
    72 0001:0001A62A    73 0001:0001A633    74 0001:0001A649    75 0001:0001A651
    76 0001:0001A65C    77 0001:0001A669    78 0001:0001A674    79 0001:0001A67F
    81 0001:0001A686    82 0001:0001A696    83 0001:0001A69C    84 0001:0001A6A8
    85 0001:0001A6B4    86 0001:0001A6C0    87 0001:0001A6D3    88 0001:0001A6E9
    89 0001:0001A6FC    91 0001:0001A70F    92 0001:0001A721    93 0001:0001A733
    94 0001:0001A745    97 0001:0001A88C    98 0001:0001A891    99 0001:0001A89A
   101 0001:0001A89E   102 0001:0001A8B7   105 0001:0001A8CE   111 0001:0001A8D4
   112 0001:0001A8D9

Line numbers for BisDesignDataPermissionsFm(imdesign.bpl\BisDesignDataPermissionsFm.pas) segment .itext

   114 0002:000003FC

Line numbers for BisDesignDataApplicationInterfaceEditFm(imdesign.bpl\BisDesignDataApplicationInterfaceEditFm.pas) segment .text

    65 0001:0001B304    66 0001:0001B317    67 0001:0001B320    68 0001:0001B328
    70 0001:0001B32E    71 0001:0001B369    73 0001:0001B3A1    75 0001:0001B3DC
    76 0001:0001B3F4    78 0001:0001B405    83 0001:0001B658    84 0001:0001B66A
    85 0001:0001B673    86 0001:0001B683    91 0001:0001B6C0    92 0001:0001B6D2
    93 0001:0001B6DB    94 0001:0001B6EB    99 0001:0001B728   100 0001:0001B73A
   101 0001:0001B743   102 0001:0001B753   109 0001:0001B790   110 0001:0001B794
   111 0001:0001B79D   112 0001:0001B7AC   113 0001:0001B7C4   114 0001:0001B7C8
   116 0001:0001B7CF   119 0001:0001B7EC   120 0001:0001B7EF   121 0001:0001B7F6
   122 0001:0001B808   123 0001:0001B814   125 0001:0001B820

Line numbers for BisDesignDataApplicationInterfaceEditFm(imdesign.bpl\BisDesignDataApplicationInterfaceEditFm.pas) segment .itext

   127 0002:00000404

Line numbers for BisDesignDataApplicationInterfacesFm(imdesign.bpl\BisDesignDataApplicationInterfacesFm.pas) segment .text

    54 0001:0001BF3C    55 0001:0001BF5A    56 0001:0001BF63    57 0001:0001BF67
    58 0001:0001BF7C    59 0001:0001BF91    60 0001:0001BF9F    61 0001:0001BFC9
    64 0001:0001BFD8    69 0001:0001C034    70 0001:0001C062    71 0001:0001C06B
    72 0001:0001C081    73 0001:0001C089    74 0001:0001C094    75 0001:0001C0A1
    76 0001:0001C0AC    77 0001:0001C0B7    79 0001:0001C0BE    80 0001:0001C0CE
    81 0001:0001C0D4    82 0001:0001C0E0    83 0001:0001C0EC    84 0001:0001C0F8
    85 0001:0001C10B    86 0001:0001C11E    87 0001:0001C134    88 0001:0001C147
    90 0001:0001C15A    91 0001:0001C16C    92 0001:0001C17E    93 0001:0001C190
    96 0001:0001C31C    97 0001:0001C321    98 0001:0001C32A   100 0001:0001C32E
   101 0001:0001C347   104 0001:0001C35E   110 0001:0001C364   111 0001:0001C369

Line numbers for BisDesignDataApplicationInterfacesFm(imdesign.bpl\BisDesignDataApplicationInterfacesFm.pas) segment .itext

   113 0002:0000040C

Line numbers for BisDesignDataApplicationsFrm(imdesign.bpl\BisDesignDataApplicationsFrm.pas) segment .text

    49 0001:0001C7FC    50 0001:0001C827    51 0001:0001C82C    52 0001:0001C83A
    53 0001:0001C846    54 0001:0001C85B    55 0001:0001C86D    56 0001:0001C870
    59 0001:0001C872    51 0001:0001C873    60 0001:0001C876    65 0001:0001C8A0
    66 0001:0001C8B2    67 0001:0001C8BB    68 0001:0001C8CD    71 0001:0001C8E8
    72 0001:0001C8F3    73 0001:0001C8FE    74 0001:0001C90A    78 0001:0001C918
    79 0001:0001C91D    82 0001:0001C920    83 0001:0001C923    84 0001:0001C937
    89 0001:0001C93C    90 0001:0001C945    91 0001:0001C96C    92 0001:0001C972
    93 0001:0001C983    94 0001:0001C991    95 0001:0001C999    97 0001:0001C9B1
   100 0001:0001C9C1   107 0001:0001C9CC   108 0001:0001C9EE   109 0001:0001C9FD
   110 0001:0001CA15   111 0001:0001CA2D   112 0001:0001CA3D   113 0001:0001CA41
   114 0001:0001CA51   115 0001:0001CA5F   116 0001:0001CA6D   117 0001:0001CA74
   118 0001:0001CA81   119 0001:0001CA88   121 0001:0001CAA8   122 0001:0001CAE3
   123 0001:0001CAF1   124 0001:0001CAFA   125 0001:0001CB06   127 0001:0001CB0D

Line numbers for BisDesignDataApplicationsFrm(imdesign.bpl\BisDesignDataApplicationsFrm.pas) segment .itext

   130 0002:00000414

Line numbers for BisDesignDataApplicationsFm(imdesign.bpl\BisDesignDataApplicationsFm.pas) segment .text

    36 0001:0001CF6C    37 0001:0001CF83    38 0001:0001CF8C    39 0001:0001CF94
    40 0001:0001CF9F    41 0001:0001CFAC    42 0001:0001CFB7    43 0001:0001CFC2
    45 0001:0001CFC9    46 0001:0001CFD9    47 0001:0001CFDF    48 0001:0001CFEB
    49 0001:0001D001    50 0001:0001D017    52 0001:0001D023    53 0001:0001D035
    59 0001:0001D0E4    60 0001:0001D0E9

Line numbers for BisDesignDataApplicationsFm(imdesign.bpl\BisDesignDataApplicationsFm.pas) segment .itext

    62 0002:0000041C

Line numbers for BisDesignDataAccountRoleEditFm(imdesign.bpl\BisDesignDataAccountRoleEditFm.pas) segment .text

    57 0001:0001DA00    58 0001:0001DA17    59 0001:0001DA20    60 0001:0001DA28
    62 0001:0001DA2E    63 0001:0001DA6C    66 0001:0001DAA4    71 0001:0001DBB4
    72 0001:0001DBC6    73 0001:0001DBCF    74 0001:0001DBDF    79 0001:0001DC14
    80 0001:0001DC26    81 0001:0001DC2F    82 0001:0001DC3F    87 0001:0001DC74
    88 0001:0001DC86    89 0001:0001DC8F    90 0001:0001DC9F    95 0001:0001DCD4
    96 0001:0001DCD7    97 0001:0001DCDE    98 0001:0001DCF0    99 0001:0001DCFC
   101 0001:0001DD08

Line numbers for BisDesignDataAccountRoleEditFm(imdesign.bpl\BisDesignDataAccountRoleEditFm.pas) segment .itext

   103 0002:00000424

Line numbers for BisDesignDataAccountRolesFm(imdesign.bpl\BisDesignDataAccountRolesFm.pas) segment .text

    34 0001:0001E0D8    35 0001:0001E0EF    36 0001:0001E0F8    37 0001:0001E100
    38 0001:0001E10B    39 0001:0001E118    40 0001:0001E123    41 0001:0001E12E
    43 0001:0001E135    44 0001:0001E145    45 0001:0001E14B    46 0001:0001E157
    47 0001:0001E163    48 0001:0001E179    50 0001:0001E18F    51 0001:0001E1A1
    52 0001:0001E1B3

Line numbers for BisDesignDataAccountRolesFm(imdesign.bpl\BisDesignDataAccountRolesFm.pas) segment .itext

    54 0002:0000042C

Line numbers for BisDesignDataProfileEditFm(imdesign.bpl\BisDesignDataProfileEditFm.pas) segment .text

    58 0001:0001EB54    59 0001:0001EB6B    60 0001:0001EB74    61 0001:0001EB7C
    63 0001:0001EB82    64 0001:0001EBBD    66 0001:0001EBF5    68 0001:0001EC0D
    73 0001:0001ED94    74 0001:0001EDA6    75 0001:0001EDAF    76 0001:0001EDBF
    81 0001:0001EDF0    82 0001:0001EE02    83 0001:0001EE0B    84 0001:0001EE1B
    89 0001:0001EE4C    90 0001:0001EE5E    91 0001:0001EE67    92 0001:0001EE77

Line numbers for BisDesignDataProfileEditFm(imdesign.bpl\BisDesignDataProfileEditFm.pas) segment .itext

    94 0002:00000434

Line numbers for BisDesignDataProfilesFm(imdesign.bpl\BisDesignDataProfilesFm.pas) segment .text

    34 0001:0001F25C    35 0001:0001F273    36 0001:0001F27C    37 0001:0001F284
    38 0001:0001F28F    39 0001:0001F29C    40 0001:0001F2A7    41 0001:0001F2B2
    43 0001:0001F2B9    44 0001:0001F2C9    45 0001:0001F2CF    46 0001:0001F2DB
    47 0001:0001F2E7    48 0001:0001F2F3    49 0001:0001F309    51 0001:0001F31F
    52 0001:0001F331    53 0001:0001F343

Line numbers for BisDesignDataProfilesFm(imdesign.bpl\BisDesignDataProfilesFm.pas) segment .itext

    55 0002:0000043C

Line numbers for BisDesignDataSessionsFm(imdesign.bpl\BisDesignDataSessionsFm.pas) segment .text

    57 0001:0001FB40    58 0001:0001FB52    59 0001:0001FB5B    60 0001:0001FB6B
    65 0001:0001FBA8    66 0001:0001FBC4    67 0001:0001FBF4    68 0001:0001FC0C
    69 0001:0001FC1D    70 0001:0001FC2B    71 0001:0001FC38    72 0001:0001FC47
    73 0001:0001FC81    74 0001:0001FC89    76 0001:0001FC9E    80 0001:0001FCAE
    87 0001:0001FD30    88 0001:0001FD4D    89 0001:0001FD7D    90 0001:0001FD8E
    91 0001:0001FD9C    92 0001:0001FDCB    93 0001:0001FDDB    94 0001:0001FDE8
    96 0001:0001FE00    99 0001:0001FE10   104 0001:0001FE5C   105 0001:0001FE6F
   106 0001:0001FE78   107 0001:0001FE80   108 0001:0001FE8B   109 0001:0001FE96
   110 0001:0001FE9D   111 0001:0001FEAD   112 0001:0001FEB3   113 0001:0001FEBF
   114 0001:0001FECB   115 0001:0001FED7   116 0001:0001FEE3   117 0001:0001FEEF
   118 0001:0001FF02   119 0001:0001FF15   120 0001:0001FF28   121 0001:0001FF3B
   123 0001:0001FF4E   124 0001:0001FF60   125 0001:0001FF72   132 0001:000200E0
   133 0001:00020116   134 0001:0002011F   136 0001:0002012E   137 0001:00020137
   138 0001:00020144   139 0001:00020151   140 0001:0002015E   143 0001:00020174
   145 0001:0002018D   146 0001:000201A0   147 0001:000201AF   148 0001:000201D5
   150 0001:0002020C   153 0001:00020215   154 0001:00020228   157 0001:0002025B
   159 0001:00020273   167 0001:00020304   168 0001:00020327   169 0001:0002033E
   170 0001:00020342   171 0001:0002034E   172 0001:0002036A   173 0001:00020379
   175 0001:00020386

Line numbers for BisDesignDataSessionsFm(imdesign.bpl\BisDesignDataSessionsFm.pas) segment .itext

   177 0002:00000444

Line numbers for BisDesignDataMenuEditFm(imdesign.bpl\BisDesignDataMenuEditFm.pas) segment .text

   104 0001:00021028   105 0001:00021040   106 0001:00021049   107 0001:00021051
   108 0001:00021057   109 0001:00021067   110 0001:00021073   112 0001:0002107D
   114 0001:000210B1   115 0001:000210CB   116 0001:000210E3   117 0001:000210FB
   118 0001:00021113   120 0001:00021144   122 0001:00021152   128 0001:00021390
   129 0001:000213B4   130 0001:000213C4   131 0001:000213CC   132 0001:000213DD
   133 0001:000213EB   134 0001:000213F8   135 0001:0002140B   136 0001:00021438
   137 0001:00021440   138 0001:00021458   141 0001:0002148F   144 0001:0002149F
   149 0001:0002151C   150 0001:0002152E   151 0001:00021537   152 0001:00021547
   155 0001:00021574   156 0001:00021594   157 0001:0002159D   158 0001:000215A5
   159 0001:000215D1   160 0001:000215DE   161 0001:00021612   165 0001:00021646
   170 0001:000216D4   171 0001:000216E6   172 0001:000216EF   173 0001:000216FF
   174 0001:0002170C   178 0001:00021758   179 0001:00021778   180 0001:00021781
   181 0001:00021789   182 0001:000217B5   183 0001:000217C2   184 0001:000217F6
   188 0001:0002182A   193 0001:000218A8   194 0001:000218BA   195 0001:000218C3
   196 0001:000218D3   201 0001:00021900   202 0001:00021912   203 0001:0002191B
   204 0001:0002192B   209 0001:00021958   210 0001:0002196A   211 0001:00021973
   212 0001:0002197A   213 0001:00021987   214 0001:0002198E   221 0001:000219A8
   222 0001:000219D1   223 0001:000219DC   224 0001:000219F4   225 0001:000219FF
   226 0001:00021A05   228 0001:00021A1D   229 0001:00021A2C   230 0001:00021A3A
   231 0001:00021A45   232 0001:00021A51   234 0001:00021A75   237 0001:00021A85
   238 0001:00021A97   239 0001:00021AAC   241 0001:00021ACA   242 0001:00021ADE
   243 0001:00021AFB   244 0001:00021B12   246 0001:00021B27   249 0001:00021B84
   250 0001:00021B87   251 0001:00021BA1   256 0001:00021BA4   257 0001:00021BAB
   258 0001:00021BB0   261 0001:00021BB4   262 0001:00021BB7   263 0001:00021BBE
   264 0001:00021BCB   265 0001:00021BD8   268 0001:00021BE5   269 0001:00021BEC
   274 0001:00021BF0   275 0001:00021BF4   276 0001:00021C0E   277 0001:00021C12
   278 0001:00021C19   280 0001:00021C20   285 0001:00021C34   286 0001:00021C4B
   287 0001:00021C65   288 0001:00021C69   289 0001:00021C78   290 0001:00021C90
   293 0001:00021C97   299 0001:00021CCC   300 0001:00021CE5   301 0001:00021CFF
   302 0001:00021D03   303 0001:00021D24   304 0001:00021D33   306 0001:00021D4B
   312 0001:00021D88   313 0001:00021DA6   314 0001:00021DBA   315 0001:00021DCE
   316 0001:00021DDF   317 0001:00021DED   318 0001:00021DFA   319 0001:00021E03
   320 0001:00021E0F   322 0001:00021E1B   323 0001:00021E23   324 0001:00021E2F
   326 0001:00021E39   327 0001:00021E47   328 0001:00021E67   329 0001:00021E95
   325 0001:00021E9D   333 0001:00021EB6   334 0001:00021EBE   336 0001:00021EDA
   345 0001:00021F78   346 0001:00021F9B   347 0001:00021FB8   348 0001:00021FCF
   349 0001:00021FE3   350 0001:00021FF4   351 0001:00022002   352 0001:0002200F
   353 0001:00022022   354 0001:0002204F   355 0001:00022057   356 0001:00022067
   358 0001:00022071   359 0001:00022086   360 0001:000220A4   361 0001:000220BC
   362 0001:000220CB   364 0001:000220DD   359 0001:000220DE   365 0001:000220E1
   357 0001:000220E9   369 0001:00022106   370 0001:0002210E   373 0001:0002212A
   381 0001:000221C0   382 0001:000221DE   383 0001:000221F8   384 0001:0002220F
   385 0001:00022220   386 0001:0002222E   387 0001:0002223B   388 0001:00022245
   389 0001:0002224E   390 0001:00022266   391 0001:00022276   392 0001:00022282
   395 0001:00022296   396 0001:000222B6   397 0001:000222CC   398 0001:000222E9
   399 0001:000222F1   395 0001:000222F4   401 0001:00022304   404 0001:00022314
   412 0001:000223AC   413 0001:000223CA   414 0001:000223E4   415 0001:000223FB
   416 0001:0002240C   417 0001:0002241A   418 0001:00022427   419 0001:00022431
   420 0001:0002243A   421 0001:00022448   423 0001:0002246A   424 0001:00022485
   425 0001:00022496   426 0001:000224AC   427 0001:000224CC   429 0001:000224D4
   423 0001:000224D5   431 0001:000224E5   434 0001:000224F5   439 0001:00022560
   440 0001:00022567   441 0001:00022576   442 0001:00022586   443 0001:00022594
   444 0001:0002259B   445 0001:000225A6   446 0001:000225AD   447 0001:000225B8
   448 0001:000225BF   449 0001:000225D1   451 0001:000225EA   453 0001:00022602

Line numbers for BisDesignDataMenuEditFm(imdesign.bpl\BisDesignDataMenuEditFm.pas) segment .itext

   455 0002:0000044C

Line numbers for BisDesignDataMenusFm(imdesign.bpl\BisDesignDataMenusFm.pas) segment .text

    34 0001:000229AC    35 0001:000229C3    36 0001:000229CC    37 0001:000229D4
    38 0001:000229DF    39 0001:000229F0    40 0001:00022A01    41 0001:00022A0C
    42 0001:00022A17    44 0001:00022A1E    45 0001:00022A2E    46 0001:00022A34
    47 0001:00022A40    48 0001:00022A4C    49 0001:00022A58    50 0001:00022A64
    51 0001:00022A70    52 0001:00022A7C    53 0001:00022A92    54 0001:00022AA8
    56 0001:00022ABB    57 0001:00022ACD    58 0001:00022ADF

Line numbers for BisDesignDataMenusFm(imdesign.bpl\BisDesignDataMenusFm.pas) segment .itext

    60 0002:00000454

Line numbers for BisDesignDataReportsFrm(imdesign.bpl\BisDesignDataReportsFrm.pas) segment .text

    71 0001:000231D4    72 0001:000231FC    73 0001:00023201    74 0001:0002320F
    75 0001:0002321B    76 0001:0002323C    77 0001:0002324B    78 0001:0002324E
    81 0001:00023250    73 0001:00023251    82 0001:00023254    90 0001:0002327C
    91 0001:000232A9    92 0001:000232AE    93 0001:000232BC    94 0001:000232C8
    95 0001:000232E9    96 0001:000232FA    97 0001:00023309    98 0001:0002330C
   101 0001:0002330E   102 0001:00023311   105 0001:00023313    92 0001:00023314
   106 0001:00023317   112 0001:00023348   113 0001:0002335A   114 0001:00023363
   115 0001:00023375   116 0001:00023387   119 0001:000233A4   120 0001:000233AF
   121 0001:000233BA   122 0001:000233C5   123 0001:000233D1   126 0001:000233E0
   127 0001:000233E3   128 0001:000233F7   132 0001:000233FC   133 0001:00023401
   136 0001:00023404   137 0001:00023407   138 0001:0002341B   142 0001:00023420
   143 0001:00023425   149 0001:00023428   150 0001:0002342D   151 0001:00023439
   152 0001:00023442   153 0001:00023466   154 0001:00023474   156 0001:00023482
   162 0001:00023488   163 0001:000234AA   164 0001:000234AF   165 0001:000234C8
   166 0001:000234DB   167 0001:000234EA   168 0001:000234ED   170 0001:000234EF
   164 0001:000234F0   171 0001:000234F3   177 0001:0002351C   178 0001:00023539
   179 0001:0002353E   180 0001:0002354A   181 0001:00023564   182 0001:00023582
   183 0001:0002358C   185 0001:00023592   191 0001:000235CC   192 0001:000235E9
   193 0001:000235EE   194 0001:000235FA   195 0001:00023614   196 0001:00023632
   197 0001:0002363C   199 0001:00023642   208 0001:0002367C   209 0001:0002369F
   210 0001:000236AA   212 0001:000236F1   213 0001:00023700   214 0001:00023710
   215 0001:0002371C   216 0001:0002372B   217 0001:0002373C   218 0001:0002374A
   219 0001:00023772   220 0001:0002377F   221 0001:00023788   222 0001:000237A0
   223 0001:000237AE   224 0001:000237BC   225 0001:000237CA   227 0001:000237D8
   228 0001:000237EE   229 0001:000237FB   230 0001:00023807   232 0001:00023826
   233 0001:00023833   234 0001:00023840   236 0001:0002386A   239 0001:0002387F
   240 0001:00023887   241 0001:0002388F   242 0001:00023899   245 0001:000238B1
   250 0001:00023964   251 0001:0002396E   252 0001:0002397B   254 0001:000239B6
   255 0001:000239C2   256 0001:000239D0   257 0001:000239F2   260 0001:00023A06
   263 0001:00023A18   275 0001:00023A38   276 0001:00023A5A   277 0001:00023A69
   278 0001:00023A75   279 0001:00023A9B   280 0001:00023AA4   281 0001:00023AAC
   282 0001:00023ABB   283 0001:00023ACC   284 0001:00023AD1   285 0001:00023ADF
   286 0001:00023AF3   287 0001:00023B07   288 0001:00023B1A   289 0001:00023B20
   290 0001:00023B2C   291 0001:00023B3A   293 0001:00023B42   294 0001:00023B52
   295 0001:00023B60   296 0001:00023B73   297 0001:00023B86   298 0001:00023B93
   299 0001:00023BA6   300 0001:00023BC9   301 0001:00023BD1   302 0001:00023BF1
   303 0001:00023C06   304 0001:00023C1A   306 0001:00023C31   307 0001:00023C5E
   308 0001:00023C6A   311 0001:00023C75   312 0001:00023C81   313 0001:00023C91
   314 0001:00023C9D   315 0001:00023CAC   316 0001:00023CB5   317 0001:00023CBF
   320 0001:00023CD7   321 0001:00023CDF   322 0001:00023CE5   323 0001:00023CF0
   328 0001:00023D00   334 0001:00023DDC   335 0001:00023DE1   336 0001:00023DED
   337 0001:00023DF6   338 0001:00023E1A   339 0001:00023E28   341 0001:00023E36
   349 0001:00023E3C   350 0001:00023E5A   351 0001:00023E69   352 0001:00023E75
   353 0001:00023E9B   354 0001:00023EA5   355 0001:00023EAF   356 0001:00023EC3
   357 0001:00023ED6   358 0001:00023EDA   359 0001:00023EE6   360 0001:00023EED
   361 0001:00023EFA   363 0001:00023F01   364 0001:00023F0C   365 0001:00023F2E
   366 0001:00023F3C   367 0001:00023F45   368 0001:00023F4E   372 0001:00023F58

Line numbers for BisDesignDataReportsFrm(imdesign.bpl\BisDesignDataReportsFrm.pas) segment .itext

   375 0002:0000045C

Line numbers for BisDesignDataReportsFm(imdesign.bpl\BisDesignDataReportsFm.pas) segment .text

    47 0001:00024370    48 0001:00024387    49 0001:00024390    50 0001:00024398
    51 0001:000243A3    52 0001:000243B0    53 0001:000243BB    54 0001:000243C6
    56 0001:000243CD    57 0001:000243DD    58 0001:000243E3    59 0001:000243F3
    60 0001:000243FF    61 0001:00024415    63 0001:00024428    64 0001:0002443A
    67 0001:000244E4    68 0001:000244E7    69 0001:000244EE    72 0001:000244F0
    73 0001:000244F5    74 0001:000244FE    75 0001:00024519    76 0001:00024522
    79 0001:00024539    83 0001:00024540    84 0001:0002454E    89 0001:00024550
    90 0001:00024562    91 0001:0002456B    94 0001:00024588    95 0001:0002458B
    96 0001:00024592   100 0001:00024594   101 0001:00024599

Line numbers for BisDesignDataReportsFm(imdesign.bpl\BisDesignDataReportsFm.pas) segment .itext

   103 0002:00000464

Line numbers for BisDesignDataScriptsFrm(imdesign.bpl\BisDesignDataScriptsFrm.pas) segment .text

    53 0001:00024A10    54 0001:00024A3D    55 0001:00024A42    56 0001:00024A50
    57 0001:00024A5C    58 0001:00024A7D    59 0001:00024A8E    60 0001:00024A9D
    61 0001:00024AA0    64 0001:00024AA2    65 0001:00024AA5    68 0001:00024AA7
    55 0001:00024AA8    69 0001:00024AAB    75 0001:00024ADC    76 0001:00024AEE
    77 0001:00024AF7    78 0001:00024B09    81 0001:00024B24    82 0001:00024B2F
    83 0001:00024B3A    84 0001:00024B46    88 0001:00024B54    89 0001:00024B59
    92 0001:00024B5C    93 0001:00024B5F    94 0001:00024B73   100 0001:00024B78
   101 0001:00024B9A   102 0001:00024B9F   103 0001:00024BB8   104 0001:00024BCB
   105 0001:00024BDA   106 0001:00024BDD   108 0001:00024BDF   102 0001:00024BE0
   109 0001:00024BE3   115 0001:00024C0C   116 0001:00024C29   117 0001:00024C2E
   118 0001:00024C3A   119 0001:00024C54   120 0001:00024C72   121 0001:00024C7C
   123 0001:00024C82   129 0001:00024CBC   130 0001:00024CC1   131 0001:00024CCD
   132 0001:00024CD6   133 0001:00024CFA   134 0001:00024D08   136 0001:00024D16
   144 0001:00024D1C   145 0001:00024D3A   146 0001:00024D49   147 0001:00024D55
   148 0001:00024D7B   149 0001:00024D85   150 0001:00024D8F   151 0001:00024DA3
   152 0001:00024DB6   153 0001:00024DBA   154 0001:00024DC6   155 0001:00024DCD
   156 0001:00024DDA   158 0001:00024DE1   159 0001:00024DEC   160 0001:00024E0B
   164 0001:00024E12

Line numbers for BisDesignDataScriptsFrm(imdesign.bpl\BisDesignDataScriptsFrm.pas) segment .itext

   167 0002:0000046C

Line numbers for BisDesignDataScriptsFm(imdesign.bpl\BisDesignDataScriptsFm.pas) segment .text

    46 0001:0002522C    47 0001:00025243    48 0001:0002524C    49 0001:00025254
    50 0001:0002525F    51 0001:0002526C    52 0001:00025277    53 0001:00025282
    55 0001:00025289    56 0001:00025299    57 0001:0002529F    58 0001:000252AF
    59 0001:000252BB    60 0001:000252D1    62 0001:000252E4    63 0001:000252F6
    66 0001:000253A0    67 0001:000253A3    68 0001:000253AA    71 0001:000253AC
    72 0001:000253B0    73 0001:000253B9    74 0001:000253D4    77 0001:000253DB
    82 0001:000253E0    83 0001:000253F2    84 0001:000253FB    87 0001:00025418
    88 0001:0002541B    89 0001:00025422    93 0001:00025424    94 0001:00025429

Line numbers for BisDesignDataScriptsFm(imdesign.bpl\BisDesignDataScriptsFm.pas) segment .itext

    96 0002:00000474

Line numbers for BisDesignJournalActionEditFm(imdesign.bpl\BisDesignJournalActionEditFm.pas) segment .text

    76 0001:00025FB0    77 0001:00025FB6    78 0001:00025FBD    79 0001:00025FC9
    80 0001:00025FD8    81 0001:00025FE7    83 0001:00025FF3    89 0001:00026034
    90 0001:00026047    91 0001:00026050    92 0001:00026058    93 0001:0002605E
    94 0001:00026076    95 0001:0002609F    96 0001:000260B7    98 0001:000260E5
   100 0001:00026116   101 0001:00026130   102 0001:0002614A   103 0001:00026164
   104 0001:0002617E   106 0001:00026196   111 0001:000264A8   112 0001:000264BA
   113 0001:000264C3   118 0001:000264E0   119 0001:000264F2   120 0001:000264FB
   121 0001:0002650B   126 0001:00026544   127 0001:00026556   128 0001:0002655F
   129 0001:0002656F   134 0001:000265A8   135 0001:000265BA   136 0001:000265C3
   137 0001:000265D3   142 0001:0002660C   143 0001:00026635   144 0001:0002663E
   145 0001:0002665C   146 0001:0002667D   147 0001:0002669E   150 0001:000266E0
   151 0001:000266FB   152 0001:00026707   154 0001:00026734   155 0001:0002673B

Line numbers for BisDesignJournalActionEditFm(imdesign.bpl\BisDesignJournalActionEditFm.pas) segment .itext

   157 0002:0000047C

Line numbers for BisDesignJournalActionsFm(imdesign.bpl\BisDesignJournalActionsFm.pas) segment .text

    41 0001:00026BA0    42 0001:00026BB3    43 0001:00026BBC    44 0001:00026BC4
    45 0001:00026BCF    46 0001:00026BDC    47 0001:00026BE7    48 0001:00026BF2
    49 0001:00026BF9    50 0001:00026C00    51 0001:00026C10    52 0001:00026C16
    53 0001:00026C22    54 0001:00026C2E    55 0001:00026C3A    56 0001:00026C46
    57 0001:00026C52    58 0001:00026C65    59 0001:00026C78    60 0001:00026C95
    61 0001:00026CA8    62 0001:00026CBB    63 0001:00026CCE    64 0001:00026CE1
    66 0001:00026CF4    67 0001:00026D06    72 0001:00026EEC    73 0001:00026F08
    74 0001:00026F0F    75 0001:00026F28    76 0001:00026F39    77 0001:00026F43
    83 0001:00026F8C    84 0001:00026F9E    85 0001:00026FA7    86 0001:00026FBF

Line numbers for BisDesignJournalActionsFm(imdesign.bpl\BisDesignJournalActionsFm.pas) segment .itext

    88 0002:00000484

Line numbers for BisDesignDataDocumentsFm(imdesign.bpl\BisDesignDataDocumentsFm.pas) segment .text

    34 0001:00027398    35 0001:000273AF    36 0001:000273B8    37 0001:000273C0
    38 0001:000273CB    39 0001:000273D8    40 0001:000273E3    41 0001:000273EE
    43 0001:000273F5    44 0001:00027405    45 0001:0002740B    46 0001:0002741B
    47 0001:00027427    48 0001:0002743D    50 0001:00027453    51 0001:00027465
    56 0001:00027510    57 0001:00027522    58 0001:0002752B

Line numbers for BisDesignDataDocumentsFm(imdesign.bpl\BisDesignDataDocumentsFm.pas) segment .itext

    60 0002:0000048C

Line numbers for BisDesignDataConstEditFm(imdesign.bpl\BisDesignDataConstEditFm.pas) segment .text

    58 0001:00027E1C    59 0001:00027E33    60 0001:00027E3C    61 0001:00027E44
    62 0001:00027E4A    63 0001:00027E64    64 0001:00027E68    66 0001:00027E72
    67 0001:00027E8A    69 0001:00027EA2    74 0001:00027F8C    75 0001:00027F9E
    76 0001:00027FA7    77 0001:00027FB7    82 0001:00027FE4    83 0001:00027FF6
    84 0001:00027FFF    85 0001:0002800F    90 0001:0002803C    91 0001:0002804E
    92 0001:00028057    93 0001:00028067    98 0001:00028094    99 0001:00028097
   100 0001:0002809E   101 0001:000280BA   104 0001:000280BC   105 0001:000280D7
   106 0001:0002810C

Line numbers for BisDesignDataConstEditFm(imdesign.bpl\BisDesignDataConstEditFm.pas) segment .itext

   108 0002:00000494

Line numbers for BisDesignDataConstsFm(imdesign.bpl\BisDesignDataConstsFm.pas) segment .text

    34 0001:000284F4    35 0001:0002850B    36 0001:00028514    37 0001:0002851C
    38 0001:00028527    39 0001:00028534    40 0001:0002853F    41 0001:0002854A
    43 0001:00028551    44 0001:00028561    45 0001:00028567    46 0001:00028581
    47 0001:00028597    49 0001:000285A3    50 0001:000285B5    55 0001:00028648
    56 0001:0002865A    57 0001:00028663

Line numbers for BisDesignDataConstsFm(imdesign.bpl\BisDesignDataConstsFm.pas) segment .itext

    59 0002:0000049C

Line numbers for BisDesignDataLockEditFm(imdesign.bpl\BisDesignDataLockEditFm.pas) segment .text

    72 0001:0002905C    73 0001:0002906F    74 0001:00029078    75 0001:00029080
    76 0001:00029086    77 0001:0002909E    79 0001:000290CF    81 0001:000290FD
    82 0001:00029115    83 0001:0002912F    84 0001:00029158    85 0001:00029181
    86 0001:00029199    88 0001:000291B1    93 0001:000294B8    94 0001:000294CA
    95 0001:000294D3    96 0001:000294E3   101 0001:00029510   102 0001:00029522
   103 0001:0002952B   104 0001:0002953B   109 0001:00029568   110 0001:0002957A
   111 0001:00029583   112 0001:00029593   117 0001:000295C0   118 0001:000295D2
   119 0001:000295DB   122 0001:000295F8   123 0001:00029613   124 0001:0002961A
   125 0001:00029625   126 0001:00029631   129 0001:0002965E   130 0001:00029665

Line numbers for BisDesignDataLockEditFm(imdesign.bpl\BisDesignDataLockEditFm.pas) segment .itext

   133 0002:000004A4

Line numbers for BisDesignDataLocksFm(imdesign.bpl\BisDesignDataLocksFm.pas) segment .text

    34 0001:00029A40    35 0001:00029A57    36 0001:00029A60    37 0001:00029A68
    38 0001:00029A73    39 0001:00029A80    40 0001:00029A8B    41 0001:00029A96
    43 0001:00029A9D    44 0001:00029AAD    45 0001:00029AB3    46 0001:00029ABF
    47 0001:00029ACB    48 0001:00029AD7    49 0001:00029AE3    50 0001:00029AEF
    51 0001:00029B02    52 0001:00029B15    53 0001:00029B28    54 0001:00029B3B
    55 0001:00029B4E    57 0001:00029B65    58 0001:00029B77    59 0001:00029B89

Line numbers for BisDesignDataLocksFm(imdesign.bpl\BisDesignDataLocksFm.pas) segment .itext

    61 0002:000004AC

Line numbers for BisDesignDataTaskEditFm(imdesign.bpl\BisDesignDataTaskEditFm.pas) segment .text

   135 0001:0002ABF0   136 0001:0002AC28   137 0001:0002AC34   138 0001:0002AC3C
   139 0001:0002AC42   140 0001:0002AC5A   141 0001:0002AC81   142 0001:0002AC9B
   144 0001:0002ACCC   146 0001:0002ACFA   147 0001:0002AD12   148 0001:0002AD2F
   149 0001:0002AD60   150 0001:0002AD7A   151 0001:0002AD94   153 0001:0002ADC5
   154 0001:0002ADE2   155 0001:0002ADFA   156 0001:0002AE17   157 0001:0002AE2F
   158 0001:0002AE53   159 0001:0002AE64   160 0001:0002AE75   161 0001:0002AE86
   162 0001:0002AE97   163 0001:0002AEA8   164 0001:0002AEB9   165 0001:0002AED1
   166 0001:0002AEF5   167 0001:0002AF19   168 0001:0002AF3D   169 0001:0002AF61
   170 0001:0002AF8B   171 0001:0002AFB5   172 0001:0002AFDF   173 0001:0002B009
   174 0001:0002B033   175 0001:0002B05D   176 0001:0002B087   177 0001:0002B0B1
   178 0001:0002B0C2   179 0001:0002B0DA   180 0001:0002B0F2   181 0001:0002B10A
   182 0001:0002B133   185 0001:0002B14B   190 0001:0002BB5C   191 0001:0002BB6E
   192 0001:0002BB77   193 0001:0002BB87   194 0001:0002BB94   199 0001:0002BBD8
   200 0001:0002BBEA   201 0001:0002BBF3   202 0001:0002BC03   203 0001:0002BC10
   208 0001:0002BC58   209 0001:0002BC6A   210 0001:0002BC73   211 0001:0002BC83
   212 0001:0002BC90   217 0001:0002BCD4   218 0001:0002BCE6   219 0001:0002BCEF
   220 0001:0002BCF6   221 0001:0002BD0D   224 0001:0002BD28   225 0001:0002BD43
   227 0001:0002BD4A   228 0001:0002BD55   229 0001:0002BD61   232 0001:0002BD8E
   233 0001:0002BD95   234 0001:0002BDA0   235 0001:0002BDC4   236 0001:0002BDD1
   237 0001:0002BDDE   240 0001:0002BDEB   241 0001:0002BDF2   247 0001:0002BE3C
   248 0001:0002BE61   249 0001:0002BE6B   251 0001:0002BE73   253 0001:0002BE9A
   254 0001:0002BEA9   255 0001:0002BEC7   256 0001:0002BEE5   257 0001:0002BF03
   258 0001:0002BF21   259 0001:0002BF2C   260 0001:0002BF43   264 0001:0002BF70
   265 0001:0002BF87   266 0001:0002BFAF   267 0001:0002BFC6   270 0001:0002BFEE
   272 0001:0002C015   273 0001:0002C01F   274 0001:0002C02E   275 0001:0002C043
   276 0001:0002C058   277 0001:0002C06D   278 0001:0002C082   279 0001:0002C097
   280 0001:0002C0AC   281 0001:0002C0C1   282 0001:0002C0D6   283 0001:0002C0EB
   284 0001:0002C100   285 0001:0002C115   286 0001:0002C12A   287 0001:0002C13F
   288 0001:0002C154   289 0001:0002C169   290 0001:0002C17E   291 0001:0002C193
   292 0001:0002C1A8   293 0001:0002C1BD   294 0001:0002C1D2   295 0001:0002C1E7
   296 0001:0002C1FC   297 0001:0002C211   298 0001:0002C226   299 0001:0002C241
   301 0001:0002C269   302 0001:0002C284   305 0001:0002C2B6   308 0001:0002C2D0
   309 0001:0002C2E5   310 0001:0002C2FA   313 0001:0002C314   314 0001:0002C329
   315 0001:0002C33E   316 0001:0002C353   317 0001:0002C368   318 0001:0002C37D
   319 0001:0002C392   320 0001:0002C3A7   321 0001:0002C3BC   322 0001:0002C3D1
   325 0001:0002C3EB   326 0001:0002C400   327 0001:0002C415   328 0001:0002C42A
   329 0001:0002C43F   330 0001:0002C454   331 0001:0002C469   332 0001:0002C47E
   333 0001:0002C493   334 0001:0002C4A8   335 0001:0002C4BD   336 0001:0002C4D2
   337 0001:0002C4E7   338 0001:0002C4FC   339 0001:0002C511   346 0001:0002C526
   348 0001:0002C54D   349 0001:0002C55C   350 0001:0002C572   351 0001:0002C593
   352 0001:0002C5B4   357 0001:0002C5D5   363 0001:0002C890   364 0001:0002C89A
   365 0001:0002C8A9   366 0001:0002C8BF   367 0001:0002C8D7   368 0001:0002C8EF
   369 0001:0002C907   370 0001:0002C91D   371 0001:0002C92F   372 0001:0002C941
   373 0001:0002C94F   375 0001:0002C966   376 0001:0002C979   377 0001:0002C98C
   378 0001:0002C99F   379 0001:0002C9B2   382 0001:0002C9CD   389 0001:0002CA74
   390 0001:0002CA93   392 0001:0002CABD   393 0001:0002CAD7   394 0001:0002CAE5
   395 0001:0002CAE9   396 0001:0002CAF5   397 0001:0002CB01   398 0001:0002CB0D
   399 0001:0002CB19   400 0001:0002CB25   403 0001:0002CB3D   408 0001:0002CB78
   409 0001:0002CB7F   410 0001:0002CB89   411 0001:0002CB97   412 0001:0002CBB7
   413 0001:0002CBDE   414 0001:0002CBF3   415 0001:0002CC08   416 0001:0002CC1D
   417 0001:0002CC32   420 0001:0002CC52   422 0001:0002CC64

Line numbers for BisDesignDataTaskEditFm(imdesign.bpl\BisDesignDataTaskEditFm.pas) segment .itext

   424 0002:000004B4

Line numbers for BisDesignDataTasksFrm(imdesign.bpl\BisDesignDataTasksFrm.pas) segment .text

    40 0001:0002D00C    41 0001:0002D024    43 0001:0002D02D    44 0001:0002D038
    45 0001:0002D045    46 0001:0002D050    47 0001:0002D05B    48 0001:0002D061
    49 0001:0002D06D    50 0001:0002D073    51 0001:0002D07F    52 0001:0002D08B
    53 0001:0002D097    54 0001:0002D0A3    55 0001:0002D0AF    56 0001:0002D0BB
    57 0001:0002D0C7    58 0001:0002D0D3    59 0001:0002D0DF    60 0001:0002D0EB
    61 0001:0002D0F7    62 0001:0002D103    63 0001:0002D10F    64 0001:0002D11B
    65 0001:0002D127    66 0001:0002D133    67 0001:0002D13F    68 0001:0002D14B
    69 0001:0002D157    70 0001:0002D163    71 0001:0002D16F    72 0001:0002D17B
    73 0001:0002D187    74 0001:0002D193    75 0001:0002D19F    76 0001:0002D1AB
    77 0001:0002D1B7    78 0001:0002D1C3    79 0001:0002D1CF    80 0001:0002D1DB
    81 0001:0002D1E7    82 0001:0002D1F3    83 0001:0002D1FF    84 0001:0002D20B
    85 0001:0002D217    86 0001:0002D223    87 0001:0002D22F    88 0001:0002D23B
    89 0001:0002D247    90 0001:0002D253    91 0001:0002D269    92 0001:0002D27C
    93 0001:0002D292    95 0001:0002D2A5    98 0001:0002D2B7   101 0001:0002D6AC
   102 0001:0002D6B7   103 0001:0002D6C3   106 0001:0002D6D4   107 0001:0002D6D7
   108 0001:0002D6EB   112 0001:0002D6F0   113 0001:0002D6F5   116 0001:0002D6F8
   117 0001:0002D6FB   118 0001:0002D71F   123 0001:0002D724   124 0001:0002D74A
   125 0001:0002D76A   127 0001:0002D778   128 0001:0002D78C   129 0001:0002D79A
   130 0001:0002D7CD   131 0001:0002D7DB   132 0001:0002D809   133 0001:0002D837
   136 0001:0002D855   137 0001:0002D873   141 0001:0002D899   144 0001:0002D8A9
   149 0001:0002D92C   150 0001:0002D949   151 0001:0002D958   152 0001:0002D968
   153 0001:0002D98B   154 0001:0002D9AE   155 0001:0002D9D1   156 0001:0002D9F7
   157 0001:0002DA1A   158 0001:0002DA3D   159 0001:0002DA41   160 0001:0002DA45
   161 0001:0002DA49   162 0001:0002DA59   164 0001:0002DA60

Line numbers for BisDesignDataTasksFrm(imdesign.bpl\BisDesignDataTasksFrm.pas) segment .itext

   166 0002:000004BC

Line numbers for BisDesignDataTasksFm(imdesign.bpl\BisDesignDataTasksFm.pas) segment .text

    36 0001:0002DEC8    37 0001:0002DEDA    38 0001:0002DEE3    39 0001:0002DEEB
    40 0001:0002DEF2    41 0001:0002DEF9    47 0001:0002DF14    48 0001:0002DF19

Line numbers for BisDesignDataTasksFm(imdesign.bpl\BisDesignDataTasksFm.pas) segment .itext

    50 0002:000004C4

Line numbers for BisDesignDataExchangeEditFm(imdesign.bpl\BisDesignDataExchangeEditFm.pas) segment .text

    74 0001:0002E980    75 0001:0002E993    76 0001:0002E99C    77 0001:0002E9A4
    78 0001:0002E9AA    79 0001:0002E9C2    80 0001:0002E9D0    81 0001:0002E9DE
    82 0001:0002E9EC    83 0001:0002E9FA    84 0001:0002EA08    85 0001:0002EA22
    86 0001:0002EA33    87 0001:0002EA4B    88 0001:0002EA72    89 0001:0002EA99
    91 0001:0002EAB1    96 0001:0002ED0C    97 0001:0002ED1E    98 0001:0002ED27
    99 0001:0002ED37   104 0001:0002ED68   105 0001:0002ED7A   106 0001:0002ED83
   107 0001:0002ED93   112 0001:0002EDC4   113 0001:0002EDD6   114 0001:0002EDDF
   115 0001:0002EDEF   120 0001:0002EE20   121 0001:0002EE32   122 0001:0002EE3B
   123 0001:0002EE4E   124 0001:0002EE61   125 0001:0002EE71   132 0001:0002EEC0
   133 0001:0002EECB   134 0001:0002EEE3   135 0001:0002EEEB   136 0001:0002EEF9
   137 0001:0002EF18   138 0001:0002EF2D   139 0001:0002EF36   140 0001:0002EF50
   141 0001:0002EF5E   142 0001:0002EF6B   139 0001:0002EF6E   144 0001:0002EF71
   136 0001:0002EF74   146 0001:0002EF86   149 0001:0002EF96   152 0001:0002EF9C
   153 0001:0002EF9F   155 0001:0002EFA6   156 0001:0002EFB3   157 0001:0002EFC0
   158 0001:0002EFCD   159 0001:0002EFDA   160 0001:0002EFE7   163 0001:0002EFF4
   169 0001:0002EFF8   170 0001:0002F01A   171 0001:0002F01C   172 0001:0002F039
   173 0001:0002F05B   174 0001:0002F07D   175 0001:0002F09F   176 0001:0002F0C1
   177 0001:0002F0E3   178 0001:0002F0EB   179 0001:0002F0FC   180 0001:0002F10A
   181 0001:0002F115   182 0001:0002F125   183 0001:0002F146   184 0001:0002F150
   185 0001:0002F165   186 0001:0002F173   189 0001:0002F1AC   193 0001:0002F1BC
   196 0001:0002F270   197 0001:0002F294   198 0001:0002F2A0   199 0001:0002F2B7
   200 0001:0002F2F2   201 0001:0002F2FF   202 0001:0002F30B   205 0001:0002F30F

Line numbers for BisDesignDataExchangeEditFm(imdesign.bpl\BisDesignDataExchangeEditFm.pas) segment .itext

   208 0002:000004CC

Line numbers for BisDesignDataExchangesFm(imdesign.bpl\BisDesignDataExchangesFm.pas) segment .text

    35 0001:0002F724    36 0001:0002F737    37 0001:0002F740    38 0001:0002F748
    39 0001:0002F753    40 0001:0002F760    41 0001:0002F76B    42 0001:0002F776
    44 0001:0002F77D    45 0001:0002F78D    46 0001:0002F793    47 0001:0002F79F
    48 0001:0002F7AB    49 0001:0002F7B7    50 0001:0002F7C3    51 0001:0002F7CF
    52 0001:0002F7DB    53 0001:0002F7E7    54 0001:0002F7FD    55 0001:0002F810
    56 0001:0002F823    57 0001:0002F836    59 0001:0002F849    60 0001:0002F85B

Line numbers for BisDesignDataExchangesFm(imdesign.bpl\BisDesignDataExchangesFm.pas) segment .itext

    62 0002:000004D4

Line numbers for BisDesignExchangeFm(imdesign.bpl\BisDesignExchangeFm.pas) segment .text

    92 0001:00030284    93 0001:00030296    94 0001:0003029F    95 0001:000302A7
    96 0001:000302AE    97 0001:000302B2   102 0001:000302CC   103 0001:000302E3
   104 0001:000302EC   106 0001:000302F3   107 0001:00030309   108 0001:0003030C
   109 0001:0003031E   110 0001:00030330   111 0001:00030342   112 0001:00030357
   113 0001:00030369   114 0001:0003037B   115 0001:0003038D   116 0001:0003039F
   117 0001:000303B1   119 0001:000303C3   120 0001:000303CF   121 0001:000303DB
   122 0001:000303E7   123 0001:000303FD   125 0001:00030414   126 0001:00030421
   128 0001:00030432   129 0001:00030448   131 0001:00030455   132 0001:0003046B
   133 0001:00030478   134 0001:00030485   135 0001:00030492   136 0001:00030499
   137 0001:000304A6   138 0001:000304B3   139 0001:000304C0   140 0001:000304CD
   141 0001:000304DA   142 0001:000304E7   143 0001:000304F4   144 0001:00030501
   145 0001:0003051A   146 0001:0003052B   147 0001:00030538   149 0001:0003054E
   150 0001:0003055E   151 0001:0003056E   152 0001:0003057E   153 0001:0003058E
   154 0001:0003059E   155 0001:000305AE   156 0001:000305BE   157 0001:000305CE
   158 0001:000305DE   159 0001:000305EE   160 0001:000305FE   162 0001:0003060E
   163 0001:00030615   164 0001:00030626   166 0001:00030631   167 0001:0003063A
   170 0001:000308B8   174 0001:000308C3   175 0001:000308CF   178 0001:000308E0
   179 0001:000308E3   180 0001:000308EA   181 0001:000308F3   185 0001:000308F8
   186 0001:000308FD   189 0001:00030900   190 0001:00030903   191 0001:00030917
   194 0001:0003091C   195 0001:0003091F   196 0001:0003094E   201 0001:00030950
   202 0001:0003096B   203 0001:0003098F   204 0001:00030997   205 0001:000309AC
   210 0001:000309BD   213 0001:00030A1B   221 0001:00030A84   222 0001:00030AA5
   223 0001:00030AB4   224 0001:00030AC5   225 0001:00030AD3   226 0001:00030AEB
   227 0001:00030B03   228 0001:00030B0E   229 0001:00030B1F   230 0001:00030B8E
   231 0001:00030B99   232 0001:00030BB0   233 0001:00030BC0   234 0001:00030BCA
   235 0001:00030BDA   236 0001:00030BEA   238 0001:00030C02   241 0001:00030C12
   245 0001:00030CAC   246 0001:00030CB1   260 0001:00030CB4   261 0001:00030CD7
   262 0001:00030CDE   263 0001:00030CEB   264 0001:00030CFA   265 0001:00030D08
   266 0001:00030D13   267 0001:00030D23   268 0001:00030D3A   270 0001:00030D3D
   271 0001:00030D4B   272 0001:00030D53   273 0001:00030D6A   274 0001:00030D79
   275 0001:00030D7D   276 0001:00030D91   277 0001:00030DAA   278 0001:00030DBB
   279 0001:00030DD5   280 0001:00030DDF   283 0001:00030DE9   269 0001:00030DF0
   289 0001:00030E05   290 0001:00030E1B   292 0001:00030E2B   302 0001:00030E8C
   303 0001:00030EB7   304 0001:00030EBA   305 0001:00030EC9   306 0001:00030ED1
   307 0001:00030EE9   308 0001:00030EF8   309 0001:00030F06   310 0001:00030F16
   311 0001:00030F26   312 0001:00030F3E   313 0001:00030F4D   314 0001:00030F5B
   315 0001:00030F6B   316 0001:00030F76   317 0001:00030F9F   320 0001:00030FD2
   324 0001:00030FEF   327 0001:00030FFF   342 0001:0003105C   343 0001:0003108E
   344 0001:0003109D   345 0001:000310AB   346 0001:000310B8   347 0001:000310C0
   349 0001:000310CB   350 0001:000310D6   351 0001:000310E6   352 0001:000310F1
   353 0001:00031108   354 0001:00031116   355 0001:0003113C   356 0001:00031142
   357 0001:0003114A   359 0001:00031150   352 0001:00031153   360 0001:00031156
   361 0001:0003115C   362 0001:00031166   363 0001:00031195   364 0001:0003119A
   365 0001:0003119E   367 0001:000311AE   368 0001:000311C9   369 0001:000311D7
   370 0001:000311E4   371 0001:000311EC   372 0001:000311F7   373 0001:0003120C
   374 0001:00031234   375 0001:00031237   376 0001:0003123B   378 0001:0003123D
   379 0001:00031250   382 0001:00031272   367 0001:00031275   383 0001:0003127C
   384 0001:00031282   385 0001:00031286   366 0001:00031292   388 0001:0003129C
   389 0001:000312A6   390 0001:000312C6   391 0001:000312FF   392 0001:00031314
   393 0001:0003131C   394 0001:00031334   395 0001:0003134C   396 0001:00031364
   399 0001:00031374   348 0001:0003137A   405 0001:0003138C   407 0001:0003139C
   410 0001:00031428   411 0001:0003142E   412 0001:0003143B   413 0001:0003143F
   415 0001:00031452   417 0001:00031462   425 0001:00031468   426 0001:000314AB
   427 0001:000314C0   428 0001:000314CF   429 0001:000314E0   430 0001:000314EE
   431 0001:000314FB   432 0001:00031508   433 0001:00031515   434 0001:00031522
   435 0001:0003152F   436 0001:0003153C   437 0001:00031549   438 0001:00031556
   439 0001:00031563   440 0001:00031570   441 0001:0003157D   442 0001:0003158A
   443 0001:00031597   444 0001:000315A4   445 0001:000315AA   446 0001:000315BC
   447 0001:000315D1   449 0001:000315E3   450 0001:000315ED   451 0001:000315FE
   452 0001:0003161E   454 0001:0003162B   455 0001:00031638   456 0001:0003166A
   457 0001:00031694   458 0001:000316C0   459 0001:000316FF   460 0001:0003173E
   461 0001:0003177B   462 0001:000317AC   463 0001:000317BC   453 0001:000317C4
   467 0001:000317E1   468 0001:000317E9   471 0001:000317F9   477 0001:00031A48
   478 0001:00031A83   479 0001:00031A98   480 0001:00031AA7   481 0001:00031AB8
   482 0001:00031AC6   483 0001:00031AD3   484 0001:00031AD9   485 0001:00031AEB
   486 0001:00031B00   488 0001:00031B12   489 0001:00031B1C   490 0001:00031B2D
   491 0001:00031B4D   493 0001:00031B5A   494 0001:00031B67   495 0001:00031B99
   496 0001:00031BC3   497 0001:00031BF1   498 0001:00031C30   499 0001:00031C6F
   500 0001:00031CAC   501 0001:00031CDD   502 0001:00031CED   492 0001:00031CF5
   506 0001:00031D12   507 0001:00031D1A   510 0001:00031D2A   517 0001:00031EA8
   518 0001:00031EC9   519 0001:00031ED7   520 0001:00031EE9   521 0001:00031EFA
   522 0001:00031F08   523 0001:00031F15   524 0001:00031F1E   525 0001:00031F2A
   526 0001:00031F36   527 0001:00031F42   528 0001:00031F4E   529 0001:00031F5A
   530 0001:00031F66   531 0001:00031F72   533 0001:00031F7E   534 0001:00031F90
   536 0001:00031FB2   537 0001:00031FC7   538 0001:00031FCF   539 0001:00031FEF
   541 0001:00031FFC   542 0001:00032004   543 0001:00032012   544 0001:0003203D
   545 0001:00032065   546 0001:00032091   547 0001:000320C6   548 0001:00032106
   549 0001:00032152   550 0001:00032184   552 0001:00032195   553 0001:000321A3
   554 0001:000321E2   555 0001:00032213   556 0001:00032248   557 0001:000322C4
   558 0001:000322F6   560 0001:00032307   561 0001:0003231C   562 0001:00032337
   563 0001:0003233F   564 0001:0003234D   565 0001:0003237E   566 0001:000323AF
   567 0001:000323E4   568 0001:0003241B   569 0001:0003244D   570 0001:0003245E
   573 0001:0003246D   574 0001:0003247B   575 0001:000324BA   576 0001:000324EB
   577 0001:00032520   578 0001:0003259C   579 0001:000325CE   581 0001:000325DF
   582 0001:000325F4   583 0001:0003260F   584 0001:00032617   585 0001:00032625
   586 0001:00032656   587 0001:00032687   588 0001:000326BC   589 0001:000326F3
   590 0001:00032725   591 0001:00032736   594 0001:00032745   595 0001:0003275A
   596 0001:00032775   597 0001:0003277D   598 0001:0003278B   599 0001:000327BC
   600 0001:000327ED   601 0001:00032822   602 0001:00032859   603 0001:0003288B
   604 0001:0003289C   607 0001:000328A9   608 0001:000328BE   609 0001:000328D9
   610 0001:000328E1   611 0001:000328EF   612 0001:00032920   613 0001:00032951
   614 0001:00032986   615 0001:000329BD   616 0001:000329EF   617 0001:00032A00
   620 0001:00032A0F   621 0001:00032A1D   622 0001:00032A5C   623 0001:00032A8D
   624 0001:00032AC2   625 0001:00032AF9   626 0001:00032B2B   628 0001:00032B3C
   629 0001:00032B51   630 0001:00032B6C   631 0001:00032B74   632 0001:00032B82
   633 0001:00032BB3   634 0001:00032BE4   635 0001:00032C19   636 0001:00032C50
   637 0001:00032C82   638 0001:00032C93   641 0001:00032CA2   642 0001:00032CB0
   643 0001:00032CEF   644 0001:00032D20   645 0001:00032D55   646 0001:00032D8C
   647 0001:00032DBE   649 0001:00032DCF   540 0001:00032DD7   653 0001:00032DF4
   654 0001:00032E02   655 0001:00032E12   657 0001:00032E22   660 0001:0003320C
   661 0001:0003320F   662 0001:00033216   663 0001:0003321F   668 0001:00033224
   669 0001:00033245   670 0001:0003325B   672 0001:0003326F   673 0001:0003327D
   674 0001:000332C1   675 0001:000332CF   676 0001:0003330A   677 0001:00033345
   681 0001:00033363   682 0001:00033381   685 0001:0003339A   688 0001:0003340C
   689 0001:0003340F   690 0001:00033420   691 0001:00033431   692 0001:0003343F
   697 0001:00033444   698 0001:0003346F   699 0001:00033480   700 0001:000334AE
   701 0001:000334DE   702 0001:000334F2   703 0001:00033503   704 0001:0003354E
   705 0001:0003355A   706 0001:00033571   709 0001:000335EC   710 0001:00033623
   711 0001:00033638   712 0001:00033646   713 0001:00033679   715 0001:00033695
   717 0001:000336B0   726 0001:000336F0   727 0001:000336F3   728 0001:000336FD
   731 0001:00033700   732 0001:00033703   733 0001:0003370D   738 0001:00033710
   739 0001:00033733   740 0001:0003374B   741 0001:00033751   742 0001:00033760
   743 0001:0003376E   744 0001:00033783   745 0001:0003378F   746 0001:0003379E
   748 0001:000337AF   751 0001:000337BF   759 0001:000337E8   760 0001:0003381B
   762 0001:0003385E   763 0001:00033868   764 0001:00033877   765 0001:00033886
   766 0001:00033894   767 0001:00033898   768 0001:000338A0   770 0001:000338B8
   772 0001:000338C8   773 0001:000338D9   774 0001:000338E7   775 0001:000338EF
   776 0001:0003390A   777 0001:00033916   778 0001:00033921   779 0001:00033929
   780 0001:00033941   781 0001:00033949   782 0001:00033954   783 0001:00033960
   784 0001:00033973   785 0001:00033988   787 0001:00033996   789 0001:000339A7
   769 0001:000339B7   792 0001:000339C1   794 0001:000339D2   795 0001:000339DA
   798 0001:000339EA   806 0001:00033A1C   823 0001:00033A1F   824 0001:00033A27
   825 0001:00033A2A   826 0001:00033A2C   823 0001:00033A2D   828 0001:00033A31
   835 0001:00033A34   836 0001:00033A8D   837 0001:00033A9B   838 0001:00033AA4
   839 0001:00033ADE   840 0001:00033AE3   841 0001:00033AE8   842 0001:00033AF3
   843 0001:00033B0D   844 0001:00033B1E   846 0001:00033B31   848 0001:00033B3E
   849 0001:00033B4C   850 0001:00033B60   851 0001:00033B7B   852 0001:00033B96
   853 0001:00033BB1   854 0001:00033BBF   855 0001:00033BC8   856 0001:00033BD2
   857 0001:00033BDE   858 0001:00033BF9   859 0001:00033C14   860 0001:00033C29
   861 0001:00033C3E   862 0001:00033C49   863 0001:00033C54   864 0001:00033C5C
   866 0001:00033C66   868 0001:00033C7A   870 0001:00033CB8   872 0001:00033CF4
   874 0001:00033D44   875 0001:00033D4E   876 0001:00033D59   877 0001:00033D65
   881 0001:00033D7C   882 0001:00033D88   885 0001:00033D95   886 0001:00033D9F
   889 0001:00033DBA   890 0001:00033DC4   891 0001:00033DCF   892 0001:00033DDB
   896 0001:00033DF2   897 0001:00033DFE   900 0001:00033E0B   901 0001:00033E15
   904 0001:00033E30   905 0001:00033E3C   909 0001:00033E67   910 0001:00033E71
   913 0001:00033E8E   914 0001:00033E9A   917 0001:00033EA7   918 0001:00033EB1
   921 0001:00033ECC   922 0001:00033ED6   923 0001:00033EE1   924 0001:00033EE6
   925 0001:00033EEB   929 0001:00033EFB   930 0001:00033F07   933 0001:00033F14
   934 0001:00033F1E   937 0001:00033F39   938 0001:00033F47   939 0001:00033F4D
   940 0001:00033F58   941 0001:00033F5D   942 0001:00033F62   945 0001:00033F7A
   946 0001:00033F8A   947 0001:00033F9A   948 0001:00033FAA   949 0001:00033FBA
   950 0001:00033FCA   955 0001:00034000   956 0001:00034002   957 0001:00034006
   958 0001:00034045   959 0001:0003404B   960 0001:00034051   961 0001:00034057
   962 0001:0003405D   964 0001:00034061   968 0001:0003407F   969 0001:00034088
   970 0001:00034099   845 0001:000340AF   975 0001:000340D2   977 0001:000340E4

Line numbers for BisDesignExchangeFm(imdesign.bpl\BisDesignExchangeFm.pas) segment .itext

   979 0002:000004DC

Line numbers for BisDesignDataAlarmEditFm(imdesign.bpl\BisDesignDataAlarmEditFm.pas) segment .text

    69 0001:00034B60    70 0001:00034B66    71 0001:00034B6D    72 0001:00034B79
    73 0001:00034B88    74 0001:00034B97    76 0001:00034BA3    81 0001:00034BE4
    82 0001:00034BF7    83 0001:00034C00    84 0001:00034C08    85 0001:00034C0E
    86 0001:00034C26    87 0001:00034C34    88 0001:00034C4C    90 0001:00034C80
    91 0001:00034C9A    92 0001:00034CB2    93 0001:00034CD8    94 0001:00034CF5
    96 0001:00034D12   101 0001:00034FD8   102 0001:00034FEA   103 0001:00034FF3
   104 0001:00035003   105 0001:00035010   110 0001:00035058   111 0001:0003506A
   112 0001:00035073   113 0001:00035083   114 0001:00035090   119 0001:000350D8
   120 0001:000350EA   121 0001:000350F3   122 0001:00035103   123 0001:00035110
   130 0001:00035158   131 0001:0003517E   133 0001:00035187   134 0001:00035195
   135 0001:00035197   134 0001:000351B6   137 0001:000351BB   140 0001:000351F8
   141 0001:0003521A   142 0001:00035221   143 0001:00035230   144 0001:0003523C
   145 0001:00035260   146 0001:00035287   147 0001:000352B9   150 0001:000352E6
   151 0001:000352ED

Line numbers for BisDesignDataAlarmEditFm(imdesign.bpl\BisDesignDataAlarmEditFm.pas) segment .itext

   153 0002:000004E4

Line numbers for BisDesignDataAlarmFilterFm(imdesign.bpl\BisDesignDataAlarmFilterFm.pas) segment .text

    46 0001:00035884    47 0001:0003589C    48 0001:000358A5    49 0001:000358AD
    50 0001:000358B3    52 0001:000358B7    53 0001:000358CC    55 0001:000358E1
    56 0001:00035900    57 0001:00035907    60 0001:00035917    61 0001:00035936
    62 0001:0003593D    66 0001:0003594D    67 0001:0003595A    74 0001:00035AA8
    75 0001:00035AC8    76 0001:00035AD9    77 0001:00035AE7    78 0001:00035AEB
    79 0001:00035B18    80 0001:00035B48    81 0001:00035B5E    82 0001:00035B8B
    85 0001:00035BC8    87 0001:00035BD8    94 0001:00035C1C    95 0001:00035C3C
    96 0001:00035C4D    97 0001:00035C5B    98 0001:00035C5F    99 0001:00035C8C
   100 0001:00035CBC   101 0001:00035CD2   102 0001:00035CFF   105 0001:00035D3C
   107 0001:00035D4C

Line numbers for BisDesignDataAlarmFilterFm(imdesign.bpl\BisDesignDataAlarmFilterFm.pas) segment .itext

   109 0002:000004EC

Line numbers for BisDesignDataAlarmsFm(imdesign.bpl\BisDesignDataAlarmsFm.pas) segment .text

    41 0001:0003618C    42 0001:000361A3    43 0001:000361AC    44 0001:000361B4
    45 0001:000361BF    46 0001:000361CC    47 0001:000361D7    48 0001:000361E2
    50 0001:000361E9    51 0001:000361F9    52 0001:000361FF    53 0001:0003620B
    54 0001:00036217    55 0001:00036223    56 0001:0003622F    57 0001:0003623B
    58 0001:00036247    59 0001:0003625A    60 0001:0003626D    61 0001:0003628A
    62 0001:000362A0    64 0001:000362B3    65 0001:000362C5    70 0001:00036448
    71 0001:00036464    72 0001:0003646B    73 0001:00036484    74 0001:00036495
    75 0001:0003649F    82 0001:000364E8    83 0001:0003651E    84 0001:00036527
    86 0001:00036536    88 0001:0003654E    90 0001:00036567    91 0001:0003657A
    92 0001:00036589    93 0001:000365AF    95 0001:000365E6    98 0001:000365EF
    99 0001:00036602   103 0001:00036635

Line numbers for BisDesignDataAlarmsFm(imdesign.bpl\BisDesignDataAlarmsFm.pas) segment .itext

   105 0002:000004F4

Line numbers for BisDesign(imdesign.bpl\BisDesign.pas) segment .text

    30 0001:000366E4    31 0001:000366EB    34 0001:00036707    35 0001:00036711
    37 0001:0003671F    38 0001:0003672D    39 0001:0003673B    40 0001:00036749
    41 0001:00036757    42 0001:00036765    43 0001:00036773    44 0001:00036781
    45 0001:0003678F    46 0001:0003679D    47 0001:000367AB    48 0001:000367B9
    49 0001:000367C7    50 0001:000367D5    51 0001:000367E3    52 0001:000367F1
    53 0001:000367FF    54 0001:0003680D    55 0001:0003681B    57 0001:00036829
    59 0001:00036837    61 0001:00036845    62 0001:00036853    65 0001:00036861

Line numbers for BisDesign(imdesign.bpl\BisDesign.pas) segment .itext

    67 0002:000004FC

Line numbers for .imdesign(imdesign.dpk) segment .itext

    91 0002:00000504

Bound resource files

c:\program files\codegear\rad studio\5.0\lib\WindowsXP.res
BisDesignMainFm.dfm
BisDesignDataFirmTypeEditFm.dfm
BisDesignDataFirmTypesFm.dfm
BisDesignDataLocalitiesFrm.dfm
BisDesignDataLocalityEditFm.dfm
BisDesignDataLocalitiesFm.dfm
BisDesignDataStreetEditFm.dfm
BisDesignDataStreetsFm.dfm
BisDesignDataFirmEditFm.dfm
BisDesignDataFirmsFm.dfm
BisDesignDataAccountEditFm.dfm
BisDesignDataAccountsFm.dfm
BisDesignDataRoleEditFm.dfm
BisDesignDataRolesFm.dfm
BisDesignDataRolesAndAccountsFm.dfm
BisDesignDataApplicationEditFm.dfm
BisDesignDataInterfaceFilterFm.dfm
BisDesignDataInterfaceEditFm.dfm
BisDesignDataInterfacesFm.dfm
BisDesignDataReportEditFm.dfm
BisDesignDataScriptEditFm.dfm
BisDesignDataDocumentEditFm.dfm
BisDesignDataInterfacesFrm.dfm
BisDesignDataPermissionEditFm.dfm
BisDesignDataPermissionsFm.dfm
BisDesignDataApplicationInterfaceEditFm.dfm
BisDesignDataApplicationInterfacesFm.dfm
BisDesignDataApplicationsFrm.dfm
BisDesignDataApplicationsFm.dfm
BisDesignDataAccountRoleEditFm.dfm
BisDesignDataAccountRolesFm.dfm
BisDesignDataProfileEditFm.dfm
BisDesignDataProfilesFm.dfm
BisDesignDataSessionsFm.dfm
BisDesignDataMenuEditFm.dfm
BisDesignDataMenusFm.dfm
BisDesignDataReportsFrm.dfm
BisDesignDataReportsFm.dfm
BisDesignDataScriptsFrm.dfm
BisDesignDataScriptsFm.dfm
BisDesignJournalActionEditFm.dfm
BisDesignJournalActionsFm.dfm
BisDesignDataDocumentsFm.dfm
BisDesignDataConstEditFm.dfm
BisDesignDataConstsFm.dfm
BisDesignDataLockEditFm.dfm
BisDesignDataLocksFm.dfm
BisDesignDataTaskEditFm.dfm
BisDesignDataTasksFrm.dfm
BisDesignDataTasksFm.dfm
BisDesignDataExchangeEditFm.dfm
BisDesignDataExchangesFm.dfm
BisDesignExchangeFm.dfm
BisDesignDataAlarmEditFm.dfm
BisDesignDataAlarmFilterFm.dfm
BisDesignDataAlarmsFm.dfm
imdesign.res
imdesign.drf


Program entry point at 0002:00000504
