
 Start         Length     Name                   Class
 0001:00401000 0004AFB0H .text                   CODE
 0002:0044C000 000003F8H .itext                  ICODE
 0003:0044D000 00001140H .data                   DATA
 0004:0044F000 00004A04H .bss                    BSS
 0005:00000000 0000000CH .tls                    TLS


Detailed map of segments

 0001:00000000 000057B1 C=CODE     S=.text    G=(none)   M=System   ACBP=A9
 0001:000057B4 00000105 C=CODE     S=.text    G=(none)   M=SysInit  ACBP=A9
 0001:000058BC 000002E0 C=CODE     S=.text    G=(none)   M=SysConst ACBP=A9
 0001:00005B9C 0000016C C=CODE     S=.text    G=(none)   M=Windows  ACBP=A9
 0001:00005D08 00006101 C=CODE     S=.text    G=(none)   M=SysUtils ACBP=A9
 0001:0000BE0C 00000052 C=CODE     S=.text    G=(none)   M=ActiveX  ACBP=A9
 0001:0000BE60 000007FE C=CODE     S=.text    G=(none)   M=VarUtils ACBP=A9
 0001:0000C660 000080E0 C=CODE     S=.text    G=(none)   M=Variants ACBP=A9
 0001:00014740 00000020 C=CODE     S=.text    G=(none)   M=RTLConsts ACBP=A9
 0001:00014760 000009B7 C=CODE     S=.text    G=(none)   M=TypInfo  ACBP=A9
 0001:00015118 00000D15 C=CODE     S=.text    G=(none)   M=Classes  ACBP=A9
 0001:00015E30 000017B1 C=CODE     S=.text    G=(none)   M=uPSUtils ACBP=A9
 0001:000175E4 0001AC45 C=CODE     S=.text    G=(none)   M=uPSCompiler ACBP=A9
 0001:0003222C 000005A6 C=CODE     S=.text    G=(none)   M=uPSC_dll ACBP=A9
 0001:000327D4 00000020 C=CODE     S=.text    G=(none)   M=ComConst ACBP=A9
 0001:000327F4 00000E07 C=CODE     S=.text    G=(none)   M=ComObj   ACBP=A9
 0001:000335FC 0001709C C=CODE     S=.text    G=(none)   M=uPSRuntime ACBP=A9
 0001:0004A698 00000750 C=CODE     S=.text    G=(none)   M=uPSR_dll ACBP=A9
 0001:0004ADE8 000001C8 C=CODE     S=.text    G=(none)   M=sample3  ACBP=A9
 0002:00000000 00000095 C=ICODE    S=.itext   G=(none)   M=System   ACBP=A9
 0002:00000098 00000011 C=ICODE    S=.itext   G=(none)   M=Windows  ACBP=A9
 0002:000000AC 00000088 C=ICODE    S=.itext   G=(none)   M=SysUtils ACBP=A9
 0002:00000134 0000000F C=ICODE    S=.itext   G=(none)   M=VarUtils ACBP=A9
 0002:00000144 000000AA C=ICODE    S=.itext   G=(none)   M=Variants ACBP=A9
 0002:000001F0 00000008 C=ICODE    S=.itext   G=(none)   M=TypInfo  ACBP=A9
 0002:000001F8 00000092 C=ICODE    S=.itext   G=(none)   M=Classes  ACBP=A9
 0002:0000028C 00000008 C=ICODE    S=.itext   G=(none)   M=uPSUtils ACBP=A9
 0002:00000294 00000011 C=ICODE    S=.itext   G=(none)   M=uPSC_dll ACBP=A9
 0002:000002A8 00000055 C=ICODE    S=.itext   G=(none)   M=ComObj   ACBP=A9
 0002:00000300 000000F8 C=ICODE    S=.itext   G=(none)   M=sample3  ACBP=A9
 0003:00000000 00000790 C=DATA     S=.data    G=DGROUP   M=System   ACBP=A9
 0003:00000790 00000020 C=DATA     S=.data    G=DGROUP   M=SysInit  ACBP=A9
 0003:000007B0 0000022C C=DATA     S=.data    G=DGROUP   M=SysUtils ACBP=A9
 0003:000009DC 00000010 C=DATA     S=.data    G=DGROUP   M=ActiveX  ACBP=A9
 0003:000009EC 00000110 C=DATA     S=.data    G=DGROUP   M=VarUtils ACBP=A9
 0003:00000AFC 000001B6 C=DATA     S=.data    G=DGROUP   M=Variants ACBP=A9
 0003:00000CB4 0000000C C=DATA     S=.data    G=DGROUP   M=TypInfo  ACBP=A9
 0003:00000CC0 00000004 C=DATA     S=.data    G=DGROUP   M=Classes  ACBP=A9
 0003:00000CC4 00000208 C=DATA     S=.data    G=DGROUP   M=uPSUtils ACBP=A9
 0003:00000ECC 00000020 C=DATA     S=.data    G=DGROUP   M=uPSCompiler ACBP=A9
 0003:00000EEC 00000030 C=DATA     S=.data    G=DGROUP   M=ComObj   ACBP=A9
 0003:00000F1C 00000008 C=DATA     S=.data    G=DGROUP   M=uPSRuntime ACBP=A9
 0004:00000000 000027F4 C=BSS      S=.bss     G=DGROUP   M=System   ACBP=A9
 0004:000027F4 0000000C C=BSS      S=.bss     G=DGROUP   M=SysInit  ACBP=A9
 0004:00002800 00000008 C=BSS      S=.bss     G=DGROUP   M=Windows  ACBP=A9
 0004:00002808 00002108 C=BSS      S=.bss     G=DGROUP   M=SysUtils ACBP=A9
 0004:00004910 0000005C C=BSS      S=.bss     G=DGROUP   M=VarUtils ACBP=A9
 0004:0000496C 00000040 C=BSS      S=.bss     G=DGROUP   M=Variants ACBP=A9
 0004:000049AC 00000004 C=BSS      S=.bss     G=DGROUP   M=TypInfo  ACBP=A9
 0004:000049B0 00000034 C=BSS      S=.bss     G=DGROUP   M=Classes  ACBP=A9
 0004:000049E4 00000004 C=BSS      S=.bss     G=DGROUP   M=uPSUtils ACBP=A9
 0004:000049E8 00000008 C=BSS      S=.bss     G=DGROUP   M=uPSC_dll ACBP=A9
 0004:000049F0 00000011 C=BSS      S=.bss     G=DGROUP   M=ComObj   ACBP=A9
 0005:00000000 00000008 C=TLS      S=.tls     G=(none)   M=System   ACBP=A9
 0005:00000008 00000004 C=TLS      S=.tls     G=(none)   M=Classes  ACBP=A9


  Address             Publics by Name

 0001:0000BE40       ActiveX.CoInitialize
 0001:0000BE48       ActiveX.CoUninitialize
 0001:0000BE58       ActiveX.GetErrorInfo
 0003:000009DC       ActiveX.GUID_NULL
 0001:0000BE50       ActiveX.SysFreeString
 0004:000049B8       Classes..95
 0001:00015118       Classes..EListError
 0001:00015170       Classes..TList
 0001:0001522C       Classes..TPersistent
 0001:000152C8       Classes..TRegGroup
 0001:00015320       Classes..TRegGroups
 0001:000151D4       Classes..TThreadList
 0002:000001F8       Classes.Classes
 0001:00015CF4       Classes.DoneThreadSynchronization
 0001:00015D80       Classes.Finalization
 0004:000049C4       Classes.FindGlobalComponentProcs
 0001:00015D0C       Classes.FreeIntConstList
 0004:000049C8       Classes.GlobalFixupList
 0005:00000008       Classes.GlobalLists
 0004:000049B0       Classes.GlobalNameSpace
 0001:00015CC0       Classes.InitThreadSynchronization
 0004:000049BC       Classes.IntConstList
 0001:00015D78       Classes.ModuleUnload
 0001:00015414       Classes.PointerInModule
 0004:000049C0       Classes.RegGroups
 0001:00015B90       Classes.RemoveFixupReferences
 0001:00015C3C       Classes.RemoveFixups
 0001:00015730       Classes.ReturnAddr
 0004:000049B4       Classes.SyncEvent
 0003:00000CC0       Classes.SyncList
 0004:000049CC       Classes.ThreadLock
 0001:00015688       Classes.TList.Add
 0001:000156BC       Classes.TList.Clear
 0001:000156D4       Classes.TList.Delete
 0001:00015668       Classes.TList.Destroy
 0001:0001576C       Classes.TList.Error
 0001:00015734       Classes.TList.Error
 0001:000157C0       Classes.TList.Get
 0001:000157E8       Classes.TList.Grow
 0001:000158CC       Classes.TList.Notify
 0001:0001581C       Classes.TList.SetCapacity
 0001:00015858       Classes.TList.SetCount
 0001:000159EC       Classes.TPersistent.Assign
 0001:00015A00       Classes.TPersistent.AssignError
 0001:00015AD0       Classes.TPersistent.AssignTo
 0001:00015AD8       Classes.TPersistent.DefineProperties
 0001:000159C0       Classes.TPersistent.Destroy
 0001:00015ADC       Classes.TPersistent.GetNamePath
 0001:00015B8C       Classes.TPersistent.GetOwner
 0001:00015378       Classes.TRegGroup.Create
 0001:000153D4       Classes.TRegGroup.Destroy
 0001:00015434       Classes.TRegGroup.UnregisterModuleClasses
 0001:000154E0       Classes.TRegGroups.Create
 0001:00015554       Classes.TRegGroups.Destroy
 0001:000155B4       Classes.TRegGroups.Lock
 0001:000155C0       Classes.TRegGroups.Unlock
 0001:000155CC       Classes.TRegGroups.UnregisterModuleClasses
 0001:000158D0       Classes.TThreadList.Create
 0001:00015924       Classes.TThreadList.Destroy
 0001:000159A0       Classes.TThreadList.LockList
 0001:000159B4       Classes.TThreadList.UnlockList
 0001:0001561C       Classes.UnRegisterModuleClasses
 0004:000049F0       ComObj..41
 0001:000327F4       ComObj..EOleError
 0001:000328A8       ComObj..EOleException
 0001:0003284C       ComObj..EOleSysError
 0001:00033330       ComObj.ClearExcepInfo
 0003:00000EF4       ComObj.CoAddRefServerProcess
 0003:00000EEC       ComObj.CoCreateInstanceEx
 0003:00000F04       ComObj.CoInitFlags
 0003:00000EF0       ComObj.CoInitializeEx
 0004:000049F8       ComObj.ComClassManagerVar
 0002:000002A8       ComObj.ComObj
 0003:00000EF8       ComObj.CoReleaseServerProcess
 0003:00000EFC       ComObj.CoResumeClassObjects
 0003:00000F00       ComObj.CoSuspendClassObjects
 0001:00032D4C       ComObj.DispatchInvoke
 0001:00033324       ComObj.DispatchInvokeError
 0001:00033340       ComObj.DispCall
 0001:00033424       ComObj.DispCallByID
 0001:00033250       ComObj.DispCallError
 0001:00032A84       ComObj.EOleException.Create
 0001:000329B0       ComObj.EOleSysError.Create
 0001:0003357C       ComObj.Finalization
 0001:000330BC       ComObj.GetIDsOfNames
 0001:00033500       ComObj.InitComObj
 0001:00032B48       ComObj.LoadComExProcs
 0004:00004A00       ComObj.NeedToUninitialize
 0001:00032B38       ComObj.OleCheck
 0001:00032B1C       ComObj.OleError
 0004:000049F4       ComObj.OleUninitializing
 0001:0003319C       ComObj.RaiseException
 0001:00033088       ComObj.RaiseNameException
 0001:00032C4C       ComObj.SafeCallError
 0004:000049FC       ComObj.SaveInitProc
 0003:00000F08       ComObj.ThreadStrs
 0001:00032960       ComObj.TrimPunctuation
 0001:000331B4       ComObj.VarDispInvoke
 0001:0004AE20       sample3.ExecuteScript
 0001:0004AED0       sample3.Finalization
 0002:00000300       sample3.sample3
 0001:0004ADE8       sample3.ScriptOnUses
 0001:0000582C       SysInit.@GetTls
 0001:00005878       SysInit.@InitExe
 0001:000057D4       SysInit.AllocTlsBuffer
 0001:000057B4       SysInit.GetModuleHandle
 0001:000057E0       SysInit.GetTlsSize
 0004:000027F8       SysInit.HInstance
 0001:0000586C       SysInit.InitializeModule
 0001:000057E8       SysInit.InitThreadTLS
 0001:000057BC       SysInit.LocalAlloc
 0003:00000798       SysInit.Module
 0004:000027F5       SysInit.ModuleIsCpp
 0004:000027F4       SysInit.ModuleIsLib
 0003:00000794       SysInit.PtrToNil
 0004:000027FC       SysInit.tlsBuffer
 0001:000057C4       SysInit.TlsGetValue
 0003:00000790       SysInit.TlsIndex
 0005:0000000C       SysInit.TlsLast
 0001:000057CC       SysInit.TlsSetValue
 0004:000005B8       System..6
 0001:00000100       System..TInterfacedObject
 0001:0000003C       System..TObject
 0001:0000213C       System.@AbstractError
 0001:00002D24       System.@AfterConstruction
 0001:00002C10       System.@AsClass
 0001:00002288       System.@AStrCmp
 0001:00002D74       System.@BeforeDestruction
 0001:000029CC       System.@BoundErr
 0001:00002C5C       System.@CallDynaInst
 0001:00002CCC       System.@ClassCreate
 0001:00002D1C       System.@ClassDestroy
 0001:000021AC       System.@Close
 0001:00001F40       System.@Copy
 0001:00004694       System.@CopyArray
 0001:00004578       System.@CopyRecord
 0001:00004800       System.@DispCallByIDError
 0001:000047A0       System.@Dispose
 0001:00003298       System.@DoneExcept
 0001:00004D98       System.@DynArrayAsg
 0001:00004D5C       System.@DynArrayClear
 0001:00004B9C       System.@DynArrayHigh
 0001:00004B94       System.@DynArrayLength
 0001:00004D50       System.@DynArraySetLength
 0001:00003380       System.@ExceptionHandler
 0001:000022F8       System.@FillChar
 0001:00004554       System.@Finalize
 0001:00004468       System.@FinalizeArray
 0001:0000441C       System.@FinalizeRecord
 0001:000029C0       System.@FpuInit
 0001:000028FC       System.@FpuMaskInit
 0001:00001DD0       System.@FreeMem
 0001:00001DB4       System.@GetMem
 0001:000037BC       System.@Halt
 0001:000036E0       System.@Halt0
 0001:00002E88       System.@HandleAnyException
 0001:0000313C       System.@HandleFinally
 0001:000031E4       System.@HandleFinallyInternal
 0001:00002FB4       System.@HandleOnException
 0001:00004410       System.@Initialize
 0001:0000437C       System.@InitializeArray
 0001:0000434C       System.@InitializeRecord
 0001:0000359C       System.@InitImports
 0001:00003574       System.@InitResStringImports
 0001:00005470       System.@IntfAddRef
 0001:0000542C       System.@IntfClear
 0001:00005444       System.@IntfCopy
 0001:000029D4       System.@IntOver
 0001:00002BEC       System.@IsClass
 0001:000028CC       System.@isNECWindows
 0001:00003C64       System.@LStrAddRef
 0001:000037F8       System.@LStrArrayClr
 0001:00003828       System.@LStrAsg
 0001:00003AB0       System.@LStrCat
 0001:00003AFC       System.@LStrCat3
 0001:00003B78       System.@LStrCatN
 0001:000037D4       System.@LStrClr
 0001:00003C0C       System.@LStrCmp
 0001:00003CDC       System.@LStrCopy
 0001:00003D1C       System.@LStrDelete
 0001:00003A54       System.@LStrFromArray
 0001:000039BC       System.@LStrFromChar
 0001:000039DC       System.@LStrFromPChar
 0001:000038C4       System.@LStrFromPCharLen
 0001:00003A0C       System.@LStrFromPWChar
 0001:00003930       System.@LStrFromPWCharLen
 0001:00003A48       System.@LStrFromString
 0001:000039CC       System.@LStrFromWChar
 0001:00003A6C       System.@LStrFromWStr
 0001:00003D64       System.@LStrInsert
 0001:0000386C       System.@LStrLAsg
 0001:00003AA4       System.@LStrLen
 0001:00003F04       System.@LStrSetLength
 0001:00003C74       System.@LStrToPChar
 0001:00003A80       System.@LStrToString
 0001:0000478C       System.@New
 0001:00003898       System.@NewAnsiString
 0001:00003F9C       System.@NewWideString
 0001:000025E0       System.@Pow10
 0001:00002204       System.@PStrCmp
 0001:00003244       System.@RaiseAgain
 0001:0000321C       System.@RaiseExcept
 0001:00001DE8       System.@ReallocMem
 0001:0000210C       System.@ROUND
 0001:000037C8       System.@RunError
 0001:00003534       System.@StartExe
 0001:000023F4       System.@Str0Long
 0001:00000208       System.@strlen
 0001:00002394       System.@StrLong
 0001:00002118       System.@TRUNC
 0001:000032C8       System.@TryFinallyExit
 0001:00003CD4       System.@UniqueStringA
 0001:000024D4       System.@ValExt
 0001:0000497C       System.@ValInt64
 0001:00002400       System.@ValLong
 0001:00004450       System.@VarClr
 0001:00004560       System.@VarCopy
 0001:00003FDC       System.@WStrArrayClr
 0001:00004000       System.@WStrAsg
 0001:00004190       System.@WStrCat
 0001:000041F0       System.@WStrCatN
 0001:00003FC4       System.@WStrClr
 0001:00004238       System.@WStrCmp
 0001:000042BC       System.@WStrCopy
 0001:000040D8       System.@WStrFromChar
 0001:00004164       System.@WStrFromLStr
 0001:000040F8       System.@WStrFromPChar
 0001:00004028       System.@WStrFromPCharLen
 0001:00004128       System.@WStrFromPWChar
 0001:000040B4       System.@WStrFromPWCharLen
 0001:000040E8       System.@WStrFromWChar
 0001:00004184       System.@WStrLen
 0001:00004308       System.@WStrSetLength
 0001:00004174       System.@WStrToPWChar
 0001:00001F10       System.@_IOTest
 0001:0000482C       System.@_lldiv
 0001:000048C0       System.@_llmod
 0001:00004808       System.@_llmul
 0001:0000493C       System.@_llshl
 0001:0000495C       System.@_llushr
 0004:0000002C       System.AbstractErrorProc
 0001:00001E78       System.AcquireExceptionObject
 0001:000052CC       System.AddModuleUnloadProc
 0001:000052BC       System.AddModuleUnloadProc
 0001:0000066C       System.AllocateLargeBlock
 0001:00001D9C       System.AllocMem
 0001:000005AC       System.AllocNewSequentialFeedMediumPool
 0004:000005C0       System.AllocSize2SmallBlockTypeIndX4
 0001:00001340       System.AppendStringToBuffer
 0004:00000024       System.AssertErrorProc
 0001:00000540       System.BinMediumSequentialFeedRemainder
 0001:00001B4C       System.BuildBlockTypeLookupTable
 0001:00001224       System.CardinalToStrBuf
 0001:000038F4       System.CharFromWChar
 0001:00000188       System.CharNext
 0001:00002E04       System.CheckJmp
 0001:00001588       System.CheckSmallBlockPoolForLeaks
 0004:00000040       System.CmdLine
 0004:0000003C       System.CmdShow
 0001:00004BA4       System.CopyArray
 0003:00000038       System.Copyright
 0001:000020DC       System.Cos
 0003:00000024       System.DebugHook
 0003:00000020       System.Default8087CW
 0004:000005BC       System.DefaultSystemCodePage
 0001:00004DE8       System.DelayLoadResourceModule
 0001:000002AC       System.DestroyWindow
 0003:00000780       System.dig
 0004:00000000       System.DispCallByIDProc
 0001:00004BBC       System.DynArrayClear
 0001:00004BC4       System.DynArraySetLength
 0003:00000758       System.errCaption
 0001:00001F04       System.Error
 0003:00000004       System.ErrorAddr
 0001:00001EB8       System.ErrorAt
 0004:00000008       System.ErrorProc
 0004:000003E8       System.ErrOutput
 0001:00001E58       System.ExceptAddr
 0004:0000000C       System.ExceptClsProc
 0004:0000001C       System.ExceptionClass
 0001:00001E38       System.ExceptObject
 0004:00000010       System.ExceptObjProc
 0004:00000004       System.ExceptProc
 0003:00000000       System.ExitCode
 0001:00003624       System.ExitDll
 0004:00000048       System.ExitProc
 0001:00000190       System.ExitProcess
 0004:00000028       System.ExitProcessProc
 0004:000027BC       System.ExpectedMemoryLeaks
 0004:000027C0       System.ExpectedMemoryLeaksListLocked
 0003:00000008       System.FileMode
 0001:00005754       System.Finalization
 0001:00004BB4       System.FinalizeArray
 0001:00001D48       System.FinalizeMemoryManager
 0001:00003468       System.FinalizeUnits
 0001:00004E68       System.FindBS
 0001:000001A0       System.FindClose
 0001:000001A8       System.FindFirstFile
 0001:00004DC0       System.FindHInstance
 0001:00004E30       System.FindResourceHInstance
 0001:000021A0       System.Flush
 0001:000025D8       System.FPower10
 0001:00001CB8       System.FreeAllMemory
 0001:000006D0       System.FreeLargeBlock
 0001:000001B0       System.FreeLibrary
 0001:0000574C       System.GetACP
 0001:00000270       System.GetCmdShow
 0001:000001B8       System.GetCommandLine
 0001:00000268       System.GetCurrentThreadId
 0001:00002C2C       System.GetDynaMethod
 0001:000011E8       System.GetFirstAndLastSmallBlockInPool
 0001:000011A8       System.GetFirstMediumBlockInPool
 0001:000028C4       System.GetKeyboardType
 0001:000001C0       System.GetLocaleInfo
 0001:000001C8       System.GetModuleFileName
 0001:000001D0       System.GetModuleHandle
 0001:00001454       System.GetObjectClass
 0001:000001D8       System.GetProcAddress
 0001:000001E0       System.GetStartupInfo
 0001:00000160       System.GetStdHandle
 0001:000001E8       System.GetThreadLocale
 0004:000027C8       System.InitContext
 0001:00001B90       System.InitializeMemoryManager
 0004:00000044       System.InitProc
 0001:000034CC       System.InitUnits
 0005:00000004       System.InOutRes
 0004:00000050       System.Input
 0001:000004E0       System.InsertMediumBlockIntoBin
 0001:000020B0       System.Int
 0001:00000260       System.InterlockedDecrement
 0001:00000258       System.InterlockedIncrement
 0001:00002158       System.InternalFlush
 0001:000013D4       System.InternalIsValidClass
 0001:00003C88       System.InternalUniqueString
 0001:00002AE4       System.InvokeImplGetter
 0001:00001F84       System.IOResult
 0004:0000004C       System.IsConsole
 0004:00000038       System.IsLibrary
 0004:0000004D       System.IsMultiThread
 0001:00001358       System.IsValidVMTAddress
 0003:00000028       System.JITEnable
 0004:000027AC       System.LargeBlocksCircularList
 0004:000027A8       System.LargeBlocksLocked
 0004:0000071C       System.LastSequentiallyFedMediumBlock
 0003:00000030       System.LibModuleList
 0001:000001F0       System.LoadLibraryEx
 0001:0000504C       System.LoadResourceModule
 0001:000056F4       System.LoadResString
 0001:000001F8       System.LoadString
 0001:00000314       System.LockCmpxchg
 0001:0000147C       System.LockExpectedMemoryLeaksList
 0001:00000624       System.LockLargeBlocks
 0001:00000200       System.lstrcpyn
 0004:00000030       System.MainInstance
 0004:00000034       System.MainThreadID
 0001:000035C0       System.MakeErrorMessage
 0001:000032E0       System.MapToRunError
 0004:00000728       System.MediumBlockBinBitmaps
 0004:00000724       System.MediumBlockBinGroupBitmap
 0004:000007A8       System.MediumBlockBins
 0004:00000708       System.MediumBlockPoolsCircularList
 0004:00000718       System.MediumBlocksLocked
 0004:00000720       System.MediumSequentialFeedBytesLeft
 0003:0000071C       System.MemoryManager
 0001:00000198       System.MessageBox
 0004:00000706       System.MinimumBlockAlignment
 0004:000027C4       System.MMSharingWindow
 0003:00000034       System.ModuleUnloadList
 0001:00001FA4       System.Move
 0001:0000031C       System.Move12
 0001:00000330       System.Move20
 0001:00000350       System.Move28
 0001:0000037C       System.Move36
 0001:0000039C       System.Move44
 0001:000003C0       System.Move52
 0001:000003EC       System.Move60
 0001:0000041C       System.Move68
 0001:00000454       System.MoveX16L4
 0001:00000484       System.MoveX8L4
 0001:00000210       System.MultiByteToWideChar
 0004:000005B5       System.NeverSleepOnMMThreadContention
 0001:00001184       System.NextMediumBlock
 0003:0000002C       System.NoErrMsg
 0001:00002DF0       System.NotifyAnyExcept
 0001:00002DC4       System.NotifyExcept
 0001:00002E24       System.NotifyExceptFinally
 0001:00005350       System.NotifyModuleUnload
 0001:00002DA0       System.NotifyNonDelphiException
 0001:00002DDC       System.NotifyOnExcept
 0001:00002D84       System.NotifyReRaise
 0001:00002E4C       System.NotifyTerminate
 0001:00002E68       System.NotifyUnhandled
 0001:000047BC       System.OleStrToStrVar
 0004:0000021C       System.Output
 0001:00003DC0       System.Pos
 0001:00000168       System.RaiseException
 0004:00000014       System.RaiseExceptionProc
 0005:00000000       System.RaiseListPtr
 0001:00000774       System.ReallocateLargeBlock
 0001:00000218       System.RegCloseKey
 0001:000053AC       System.RegisterModule
 0001:00000220       System.RegOpenKeyEx
 0001:00000228       System.RegQueryValueEx
 0003:00000734       System.reMap
 0001:000004A0       System.RemoveMediumFreeBlock
 0001:000052C4       System.RemoveModuleUnloadProc
 0001:000052EC       System.RemoveModuleUnloadProc
 0004:000005B4       System.ReportMemoryLeaksOnShutdown
 0001:00000170       System.RtlUnwind
 0004:00000018       System.RTLUnwindProc
 0003:00000760       System.runErrMsg
 0001:00001EAC       System.RunErrorAt
 0004:00000020       System.SafeCallErrorProc
 0001:000016D4       System.ScanForMemoryLeaks
 0001:00003420       System.SetExceptionHandler
 0001:00001F30       System.SetInOutRes
 0001:000020EC       System.Sin
 0001:000002A4       System.Sleep
 0003:0000003C       System.SmallBlockTypes
 0001:000020FC       System.Sqrt
 0001:00003F68       System.StringOfChar
 0001:000047E0       System.StringToOleStr
 0001:00001154       System.SysAllocMem
 0001:00000240       System.SysAllocStringLen
 0001:00000C44       System.SysFreeMem
 0001:00000250       System.SysFreeString
 0001:000008C0       System.SysGetMem
 0001:00000E3C       System.SysReallocMem
 0001:00000248       System.SysReAllocStringLen
 0001:000014F0       System.SysRegisterExpectedMemoryLeak
 0002:00000000       System.System
 0001:00001530       System.SysUnregisterExpectedMemoryLeak
 0003:00000750       System.Ten
 0004:0000004E       System.Test8086
 0001:0000547C       System.TInterfacedObject.AfterConstruction
 0001:00005488       System.TInterfacedObject.BeforeDestruction
 0001:00005498       System.TInterfacedObject.NewInstance
 0001:000054A8       System.TInterfacedObject.QueryInterface
 0001:000054D0       System.TInterfacedObject._AddRef
 0001:000054E4       System.TInterfacedObject._Release
 0001:00002C9C       System.TObject.AfterConstruction
 0001:00002CA0       System.TObject.BeforeDestruction
 0001:00002C88       System.TObject.ClassInfo
 0001:000029E4       System.TObject.ClassName
 0001:000029DC       System.TObject.ClassType
 0001:00002AC4       System.TObject.CleanupInstance
 0001:00002A30       System.TObject.Create
 0001:00002C98       System.TObject.DefaultHandler
 0001:00002A50       System.TObject.Destroy
 0001:00002CA4       System.TObject.Dispatch
 0001:00002A60       System.TObject.Free
 0001:00002A14       System.TObject.FreeInstance
 0001:00002B14       System.TObject.GetInterface
 0001:00002BA8       System.TObject.GetInterfaceEntry
 0001:00002C74       System.TObject.InheritsFrom
 0001:00002A6C       System.TObject.InitInstance
 0001:00002A28       System.TObject.InstanceSize
 0001:000029F8       System.TObject.NewInstance
 0001:00002C90       System.TObject.SafeCallException
 0001:00004E88       System.ToLongPath
 0001:00000178       System.UnhandledExceptionFilter
 0001:00003CCC       System.UniqueString
 0001:000053BC       System.UnregisterModule
 0001:00003440       System.UnsetExceptionHandler
 0001:000020A4       System.UpCase
 0001:0000563C       System.UTF8Decode
 0001:0000550C       System.Utf8ToUnicode
 0003:00000010       System.VarAddRefProc
 0003:0000000C       System.VarClearProc
 0003:00000014       System.VarCopyProc
 0003:00000018       System.VarToLStrProc
 0003:0000001C       System.VarToWStrProc
 0001:00000294       System.VirtualAlloc
 0001:0000029C       System.VirtualFree
 0001:00000238       System.VirtualQuery
 0001:00003914       System.WCharFromChar
 0001:000047B0       System.WideCharLenToStrVar
 0001:00000230       System.WideCharToMultiByte
 0001:00003654       System.WriteErrorMessage
 0001:00000180       System.WriteFile
 0001:00003F94       System.WStrError
 0001:00003FB4       System.WStrSet
 0004:00002918       SysUtils..35
 0001:00006590       SysUtils..EAbstractError
 0001:00006368       SysUtils..EAccessViolation
 0001:00006530       SysUtils..EAssertionFailed
 0001:0000647C       SysUtils..EControlC
 0001:0000630C       SysUtils..EConvertError
 0001:00005F90       SysUtils..EDivByZero
 0001:00005E80       SysUtils..EExternal
 0001:00005ED8       SysUtils..EExternalException
 0001:00005D70       SysUtils..EHeapException
 0001:00005E28       SysUtils..EInOutError
 0001:00005F38       SysUtils..EIntError
 0001:000065EC       SysUtils..EIntfCastError
 0001:00006040       SysUtils..EIntOverflow
 0001:000062B0       SysUtils..EInvalidCast
 0001:000060F4       SysUtils..EInvalidOp
 0001:00006254       SysUtils..EInvalidPointer
 0001:0000609C       SysUtils..EMathError
 0001:00006648       SysUtils..EOSError
 0001:00005DCC       SysUtils..EOutOfMemory
 0001:000061A4       SysUtils..EOverflow
 0001:000063C8       SysUtils..EPrivilege
 0001:00005FE8       SysUtils..ERangeError
 0001:000066A0       SysUtils..ESafecallException
 0001:00006420       SysUtils..EStackOverflow
 0001:000061FC       SysUtils..EUnderflow
 0001:000064D4       SysUtils..EVariantError
 0001:00005D08       SysUtils..Exception
 0001:0000614C       SysUtils..EZeroDivide
 0001:00006830       SysUtils..TMultiReadExclusiveWriteSynchronizer
 0001:00006754       SysUtils..TThreadLocalCounter
 0001:0000A454       SysUtils.AbstractErrorHandler
 0001:00006B8C       SysUtils.AnsiCompareText
 0001:000070B4       SysUtils.AnsiLastChar
 0001:00006B54       SysUtils.AnsiLowerCase
 0001:0000AC8C       SysUtils.AnsiPos
 0001:0000ACC4       SysUtils.AnsiStrPos
 0001:0000AD64       SysUtils.AnsiStrRScan
 0001:0000AD98       SysUtils.AnsiStrScan
 0001:00006B1C       SysUtils.AnsiUpperCase
 0001:00008340       SysUtils.AppendChars
 0001:00008724       SysUtils.AppendFormat
 0001:000083A0       SysUtils.AppendNumber
 0001:00008384       SysUtils.AppendString
 0001:0000A438       SysUtils.AssertErrorHandler
 0001:00007174       SysUtils.BackfillGetDiskFreeSpaceEx
 0001:00007068       SysUtils.BoolToStr
 0001:0000AA08       SysUtils.ByteToCharIndex
 0001:0000A9E4       SysUtils.ByteToCharLen
 0001:0000A9A8       SysUtils.ByteType
 0001:0000A934       SysUtils.ByteTypeTest
 0001:0000AC1C       SysUtils.CharLength
 0001:0000AB00       SysUtils.CharToByteIndex
 0001:0000AB84       SysUtils.CharToByteLen
 0001:0000B97C       SysUtils.ClearHashTables
 0001:000069F4       SysUtils.CompareStr
 0001:00006A5C       SysUtils.CompareText
 0001:00006F48       SysUtils.CompareWith
 0001:00009E50       SysUtils.ConvertAddr
 0001:00008490       SysUtils.ConvertEraString
 0001:000068C0       SysUtils.ConvertErrorFmt
 0001:0000860C       SysUtils.ConvertYearString
 0001:0000AA70       SysUtils.CountChars
 0001:0000A37C       SysUtils.CreateAssertException
 0001:0000A504       SysUtils.CreateAVObject
 0001:0000A2AC       SysUtils.CreateInOutError
 0003:00000828       SysUtils.cSimpleBoolStrs
 0004:00002810       SysUtils.CurrencyDecimals
 0004:0000280C       SysUtils.CurrencyFormat
 0004:00002808       SysUtils.CurrencyString
 0001:0000832C       SysUtils.CurrentYear
 0001:00007EC0       SysUtils.CurrToStr
 0001:00006C24       SysUtils.CvtInt
 0001:00006C90       SysUtils.CvtInt64
 0003:00000848       SysUtils.CWNear
 0004:00002811       SysUtils.DateSeparator
 0001:00008EDC       SysUtils.DateTimeToString
 0001:00007F80       SysUtils.DateTimeToTimeStamp
 0001:00008304       SysUtils.DayOfWeek
 0003:00000844       SysUtils.DCon10
 0004:0000280F       SysUtils.DecimalSeparator
 0001:000082E4       SysUtils.DecodeDate
 0001:00008198       SysUtils.DecodeDateFully
 0001:00008034       SysUtils.DecodeTime
 0003:000008D4       SysUtils.DefLongDayNames
 0003:00000888       SysUtils.DefLongMonthNames
 0003:000008B8       SysUtils.DefShortDayNames
 0003:00000858       SysUtils.DefShortMonthNames
 0001:000068A4       SysUtils.DivMod
 0001:0000A82C       SysUtils.DoneExceptions
 0001:0000A280       SysUtils.EHeapException.FreeInstance
 0003:000007B0       SysUtils.EmptyStr
 0003:000007B4       SysUtils.EmptyWideStr
 0001:00009ABC       SysUtils.EnumEraNames
 0001:00009AF8       SysUtils.EnumEraYearOffsets
 0004:000028D8       SysUtils.EraNames
 0001:000091EC       SysUtils.EraToYear
 0004:000028F4       SysUtils.EraYearOffsets
 0001:0000A32C       SysUtils.ErrorHandler
 0003:000008F0       SysUtils.ErrorMap
 0001:0000A798       SysUtils.ExceptHandler
 0001:0000A0AC       SysUtils.Exception.Create
 0001:0000A0E8       SysUtils.Exception.CreateFmt
 0001:0000A238       SysUtils.Exception.CreateHelp
 0001:0000A168       SysUtils.Exception.CreateRes
 0001:0000A1A4       SysUtils.Exception.CreateResFmt
 0001:00009E5C       SysUtils.ExceptionErrorMessage
 0003:00000928       SysUtils.ExceptMap
 0001:0000713C       SysUtils.ExtractFileName
 0004:00002914       SysUtils.FalseBoolStrs
 0003:00000838       SysUtils.FCon1E18
 0001:0000BC7C       SysUtils.Finalization
 0004:0000490C       SysUtils.FLanguages
 0001:00007B50       SysUtils.FloatToDecimal
 0001:00007E90       SysUtils.FloatToStr
 0001:0000787C       SysUtils.FloatToText
 0003:0000084C       SysUtils.FMSecsPerDay
 0001:0000775C       SysUtils.FmtStr
 0001:00007748       SysUtils.Format
 0003:00000854       SysUtils.Format
 0001:00007390       SysUtils.FormatBuf
 0001:00007384       SysUtils.FormatClearStr
 0001:00007308       SysUtils.FormatError
 0003:00000830       SysUtils.FormatErrorStrs
 0001:00007360       SysUtils.FormatVarToStr
 0001:0000B96C       SysUtils.FreeAndNil
 0001:0000B4B0       SysUtils.FreeTerminateProcs
 0001:000083EC       SysUtils.GetCount
 0001:00008418       SysUtils.GetDate
 0001:00009104       SysUtils.GetDateOrder
 0003:00000824       SysUtils.GetDiskFreeSpaceEx
 0001:00009B70       SysUtils.GetEraNamesAndYearOffsets
 0001:00009198       SysUtils.GetEraYearOffset
 0001:0000A4EC       SysUtils.GetExceptionClass
 0001:0000A6D0       SysUtils.GetExceptionObject
 0001:0000AEF8       SysUtils.GetFormatSettings
 0001:00009930       SysUtils.GetLocaleChar
 0001:000098E4       SysUtils.GetLocaleStr
 0001:00009998       SysUtils.GetMonthDayNames
 0001:00008450       SysUtils.GetTime
 0001:0000B2C4       SysUtils.HashName
 0003:00000820       SysUtils.HexDisplayPrefix
 0003:00000850       SysUtils.IMSecsPerDay
 0001:0000B4D4       SysUtils.InitDriveSpacePtr
 0001:0000A7A8       SysUtils.InitExceptions
 0001:0000ADD8       SysUtils.InitLeadBytes
 0001:0000A8C4       SysUtils.InitPlatformId
 0001:0000AE34       SysUtils.InitSysLocale
 0001:0000B53C       SysUtils.InterlockedDecrement
 0001:0000B548       SysUtils.InterlockedExchange
 0001:0000B550       SysUtils.InterlockedExchangeAdd
 0001:0000B530       SysUtils.InterlockedIncrement
 0001:00006D84       SysUtils.IntToHex
 0001:00006C70       SysUtils.IntToStr
 0001:00006D5C       SysUtils.IntToStr
 0004:00002920       SysUtils.InvalidPointer
 0001:00008090       SysUtils.IsLeapYear
 0001:000070E8       SysUtils.LastDelimiter
 0003:00000800       SysUtils.LeadBytes
 0004:000028D6       SysUtils.ListSeparator
 0001:0000995C       SysUtils.LocalGetLocaleStr
 0004:00002818       SysUtils.LongDateFormat
 0004:000028AC       SysUtils.LongDayNames
 0004:00002860       SysUtils.LongMonthNames
 0004:0000282C       SysUtils.LongTimeFormat
 0001:0000696C       SysUtils.LowerCase
 0001:0000A46C       SysUtils.MapException
 0001:0000B2EC       SysUtils.ModuleUnloaded
 0003:000007D0       SysUtils.MonthDays
 0004:0000280D       SysUtils.NegCurrFormat
 0001:0000AC54       SysUtils.NextCharIndex
 0004:0000291C       SysUtils.OutOfMemory
 0001:00007838       SysUtils.PutExponent
 0001:0000A428       SysUtils.RaiseAssertException
 0001:0000B40C       SysUtils.RaiseLastOSError
 0001:0000B418       SysUtils.RaiseLastOSError
 0001:00006AF8       SysUtils.SameText
 0001:00008F38       SysUtils.ScanBlanks
 0001:000090C8       SysUtils.ScanChar
 0001:00009248       SysUtils.ScanDate
 0001:00008F5C       SysUtils.ScanNumber
 0001:00008FF0       SysUtils.ScanString
 0001:00009594       SysUtils.ScanTime
 0001:00009150       SysUtils.ScanToNumber
 0004:00002814       SysUtils.ShortDateFormat
 0004:00002890       SysUtils.ShortDayNames
 0004:00002830       SysUtils.ShortMonthNames
 0004:00002828       SysUtils.ShortTimeFormat
 0001:00009FE4       SysUtils.ShowException
 0001:0000B404       SysUtils.Sleep
 0001:0000A9CC       SysUtils.StrByteType
 0001:0000ABF4       SysUtils.StrCharLength
 0001:00007228       SysUtils.StrLCopy
 0001:000071E8       SysUtils.StrLen
 0001:00007708       SysUtils.StrLFmt
 0001:0000725C       SysUtils.StrLIComp
 0001:00007218       SysUtils.StrMove
 0001:0000AC14       SysUtils.StrNextChar
 0001:000072B4       SysUtils.StrPos
 0001:000072A0       SysUtils.StrScan
 0001:00006DAC       SysUtils.StrToInt
 0001:00006E20       SysUtils.StrToInt64
 0001:00006E64       SysUtils.StrToInt64Def
 0001:00006DE8       SysUtils.StrToIntDef
 0001:00009898       SysUtils.SysErrorMessage
 0004:000028C8       SysUtils.SysLocale
 0002:000000AC       SysUtils.SysUtils
 0003:000009D8       SysUtils.TerminateProcList
 0001:00007D7C       SysUtils.TextToFloat
 0004:0000280E       SysUtils.ThousandSeparator
 0004:00002820       SysUtils.TimeAMString
 0004:00002824       SysUtils.TimePMString
 0004:0000281C       SysUtils.TimeSeparator
 0001:0000B894       SysUtils.TMultiReadExclusiveWriteSynchronizer.BeginRead
 0001:0000B798       SysUtils.TMultiReadExclusiveWriteSynchronizer.BeginWrite
 0001:0000B754       SysUtils.TMultiReadExclusiveWriteSynchronizer.BlockReaders
 0001:0000B698       SysUtils.TMultiReadExclusiveWriteSynchronizer.Create
 0001:0000B70C       SysUtils.TMultiReadExclusiveWriteSynchronizer.Destroy
 0001:0000B904       SysUtils.TMultiReadExclusiveWriteSynchronizer.EndRead
 0001:0000B844       SysUtils.TMultiReadExclusiveWriteSynchronizer.EndWrite
 0001:0000B76C       SysUtils.TMultiReadExclusiveWriteSynchronizer.UnblockOneWriter
 0001:0000B760       SysUtils.TMultiReadExclusiveWriteSynchronizer.UnblockReaders
 0001:0000B778       SysUtils.TMultiReadExclusiveWriteSynchronizer.WaitForReadSignal
 0001:0000B788       SysUtils.TMultiReadExclusiveWriteSynchronizer.WaitForWriteSignal
 0001:00009C20       SysUtils.TranslateDateFormat
 0001:00006BD0       SysUtils.Trim
 0004:00002910       SysUtils.TrueBoolStrs
 0001:000080CC       SysUtils.TryEncodeDate
 0001:00007FC4       SysUtils.TryEncodeTime
 0001:00006FCC       SysUtils.TryStrToBool
 0001:00007F64       SysUtils.TryStrToCurr
 0001:0000978C       SysUtils.TryStrToDate
 0001:000097FC       SysUtils.TryStrToDateTime
 0001:00007F0C       SysUtils.TryStrToFloat
 0001:00007F38       SysUtils.TryStrToFloat
 0001:00007EF0       SysUtils.TryStrToFloat
 0001:00006E00       SysUtils.TryStrToInt
 0001:00006E98       SysUtils.TryStrToInt64
 0001:000097C4       SysUtils.TryStrToTime
 0001:0000B644       SysUtils.TThreadLocalCounter.Delete
 0001:0000B558       SysUtils.TThreadLocalCounter.Destroy
 0001:0000B5B0       SysUtils.TThreadLocalCounter.HashIndex
 0001:0000B5CC       SysUtils.TThreadLocalCounter.Open
 0001:0000B654       SysUtils.TThreadLocalCounter.Recycle
 0003:000007CC       SysUtils.TwoDigitYearCenturyWindow
 0004:00003918       SysUtils.UnitHashBuckets
 0001:000068E4       SysUtils.UpperCase
 0004:00002924       SysUtils.ValidatedUnitHashBuckets
 0001:00006EB8       SysUtils.VerifyBoolStrArray
 0003:000007C4       SysUtils.Win32BuildNumber
 0003:000007C8       SysUtils.Win32CSDVersion
 0003:000007BC       SysUtils.Win32MajorVersion
 0003:000007C0       SysUtils.Win32MinorVersion
 0003:000007B8       SysUtils.Win32Platform
 0004:000049AC       TypInfo..6
 0001:000149CC       TypInfo.AssignLongStr
 0003:00000CB4       TypInfo.BooleanIdents
 0003:00000CBC       TypInfo.DotSep
 0001:000150C8       TypInfo.Finalization
 0001:00014D40       TypInfo.GetFloatProp
 0001:000149E0       TypInfo.GetLongStrProp
 0001:00015050       TypInfo.GetMethodProp
 0001:00014808       TypInfo.GetOrdProp
 0001:00014798       TypInfo.GetPropInfo
 0001:000148D8       TypInfo.GetShortStrProp
 0001:00014970       TypInfo.GetShortStrPropAsLongStr
 0001:00014B10       TypInfo.GetStrProp
 0001:0001478C       TypInfo.GetTypeData
 0001:00014B80       TypInfo.GetWideStrProp
 0001:00014A60       TypInfo.GetWideStrPropAsLongStr
 0001:00014E58       TypInfo.SetFloatProp
 0001:00014A20       TypInfo.SetLongStrProp
 0001:00015090       TypInfo.SetMethodProp
 0001:0001487C       TypInfo.SetOrdProp
 0001:0001491C       TypInfo.SetShortStrProp
 0001:00014998       TypInfo.SetShortStrPropAsLongStr
 0001:00014B50       TypInfo.SetStrProp
 0001:00014C68       TypInfo.SetWideStrProp
 0001:00014AB8       TypInfo.SetWideStrPropAsLongStr
 0002:000001F0       TypInfo.TypInfo
 0001:000175E4       uPSCompiler..EPSCompilerException
 0001:0002D1DC       uPSCompiler..TBinConstOperation
 0001:0002D23C       uPSCompiler..TConstData
 0001:0002D120       uPSCompiler..TConstOperation
 0001:00017AD0       uPSCompiler..TPSArrayType
 0001:00017CF0       uPSCompiler..TPSAttribute
 0001:00017D4C       uPSCompiler..TPSAttributes
 0001:000187B4       uPSCompiler..TPSBinValueOp
 0001:000181D0       uPSCompiler..TPSBlockInfo
 0001:00017950       uPSCompiler..TPSClassType
 0001:00017F7C       uPSCompiler..TPSConstant
 0001:00017C3C       uPSCompiler..TPSEnumType
 0001:00017E1C       uPSCompiler..TPSExternalProcedure
 0001:00018A34       uPSCompiler..TPSInterface
 0001:00018AA0       uPSCompiler..TPSInterfaceMethod
 0001:00017A10       uPSCompiler..TPSInterfaceType
 0001:00017E80       uPSCompiler..TPSInternalProcedure
 0001:000182FC       uPSCompiler..TPSParameter
 0001:00017648       uPSCompiler..TPSParameterDecl
 0001:00018358       uPSCompiler..TPSParameters
 0001:000176C0       uPSCompiler..TPSParametersDecl
 0001:0001822C       uPSCompiler..TPSPascalCompiler
 0001:0001807C       uPSCompiler..TPSPascalCompilerError
 0001:000180EC       uPSCompiler..TPSPascalCompilerHint
 0001:00017FF0       uPSCompiler..TPSPascalCompilerMessage
 0001:0001815C       uPSCompiler..TPSPascalCompilerWarning
 0001:00017A70       uPSCompiler..TPSProceduralType
 0001:00017C94       uPSCompiler..TPSProcedure
 0001:00017DA8       uPSCompiler..TPSProcVar
 0001:0001779C       uPSCompiler..TPSRecordFieldTypeDef
 0001:000178F4       uPSCompiler..TPSRecordType
 0001:00017720       uPSCompiler..TPSRegProc
 0001:00017B8C       uPSCompiler..TPSSetType
 0001:00017B2C       uPSCompiler..TPSStaticArrayType
 0001:000183B4       uPSCompiler..TPSSubItem
 0001:0001840C       uPSCompiler..TPSSubNumber
 0001:00018468       uPSCompiler..TPSSubValue
 0001:00017818       uPSCompiler..TPSType
 0001:00017BE4       uPSCompiler..TPSTypeLink
 0001:000179AC       uPSCompiler..TPSUndefinedClassType
 0001:00018758       uPSCompiler..TPSUnValueOp
 0001:000182A4       uPSCompiler..TPSValue
 0001:00018638       uPSCompiler..TPSValueAllocatedStackVar
 0001:000189D8       uPSCompiler..TPSValueArray
 0001:000186A0       uPSCompiler..TPSValueData
 0001:00018518       uPSCompiler..TPSValueGlobalVar
 0001:00018578       uPSCompiler..TPSValueLocalVar
 0001:00018810       uPSCompiler..TPSValueNil
 0001:000185D8       uPSCompiler..TPSValueParamVar
 0001:000188C4       uPSCompiler..TPSValueProc
 0001:00018920       uPSCompiler..TPSValueProcNo
 0001:00018868       uPSCompiler..TPSValueProcPtr
 0001:0001897C       uPSCompiler..TPSValueProcVal
 0001:000186FC       uPSCompiler..TPSValueReplace
 0001:000184C0       uPSCompiler..TPSValueVar
 0001:00017F04       uPSCompiler..TPSVar
 0001:00017888       uPSCompiler..TPSVariantType
 0001:0002D17C       uPSCompiler..TUnConstOperation
 0001:00021D28       uPSCompiler.AfterWriteOutRec
 0001:00020470       uPSCompiler.AllocPointer
 0001:00020438       uPSCompiler.AllocStackReg
 0001:00020398       uPSCompiler.AllocStackReg2
 0001:00018D78       uPSCompiler.BlockWriteByte
 0001:00018DD0       uPSCompiler.BlockWriteData
 0001:00018E24       uPSCompiler.BlockWriteLong
 0001:00018E38       uPSCompiler.BlockWriteVariant
 0001:00027288       uPSCompiler.calc
 0001:00024AC8       uPSCompiler.CallAssigned
 0001:00024C0C       uPSCompiler.CallPred
 0001:00024B78       uPSCompiler.CallSucc
 0001:00022EB4       uPSCompiler.CheckClass
 0001:000229DC       uPSCompiler.CheckClassArrayProperty
 0001:000239FC       uPSCompiler.CheckClassType
 0001:000204BC       uPSCompiler.CheckCompatType
 0001:0002BB94       uPSCompiler.CheckExports
 0001:00022D14       uPSCompiler.CheckExtClass
 0001:00022234       uPSCompiler.CheckFurther
 0001:0002338C       uPSCompiler.CheckIntf
 0001:00021EA0       uPSCompiler.CheckNotificationVariant
 0001:000277B0       uPSCompiler.CheckOutreg
 0001:00022140       uPSCompiler.CheckProcCall
 0001:0001FEB0       uPSCompiler.ChrToStr
 0001:0002AA44       uPSCompiler.Cleanup
 0001:00027A88       uPSCompiler.Cleanup
 0001:0001D0F0       uPSCompiler.ClearRecSubVals
 0001:000294A0       uPSCompiler.Combine
 0001:0001AF20       uPSCompiler.ConvertToBoolean
 0001:0001B008       uPSCompiler.ConvertToFloat
 0001:0001AF58       uPSCompiler.ConvertToString
 0001:0001AFB0       uPSCompiler.ConvertToWideString
 0001:0001A648       uPSCompiler.CopyVariantContents
 0001:0002B958       uPSCompiler.CreateDebugData
 0001:00018CEC       uPSCompiler.DeclToBits
 0001:0001A8A0       uPSCompiler.DiffRec
 0001:0001A838       uPSCompiler.DisposeVariant
 0001:00020A18       uPSCompiler.DoBinCalc
 0001:0002BC58       uPSCompiler.DoConstBlock
 0001:000210E4       uPSCompiler.DoUnCalc
 0001:0001A768       uPSCompiler.DuplicateVariant
 0001:0002D8E4       uPSCompiler.EvalConst
 0001:00023628       uPSCompiler.ExtCheckClassType
 0001:0001A804       uPSCompiler.FinalizeVariant
 0001:0001909C       uPSCompiler.FindAndAddType
 0001:0002B8E4       uPSCompiler.FindMainProc
 0001:000221D4       uPSCompiler.FindSubR
 0001:00021354       uPSCompiler.GetAddress
 0001:0002D2CC       uPSCompiler.GetConstantIdentifier
 0001:00023E88       uPSCompiler.GetIdentifier
 0001:0001AA68       uPSCompiler.GetInt
 0001:0001AAE4       uPSCompiler.GetInt64
 0001:0001F808       uPSCompiler.GetParamType
 0001:0001AC00       uPSCompiler.GetReal
 0001:0002564C       uPSCompiler.GetResultType
 0001:0001AD78       uPSCompiler.GetString
 0001:0001A9EC       uPSCompiler.GetUInt
 0001:00027EA8       uPSCompiler.HasInvalidJumps
 0003:00000EDC       uPSCompiler.IDispatch_Guid
 0001:0001A794       uPSCompiler.InitializeVariant
 0001:0001A88C       uPSCompiler.IsIntRealType
 0001:0001A86C       uPSCompiler.IsIntType
 0001:0001A87C       uPSCompiler.IsRealType
 0003:00000ECC       uPSCompiler.IUnknown_Guid
 0001:00020764       uPSCompiler.MakeNil
 0001:0002BAD8       uPSCompiler.MakeOutput
 0001:000213C0       uPSCompiler.MakeSet
 0001:00029468       uPSCompiler.NewRec
 0001:0001A7E4       uPSCompiler.NewVariant
 0001:000190C8       uPSCompiler.ParseMethod
 0001:0001FFEC       uPSCompiler.ParseString
 0001:00021548       uPSCompiler.PreWriteOutRec
 0001:000294FC       uPSCompiler.ProcessCase
 0001:000280E8       uPSCompiler.ProcessFor
 0001:000206C0       uPSCompiler.ProcessFunction2
 0001:00029A6C       uPSCompiler.ProcessGoto
 0001:00029338       uPSCompiler.ProcessIdentifier
 0001:00028F34       uPSCompiler.ProcessIf
 0001:00028B40       uPSCompiler.ProcessRepeat
 0001:00029DB0       uPSCompiler.ProcessTry
 0001:0002BE3C       uPSCompiler.ProcessUses
 0001:00028728       uPSCompiler.ProcessWhile
 0001:00029C08       uPSCompiler.ProcessWith
 0001:0001FF20       uPSCompiler.PString
 0001:00019D20       uPSCompiler.PS_mi2s
 0001:000249D4       uPSCompiler.ReadArray
 0001:0002651C       uPSCompiler.ReadExpression
 0001:0002D7F4       uPSCompiler.ReadExpression
 0001:0002D3B0       uPSCompiler.ReadFactor
 0001:00024CA0       uPSCompiler.ReadFactor
 0001:000274B8       uPSCompiler.ReadIDispatchParameters
 0001:000272C4       uPSCompiler.ReadParameters
 0001:0002737C       uPSCompiler.ReadProcParameters
 0001:000263EC       uPSCompiler.ReadSimpleExpression
 0001:0002D718       uPSCompiler.ReadSimpleExpression
 0001:0002D5D8       uPSCompiler.ReadTerm
 0001:00026290       uPSCompiler.ReadTerm
 0001:0002770C       uPSCompiler.ReadVarParameters
 0001:0001A8FC       uPSCompiler.SameReg
 0001:0001AE58       uPSCompiler.Set_Diff
 0001:0001AEC0       uPSCompiler.Set_Equal
 0001:0001AE70       uPSCompiler.Set_Intersect
 0001:0001AF0C       uPSCompiler.Set_MakeMember
 0001:0001AEEC       uPSCompiler.Set_membership
 0001:0001AE88       uPSCompiler.Set_Subset
 0001:0001AE40       uPSCompiler.Set_Union
 0001:000305A4       uPSCompiler.TBinConstOperation.Destroy
 0001:000305DC       uPSCompiler.TConstData.Destroy
 0001:0003060C       uPSCompiler.TConstOperation.SetPos
 0001:0003162C       uPSCompiler.TPSAttribute.AddValue
 0001:00031688       uPSCompiler.TPSAttribute.Assign
 0001:000315E0       uPSCompiler.TPSAttribute.Create
 0001:00031638       uPSCompiler.TPSAttribute.Destroy
 0001:000315D4       uPSCompiler.TPSAttribute.GetValue
 0001:000315CC       uPSCompiler.TPSAttribute.GetValueCount
 0001:0003170C       uPSCompiler.TPSAttributes.Add
 0001:000317C4       uPSCompiler.TPSAttributes.Assign
 0001:00031730       uPSCompiler.TPSAttributes.Create
 0001:00031774       uPSCompiler.TPSAttributes.Destroy
 0001:000316F0       uPSCompiler.TPSAttributes.GetCount
 0001:000316F8       uPSCompiler.TPSAttributes.GetItem
 0001:000315B0       uPSCompiler.TPSAttributeType.GetField
 0001:000315C4       uPSCompiler.TPSAttributeType.GetFieldCount
 0001:0003071C       uPSCompiler.TPSBinValueOp.Destroy
 0001:000314E4       uPSCompiler.TPSBlockInfo.Clear
 0001:00031518       uPSCompiler.TPSBlockInfo.Create
 0001:0003157C       uPSCompiler.TPSBlockInfo.Destroy
 0001:00030AD8       uPSCompiler.TPSCompileTimeClass.CastToType
 0001:00030BF8       uPSCompiler.TPSCompileTimeClass.ClassFunc_Call
 0001:00030DA0       uPSCompiler.TPSCompileTimeClass.ClassFunc_Find
 0001:00030E28       uPSCompiler.TPSCompileTimeClass.Func_Call
 0001:00030FBC       uPSCompiler.TPSCompileTimeClass.Func_Find
 0001:00031044       uPSCompiler.TPSCompileTimeClass.IsCompatibleWith
 0001:0003106C       uPSCompiler.TPSCompileTimeClass.Property_Find
 0001:0003112C       uPSCompiler.TPSCompileTimeClass.Property_Get
 0001:0003127C       uPSCompiler.TPSCompileTimeClass.Property_GetHeader
 0001:0003129C       uPSCompiler.TPSCompileTimeClass.Property_Set
 0001:000313D4       uPSCompiler.TPSCompileTimeClass.SetNil
 0001:0002FDD0       uPSCompiler.TPSConstant.Destroy
 0001:0002FE00       uPSCompiler.TPSConstant.SetName
 0001:00031B10       uPSCompiler.TPSInterface.CastToType
 0001:00031C34       uPSCompiler.TPSInterface.Create
 0001:00031CDC       uPSCompiler.TPSInterface.Destroy
 0001:00031D2C       uPSCompiler.TPSInterface.Func_Call
 0001:00031ED8       uPSCompiler.TPSInterface.Func_Find
 0001:00031F50       uPSCompiler.TPSInterface.IsCompatibleWith
 0001:00031F84       uPSCompiler.TPSInterface.RegisterDummyMethod
 0001:00031CD8       uPSCompiler.TPSInterface.SetInheritedFrom
 0001:00031FA4       uPSCompiler.TPSInterface.SetNil
 0001:0003206C       uPSCompiler.TPSInterfaceMethod.Create
 0001:000320F8       uPSCompiler.TPSInterfaceMethod.Destroy
 0001:000320C0       uPSCompiler.TPSInterfaceMethod.GetAbsoluteProcOffset
 0001:0002FC30       uPSCompiler.TPSInternalProcedure.Create
 0001:0002FCA4       uPSCompiler.TPSInternalProcedure.Destroy
 0001:0002FD0C       uPSCompiler.TPSInternalProcedure.ResultUse
 0001:0002FD14       uPSCompiler.TPSInternalProcedure.SetName
 0001:00030898       uPSCompiler.TPSParameter.Destroy
 0001:00031840       uPSCompiler.TPSParameterDecl.SetName
 0001:000308D0       uPSCompiler.TPSParameters.Add
 0001:000308F4       uPSCompiler.TPSParameters.Create
 0001:00030938       uPSCompiler.TPSParameters.Destroy
 0001:00030988       uPSCompiler.TPSParameters.GetCount
 0001:00030990       uPSCompiler.TPSParameters.GetItem
 0001:0003195C       uPSCompiler.TPSParametersDecl.AddParam
 0001:0003189C       uPSCompiler.TPSParametersDecl.Assign
 0001:00031980       uPSCompiler.TPSParametersDecl.Create
 0001:000319C4       uPSCompiler.TPSParametersDecl.Destroy
 0001:00031940       uPSCompiler.TPSParametersDecl.GetParam
 0001:00031954       uPSCompiler.TPSParametersDecl.GetParamCount
 0001:00031A14       uPSCompiler.TPSParametersDecl.Same
 0001:0002CD70       uPSCompiler.TPSPascalCompiler.AddConstant
 0001:0002F1F4       uPSCompiler.TPSPascalCompiler.AddConstantN
 0001:0002F5D4       uPSCompiler.TPSPascalCompiler.AddDelphiFunction
 0001:00019F40       uPSCompiler.TPSPascalCompiler.AddFunction
 0001:0002F794       uPSCompiler.TPSPascalCompiler.AddInterface
 0001:00019D50       uPSCompiler.TPSPascalCompiler.AddType
 0001:0002F218       uPSCompiler.TPSPascalCompiler.AddTypeCopy
 0001:0002F2C8       uPSCompiler.TPSPascalCompiler.AddTypeCopyN
 0001:0002F2EC       uPSCompiler.TPSPascalCompiler.AddTypeS
 0001:0002F16C       uPSCompiler.TPSPascalCompiler.AddUsedFunction2
 0001:0001EE74       uPSCompiler.TPSPascalCompiler.ApplyAttribsToFunction
 0001:0002A85C       uPSCompiler.TPSPascalCompiler.at2ut
 0001:0002F3DC       uPSCompiler.TPSPascalCompiler.CheckCompatProc
 0001:0001EB68       uPSCompiler.TPSPascalCompiler.CheckForUnusedVars
 0001:0001A5DC       uPSCompiler.TPSPascalCompiler.Clear
 0001:0002C060       uPSCompiler.TPSPascalCompiler.Compile
 0001:0002C704       uPSCompiler.TPSPascalCompiler.Create
 0001:0001E8C4       uPSCompiler.TPSPascalCompiler.Debug_SavePosition
 0001:0001FE44       uPSCompiler.TPSPascalCompiler.Debug_WriteLine
 0001:0001E9EC       uPSCompiler.TPSPascalCompiler.Debug_WriteParams
 0001:0002DC90       uPSCompiler.TPSPascalCompiler.DefineStandardProcedures
 0001:0002C7EC       uPSCompiler.TPSPascalCompiler.DefineStandardTypes
 0001:0002C77C       uPSCompiler.TPSPascalCompiler.Destroy
 0001:0001FC40       uPSCompiler.TPSPascalCompiler.DoTypeBlock
 0001:0001E218       uPSCompiler.TPSPascalCompiler.DoVarBlock
 0001:00019BE8       uPSCompiler.TPSPascalCompiler.FindBaseType
 0001:0002F894       uPSCompiler.TPSPascalCompiler.FindInterface
 0001:00019B08       uPSCompiler.TPSPascalCompiler.FindProc
 0001:0002CCCC       uPSCompiler.TPSPascalCompiler.FindType
 0001:0002C7C0       uPSCompiler.TPSPascalCompiler.GetOutput
 0001:0001A854       uPSCompiler.TPSPascalCompiler.GetTypeCopyLink
 0001:0001F834       uPSCompiler.TPSPascalCompiler.GetTypeNo
 0001:0001ADDC       uPSCompiler.TPSPascalCompiler.GetWideString
 0001:0002D294       uPSCompiler.TPSPascalCompiler.IsBoolean
 0001:0001B1B8       uPSCompiler.TPSPascalCompiler.IsCompatibleType
 0001:0001CF6C       uPSCompiler.TPSPascalCompiler.IsDuplicate
 0001:0001E604       uPSCompiler.TPSPascalCompiler.IsProcDuplicLabel
 0001:0001F994       uPSCompiler.TPSPascalCompiler.IsVarInCompatible
 0001:00019C7C       uPSCompiler.TPSPascalCompiler.MakeDecl
 0001:0001A52C       uPSCompiler.TPSPascalCompiler.MakeError
 0001:0002F4A4       uPSCompiler.TPSPascalCompiler.MakeExportDecl
 0001:0001A4D4       uPSCompiler.TPSPascalCompiler.MakeHint
 0001:0001A584       uPSCompiler.TPSPascalCompiler.MakeWarning
 0001:0001E5A8       uPSCompiler.TPSPascalCompiler.NewProc
 0001:0002F590       uPSCompiler.TPSPascalCompiler.ParserError
 0001:0001B404       uPSCompiler.TPSPascalCompiler.PreCalc
 0001:0001EED8       uPSCompiler.TPSPascalCompiler.ProcessFunction
 0001:0001E7A0       uPSCompiler.TPSPascalCompiler.ProcessLabel
 0001:0002A940       uPSCompiler.TPSPascalCompiler.ProcessLabelForwards
 0001:0002A1E4       uPSCompiler.TPSPascalCompiler.ProcessSub
 0001:0001EC04       uPSCompiler.TPSPascalCompiler.ProcIsDuplic
 0001:0002CE90       uPSCompiler.TPSPascalCompiler.ReadAttributes
 0001:0002DC40       uPSCompiler.TPSPascalCompiler.ReadConstant
 0001:000202C0       uPSCompiler.TPSPascalCompiler.ReadInteger
 0001:0001FE74       uPSCompiler.TPSPascalCompiler.ReadReal
 0001:00020170       uPSCompiler.TPSPascalCompiler.ReadString
 0001:0001D524       uPSCompiler.TPSPascalCompiler.ReadType
 0001:0001D120       uPSCompiler.TPSPascalCompiler.ReadTypeAddProcedure
 0001:0002A804       uPSCompiler.TPSPascalCompiler.UseProc
 0001:0001F9C8       uPSCompiler.TPSPascalCompiler.ValidateParameters
 0001:0001DF98       uPSCompiler.TPSPascalCompiler.VarIsDuplicate
 0001:0002DC7C       uPSCompiler.TPSPascalCompiler.WriteDebugData
 0001:0002FE20       uPSCompiler.TPSPascalCompilerError.ErrorType
 0001:0002FE34       uPSCompiler.TPSPascalCompilerError.ShortMessageToString
 0001:000302AC       uPSCompiler.TPSPascalCompilerHint.ErrorType
 0001:000302C0       uPSCompiler.TPSPascalCompilerHint.ShortMessageToString
 0001:00030474       uPSCompiler.TPSPascalCompilerMessage.MessageToString
 0001:00030554       uPSCompiler.TPSPascalCompilerMessage.SetParserPos
 0001:00030388       uPSCompiler.TPSPascalCompilerWarning.ErrorType
 0001:0003039C       uPSCompiler.TPSPascalCompilerWarning.ShortMessageToString
 0001:00031A9C       uPSCompiler.TPSProceduralType.Create
 0001:00031AE0       uPSCompiler.TPSProceduralType.Destroy
 0001:0002FD34       uPSCompiler.TPSProcedure.Create
 0001:0002FD78       uPSCompiler.TPSProcedure.Destroy
 0001:0002FC08       uPSCompiler.TPSProcVar.SetName
 0001:0002FC28       uPSCompiler.TPSProcVar.Use
 0001:0002FBA0       uPSCompiler.TPSRecordFieldTypeDef.SetFieldOrgName
 0001:0002FA38       uPSCompiler.TPSRecordType.AddRecVal
 0001:0002FA5C       uPSCompiler.TPSRecordType.Create
 0001:0002FAA0       uPSCompiler.TPSRecordType.Destroy
 0001:0002FAF0       uPSCompiler.TPSRecordType.RecVal
 0001:0002FB04       uPSCompiler.TPSRecordType.RecValCount
 0001:0002FB0C       uPSCompiler.TPSRegProc.Create
 0001:0002FB50       uPSCompiler.TPSRegProc.Destroy
 0001:0002FB80       uPSCompiler.TPSRegProc.SetName
 0001:00031498       uPSCompiler.TPSSetType.GetBitSize
 0001:000314BC       uPSCompiler.TPSSetType.GetByteSize
 0001:00030754       uPSCompiler.TPSSubValue.Destroy
 0001:0002F994       uPSCompiler.TPSType.Create
 0001:0002F9E0       uPSCompiler.TPSType.Destroy
 0001:0002FA10       uPSCompiler.TPSType.SetName
 0001:0002FA30       uPSCompiler.TPSType.Use
 0001:000306EC       uPSCompiler.TPSUnValueOp.Destroy
 0001:0003062C       uPSCompiler.TPSValue.SetParserPos
 0001:00030A60       uPSCompiler.TPSValueAllocatedStackVar.Destroy
 0001:000309A4       uPSCompiler.TPSValueArray.Add
 0001:000309B0       uPSCompiler.TPSValueArray.Create
 0001:000309F4       uPSCompiler.TPSValueArray.Destroy
 0001:00030A44       uPSCompiler.TPSValueArray.GetCount
 0001:00030A4C       uPSCompiler.TPSValueArray.GetItem
 0001:0003064C       uPSCompiler.TPSValueData.Destroy
 0001:0003086C       uPSCompiler.TPSValueProc.Destroy
 0001:000321FC       uPSCompiler.TPSValueProcVal.Destroy
 0001:0003067C       uPSCompiler.TPSValueReplace.Create
 0001:000306A8       uPSCompiler.TPSValueReplace.Destroy
 0001:00030784       uPSCompiler.TPSValueVar.Create
 0001:000307C8       uPSCompiler.TPSValueVar.Destroy
 0001:0003081C       uPSCompiler.TPSValueVar.GetRecCount
 0001:00030824       uPSCompiler.TPSValueVar.GetRecItem
 0001:00030838       uPSCompiler.TPSValueVar.RecAdd
 0001:00030844       uPSCompiler.TPSValueVar.RecDelete
 0001:0002FDA8       uPSCompiler.TPSVar.SetName
 0001:0002FDC8       uPSCompiler.TPSVar.Use
 0001:00032128       uPSCompiler.TPSVariantType.GetDynInvokeParamType
 0001:00032180       uPSCompiler.TPSVariantType.GetDynInvokeProcNo
 0001:000321AC       uPSCompiler.TPSVariantType.GetDynIvokeResulType
 0001:000321CC       uPSCompiler.TPSVariantType.GetDynIvokeSelfType
 0001:00026678       uPSCompiler.TryEvalConst
 0001:00030574       uPSCompiler.TUnConstOperation.Destroy
 0001:0002AF70       uPSCompiler.WriteAttributes
 0001:0002ABFC       uPSCompiler.WriteByte
 0001:000278A4       uPSCompiler.WriteCalculation
 0001:0002AC58       uPSCompiler.WriteData
 0001:0002ACC0       uPSCompiler.WriteLong
 0001:00021D60       uPSCompiler.WriteOutRec
 0001:0002B4E8       uPSCompiler.WriteProcs
 0001:0002B7B8       uPSCompiler.WriteProcs2
 0001:0001EDD8       uPSCompiler.WriteProcVars
 0001:0002B058       uPSCompiler.WriteTypeNo
 0001:0002B078       uPSCompiler.WriteTypes
 0001:0002ACDC       uPSCompiler.WriteVariant
 0001:0002B3D4       uPSCompiler.WriteVars
 0001:00027B74       uPSCompiler._ProcessFunction
 0001:000291C0       uPSCompiler._ProcessLabel
 0004:000049EC       uPSC_dll..1
 0004:000049E8       uPSC_dll.DefaultCC
 0001:0003230C       uPSC_dll.DllExternalProc
 0001:000327A4       uPSC_dll.Finalization
 0001:00032260       uPSC_dll.RemoveQuotes
 0001:0003223C       uPSC_dll.rpos
 0002:00000294       uPSC_dll.uPSC_dll
 0001:00033C5C       uPSRuntime..EPSException
 0001:00033B78       uPSRuntime..TPSExec
 0001:00033654       uPSRuntime..TPSExternalProcRec
 0001:000336D0       uPSRuntime..TPSInternalProcRec
 0001:000335FC       uPSRuntime..TPSProcRec
 0001:00033AA0       uPSRuntime..TPSRuntimeAttribute
 0001:00033B14       uPSRuntime..TPSRuntimeAttributes
 0001:00033C00       uPSRuntime..TPSStack
 0001:0003374C       uPSRuntime..TPSTypeRec
 0001:00033910       uPSRuntime..TPSTypeRec_Array
 0001:00033834       uPSRuntime..TPSTypeRec_Class
 0001:000338A8       uPSRuntime..TPSTypeRec_Interface
 0001:000337BC       uPSRuntime..TPSTypeRec_ProcPtr
 0001:00033A3C       uPSRuntime..TPSTypeRec_Record
 0001:000339DC       uPSRuntime..TPSTypeRec_Set
 0001:00033974       uPSRuntime..TPSTypeRec_StaticArray
 0001:0004910C       uPSRuntime.AlwaysAsVariable
 0001:00043E7C       uPSRuntime.BuildArray
 0001:00047370       uPSRuntime.CastProc
 0001:00046D84       uPSRuntime.ClassCallProcConstructor
 0001:00048644       uPSRuntime.ClassCallProcEventPropertyHelper
 0001:00046AFC       uPSRuntime.ClassCallProcMethod
 0001:00047998       uPSRuntime.ClassCallProcProperty
 0001:00047F70       uPSRuntime.ClassCallProcPropertyHelper
 0001:000482AC       uPSRuntime.ClassCallProcPropertyHelperName
 0001:00047074       uPSRuntime.ClassCallProcVirtualConstructor
 0001:00038CE8       uPSRuntime.Class_IS
 0001:000378C4       uPSRuntime.CopyArrayContents
 0001:0003786C       uPSRuntime.CopyRecordContents
 0001:000349EC       uPSRuntime.CreateHeapVariant
 0001:00034994       uPSRuntime.CreateHeapVariant2
 0001:0004422C       uPSRuntime.CreateOpenArray
 0001:00042934       uPSRuntime.DefProc
 0001:00049790       uPSRuntime.DelphiFunctionProc
 0001:0004990C       uPSRuntime.DelphiFunctionProc_CDECL
 0001:00049934       uPSRuntime.DelphiFunctionProc_Pascal
 0001:00049920       uPSRuntime.DelphiFunctionProc_Register
 0001:00049948       uPSRuntime.DelphiFunctionProc_Stdcall
 0001:00034A10       uPSRuntime.DestroyHeapVariant
 0001:000349B0       uPSRuntime.DestroyHeapVariant2
 0001:0004450C       uPSRuntime.DestroyOpenArray
 0001:00046AC0       uPSRuntime.DisposePPSVariantIFC
 0001:00046AD0       uPSRuntime.DisposePPSVariantIFCList
 0003:00000F20       uPSRuntime.DispPropertyPut
 0003:00000F1C       uPSRuntime.EmptyPchar
 0001:00049A94       uPSRuntime.EPSException.Create
 0001:00034764       uPSRuntime.FinalizeVariant
 0001:00033F3C       uPSRuntime.FloatToStr
 0001:0004337C       uPSRuntime.GetArrayLength
 0001:000469D0       uPSRuntime.GetMethodInfoRec
 0001:00047968       uPSRuntime.getMethodNo
 0001:000447D0       uPSRuntime.GetPtr
 0001:0004037C       uPSRuntime.GetRunLine
 0001:0004A2C4       uPSRuntime.IDispatchInvoke
 0001:000345E0       uPSRuntime.InitializeVariant
 0001:000478A0       uPSRuntime.InterfaceProc
 0001:0004763C       uPSRuntime.IntfCallProc
 0001:00043F4C       uPSRuntime.IntPIFVariantToVariant
 0001:00036040       uPSRuntime.LoadProcs
 0001:0003597C       uPSRuntime.LoadTypes
 0001:0003650C       uPSRuntime.LoadVars
 0001:00034F88       uPSRuntime.LookupProc
 0001:0004698C       uPSRuntime.MkMethod
 0001:00049050       uPSRuntime.MyAllMethodsHandler
 0001:00049150       uPSRuntime.MyAllMethodsHandler2
 0001:00046A80       uPSRuntime.NewPPSVariantIFC
 0001:00046A48       uPSRuntime.NewTPSVariantIFC
 0001:000475E0       uPSRuntime.NilProc
 0001:0004280C       uPSRuntime.NVarProc
 0001:00033F5C       uPSRuntime.Padl
 0001:00034054       uPSRuntime.Padr
 0001:00033FD8       uPSRuntime.Padz
 0001:000469C0       uPSRuntime.PFree
 0001:0004421C       uPSRuntime.PIFVariantToVariant
 0001:00037D38       uPSRuntime.PSDynArrayGetLength
 0001:00037DA4       uPSRuntime.PSDynArraySetLength
 0001:00034118       uPSRuntime.PSErrorToString
 0001:00036DD0       uPSRuntime.PSGetCurrency
 0001:00036FC8       uPSRuntime.PSGetInt
 0001:00036A6C       uPSRuntime.PSGetInt64
 0001:00036C08       uPSRuntime.PSGetReal
 0001:0003710C       uPSRuntime.PSGetString
 0001:00036820       uPSRuntime.PSGetUInt
 0001:00037248       uPSRuntime.PSGetWideString
 0001:00037620       uPSRuntime.PSSetInt
 0001:00037394       uPSRuntime.PSSetInt64
 0001:0003751C       uPSRuntime.PSSetReal
 0001:000377C0       uPSRuntime.PSSetString
 0001:00049144       uPSRuntime.PutOnFPUStackExtended
 0001:000351EC       uPSRuntime.read
 0001:0003523C       uPSRuntime.ReadAttrib
 0001:000358E4       uPSRuntime.ReadAttributes
 0001:00043E04       uPSRuntime.RealCall_CDecl
 0001:00043DB0       uPSRuntime.RealCall_Other
 0001:00043D54       uPSRuntime.RealCall_Register
 0001:00043D0C       uPSRuntime.RealFloatCall_CDecl
 0001:00043CD0       uPSRuntime.RealFloatCall_Other
 0001:00043C88       uPSRuntime.RealFloatCall_Register
 0001:0004342C       uPSRuntime.RegisterInterfaceLibraryRuntime
 0001:00035938       uPSRuntime.resolve
 0001:0004906C       uPSRuntime.ResultAsRegister
 0001:000447AC       uPSRuntime.rp
 0001:000340D0       uPSRuntime.SafeStr
 0001:000433D4       uPSRuntime.SetArrayLength
 0001:00038D5C       uPSRuntime.SetBoolean
 0001:00033E10       uPSRuntime.Set_Diff
 0001:00033E78       uPSRuntime.Set_Equal
 0001:00033E28       uPSRuntime.Set_Intersect
 0001:00033EA4       uPSRuntime.Set_membership
 0001:00033E40       uPSRuntime.Set_Subset
 0001:00033DF8       uPSRuntime.Set_Union
 0001:00048A44       uPSRuntime.SpecImport
 0001:000490B4       uPSRuntime.SupportsRegister
 0001:00043E60       uPSRuntime.ToString
 0001:000400A0       uPSRuntime.TPSExec.AddResource
 0001:00040204       uPSRuntime.TPSExec.AddSpecialProcImport
 0001:00034A58       uPSRuntime.TPSExec.Cleanup
 0001:00034ACC       uPSRuntime.TPSExec.Clear
 0001:000367EC       uPSRuntime.TPSExec.CMD_Err
 0001:00048EC4       uPSRuntime.TPSExec.CMD_Err2
 0001:0004018C       uPSRuntime.TPSExec.CMD_Err3
 0001:00034BD4       uPSRuntime.TPSExec.Create
 0001:000400C8       uPSRuntime.TPSExec.DeleteResource
 0001:00034D24       uPSRuntime.TPSExec.Destroy
 0001:00038DFC       uPSRuntime.TPSExec.DoBooleanCalc
 0001:0003FAB4       uPSRuntime.TPSExec.DoBooleanNot
 0001:0003AEC4       uPSRuntime.TPSExec.DoCalc
 0001:0004026C       uPSRuntime.TPSExec.DoIntegerNot
 0001:0003F954       uPSRuntime.TPSExec.DoMinus
 0001:00034E58       uPSRuntime.TPSExec.ExceptionProc
 0001:00040100       uPSRuntime.TPSExec.FindProcResource
 0001:00040134       uPSRuntime.TPSExec.FindProcResource2
 0001:00048ED4       uPSRuntime.TPSExec.FindSpecialProcImport
 0001:00040040       uPSRuntime.TPSExec.FindType
 0001:00040030       uPSRuntime.TPSExec.FindType2
 0001:00048ECC       uPSRuntime.TPSExec.GetProcCount
 0001:00040258       uPSRuntime.TPSExec.GetProcNo
 0001:0004008C       uPSRuntime.TPSExec.GetTypeNo
 0001:00035024       uPSRuntime.TPSExec.ImportProc
 0001:00044F30       uPSRuntime.TPSExec.InnerfuseCall
 0001:00048F08       uPSRuntime.TPSExec.InvokeExternalMethod
 0001:000366C4       uPSRuntime.TPSExec.LoadData
 0001:000367B4       uPSRuntime.TPSExec.Pause
 0001:000367C0       uPSRuntime.TPSExec.ReadData
 0001:0003FC60       uPSRuntime.TPSExec.ReadLong
 0001:0003EEFC       uPSRuntime.TPSExec.ReadVariable
 0001:0004995C       uPSRuntime.TPSExec.RegisterDelphiFunction
 0001:000499BC       uPSRuntime.TPSExec.RegisterDelphiMethod
 0001:0003514C       uPSRuntime.TPSExec.RegisterFunctionName
 0001:00043450       uPSRuntime.TPSExec.RegisterStandardProcs
 0001:0004017C       uPSRuntime.TPSExec.RunLine
 0001:0003FC84       uPSRuntime.TPSExec.RunProc
 0001:0004039C       uPSRuntime.TPSExec.RunScript
 0001:00037FD4       uPSRuntime.TPSExec.SetVariantValue
 0001:0003FC34       uPSRuntime.TPSExec.Stop
 0001:00049C2C       uPSRuntime.TPSInternalProcRec.Destroy
 0001:00049C60       uPSRuntime.TPSProcRec.Create
 0001:00049CAC       uPSRuntime.TPSProcRec.Destroy
 0001:00049AE4       uPSRuntime.TPSRuntimeAttribute.AddValue
 0001:00049AF0       uPSRuntime.TPSRuntimeAttribute.Create
 0001:00049B3C       uPSRuntime.TPSRuntimeAttribute.Destroy
 0001:00049B6C       uPSRuntime.TPSRuntimeAttributes.Add
 0001:00049B90       uPSRuntime.TPSRuntimeAttributes.Create
 0001:00049BDC       uPSRuntime.TPSRuntimeAttributes.Destroy
 0001:0004973C       uPSRuntime.TPSRuntimeClassImporter.FindClass
 0001:00049CFC       uPSRuntime.TPSStack.AdjustLength
 0001:00049D0C       uPSRuntime.TPSStack.Clear
 0001:00049D70       uPSRuntime.TPSStack.Create
 0001:00049DC0       uPSRuntime.TPSStack.Destroy
 0001:00049E34       uPSRuntime.TPSStack.GetInt
 0001:00049E54       uPSRuntime.TPSStack.GetInt64
 0001:00049E88       uPSRuntime.TPSStack.GetItem
 0001:00049E98       uPSRuntime.TPSStack.GetReal
 0001:00049EC4       uPSRuntime.TPSStack.GetString
 0001:00049EF0       uPSRuntime.TPSStack.Pop
 0001:00049F54       uPSRuntime.TPSStack.PushType
 0001:00049F9C       uPSRuntime.TPSStack.SetCapacity
 0001:0004A088       uPSRuntime.TPSStack.SetInt
 0001:0004A114       uPSRuntime.TPSStack.SetInt64
 0001:0004A1A4       uPSRuntime.TPSStack.SetReal
 0001:0004A238       uPSRuntime.TPSStack.SetString
 0001:000343EC       uPSRuntime.TPSTypeRec.CalcSize
 0001:000344A4       uPSRuntime.TPSTypeRec.Create
 0001:000344F0       uPSRuntime.TPSTypeRec.Destroy
 0001:00049CDC       uPSRuntime.TPSTypeRec_Array.CalcSize
 0001:0004A690       uPSRuntime.TPSTypeRec_ProcPtr.CalcSize
 0001:00034520       uPSRuntime.TPSTypeRec_Record.CalcSize
 0001:00034554       uPSRuntime.TPSTypeRec_Record.Create
 0001:000345A8       uPSRuntime.TPSTypeRec_Record.Destroy
 0001:00049CF4       uPSRuntime.TPSTypeRec_Set.CalcSize
 0001:00049CE4       uPSRuntime.TPSTypeRec_StaticArray.CalcSize
 0001:00033EC4       uPSRuntime.Trim
 0001:0003AEAC       uPSRuntime.VarIsFloat
 0001:000367F8       uPSRuntime.VarToWideStr
 0001:00046A44       uPSRuntime.VirtualClassMethodPtrToPtr
 0001:00046A3C       uPSRuntime.VirtualMethodPtrToPtr
 0001:0004A718       uPSR_dll.DllFree
 0001:0004A704       uPSR_dll.DLLGetLastError
 0001:0004A8F8       uPSR_dll.DllProc
 0001:0004A6C8       uPSR_dll.DLLSetLastError
 0001:0004ABD8       uPSR_dll.GetLastErrorProc
 0001:0004A6B8       uPSR_dll.LAstErrorFree
 0001:0004A734       uPSR_dll.LoadDll
 0001:0004AB08       uPSR_dll.ProcessDllImport
 0001:0004AB10       uPSR_dll.ProcessDllImportEx
 0001:0004AD60       uPSR_dll.RegisterDLLRuntime
 0001:0004AD68       uPSR_dll.RegisterDLLRuntimeEx
 0001:0004ABFC       uPSR_dll.UnloadProc
 0004:000049E4       uPSUtils..4
 0001:00015E30       uPSUtils..TPSList
 0001:00015EE4       uPSUtils..TPSPascalParser
 0001:00015E88       uPSUtils..TPSStringList
 0001:00016974       uPSUtils.CheckReserved
 0001:00016508       uPSUtils.FastLowerCase
 0001:000164B8       uPSUtils.FastUpperCase
 0001:0001759C       uPSUtils.Finalization
 0001:00015FA8       uPSUtils.GRFW
 0001:00016000       uPSUtils.GRLW
 0001:000160D4       uPSUtils.IntToStr
 0003:00000CC4       uPSUtils.LookupTable
 0001:00015F74       uPSUtils.MakeHash
 0001:000161C0       uPSUtils.MM
 0001:00016AA8       uPSUtils.ParseToken
 0001:00016064       uPSUtils.StrToFloat
 0001:00016140       uPSUtils.StrToInt
 0001:00016154       uPSUtils.StrToIntDef
 0001:00016248       uPSUtils.TPSList.Add
 0001:00016320       uPSUtils.TPSList.Clear
 0001:0001616C       uPSUtils.TPSList.Create
 0001:000162AC       uPSUtils.TPSList.Delete
 0001:00016290       uPSUtils.TPSList.DeleteLast
 0001:0001632C       uPSUtils.TPSList.Destroy
 0001:00016374       uPSUtils.TPSList.GetItem
 0001:00017578       uPSUtils.TPSList.IndexOf
 0001:000161E4       uPSUtils.TPSList.Recreate
 0001:000162F0       uPSUtils.TPSList.Remove
 0001:00016360       uPSUtils.TPSList.SetItem
 0001:00016968       uPSUtils.TPSPascalParser.GetCol
 0001:00017310       uPSUtils.TPSPascalParser.Next
 0001:0001753C       uPSUtils.TPSPascalParser.SetText
 0001:000163D4       uPSUtils.TPSStringList.Add
 0001:00016384       uPSUtils.TPSStringList.Count
 0001:00016430       uPSUtils.TPSStringList.Create
 0001:00016404       uPSUtils.TPSStringList.Delete
 0001:00016474       uPSUtils.TPSStringList.Destroy
 0001:0001638C       uPSUtils.TPSStringList.GetItem
 0001:000163B4       uPSUtils.TPSStringList.SetItem
 0002:0000028C       uPSUtils.uPSUtils
 0001:00016A38       uPSUtils._GetToken
 0004:0000498C       Variants..81
 0001:0000CA3C       Variants..EVariantArrayCreateError
 0001:0000C9D4       Variants..EVariantArrayLockedError
 0001:0000C970       Variants..EVariantBadIndexError
 0001:0000C90C       Variants..EVariantBadVarTypeError
 0001:0000CBD4       Variants..EVariantDispatchError
 0001:0000C8A8       Variants..EVariantInvalidArgError
 0001:0000CC38       Variants..EVariantInvalidNullOpError
 0001:0000C77C       Variants..EVariantInvalidOpError
 0001:0000CAA4       Variants..EVariantNotImplError
 0001:0000CB08       Variants..EVariantOutOfMemoryError
 0001:0000C844       Variants..EVariantOverflowError
 0001:0000C7E0       Variants..EVariantTypeCastError
 0001:0000CB70       Variants..EVariantUnexpectedError
 0001:0000C6B0       Variants..TCustomVariantType
 0001:0000D240       Variants.@DispInvokeError
 0001:000145E4       Variants.@VarAdd
 0001:00013C1C       Variants.@VarAddRef
 0001:00014620       Variants.@VarAnd
 0001:00014108       Variants.@VarArrayPut
 0001:0000DD98       Variants.@VarCast
 0001:0000D52C       Variants.@VarClear
 0001:0000D540       Variants.@VarClr
 0001:00014668       Variants.@VarCmpEQ
 0001:000146B8       Variants.@VarCmpGE
 0001:000146A8       Variants.@VarCmpGT
 0001:00014698       Variants.@VarCmpLE
 0001:00014688       Variants.@VarCmpLT
 0001:00014678       Variants.@VarCmpNE
 0001:0000D854       Variants.@VarCopy
 0001:0000DAD4       Variants.@VarCopyNoInd
 0001:00014608       Variants.@VarDiv
 0001:00011AF8       Variants.@VarFromBool
 0001:00011984       Variants.@VarFromByte
 0001:00011B48       Variants.@VarFromCurr
 0001:00011AA0       Variants.@VarFromCurrency
 0001:00011ACC       Variants.@VarFromDate
 0001:00011BEC       Variants.@VarFromDisp
 0001:00011A74       Variants.@VarFromDouble
 0001:00011928       Variants.@VarFromInt
 0001:00011A24       Variants.@VarFromInt64
 0001:00011964       Variants.@VarFromInteger
 0001:00011BC0       Variants.@VarFromIntf
 0001:000119C4       Variants.@VarFromLongWord
 0001:00011B5C       Variants.@VarFromLStr
 0001:00011B20       Variants.@VarFromReal
 0001:000119E4       Variants.@VarFromShortInt
 0001:00011A50       Variants.@VarFromSingle
 0001:00011A04       Variants.@VarFromSmallInt
 0001:00011B34       Variants.@VarFromTDateTime
 0001:000119A4       Variants.@VarFromWord
 0001:00011B88       Variants.@VarFromWStr
 0001:00014614       Variants.@VarMod
 0001:000145FC       Variants.@VarMul
 0001:000134E8       Variants.@VarNeg
 0001:0001399C       Variants.@VarNot
 0001:0000D294       Variants.@VarNull
 0001:00012A2C       Variants.@VarOp
 0001:0001462C       Variants.@VarOr
 0001:0001465C       Variants.@VarRDiv
 0001:00014644       Variants.@VarShl
 0001:00014650       Variants.@VarShr
 0001:0000DAE8       Variants.@VarStringToOleStr
 0001:000145F0       Variants.@VarSub
 0001:0000F224       Variants.@VarToBoolean
 0001:0000E660       Variants.@VarToByte
 0001:0001040C       Variants.@VarToCurrency
 0001:0000FEA4       Variants.@VarToDate
 0001:0001187C       Variants.@VarToDisp
 0001:0000F738       Variants.@VarToDouble
 0001:0000EC2C       Variants.@VarToInt64
 0001:0000E15C       Variants.@VarToInteger
 0001:000117B0       Variants.@VarToIntf
 0001:0000E8DC       Variants.@VarToLongWord
 0001:00010AC4       Variants.@VarToLStr
 0001:0000FAB0       Variants.@VarToReal
 0001:0000E5AC       Variants.@VarToShortInt
 0001:0000FACC       Variants.@VarToSingle
 0001:0000E708       Variants.@VarToSmallInt
 0001:0000E800       Variants.@VarToWord
 0001:000111E4       Variants.@VarToWStr
 0001:00014638       Variants.@VarXor
 0001:0001203C       Variants.AnyOp
 0001:00011738       Variants.AnyToIntf
 0003:00000B14       Variants.BaseTypeMap
 0003:00000B10       Variants.BooleanToStringRule
 0001:00010844       Variants.BoolToWStrViaOS
 0003:00000BC0       Variants.CBooleanToRelationship
 0004:00004984       Variants.ChangeAnyProc
 0001:00012018       Variants.CheckType
 0003:00000B2C       Variants.CInvalidCustomVariantType
 0004:00004980       Variants.ClearAnyProc
 0001:00014274       Variants.ClearVariantTypeList
 0003:00000BCC       Variants.CmpTypeMap
 0003:00000B30       Variants.CRangeToType
 0003:00000CA0       Variants.CRelationshipToBoolean
 0003:00000C4C       Variants.CText
 0003:00000C48       Variants.CTruth
 0001:00012D44       Variants.CurrCompare
 0001:00012628       Variants.CurrOp
 0001:000107D4       Variants.CurrToWStrViaOS
 0001:00012D18       Variants.DateCompare
 0001:0001215C       Variants.DateOp
 0001:0001080C       Variants.DateToWStrViaOS
 0001:00012B94       Variants.EmptyCompare
 0001:00012590       Variants.EmptyOp
 0004:0000496C       Variants.EmptyParam
 0001:000146C8       Variants.Finalization
 0001:00014518       Variants.FindCustomVariantType
 0001:00013F14       Variants.FindVarData
 0001:00013FC0       Variants.GetVarDataArrayInfo
 0001:0000D1BC       Variants.HandleConversionException
 0001:0000D548       Variants.InBounds
 0001:0000D2A8       Variants.InBounds
 0001:0000D578       Variants.Increment
 0001:0000D2D8       Variants.Increment
 0001:00012CB0       Variants.Int64Compare
 0001:000122EC       Variants.Int64Op
 0001:00012C9C       Variants.IntCompare
 0001:000121D0       Variants.IntOp
 0004:00004990       Variants.LVarTypes
 0004:00004994       Variants.LVarTypeSync
 0001:000134A8       Variants.NegateAny
 0001:000133F8       Variants.NegateAsDouble
 0001:00013454       Variants.NegateByte
 0001:000134BC       Variants.NegateCustom
 0001:00013474       Variants.NegateLongWord
 0001:00013428       Variants.NegateVariant
 0001:00013410       Variants.NegateViaOS
 0001:00013464       Variants.NegateWord
 0001:0001395C       Variants.NotAny
 0001:000138B0       Variants.NotAsOrdinal
 0001:000137DC       Variants.NotAsString
 0001:00013970       Variants.NotCustom
 0001:00013930       Variants.NotVariant
 0001:00013918       Variants.NotViaOS
 0001:000145DC       Variants.Null
 0003:00000B08       Variants.NullAsStringValue
 0001:00012BA8       Variants.NullCompare
 0003:00000AFC       Variants.NullEqualityRule
 0003:00000B00       Variants.NullMagnitudeRule
 0001:000124E4       Variants.NullOp
 0003:00000B04       Variants.NullStrictConvert
 0003:00000B44       Variants.OpTypeMap
 0003:00000B0C       Variants.PackVarCreation
 0001:00012CEC       Variants.RealCompare
 0001:000120C8       Variants.RealOp
 0004:00004988       Variants.RefAnyProc
 0001:00013FB4       Variants.SetClearVarToEmptyParam
 0001:00013F9C       Variants.SetVarAsError
 0001:000127B0       Variants.SimpleVarOp
 0001:00012D74       Variants.StringCompare
 0001:000142E0       Variants.TCustomVariantType.BinaryOp
 0001:000142EC       Variants.TCustomVariantType.Cast
 0001:00014324       Variants.TCustomVariantType.CastTo
 0001:000143B0       Variants.TCustomVariantType.CastToOle
 0001:0001436C       Variants.TCustomVariantType.Compare
 0001:00014378       Variants.TCustomVariantType.CompareOp
 0001:000143EC       Variants.TCustomVariantType.Destroy
 0001:000144CC       Variants.TCustomVariantType.DispInvoke
 0001:00014478       Variants.TCustomVariantType.IsClear
 0001:0001447C       Variants.TCustomVariantType.LeftPromotion
 0001:00014490       Variants.TCustomVariantType.OlePromotion
 0001:000144F0       Variants.TCustomVariantType.QueryInterface
 0001:00014498       Variants.TCustomVariantType.RaiseCastError
 0001:000144A8       Variants.TCustomVariantType.RaiseDispError
 0001:000144A0       Variants.TCustomVariantType.RaiseInvalidOp
 0001:000144B0       Variants.TCustomVariantType.RightPromotion
 0001:000144C4       Variants.TCustomVariantType.UnaryOp
 0001:000144D8       Variants.TCustomVariantType._AddRef
 0001:000144E4       Variants.TCustomVariantType._Release
 0001:0000CF28       Variants.TranslateResult
 0001:000145D4       Variants.Unassigned
 0001:0000D334       Variants.VarArrayClear
 0001:0000D5D4       Variants.VarArrayCopyForEach
 0001:00014004       Variants.VarArrayCreate
 0001:0000CED4       Variants.VarArrayCreateError
 0001:0000DB10       Variants.VarCastAsAny
 0001:0000DC14       Variants.VarCastAsDispatch
 0001:0000DC60       Variants.VarCastAsInterface
 0001:0000DB7C       Variants.VarCastAsOleStr
 0001:0000DBC8       Variants.VarCastAsString
 0001:0000CCF4       Variants.VarCastError
 0001:0000CCA0       Variants.VarCastError
 0001:0000DD2C       Variants.VarCastRare
 0001:0000DCAC       Variants.VarCastViaOS
 0001:0000D4B0       Variants.VarClearDeep
 0001:00013390       Variants.VarCompare
 0001:00012ABC       Variants.VarCompareAny
 0001:00012F6C       Variants.VarCompareRare
 0001:00012DE0       Variants.VarCompareSimple
 0001:0000D8FC       Variants.VarCopyByRef
 0001:0000D7A0       Variants.VarCopyCopyProc
 0001:0000D7A8       Variants.VarCopyDeep
 0001:0000D8C0       Variants.VarCopyNoIndCopyProc
 0001:0000D8C8       Variants.VarCopyNoIndDeep
 0001:0000D8B8       Variants.VarCopyNoIndOleStr
 0001:0000D898       Variants.VarCopyNoIndViaOS
 0004:0000497C       Variants.VarDispProc
 0002:00000144       Variants.Variants
 0001:0000CDE4       Variants.VarInvalidNullOp
 0001:0000CD90       Variants.VarInvalidOp
 0001:00013F30       Variants.VarIsEmpty
 0001:00013F44       Variants.VarIsNull
 0001:00011CCC       Variants.VarOpRare
 0001:0000CE38       Variants.VarOverflowError
 0001:0000D17C       Variants.VarResultCheck
 0001:0000D188       Variants.VarResultCheck
 0001:00011C18       Variants.VarStrCat
 0001:0000DB08       Variants.VarStringToOleStr
 0001:0000F174       Variants.VarToBoolAny
 0001:0000F070       Variants.VarToBoolAsString
 0001:0000F1D8       Variants.VarToBoolCustom
 0001:0000F134       Variants.VarToBoolViaOS
 0001:0001035C       Variants.VarToCurrencyAny
 0001:000102B0       Variants.VarToCurrencyAsDouble
 0001:000101F4       Variants.VarToCurrencyAsString
 0001:000103C0       Variants.VarToCurrencyCustom
 0001:00010310       Variants.VarToCurrencyViaOS
 0001:0000FDF4       Variants.VarToDateAny
 0001:0000FD48       Variants.VarToDateAsDouble
 0001:0000FC5C       Variants.VarToDateAsString
 0001:0000FE58       Variants.VarToDateCustom
 0001:0000FDA8       Variants.VarToDateViaOS
 0001:0000F688       Variants.VarToDoubleAny
 0001:0000F578       Variants.VarToDoubleAsString
 0001:0000F6EC       Variants.VarToDoubleCustom
 0001:0000F63C       Variants.VarToDoubleViaOS
 0001:0000EB74       Variants.VarToInt64Any
 0001:0000EA74       Variants.VarToInt64AsString
 0001:0000EBE0       Variants.VarToInt64Custom
 0001:0000E9C8       Variants.VarToInt64ViaOS
 0001:0000E0B4       Variants.VarToIntAny
 0001:0000DFC4       Variants.VarToIntAsString
 0001:0000E118       Variants.VarToIntCustom
 0001:0000E078       Variants.VarToIntViaOS
 0001:000109D8       Variants.VarToLStrAny
 0001:00010A3C       Variants.VarToLStrCustom
 0001:0001090C       Variants.VarToLStrViaOS
 0001:00013F58       Variants.VarToStr
 0001:00013F70       Variants.VarToStrDef
 0001:000110B8       Variants.VarToWStrAny
 0001:0001111C       Variants.VarToWStrCustom
 0001:00011000       Variants.VarToWStrViaOS
 0001:00013F10       Variants.VarType
 0001:00013DA0       Variants.VarTypeAsText
 0001:00013F24       Variants.VarTypeIsCustom
 0001:000140AC       Variants.VarTypeIsValidArrayType
 0001:000140CC       Variants.VarTypeIsValidElementType
 0004:00004968       VarUtils..5
 0001:0000C0F8       VarUtils.BackupVarBoolFromStr
 0001:0000C25C       VarUtils.BackupVarBStrFromBool
 0001:0000C178       VarUtils.BackupVarBStrFromCy
 0001:0000C1E8       VarUtils.BackupVarBStrFromDate
 0001:0000C08C       VarUtils.BackupVarCyFromStr
 0001:0000C020       VarUtils.BackupVarDateFromStr
 0001:0000BEDC       VarUtils.BackupVarI4FromStr
 0001:0000BE88       VarUtils.BackupVariantChangeTypeEx
 0001:0000BF48       VarUtils.BackupVarR4FromStr
 0001:0000BFB4       VarUtils.BackupVarR8FromStr
 0001:0000BEC4       VarUtils.BiUnimplemented
 0001:0000BED0       VarUtils.CmpUnimplemented
 0003:00000AF4       VarUtils.CResult
 0003:000009EC       VarUtils.CVarTypeToElementInfo
 0001:0000C630       VarUtils.Finalization
 0001:0000C2F8       VarUtils.FindProc
 0001:0000C324       VarUtils.InitializeVarUtils
 0001:0000C2D0       VarUtils.SafeArrayCreate
 0001:0000C2D8       VarUtils.SafeArrayGetLBound
 0001:0000C2E0       VarUtils.SafeArrayGetUBound
 0001:0000C2F0       VarUtils.SafeArrayPtrOfIndex
 0001:0000C2E8       VarUtils.SafeArrayPutElement
 0001:0000BEB8       VarUtils.UniUnimplemented
 0004:0000491C       VarUtils.VarAdd
 0004:00004934       VarUtils.VarAnd
 0004:00004958       VarUtils.VarBoolFromStr
 0004:00004964       VarUtils.VarBstrFromBool
 0004:0000495C       VarUtils.VarBstrFromCy
 0004:00004960       VarUtils.VarBstrFromDate
 0004:00004940       VarUtils.VarCmp
 0004:00004954       VarUtils.VarCyFromStr
 0004:00004950       VarUtils.VarDateFromStr
 0004:00004928       VarUtils.VarDiv
 0004:00004944       VarUtils.VarI4FromStr
 0001:0000BE80       VarUtils.VariantChangeType
 0004:00004910       VarUtils.VariantChangeTypeEx
 0001:0000BE68       VarUtils.VariantClear
 0001:0000BE70       VarUtils.VariantCopy
 0001:0000BE78       VarUtils.VariantCopyInd
 0001:0000BE60       VarUtils.VariantInit
 0004:0000492C       VarUtils.VarIDiv
 0004:00004930       VarUtils.VarMod
 0004:00004924       VarUtils.VarMul
 0004:00004914       VarUtils.VarNeg
 0004:00004918       VarUtils.VarNot
 0004:00004938       VarUtils.VarOr
 0004:00004948       VarUtils.VarR4FromStr
 0004:0000494C       VarUtils.VarR8FromStr
 0004:00004920       VarUtils.VarSub
 0002:00000134       VarUtils.VarUtils
 0004:0000493C       VarUtils.VarXor
 0004:00002800       Windows..3
 0001:00005C8C       Windows.CharLowerBuff
 0001:00005C94       Windows.CharNext
 0001:00005C9C       Windows.CharToOemA
 0001:00005CA4       Windows.CharUpperBuff
 0001:00005B9C       Windows.CloseHandle
 0001:00005BA4       Windows.CompareString
 0001:00005BAC       Windows.CreateEvent
 0001:00005BB4       Windows.DeleteCriticalSection
 0001:00005BBC       Windows.EnterCriticalSection
 0001:00005BC4       Windows.EnumCalendarInfoA
 0001:00005CC4       Windows.Finalization
 0001:00005BCC       Windows.FormatMessage
 0001:00005BD4       Windows.FreeLibrary
 0001:00005BDC       Windows.GetCPInfo
 0001:00005BE4       Windows.GetCurrentThreadId
 0001:00005BEC       Windows.GetDateFormat
 0001:00005BF4       Windows.GetDiskFreeSpaceA
 0001:00005BFC       Windows.GetLastError
 0001:00005C0C       Windows.GetLocaleInfo
 0001:00005C04       Windows.GetLocalTime
 0001:00005C14       Windows.GetModuleFileName
 0001:00005C1C       Windows.GetModuleHandle
 0001:00005C24       Windows.GetProcAddress
 0001:00005C2C       Windows.GetStdHandle
 0001:00005CAC       Windows.GetSystemMetrics
 0001:00005C34       Windows.GetThreadLocale
 0001:00005C3C       Windows.GetVersionEx
 0004:00002804       Windows.HtmlHelpModule
 0001:00005C44       Windows.InitializeCriticalSection
 0001:00005C4C       Windows.LeaveCriticalSection
 0001:00005C54       Windows.LoadLibrary
 0001:00005CB4       Windows.LoadString
 0001:00005CBC       Windows.MessageBox
 0001:00005C5C       Windows.MultiByteToWideChar
 0001:00005C64       Windows.ResetEvent
 0001:00005C6C       Windows.SetEvent
 0001:00005C74       Windows.VirtualQuery
 0001:00005C7C       Windows.WaitForSingleObject
 0002:00000098       Windows.Windows
 0001:00005C84       Windows.WriteFile


  Address             Publics by Value

 0001:0000003C       System..TObject
 0001:00000100       System..TInterfacedObject
 0001:00000160       System.GetStdHandle
 0001:00000168       System.RaiseException
 0001:00000170       System.RtlUnwind
 0001:00000178       System.UnhandledExceptionFilter
 0001:00000180       System.WriteFile
 0001:00000188       System.CharNext
 0001:00000190       System.ExitProcess
 0001:00000198       System.MessageBox
 0001:000001A0       System.FindClose
 0001:000001A8       System.FindFirstFile
 0001:000001B0       System.FreeLibrary
 0001:000001B8       System.GetCommandLine
 0001:000001C0       System.GetLocaleInfo
 0001:000001C8       System.GetModuleFileName
 0001:000001D0       System.GetModuleHandle
 0001:000001D8       System.GetProcAddress
 0001:000001E0       System.GetStartupInfo
 0001:000001E8       System.GetThreadLocale
 0001:000001F0       System.LoadLibraryEx
 0001:000001F8       System.LoadString
 0001:00000200       System.lstrcpyn
 0001:00000208       System.@strlen
 0001:00000210       System.MultiByteToWideChar
 0001:00000218       System.RegCloseKey
 0001:00000220       System.RegOpenKeyEx
 0001:00000228       System.RegQueryValueEx
 0001:00000230       System.WideCharToMultiByte
 0001:00000238       System.VirtualQuery
 0001:00000240       System.SysAllocStringLen
 0001:00000248       System.SysReAllocStringLen
 0001:00000250       System.SysFreeString
 0001:00000258       System.InterlockedIncrement
 0001:00000260       System.InterlockedDecrement
 0001:00000268       System.GetCurrentThreadId
 0001:00000270       System.GetCmdShow
 0001:00000294       System.VirtualAlloc
 0001:0000029C       System.VirtualFree
 0001:000002A4       System.Sleep
 0001:000002AC       System.DestroyWindow
 0001:00000314       System.LockCmpxchg
 0001:0000031C       System.Move12
 0001:00000330       System.Move20
 0001:00000350       System.Move28
 0001:0000037C       System.Move36
 0001:0000039C       System.Move44
 0001:000003C0       System.Move52
 0001:000003EC       System.Move60
 0001:0000041C       System.Move68
 0001:00000454       System.MoveX16L4
 0001:00000484       System.MoveX8L4
 0001:000004A0       System.RemoveMediumFreeBlock
 0001:000004E0       System.InsertMediumBlockIntoBin
 0001:00000540       System.BinMediumSequentialFeedRemainder
 0001:000005AC       System.AllocNewSequentialFeedMediumPool
 0001:00000624       System.LockLargeBlocks
 0001:0000066C       System.AllocateLargeBlock
 0001:000006D0       System.FreeLargeBlock
 0001:00000774       System.ReallocateLargeBlock
 0001:000008C0       System.SysGetMem
 0001:00000C44       System.SysFreeMem
 0001:00000E3C       System.SysReallocMem
 0001:00001154       System.SysAllocMem
 0001:00001184       System.NextMediumBlock
 0001:000011A8       System.GetFirstMediumBlockInPool
 0001:000011E8       System.GetFirstAndLastSmallBlockInPool
 0001:00001224       System.CardinalToStrBuf
 0001:00001340       System.AppendStringToBuffer
 0001:00001358       System.IsValidVMTAddress
 0001:000013D4       System.InternalIsValidClass
 0001:00001454       System.GetObjectClass
 0001:0000147C       System.LockExpectedMemoryLeaksList
 0001:000014F0       System.SysRegisterExpectedMemoryLeak
 0001:00001530       System.SysUnregisterExpectedMemoryLeak
 0001:00001588       System.CheckSmallBlockPoolForLeaks
 0001:000016D4       System.ScanForMemoryLeaks
 0001:00001B4C       System.BuildBlockTypeLookupTable
 0001:00001B90       System.InitializeMemoryManager
 0001:00001CB8       System.FreeAllMemory
 0001:00001D48       System.FinalizeMemoryManager
 0001:00001D9C       System.AllocMem
 0001:00001DB4       System.@GetMem
 0001:00001DD0       System.@FreeMem
 0001:00001DE8       System.@ReallocMem
 0001:00001E38       System.ExceptObject
 0001:00001E58       System.ExceptAddr
 0001:00001E78       System.AcquireExceptionObject
 0001:00001EAC       System.RunErrorAt
 0001:00001EB8       System.ErrorAt
 0001:00001F04       System.Error
 0001:00001F10       System.@_IOTest
 0001:00001F30       System.SetInOutRes
 0001:00001F40       System.@Copy
 0001:00001F84       System.IOResult
 0001:00001FA4       System.Move
 0001:000020A4       System.UpCase
 0001:000020B0       System.Int
 0001:000020DC       System.Cos
 0001:000020EC       System.Sin
 0001:000020FC       System.Sqrt
 0001:0000210C       System.@ROUND
 0001:00002118       System.@TRUNC
 0001:0000213C       System.@AbstractError
 0001:00002158       System.InternalFlush
 0001:000021A0       System.Flush
 0001:000021AC       System.@Close
 0001:00002204       System.@PStrCmp
 0001:00002288       System.@AStrCmp
 0001:000022F8       System.@FillChar
 0001:00002394       System.@StrLong
 0001:000023F4       System.@Str0Long
 0001:00002400       System.@ValLong
 0001:000024D4       System.@ValExt
 0001:000025D8       System.FPower10
 0001:000025E0       System.@Pow10
 0001:000028C4       System.GetKeyboardType
 0001:000028CC       System.@isNECWindows
 0001:000028FC       System.@FpuMaskInit
 0001:000029C0       System.@FpuInit
 0001:000029CC       System.@BoundErr
 0001:000029D4       System.@IntOver
 0001:000029DC       System.TObject.ClassType
 0001:000029E4       System.TObject.ClassName
 0001:000029F8       System.TObject.NewInstance
 0001:00002A14       System.TObject.FreeInstance
 0001:00002A28       System.TObject.InstanceSize
 0001:00002A30       System.TObject.Create
 0001:00002A50       System.TObject.Destroy
 0001:00002A60       System.TObject.Free
 0001:00002A6C       System.TObject.InitInstance
 0001:00002AC4       System.TObject.CleanupInstance
 0001:00002AE4       System.InvokeImplGetter
 0001:00002B14       System.TObject.GetInterface
 0001:00002BA8       System.TObject.GetInterfaceEntry
 0001:00002BEC       System.@IsClass
 0001:00002C10       System.@AsClass
 0001:00002C2C       System.GetDynaMethod
 0001:00002C5C       System.@CallDynaInst
 0001:00002C74       System.TObject.InheritsFrom
 0001:00002C88       System.TObject.ClassInfo
 0001:00002C90       System.TObject.SafeCallException
 0001:00002C98       System.TObject.DefaultHandler
 0001:00002C9C       System.TObject.AfterConstruction
 0001:00002CA0       System.TObject.BeforeDestruction
 0001:00002CA4       System.TObject.Dispatch
 0001:00002CCC       System.@ClassCreate
 0001:00002D1C       System.@ClassDestroy
 0001:00002D24       System.@AfterConstruction
 0001:00002D74       System.@BeforeDestruction
 0001:00002D84       System.NotifyReRaise
 0001:00002DA0       System.NotifyNonDelphiException
 0001:00002DC4       System.NotifyExcept
 0001:00002DDC       System.NotifyOnExcept
 0001:00002DF0       System.NotifyAnyExcept
 0001:00002E04       System.CheckJmp
 0001:00002E24       System.NotifyExceptFinally
 0001:00002E4C       System.NotifyTerminate
 0001:00002E68       System.NotifyUnhandled
 0001:00002E88       System.@HandleAnyException
 0001:00002FB4       System.@HandleOnException
 0001:0000313C       System.@HandleFinally
 0001:000031E4       System.@HandleFinallyInternal
 0001:0000321C       System.@RaiseExcept
 0001:00003244       System.@RaiseAgain
 0001:00003298       System.@DoneExcept
 0001:000032C8       System.@TryFinallyExit
 0001:000032E0       System.MapToRunError
 0001:00003380       System.@ExceptionHandler
 0001:00003420       System.SetExceptionHandler
 0001:00003440       System.UnsetExceptionHandler
 0001:00003468       System.FinalizeUnits
 0001:000034CC       System.InitUnits
 0001:00003534       System.@StartExe
 0001:00003574       System.@InitResStringImports
 0001:0000359C       System.@InitImports
 0001:000035C0       System.MakeErrorMessage
 0001:00003624       System.ExitDll
 0001:00003654       System.WriteErrorMessage
 0001:000036E0       System.@Halt0
 0001:000037BC       System.@Halt
 0001:000037C8       System.@RunError
 0001:000037D4       System.@LStrClr
 0001:000037F8       System.@LStrArrayClr
 0001:00003828       System.@LStrAsg
 0001:0000386C       System.@LStrLAsg
 0001:00003898       System.@NewAnsiString
 0001:000038C4       System.@LStrFromPCharLen
 0001:000038F4       System.CharFromWChar
 0001:00003914       System.WCharFromChar
 0001:00003930       System.@LStrFromPWCharLen
 0001:000039BC       System.@LStrFromChar
 0001:000039CC       System.@LStrFromWChar
 0001:000039DC       System.@LStrFromPChar
 0001:00003A0C       System.@LStrFromPWChar
 0001:00003A48       System.@LStrFromString
 0001:00003A54       System.@LStrFromArray
 0001:00003A6C       System.@LStrFromWStr
 0001:00003A80       System.@LStrToString
 0001:00003AA4       System.@LStrLen
 0001:00003AB0       System.@LStrCat
 0001:00003AFC       System.@LStrCat3
 0001:00003B78       System.@LStrCatN
 0001:00003C0C       System.@LStrCmp
 0001:00003C64       System.@LStrAddRef
 0001:00003C74       System.@LStrToPChar
 0001:00003C88       System.InternalUniqueString
 0001:00003CCC       System.UniqueString
 0001:00003CD4       System.@UniqueStringA
 0001:00003CDC       System.@LStrCopy
 0001:00003D1C       System.@LStrDelete
 0001:00003D64       System.@LStrInsert
 0001:00003DC0       System.Pos
 0001:00003F04       System.@LStrSetLength
 0001:00003F68       System.StringOfChar
 0001:00003F94       System.WStrError
 0001:00003F9C       System.@NewWideString
 0001:00003FB4       System.WStrSet
 0001:00003FC4       System.@WStrClr
 0001:00003FDC       System.@WStrArrayClr
 0001:00004000       System.@WStrAsg
 0001:00004028       System.@WStrFromPCharLen
 0001:000040B4       System.@WStrFromPWCharLen
 0001:000040D8       System.@WStrFromChar
 0001:000040E8       System.@WStrFromWChar
 0001:000040F8       System.@WStrFromPChar
 0001:00004128       System.@WStrFromPWChar
 0001:00004164       System.@WStrFromLStr
 0001:00004174       System.@WStrToPWChar
 0001:00004184       System.@WStrLen
 0001:00004190       System.@WStrCat
 0001:000041F0       System.@WStrCatN
 0001:00004238       System.@WStrCmp
 0001:000042BC       System.@WStrCopy
 0001:00004308       System.@WStrSetLength
 0001:0000434C       System.@InitializeRecord
 0001:0000437C       System.@InitializeArray
 0001:00004410       System.@Initialize
 0001:0000441C       System.@FinalizeRecord
 0001:00004450       System.@VarClr
 0001:00004468       System.@FinalizeArray
 0001:00004554       System.@Finalize
 0001:00004560       System.@VarCopy
 0001:00004578       System.@CopyRecord
 0001:00004694       System.@CopyArray
 0001:0000478C       System.@New
 0001:000047A0       System.@Dispose
 0001:000047B0       System.WideCharLenToStrVar
 0001:000047BC       System.OleStrToStrVar
 0001:000047E0       System.StringToOleStr
 0001:00004800       System.@DispCallByIDError
 0001:00004808       System.@_llmul
 0001:0000482C       System.@_lldiv
 0001:000048C0       System.@_llmod
 0001:0000493C       System.@_llshl
 0001:0000495C       System.@_llushr
 0001:0000497C       System.@ValInt64
 0001:00004B94       System.@DynArrayLength
 0001:00004B9C       System.@DynArrayHigh
 0001:00004BA4       System.CopyArray
 0001:00004BB4       System.FinalizeArray
 0001:00004BBC       System.DynArrayClear
 0001:00004BC4       System.DynArraySetLength
 0001:00004D50       System.@DynArraySetLength
 0001:00004D5C       System.@DynArrayClear
 0001:00004D98       System.@DynArrayAsg
 0001:00004DC0       System.FindHInstance
 0001:00004DE8       System.DelayLoadResourceModule
 0001:00004E30       System.FindResourceHInstance
 0001:00004E68       System.FindBS
 0001:00004E88       System.ToLongPath
 0001:0000504C       System.LoadResourceModule
 0001:000052BC       System.AddModuleUnloadProc
 0001:000052C4       System.RemoveModuleUnloadProc
 0001:000052CC       System.AddModuleUnloadProc
 0001:000052EC       System.RemoveModuleUnloadProc
 0001:00005350       System.NotifyModuleUnload
 0001:000053AC       System.RegisterModule
 0001:000053BC       System.UnregisterModule
 0001:0000542C       System.@IntfClear
 0001:00005444       System.@IntfCopy
 0001:00005470       System.@IntfAddRef
 0001:0000547C       System.TInterfacedObject.AfterConstruction
 0001:00005488       System.TInterfacedObject.BeforeDestruction
 0001:00005498       System.TInterfacedObject.NewInstance
 0001:000054A8       System.TInterfacedObject.QueryInterface
 0001:000054D0       System.TInterfacedObject._AddRef
 0001:000054E4       System.TInterfacedObject._Release
 0001:0000550C       System.Utf8ToUnicode
 0001:0000563C       System.UTF8Decode
 0001:000056F4       System.LoadResString
 0001:0000574C       System.GetACP
 0001:00005754       System.Finalization
 0001:000057B4       SysInit.GetModuleHandle
 0001:000057BC       SysInit.LocalAlloc
 0001:000057C4       SysInit.TlsGetValue
 0001:000057CC       SysInit.TlsSetValue
 0001:000057D4       SysInit.AllocTlsBuffer
 0001:000057E0       SysInit.GetTlsSize
 0001:000057E8       SysInit.InitThreadTLS
 0001:0000582C       SysInit.@GetTls
 0001:0000586C       SysInit.InitializeModule
 0001:00005878       SysInit.@InitExe
 0001:00005B9C       Windows.CloseHandle
 0001:00005BA4       Windows.CompareString
 0001:00005BAC       Windows.CreateEvent
 0001:00005BB4       Windows.DeleteCriticalSection
 0001:00005BBC       Windows.EnterCriticalSection
 0001:00005BC4       Windows.EnumCalendarInfoA
 0001:00005BCC       Windows.FormatMessage
 0001:00005BD4       Windows.FreeLibrary
 0001:00005BDC       Windows.GetCPInfo
 0001:00005BE4       Windows.GetCurrentThreadId
 0001:00005BEC       Windows.GetDateFormat
 0001:00005BF4       Windows.GetDiskFreeSpaceA
 0001:00005BFC       Windows.GetLastError
 0001:00005C04       Windows.GetLocalTime
 0001:00005C0C       Windows.GetLocaleInfo
 0001:00005C14       Windows.GetModuleFileName
 0001:00005C1C       Windows.GetModuleHandle
 0001:00005C24       Windows.GetProcAddress
 0001:00005C2C       Windows.GetStdHandle
 0001:00005C34       Windows.GetThreadLocale
 0001:00005C3C       Windows.GetVersionEx
 0001:00005C44       Windows.InitializeCriticalSection
 0001:00005C4C       Windows.LeaveCriticalSection
 0001:00005C54       Windows.LoadLibrary
 0001:00005C5C       Windows.MultiByteToWideChar
 0001:00005C64       Windows.ResetEvent
 0001:00005C6C       Windows.SetEvent
 0001:00005C74       Windows.VirtualQuery
 0001:00005C7C       Windows.WaitForSingleObject
 0001:00005C84       Windows.WriteFile
 0001:00005C8C       Windows.CharLowerBuff
 0001:00005C94       Windows.CharNext
 0001:00005C9C       Windows.CharToOemA
 0001:00005CA4       Windows.CharUpperBuff
 0001:00005CAC       Windows.GetSystemMetrics
 0001:00005CB4       Windows.LoadString
 0001:00005CBC       Windows.MessageBox
 0001:00005CC4       Windows.Finalization
 0001:00005D08       SysUtils..Exception
 0001:00005D70       SysUtils..EHeapException
 0001:00005DCC       SysUtils..EOutOfMemory
 0001:00005E28       SysUtils..EInOutError
 0001:00005E80       SysUtils..EExternal
 0001:00005ED8       SysUtils..EExternalException
 0001:00005F38       SysUtils..EIntError
 0001:00005F90       SysUtils..EDivByZero
 0001:00005FE8       SysUtils..ERangeError
 0001:00006040       SysUtils..EIntOverflow
 0001:0000609C       SysUtils..EMathError
 0001:000060F4       SysUtils..EInvalidOp
 0001:0000614C       SysUtils..EZeroDivide
 0001:000061A4       SysUtils..EOverflow
 0001:000061FC       SysUtils..EUnderflow
 0001:00006254       SysUtils..EInvalidPointer
 0001:000062B0       SysUtils..EInvalidCast
 0001:0000630C       SysUtils..EConvertError
 0001:00006368       SysUtils..EAccessViolation
 0001:000063C8       SysUtils..EPrivilege
 0001:00006420       SysUtils..EStackOverflow
 0001:0000647C       SysUtils..EControlC
 0001:000064D4       SysUtils..EVariantError
 0001:00006530       SysUtils..EAssertionFailed
 0001:00006590       SysUtils..EAbstractError
 0001:000065EC       SysUtils..EIntfCastError
 0001:00006648       SysUtils..EOSError
 0001:000066A0       SysUtils..ESafecallException
 0001:00006754       SysUtils..TThreadLocalCounter
 0001:00006830       SysUtils..TMultiReadExclusiveWriteSynchronizer
 0001:000068A4       SysUtils.DivMod
 0001:000068C0       SysUtils.ConvertErrorFmt
 0001:000068E4       SysUtils.UpperCase
 0001:0000696C       SysUtils.LowerCase
 0001:000069F4       SysUtils.CompareStr
 0001:00006A5C       SysUtils.CompareText
 0001:00006AF8       SysUtils.SameText
 0001:00006B1C       SysUtils.AnsiUpperCase
 0001:00006B54       SysUtils.AnsiLowerCase
 0001:00006B8C       SysUtils.AnsiCompareText
 0001:00006BD0       SysUtils.Trim
 0001:00006C24       SysUtils.CvtInt
 0001:00006C70       SysUtils.IntToStr
 0001:00006C90       SysUtils.CvtInt64
 0001:00006D5C       SysUtils.IntToStr
 0001:00006D84       SysUtils.IntToHex
 0001:00006DAC       SysUtils.StrToInt
 0001:00006DE8       SysUtils.StrToIntDef
 0001:00006E00       SysUtils.TryStrToInt
 0001:00006E20       SysUtils.StrToInt64
 0001:00006E64       SysUtils.StrToInt64Def
 0001:00006E98       SysUtils.TryStrToInt64
 0001:00006EB8       SysUtils.VerifyBoolStrArray
 0001:00006F48       SysUtils.CompareWith
 0001:00006FCC       SysUtils.TryStrToBool
 0001:00007068       SysUtils.BoolToStr
 0001:000070B4       SysUtils.AnsiLastChar
 0001:000070E8       SysUtils.LastDelimiter
 0001:0000713C       SysUtils.ExtractFileName
 0001:00007174       SysUtils.BackfillGetDiskFreeSpaceEx
 0001:000071E8       SysUtils.StrLen
 0001:00007218       SysUtils.StrMove
 0001:00007228       SysUtils.StrLCopy
 0001:0000725C       SysUtils.StrLIComp
 0001:000072A0       SysUtils.StrScan
 0001:000072B4       SysUtils.StrPos
 0001:00007308       SysUtils.FormatError
 0001:00007360       SysUtils.FormatVarToStr
 0001:00007384       SysUtils.FormatClearStr
 0001:00007390       SysUtils.FormatBuf
 0001:00007708       SysUtils.StrLFmt
 0001:00007748       SysUtils.Format
 0001:0000775C       SysUtils.FmtStr
 0001:00007838       SysUtils.PutExponent
 0001:0000787C       SysUtils.FloatToText
 0001:00007B50       SysUtils.FloatToDecimal
 0001:00007D7C       SysUtils.TextToFloat
 0001:00007E90       SysUtils.FloatToStr
 0001:00007EC0       SysUtils.CurrToStr
 0001:00007EF0       SysUtils.TryStrToFloat
 0001:00007F0C       SysUtils.TryStrToFloat
 0001:00007F38       SysUtils.TryStrToFloat
 0001:00007F64       SysUtils.TryStrToCurr
 0001:00007F80       SysUtils.DateTimeToTimeStamp
 0001:00007FC4       SysUtils.TryEncodeTime
 0001:00008034       SysUtils.DecodeTime
 0001:00008090       SysUtils.IsLeapYear
 0001:000080CC       SysUtils.TryEncodeDate
 0001:00008198       SysUtils.DecodeDateFully
 0001:000082E4       SysUtils.DecodeDate
 0001:00008304       SysUtils.DayOfWeek
 0001:0000832C       SysUtils.CurrentYear
 0001:00008340       SysUtils.AppendChars
 0001:00008384       SysUtils.AppendString
 0001:000083A0       SysUtils.AppendNumber
 0001:000083EC       SysUtils.GetCount
 0001:00008418       SysUtils.GetDate
 0001:00008450       SysUtils.GetTime
 0001:00008490       SysUtils.ConvertEraString
 0001:0000860C       SysUtils.ConvertYearString
 0001:00008724       SysUtils.AppendFormat
 0001:00008EDC       SysUtils.DateTimeToString
 0001:00008F38       SysUtils.ScanBlanks
 0001:00008F5C       SysUtils.ScanNumber
 0001:00008FF0       SysUtils.ScanString
 0001:000090C8       SysUtils.ScanChar
 0001:00009104       SysUtils.GetDateOrder
 0001:00009150       SysUtils.ScanToNumber
 0001:00009198       SysUtils.GetEraYearOffset
 0001:000091EC       SysUtils.EraToYear
 0001:00009248       SysUtils.ScanDate
 0001:00009594       SysUtils.ScanTime
 0001:0000978C       SysUtils.TryStrToDate
 0001:000097C4       SysUtils.TryStrToTime
 0001:000097FC       SysUtils.TryStrToDateTime
 0001:00009898       SysUtils.SysErrorMessage
 0001:000098E4       SysUtils.GetLocaleStr
 0001:00009930       SysUtils.GetLocaleChar
 0001:0000995C       SysUtils.LocalGetLocaleStr
 0001:00009998       SysUtils.GetMonthDayNames
 0001:00009ABC       SysUtils.EnumEraNames
 0001:00009AF8       SysUtils.EnumEraYearOffsets
 0001:00009B70       SysUtils.GetEraNamesAndYearOffsets
 0001:00009C20       SysUtils.TranslateDateFormat
 0001:00009E50       SysUtils.ConvertAddr
 0001:00009E5C       SysUtils.ExceptionErrorMessage
 0001:00009FE4       SysUtils.ShowException
 0001:0000A0AC       SysUtils.Exception.Create
 0001:0000A0E8       SysUtils.Exception.CreateFmt
 0001:0000A168       SysUtils.Exception.CreateRes
 0001:0000A1A4       SysUtils.Exception.CreateResFmt
 0001:0000A238       SysUtils.Exception.CreateHelp
 0001:0000A280       SysUtils.EHeapException.FreeInstance
 0001:0000A2AC       SysUtils.CreateInOutError
 0001:0000A32C       SysUtils.ErrorHandler
 0001:0000A37C       SysUtils.CreateAssertException
 0001:0000A428       SysUtils.RaiseAssertException
 0001:0000A438       SysUtils.AssertErrorHandler
 0001:0000A454       SysUtils.AbstractErrorHandler
 0001:0000A46C       SysUtils.MapException
 0001:0000A4EC       SysUtils.GetExceptionClass
 0001:0000A504       SysUtils.CreateAVObject
 0001:0000A6D0       SysUtils.GetExceptionObject
 0001:0000A798       SysUtils.ExceptHandler
 0001:0000A7A8       SysUtils.InitExceptions
 0001:0000A82C       SysUtils.DoneExceptions
 0001:0000A8C4       SysUtils.InitPlatformId
 0001:0000A934       SysUtils.ByteTypeTest
 0001:0000A9A8       SysUtils.ByteType
 0001:0000A9CC       SysUtils.StrByteType
 0001:0000A9E4       SysUtils.ByteToCharLen
 0001:0000AA08       SysUtils.ByteToCharIndex
 0001:0000AA70       SysUtils.CountChars
 0001:0000AB00       SysUtils.CharToByteIndex
 0001:0000AB84       SysUtils.CharToByteLen
 0001:0000ABF4       SysUtils.StrCharLength
 0001:0000AC14       SysUtils.StrNextChar
 0001:0000AC1C       SysUtils.CharLength
 0001:0000AC54       SysUtils.NextCharIndex
 0001:0000AC8C       SysUtils.AnsiPos
 0001:0000ACC4       SysUtils.AnsiStrPos
 0001:0000AD64       SysUtils.AnsiStrRScan
 0001:0000AD98       SysUtils.AnsiStrScan
 0001:0000ADD8       SysUtils.InitLeadBytes
 0001:0000AE34       SysUtils.InitSysLocale
 0001:0000AEF8       SysUtils.GetFormatSettings
 0001:0000B2C4       SysUtils.HashName
 0001:0000B2EC       SysUtils.ModuleUnloaded
 0001:0000B404       SysUtils.Sleep
 0001:0000B40C       SysUtils.RaiseLastOSError
 0001:0000B418       SysUtils.RaiseLastOSError
 0001:0000B4B0       SysUtils.FreeTerminateProcs
 0001:0000B4D4       SysUtils.InitDriveSpacePtr
 0001:0000B530       SysUtils.InterlockedIncrement
 0001:0000B53C       SysUtils.InterlockedDecrement
 0001:0000B548       SysUtils.InterlockedExchange
 0001:0000B550       SysUtils.InterlockedExchangeAdd
 0001:0000B558       SysUtils.TThreadLocalCounter.Destroy
 0001:0000B5B0       SysUtils.TThreadLocalCounter.HashIndex
 0001:0000B5CC       SysUtils.TThreadLocalCounter.Open
 0001:0000B644       SysUtils.TThreadLocalCounter.Delete
 0001:0000B654       SysUtils.TThreadLocalCounter.Recycle
 0001:0000B698       SysUtils.TMultiReadExclusiveWriteSynchronizer.Create
 0001:0000B70C       SysUtils.TMultiReadExclusiveWriteSynchronizer.Destroy
 0001:0000B754       SysUtils.TMultiReadExclusiveWriteSynchronizer.BlockReaders
 0001:0000B760       SysUtils.TMultiReadExclusiveWriteSynchronizer.UnblockReaders
 0001:0000B76C       SysUtils.TMultiReadExclusiveWriteSynchronizer.UnblockOneWriter
 0001:0000B778       SysUtils.TMultiReadExclusiveWriteSynchronizer.WaitForReadSignal
 0001:0000B788       SysUtils.TMultiReadExclusiveWriteSynchronizer.WaitForWriteSignal
 0001:0000B798       SysUtils.TMultiReadExclusiveWriteSynchronizer.BeginWrite
 0001:0000B844       SysUtils.TMultiReadExclusiveWriteSynchronizer.EndWrite
 0001:0000B894       SysUtils.TMultiReadExclusiveWriteSynchronizer.BeginRead
 0001:0000B904       SysUtils.TMultiReadExclusiveWriteSynchronizer.EndRead
 0001:0000B96C       SysUtils.FreeAndNil
 0001:0000B97C       SysUtils.ClearHashTables
 0001:0000BC7C       SysUtils.Finalization
 0001:0000BE40       ActiveX.CoInitialize
 0001:0000BE48       ActiveX.CoUninitialize
 0001:0000BE50       ActiveX.SysFreeString
 0001:0000BE58       ActiveX.GetErrorInfo
 0001:0000BE60       VarUtils.VariantInit
 0001:0000BE68       VarUtils.VariantClear
 0001:0000BE70       VarUtils.VariantCopy
 0001:0000BE78       VarUtils.VariantCopyInd
 0001:0000BE80       VarUtils.VariantChangeType
 0001:0000BE88       VarUtils.BackupVariantChangeTypeEx
 0001:0000BEB8       VarUtils.UniUnimplemented
 0001:0000BEC4       VarUtils.BiUnimplemented
 0001:0000BED0       VarUtils.CmpUnimplemented
 0001:0000BEDC       VarUtils.BackupVarI4FromStr
 0001:0000BF48       VarUtils.BackupVarR4FromStr
 0001:0000BFB4       VarUtils.BackupVarR8FromStr
 0001:0000C020       VarUtils.BackupVarDateFromStr
 0001:0000C08C       VarUtils.BackupVarCyFromStr
 0001:0000C0F8       VarUtils.BackupVarBoolFromStr
 0001:0000C178       VarUtils.BackupVarBStrFromCy
 0001:0000C1E8       VarUtils.BackupVarBStrFromDate
 0001:0000C25C       VarUtils.BackupVarBStrFromBool
 0001:0000C2D0       VarUtils.SafeArrayCreate
 0001:0000C2D8       VarUtils.SafeArrayGetLBound
 0001:0000C2E0       VarUtils.SafeArrayGetUBound
 0001:0000C2E8       VarUtils.SafeArrayPutElement
 0001:0000C2F0       VarUtils.SafeArrayPtrOfIndex
 0001:0000C2F8       VarUtils.FindProc
 0001:0000C324       VarUtils.InitializeVarUtils
 0001:0000C630       VarUtils.Finalization
 0001:0000C6B0       Variants..TCustomVariantType
 0001:0000C77C       Variants..EVariantInvalidOpError
 0001:0000C7E0       Variants..EVariantTypeCastError
 0001:0000C844       Variants..EVariantOverflowError
 0001:0000C8A8       Variants..EVariantInvalidArgError
 0001:0000C90C       Variants..EVariantBadVarTypeError
 0001:0000C970       Variants..EVariantBadIndexError
 0001:0000C9D4       Variants..EVariantArrayLockedError
 0001:0000CA3C       Variants..EVariantArrayCreateError
 0001:0000CAA4       Variants..EVariantNotImplError
 0001:0000CB08       Variants..EVariantOutOfMemoryError
 0001:0000CB70       Variants..EVariantUnexpectedError
 0001:0000CBD4       Variants..EVariantDispatchError
 0001:0000CC38       Variants..EVariantInvalidNullOpError
 0001:0000CCA0       Variants.VarCastError
 0001:0000CCF4       Variants.VarCastError
 0001:0000CD90       Variants.VarInvalidOp
 0001:0000CDE4       Variants.VarInvalidNullOp
 0001:0000CE38       Variants.VarOverflowError
 0001:0000CED4       Variants.VarArrayCreateError
 0001:0000CF28       Variants.TranslateResult
 0001:0000D17C       Variants.VarResultCheck
 0001:0000D188       Variants.VarResultCheck
 0001:0000D1BC       Variants.HandleConversionException
 0001:0000D240       Variants.@DispInvokeError
 0001:0000D294       Variants.@VarNull
 0001:0000D2A8       Variants.InBounds
 0001:0000D2D8       Variants.Increment
 0001:0000D334       Variants.VarArrayClear
 0001:0000D4B0       Variants.VarClearDeep
 0001:0000D52C       Variants.@VarClear
 0001:0000D540       Variants.@VarClr
 0001:0000D548       Variants.InBounds
 0001:0000D578       Variants.Increment
 0001:0000D5D4       Variants.VarArrayCopyForEach
 0001:0000D7A0       Variants.VarCopyCopyProc
 0001:0000D7A8       Variants.VarCopyDeep
 0001:0000D854       Variants.@VarCopy
 0001:0000D898       Variants.VarCopyNoIndViaOS
 0001:0000D8B8       Variants.VarCopyNoIndOleStr
 0001:0000D8C0       Variants.VarCopyNoIndCopyProc
 0001:0000D8C8       Variants.VarCopyNoIndDeep
 0001:0000D8FC       Variants.VarCopyByRef
 0001:0000DAD4       Variants.@VarCopyNoInd
 0001:0000DAE8       Variants.@VarStringToOleStr
 0001:0000DB08       Variants.VarStringToOleStr
 0001:0000DB10       Variants.VarCastAsAny
 0001:0000DB7C       Variants.VarCastAsOleStr
 0001:0000DBC8       Variants.VarCastAsString
 0001:0000DC14       Variants.VarCastAsDispatch
 0001:0000DC60       Variants.VarCastAsInterface
 0001:0000DCAC       Variants.VarCastViaOS
 0001:0000DD2C       Variants.VarCastRare
 0001:0000DD98       Variants.@VarCast
 0001:0000DFC4       Variants.VarToIntAsString
 0001:0000E078       Variants.VarToIntViaOS
 0001:0000E0B4       Variants.VarToIntAny
 0001:0000E118       Variants.VarToIntCustom
 0001:0000E15C       Variants.@VarToInteger
 0001:0000E5AC       Variants.@VarToShortInt
 0001:0000E660       Variants.@VarToByte
 0001:0000E708       Variants.@VarToSmallInt
 0001:0000E800       Variants.@VarToWord
 0001:0000E8DC       Variants.@VarToLongWord
 0001:0000E9C8       Variants.VarToInt64ViaOS
 0001:0000EA74       Variants.VarToInt64AsString
 0001:0000EB74       Variants.VarToInt64Any
 0001:0000EBE0       Variants.VarToInt64Custom
 0001:0000EC2C       Variants.@VarToInt64
 0001:0000F070       Variants.VarToBoolAsString
 0001:0000F134       Variants.VarToBoolViaOS
 0001:0000F174       Variants.VarToBoolAny
 0001:0000F1D8       Variants.VarToBoolCustom
 0001:0000F224       Variants.@VarToBoolean
 0001:0000F578       Variants.VarToDoubleAsString
 0001:0000F63C       Variants.VarToDoubleViaOS
 0001:0000F688       Variants.VarToDoubleAny
 0001:0000F6EC       Variants.VarToDoubleCustom
 0001:0000F738       Variants.@VarToDouble
 0001:0000FAB0       Variants.@VarToReal
 0001:0000FACC       Variants.@VarToSingle
 0001:0000FC5C       Variants.VarToDateAsString
 0001:0000FD48       Variants.VarToDateAsDouble
 0001:0000FDA8       Variants.VarToDateViaOS
 0001:0000FDF4       Variants.VarToDateAny
 0001:0000FE58       Variants.VarToDateCustom
 0001:0000FEA4       Variants.@VarToDate
 0001:000101F4       Variants.VarToCurrencyAsString
 0001:000102B0       Variants.VarToCurrencyAsDouble
 0001:00010310       Variants.VarToCurrencyViaOS
 0001:0001035C       Variants.VarToCurrencyAny
 0001:000103C0       Variants.VarToCurrencyCustom
 0001:0001040C       Variants.@VarToCurrency
 0001:000107D4       Variants.CurrToWStrViaOS
 0001:0001080C       Variants.DateToWStrViaOS
 0001:00010844       Variants.BoolToWStrViaOS
 0001:0001090C       Variants.VarToLStrViaOS
 0001:000109D8       Variants.VarToLStrAny
 0001:00010A3C       Variants.VarToLStrCustom
 0001:00010AC4       Variants.@VarToLStr
 0001:00011000       Variants.VarToWStrViaOS
 0001:000110B8       Variants.VarToWStrAny
 0001:0001111C       Variants.VarToWStrCustom
 0001:000111E4       Variants.@VarToWStr
 0001:00011738       Variants.AnyToIntf
 0001:000117B0       Variants.@VarToIntf
 0001:0001187C       Variants.@VarToDisp
 0001:00011928       Variants.@VarFromInt
 0001:00011964       Variants.@VarFromInteger
 0001:00011984       Variants.@VarFromByte
 0001:000119A4       Variants.@VarFromWord
 0001:000119C4       Variants.@VarFromLongWord
 0001:000119E4       Variants.@VarFromShortInt
 0001:00011A04       Variants.@VarFromSmallInt
 0001:00011A24       Variants.@VarFromInt64
 0001:00011A50       Variants.@VarFromSingle
 0001:00011A74       Variants.@VarFromDouble
 0001:00011AA0       Variants.@VarFromCurrency
 0001:00011ACC       Variants.@VarFromDate
 0001:00011AF8       Variants.@VarFromBool
 0001:00011B20       Variants.@VarFromReal
 0001:00011B34       Variants.@VarFromTDateTime
 0001:00011B48       Variants.@VarFromCurr
 0001:00011B5C       Variants.@VarFromLStr
 0001:00011B88       Variants.@VarFromWStr
 0001:00011BC0       Variants.@VarFromIntf
 0001:00011BEC       Variants.@VarFromDisp
 0001:00011C18       Variants.VarStrCat
 0001:00011CCC       Variants.VarOpRare
 0001:00012018       Variants.CheckType
 0001:0001203C       Variants.AnyOp
 0001:000120C8       Variants.RealOp
 0001:0001215C       Variants.DateOp
 0001:000121D0       Variants.IntOp
 0001:000122EC       Variants.Int64Op
 0001:000124E4       Variants.NullOp
 0001:00012590       Variants.EmptyOp
 0001:00012628       Variants.CurrOp
 0001:000127B0       Variants.SimpleVarOp
 0001:00012A2C       Variants.@VarOp
 0001:00012ABC       Variants.VarCompareAny
 0001:00012B94       Variants.EmptyCompare
 0001:00012BA8       Variants.NullCompare
 0001:00012C9C       Variants.IntCompare
 0001:00012CB0       Variants.Int64Compare
 0001:00012CEC       Variants.RealCompare
 0001:00012D18       Variants.DateCompare
 0001:00012D44       Variants.CurrCompare
 0001:00012D74       Variants.StringCompare
 0001:00012DE0       Variants.VarCompareSimple
 0001:00012F6C       Variants.VarCompareRare
 0001:00013390       Variants.VarCompare
 0001:000133F8       Variants.NegateAsDouble
 0001:00013410       Variants.NegateViaOS
 0001:00013428       Variants.NegateVariant
 0001:00013454       Variants.NegateByte
 0001:00013464       Variants.NegateWord
 0001:00013474       Variants.NegateLongWord
 0001:000134A8       Variants.NegateAny
 0001:000134BC       Variants.NegateCustom
 0001:000134E8       Variants.@VarNeg
 0001:000137DC       Variants.NotAsString
 0001:000138B0       Variants.NotAsOrdinal
 0001:00013918       Variants.NotViaOS
 0001:00013930       Variants.NotVariant
 0001:0001395C       Variants.NotAny
 0001:00013970       Variants.NotCustom
 0001:0001399C       Variants.@VarNot
 0001:00013C1C       Variants.@VarAddRef
 0001:00013DA0       Variants.VarTypeAsText
 0001:00013F10       Variants.VarType
 0001:00013F14       Variants.FindVarData
 0001:00013F24       Variants.VarTypeIsCustom
 0001:00013F30       Variants.VarIsEmpty
 0001:00013F44       Variants.VarIsNull
 0001:00013F58       Variants.VarToStr
 0001:00013F70       Variants.VarToStrDef
 0001:00013F9C       Variants.SetVarAsError
 0001:00013FB4       Variants.SetClearVarToEmptyParam
 0001:00013FC0       Variants.GetVarDataArrayInfo
 0001:00014004       Variants.VarArrayCreate
 0001:000140AC       Variants.VarTypeIsValidArrayType
 0001:000140CC       Variants.VarTypeIsValidElementType
 0001:00014108       Variants.@VarArrayPut
 0001:00014274       Variants.ClearVariantTypeList
 0001:000142E0       Variants.TCustomVariantType.BinaryOp
 0001:000142EC       Variants.TCustomVariantType.Cast
 0001:00014324       Variants.TCustomVariantType.CastTo
 0001:0001436C       Variants.TCustomVariantType.Compare
 0001:00014378       Variants.TCustomVariantType.CompareOp
 0001:000143B0       Variants.TCustomVariantType.CastToOle
 0001:000143EC       Variants.TCustomVariantType.Destroy
 0001:00014478       Variants.TCustomVariantType.IsClear
 0001:0001447C       Variants.TCustomVariantType.LeftPromotion
 0001:00014490       Variants.TCustomVariantType.OlePromotion
 0001:00014498       Variants.TCustomVariantType.RaiseCastError
 0001:000144A0       Variants.TCustomVariantType.RaiseInvalidOp
 0001:000144A8       Variants.TCustomVariantType.RaiseDispError
 0001:000144B0       Variants.TCustomVariantType.RightPromotion
 0001:000144C4       Variants.TCustomVariantType.UnaryOp
 0001:000144CC       Variants.TCustomVariantType.DispInvoke
 0001:000144D8       Variants.TCustomVariantType._AddRef
 0001:000144E4       Variants.TCustomVariantType._Release
 0001:000144F0       Variants.TCustomVariantType.QueryInterface
 0001:00014518       Variants.FindCustomVariantType
 0001:000145D4       Variants.Unassigned
 0001:000145DC       Variants.Null
 0001:000145E4       Variants.@VarAdd
 0001:000145F0       Variants.@VarSub
 0001:000145FC       Variants.@VarMul
 0001:00014608       Variants.@VarDiv
 0001:00014614       Variants.@VarMod
 0001:00014620       Variants.@VarAnd
 0001:0001462C       Variants.@VarOr
 0001:00014638       Variants.@VarXor
 0001:00014644       Variants.@VarShl
 0001:00014650       Variants.@VarShr
 0001:0001465C       Variants.@VarRDiv
 0001:00014668       Variants.@VarCmpEQ
 0001:00014678       Variants.@VarCmpNE
 0001:00014688       Variants.@VarCmpLT
 0001:00014698       Variants.@VarCmpLE
 0001:000146A8       Variants.@VarCmpGT
 0001:000146B8       Variants.@VarCmpGE
 0001:000146C8       Variants.Finalization
 0001:0001478C       TypInfo.GetTypeData
 0001:00014798       TypInfo.GetPropInfo
 0001:00014808       TypInfo.GetOrdProp
 0001:0001487C       TypInfo.SetOrdProp
 0001:000148D8       TypInfo.GetShortStrProp
 0001:0001491C       TypInfo.SetShortStrProp
 0001:00014970       TypInfo.GetShortStrPropAsLongStr
 0001:00014998       TypInfo.SetShortStrPropAsLongStr
 0001:000149CC       TypInfo.AssignLongStr
 0001:000149E0       TypInfo.GetLongStrProp
 0001:00014A20       TypInfo.SetLongStrProp
 0001:00014A60       TypInfo.GetWideStrPropAsLongStr
 0001:00014AB8       TypInfo.SetWideStrPropAsLongStr
 0001:00014B10       TypInfo.GetStrProp
 0001:00014B50       TypInfo.SetStrProp
 0001:00014B80       TypInfo.GetWideStrProp
 0001:00014C68       TypInfo.SetWideStrProp
 0001:00014D40       TypInfo.GetFloatProp
 0001:00014E58       TypInfo.SetFloatProp
 0001:00015050       TypInfo.GetMethodProp
 0001:00015090       TypInfo.SetMethodProp
 0001:000150C8       TypInfo.Finalization
 0001:00015118       Classes..EListError
 0001:00015170       Classes..TList
 0001:000151D4       Classes..TThreadList
 0001:0001522C       Classes..TPersistent
 0001:000152C8       Classes..TRegGroup
 0001:00015320       Classes..TRegGroups
 0001:00015378       Classes.TRegGroup.Create
 0001:000153D4       Classes.TRegGroup.Destroy
 0001:00015414       Classes.PointerInModule
 0001:00015434       Classes.TRegGroup.UnregisterModuleClasses
 0001:000154E0       Classes.TRegGroups.Create
 0001:00015554       Classes.TRegGroups.Destroy
 0001:000155B4       Classes.TRegGroups.Lock
 0001:000155C0       Classes.TRegGroups.Unlock
 0001:000155CC       Classes.TRegGroups.UnregisterModuleClasses
 0001:0001561C       Classes.UnRegisterModuleClasses
 0001:00015668       Classes.TList.Destroy
 0001:00015688       Classes.TList.Add
 0001:000156BC       Classes.TList.Clear
 0001:000156D4       Classes.TList.Delete
 0001:00015730       Classes.ReturnAddr
 0001:00015734       Classes.TList.Error
 0001:0001576C       Classes.TList.Error
 0001:000157C0       Classes.TList.Get
 0001:000157E8       Classes.TList.Grow
 0001:0001581C       Classes.TList.SetCapacity
 0001:00015858       Classes.TList.SetCount
 0001:000158CC       Classes.TList.Notify
 0001:000158D0       Classes.TThreadList.Create
 0001:00015924       Classes.TThreadList.Destroy
 0001:000159A0       Classes.TThreadList.LockList
 0001:000159B4       Classes.TThreadList.UnlockList
 0001:000159C0       Classes.TPersistent.Destroy
 0001:000159EC       Classes.TPersistent.Assign
 0001:00015A00       Classes.TPersistent.AssignError
 0001:00015AD0       Classes.TPersistent.AssignTo
 0001:00015AD8       Classes.TPersistent.DefineProperties
 0001:00015ADC       Classes.TPersistent.GetNamePath
 0001:00015B8C       Classes.TPersistent.GetOwner
 0001:00015B90       Classes.RemoveFixupReferences
 0001:00015C3C       Classes.RemoveFixups
 0001:00015CC0       Classes.InitThreadSynchronization
 0001:00015CF4       Classes.DoneThreadSynchronization
 0001:00015D0C       Classes.FreeIntConstList
 0001:00015D78       Classes.ModuleUnload
 0001:00015D80       Classes.Finalization
 0001:00015E30       uPSUtils..TPSList
 0001:00015E88       uPSUtils..TPSStringList
 0001:00015EE4       uPSUtils..TPSPascalParser
 0001:00015F74       uPSUtils.MakeHash
 0001:00015FA8       uPSUtils.GRFW
 0001:00016000       uPSUtils.GRLW
 0001:00016064       uPSUtils.StrToFloat
 0001:000160D4       uPSUtils.IntToStr
 0001:00016140       uPSUtils.StrToInt
 0001:00016154       uPSUtils.StrToIntDef
 0001:0001616C       uPSUtils.TPSList.Create
 0001:000161C0       uPSUtils.MM
 0001:000161E4       uPSUtils.TPSList.Recreate
 0001:00016248       uPSUtils.TPSList.Add
 0001:00016290       uPSUtils.TPSList.DeleteLast
 0001:000162AC       uPSUtils.TPSList.Delete
 0001:000162F0       uPSUtils.TPSList.Remove
 0001:00016320       uPSUtils.TPSList.Clear
 0001:0001632C       uPSUtils.TPSList.Destroy
 0001:00016360       uPSUtils.TPSList.SetItem
 0001:00016374       uPSUtils.TPSList.GetItem
 0001:00016384       uPSUtils.TPSStringList.Count
 0001:0001638C       uPSUtils.TPSStringList.GetItem
 0001:000163B4       uPSUtils.TPSStringList.SetItem
 0001:000163D4       uPSUtils.TPSStringList.Add
 0001:00016404       uPSUtils.TPSStringList.Delete
 0001:00016430       uPSUtils.TPSStringList.Create
 0001:00016474       uPSUtils.TPSStringList.Destroy
 0001:000164B8       uPSUtils.FastUpperCase
 0001:00016508       uPSUtils.FastLowerCase
 0001:00016968       uPSUtils.TPSPascalParser.GetCol
 0001:00016974       uPSUtils.CheckReserved
 0001:00016A38       uPSUtils._GetToken
 0001:00016AA8       uPSUtils.ParseToken
 0001:00017310       uPSUtils.TPSPascalParser.Next
 0001:0001753C       uPSUtils.TPSPascalParser.SetText
 0001:00017578       uPSUtils.TPSList.IndexOf
 0001:0001759C       uPSUtils.Finalization
 0001:000175E4       uPSCompiler..EPSCompilerException
 0001:00017648       uPSCompiler..TPSParameterDecl
 0001:000176C0       uPSCompiler..TPSParametersDecl
 0001:00017720       uPSCompiler..TPSRegProc
 0001:0001779C       uPSCompiler..TPSRecordFieldTypeDef
 0001:00017818       uPSCompiler..TPSType
 0001:00017888       uPSCompiler..TPSVariantType
 0001:000178F4       uPSCompiler..TPSRecordType
 0001:00017950       uPSCompiler..TPSClassType
 0001:000179AC       uPSCompiler..TPSUndefinedClassType
 0001:00017A10       uPSCompiler..TPSInterfaceType
 0001:00017A70       uPSCompiler..TPSProceduralType
 0001:00017AD0       uPSCompiler..TPSArrayType
 0001:00017B2C       uPSCompiler..TPSStaticArrayType
 0001:00017B8C       uPSCompiler..TPSSetType
 0001:00017BE4       uPSCompiler..TPSTypeLink
 0001:00017C3C       uPSCompiler..TPSEnumType
 0001:00017C94       uPSCompiler..TPSProcedure
 0001:00017CF0       uPSCompiler..TPSAttribute
 0001:00017D4C       uPSCompiler..TPSAttributes
 0001:00017DA8       uPSCompiler..TPSProcVar
 0001:00017E1C       uPSCompiler..TPSExternalProcedure
 0001:00017E80       uPSCompiler..TPSInternalProcedure
 0001:00017F04       uPSCompiler..TPSVar
 0001:00017F7C       uPSCompiler..TPSConstant
 0001:00017FF0       uPSCompiler..TPSPascalCompilerMessage
 0001:0001807C       uPSCompiler..TPSPascalCompilerError
 0001:000180EC       uPSCompiler..TPSPascalCompilerHint
 0001:0001815C       uPSCompiler..TPSPascalCompilerWarning
 0001:000181D0       uPSCompiler..TPSBlockInfo
 0001:0001822C       uPSCompiler..TPSPascalCompiler
 0001:000182A4       uPSCompiler..TPSValue
 0001:000182FC       uPSCompiler..TPSParameter
 0001:00018358       uPSCompiler..TPSParameters
 0001:000183B4       uPSCompiler..TPSSubItem
 0001:0001840C       uPSCompiler..TPSSubNumber
 0001:00018468       uPSCompiler..TPSSubValue
 0001:000184C0       uPSCompiler..TPSValueVar
 0001:00018518       uPSCompiler..TPSValueGlobalVar
 0001:00018578       uPSCompiler..TPSValueLocalVar
 0001:000185D8       uPSCompiler..TPSValueParamVar
 0001:00018638       uPSCompiler..TPSValueAllocatedStackVar
 0001:000186A0       uPSCompiler..TPSValueData
 0001:000186FC       uPSCompiler..TPSValueReplace
 0001:00018758       uPSCompiler..TPSUnValueOp
 0001:000187B4       uPSCompiler..TPSBinValueOp
 0001:00018810       uPSCompiler..TPSValueNil
 0001:00018868       uPSCompiler..TPSValueProcPtr
 0001:000188C4       uPSCompiler..TPSValueProc
 0001:00018920       uPSCompiler..TPSValueProcNo
 0001:0001897C       uPSCompiler..TPSValueProcVal
 0001:000189D8       uPSCompiler..TPSValueArray
 0001:00018A34       uPSCompiler..TPSInterface
 0001:00018AA0       uPSCompiler..TPSInterfaceMethod
 0001:00018CEC       uPSCompiler.DeclToBits
 0001:00018D78       uPSCompiler.BlockWriteByte
 0001:00018DD0       uPSCompiler.BlockWriteData
 0001:00018E24       uPSCompiler.BlockWriteLong
 0001:00018E38       uPSCompiler.BlockWriteVariant
 0001:0001909C       uPSCompiler.FindAndAddType
 0001:000190C8       uPSCompiler.ParseMethod
 0001:00019B08       uPSCompiler.TPSPascalCompiler.FindProc
 0001:00019BE8       uPSCompiler.TPSPascalCompiler.FindBaseType
 0001:00019C7C       uPSCompiler.TPSPascalCompiler.MakeDecl
 0001:00019D20       uPSCompiler.PS_mi2s
 0001:00019D50       uPSCompiler.TPSPascalCompiler.AddType
 0001:00019F40       uPSCompiler.TPSPascalCompiler.AddFunction
 0001:0001A4D4       uPSCompiler.TPSPascalCompiler.MakeHint
 0001:0001A52C       uPSCompiler.TPSPascalCompiler.MakeError
 0001:0001A584       uPSCompiler.TPSPascalCompiler.MakeWarning
 0001:0001A5DC       uPSCompiler.TPSPascalCompiler.Clear
 0001:0001A648       uPSCompiler.CopyVariantContents
 0001:0001A768       uPSCompiler.DuplicateVariant
 0001:0001A794       uPSCompiler.InitializeVariant
 0001:0001A7E4       uPSCompiler.NewVariant
 0001:0001A804       uPSCompiler.FinalizeVariant
 0001:0001A838       uPSCompiler.DisposeVariant
 0001:0001A854       uPSCompiler.TPSPascalCompiler.GetTypeCopyLink
 0001:0001A86C       uPSCompiler.IsIntType
 0001:0001A87C       uPSCompiler.IsRealType
 0001:0001A88C       uPSCompiler.IsIntRealType
 0001:0001A8A0       uPSCompiler.DiffRec
 0001:0001A8FC       uPSCompiler.SameReg
 0001:0001A9EC       uPSCompiler.GetUInt
 0001:0001AA68       uPSCompiler.GetInt
 0001:0001AAE4       uPSCompiler.GetInt64
 0001:0001AC00       uPSCompiler.GetReal
 0001:0001AD78       uPSCompiler.GetString
 0001:0001ADDC       uPSCompiler.TPSPascalCompiler.GetWideString
 0001:0001AE40       uPSCompiler.Set_Union
 0001:0001AE58       uPSCompiler.Set_Diff
 0001:0001AE70       uPSCompiler.Set_Intersect
 0001:0001AE88       uPSCompiler.Set_Subset
 0001:0001AEC0       uPSCompiler.Set_Equal
 0001:0001AEEC       uPSCompiler.Set_membership
 0001:0001AF0C       uPSCompiler.Set_MakeMember
 0001:0001AF20       uPSCompiler.ConvertToBoolean
 0001:0001AF58       uPSCompiler.ConvertToString
 0001:0001AFB0       uPSCompiler.ConvertToWideString
 0001:0001B008       uPSCompiler.ConvertToFloat
 0001:0001B1B8       uPSCompiler.TPSPascalCompiler.IsCompatibleType
 0001:0001B404       uPSCompiler.TPSPascalCompiler.PreCalc
 0001:0001CF6C       uPSCompiler.TPSPascalCompiler.IsDuplicate
 0001:0001D0F0       uPSCompiler.ClearRecSubVals
 0001:0001D120       uPSCompiler.TPSPascalCompiler.ReadTypeAddProcedure
 0001:0001D524       uPSCompiler.TPSPascalCompiler.ReadType
 0001:0001DF98       uPSCompiler.TPSPascalCompiler.VarIsDuplicate
 0001:0001E218       uPSCompiler.TPSPascalCompiler.DoVarBlock
 0001:0001E5A8       uPSCompiler.TPSPascalCompiler.NewProc
 0001:0001E604       uPSCompiler.TPSPascalCompiler.IsProcDuplicLabel
 0001:0001E7A0       uPSCompiler.TPSPascalCompiler.ProcessLabel
 0001:0001E8C4       uPSCompiler.TPSPascalCompiler.Debug_SavePosition
 0001:0001E9EC       uPSCompiler.TPSPascalCompiler.Debug_WriteParams
 0001:0001EB68       uPSCompiler.TPSPascalCompiler.CheckForUnusedVars
 0001:0001EC04       uPSCompiler.TPSPascalCompiler.ProcIsDuplic
 0001:0001EDD8       uPSCompiler.WriteProcVars
 0001:0001EE74       uPSCompiler.TPSPascalCompiler.ApplyAttribsToFunction
 0001:0001EED8       uPSCompiler.TPSPascalCompiler.ProcessFunction
 0001:0001F808       uPSCompiler.GetParamType
 0001:0001F834       uPSCompiler.TPSPascalCompiler.GetTypeNo
 0001:0001F994       uPSCompiler.TPSPascalCompiler.IsVarInCompatible
 0001:0001F9C8       uPSCompiler.TPSPascalCompiler.ValidateParameters
 0001:0001FC40       uPSCompiler.TPSPascalCompiler.DoTypeBlock
 0001:0001FE44       uPSCompiler.TPSPascalCompiler.Debug_WriteLine
 0001:0001FE74       uPSCompiler.TPSPascalCompiler.ReadReal
 0001:0001FEB0       uPSCompiler.ChrToStr
 0001:0001FF20       uPSCompiler.PString
 0001:0001FFEC       uPSCompiler.ParseString
 0001:00020170       uPSCompiler.TPSPascalCompiler.ReadString
 0001:000202C0       uPSCompiler.TPSPascalCompiler.ReadInteger
 0001:00020398       uPSCompiler.AllocStackReg2
 0001:00020438       uPSCompiler.AllocStackReg
 0001:00020470       uPSCompiler.AllocPointer
 0001:000204BC       uPSCompiler.CheckCompatType
 0001:000206C0       uPSCompiler.ProcessFunction2
 0001:00020764       uPSCompiler.MakeNil
 0001:00020A18       uPSCompiler.DoBinCalc
 0001:000210E4       uPSCompiler.DoUnCalc
 0001:00021354       uPSCompiler.GetAddress
 0001:000213C0       uPSCompiler.MakeSet
 0001:00021548       uPSCompiler.PreWriteOutRec
 0001:00021D28       uPSCompiler.AfterWriteOutRec
 0001:00021D60       uPSCompiler.WriteOutRec
 0001:00021EA0       uPSCompiler.CheckNotificationVariant
 0001:00022140       uPSCompiler.CheckProcCall
 0001:000221D4       uPSCompiler.FindSubR
 0001:00022234       uPSCompiler.CheckFurther
 0001:000229DC       uPSCompiler.CheckClassArrayProperty
 0001:00022D14       uPSCompiler.CheckExtClass
 0001:00022EB4       uPSCompiler.CheckClass
 0001:0002338C       uPSCompiler.CheckIntf
 0001:00023628       uPSCompiler.ExtCheckClassType
 0001:000239FC       uPSCompiler.CheckClassType
 0001:00023E88       uPSCompiler.GetIdentifier
 0001:000249D4       uPSCompiler.ReadArray
 0001:00024AC8       uPSCompiler.CallAssigned
 0001:00024B78       uPSCompiler.CallSucc
 0001:00024C0C       uPSCompiler.CallPred
 0001:00024CA0       uPSCompiler.ReadFactor
 0001:0002564C       uPSCompiler.GetResultType
 0001:00026290       uPSCompiler.ReadTerm
 0001:000263EC       uPSCompiler.ReadSimpleExpression
 0001:0002651C       uPSCompiler.ReadExpression
 0001:00026678       uPSCompiler.TryEvalConst
 0001:00027288       uPSCompiler.calc
 0001:000272C4       uPSCompiler.ReadParameters
 0001:0002737C       uPSCompiler.ReadProcParameters
 0001:000274B8       uPSCompiler.ReadIDispatchParameters
 0001:0002770C       uPSCompiler.ReadVarParameters
 0001:000277B0       uPSCompiler.CheckOutreg
 0001:000278A4       uPSCompiler.WriteCalculation
 0001:00027A88       uPSCompiler.Cleanup
 0001:00027B74       uPSCompiler._ProcessFunction
 0001:00027EA8       uPSCompiler.HasInvalidJumps
 0001:000280E8       uPSCompiler.ProcessFor
 0001:00028728       uPSCompiler.ProcessWhile
 0001:00028B40       uPSCompiler.ProcessRepeat
 0001:00028F34       uPSCompiler.ProcessIf
 0001:000291C0       uPSCompiler._ProcessLabel
 0001:00029338       uPSCompiler.ProcessIdentifier
 0001:00029468       uPSCompiler.NewRec
 0001:000294A0       uPSCompiler.Combine
 0001:000294FC       uPSCompiler.ProcessCase
 0001:00029A6C       uPSCompiler.ProcessGoto
 0001:00029C08       uPSCompiler.ProcessWith
 0001:00029DB0       uPSCompiler.ProcessTry
 0001:0002A1E4       uPSCompiler.TPSPascalCompiler.ProcessSub
 0001:0002A804       uPSCompiler.TPSPascalCompiler.UseProc
 0001:0002A85C       uPSCompiler.TPSPascalCompiler.at2ut
 0001:0002A940       uPSCompiler.TPSPascalCompiler.ProcessLabelForwards
 0001:0002AA44       uPSCompiler.Cleanup
 0001:0002ABFC       uPSCompiler.WriteByte
 0001:0002AC58       uPSCompiler.WriteData
 0001:0002ACC0       uPSCompiler.WriteLong
 0001:0002ACDC       uPSCompiler.WriteVariant
 0001:0002AF70       uPSCompiler.WriteAttributes
 0001:0002B058       uPSCompiler.WriteTypeNo
 0001:0002B078       uPSCompiler.WriteTypes
 0001:0002B3D4       uPSCompiler.WriteVars
 0001:0002B4E8       uPSCompiler.WriteProcs
 0001:0002B7B8       uPSCompiler.WriteProcs2
 0001:0002B8E4       uPSCompiler.FindMainProc
 0001:0002B958       uPSCompiler.CreateDebugData
 0001:0002BAD8       uPSCompiler.MakeOutput
 0001:0002BB94       uPSCompiler.CheckExports
 0001:0002BC58       uPSCompiler.DoConstBlock
 0001:0002BE3C       uPSCompiler.ProcessUses
 0001:0002C060       uPSCompiler.TPSPascalCompiler.Compile
 0001:0002C704       uPSCompiler.TPSPascalCompiler.Create
 0001:0002C77C       uPSCompiler.TPSPascalCompiler.Destroy
 0001:0002C7C0       uPSCompiler.TPSPascalCompiler.GetOutput
 0001:0002C7EC       uPSCompiler.TPSPascalCompiler.DefineStandardTypes
 0001:0002CCCC       uPSCompiler.TPSPascalCompiler.FindType
 0001:0002CD70       uPSCompiler.TPSPascalCompiler.AddConstant
 0001:0002CE90       uPSCompiler.TPSPascalCompiler.ReadAttributes
 0001:0002D120       uPSCompiler..TConstOperation
 0001:0002D17C       uPSCompiler..TUnConstOperation
 0001:0002D1DC       uPSCompiler..TBinConstOperation
 0001:0002D23C       uPSCompiler..TConstData
 0001:0002D294       uPSCompiler.TPSPascalCompiler.IsBoolean
 0001:0002D2CC       uPSCompiler.GetConstantIdentifier
 0001:0002D3B0       uPSCompiler.ReadFactor
 0001:0002D5D8       uPSCompiler.ReadTerm
 0001:0002D718       uPSCompiler.ReadSimpleExpression
 0001:0002D7F4       uPSCompiler.ReadExpression
 0001:0002D8E4       uPSCompiler.EvalConst
 0001:0002DC40       uPSCompiler.TPSPascalCompiler.ReadConstant
 0001:0002DC7C       uPSCompiler.TPSPascalCompiler.WriteDebugData
 0001:0002DC90       uPSCompiler.TPSPascalCompiler.DefineStandardProcedures
 0001:0002F16C       uPSCompiler.TPSPascalCompiler.AddUsedFunction2
 0001:0002F1F4       uPSCompiler.TPSPascalCompiler.AddConstantN
 0001:0002F218       uPSCompiler.TPSPascalCompiler.AddTypeCopy
 0001:0002F2C8       uPSCompiler.TPSPascalCompiler.AddTypeCopyN
 0001:0002F2EC       uPSCompiler.TPSPascalCompiler.AddTypeS
 0001:0002F3DC       uPSCompiler.TPSPascalCompiler.CheckCompatProc
 0001:0002F4A4       uPSCompiler.TPSPascalCompiler.MakeExportDecl
 0001:0002F590       uPSCompiler.TPSPascalCompiler.ParserError
 0001:0002F5D4       uPSCompiler.TPSPascalCompiler.AddDelphiFunction
 0001:0002F794       uPSCompiler.TPSPascalCompiler.AddInterface
 0001:0002F894       uPSCompiler.TPSPascalCompiler.FindInterface
 0001:0002F994       uPSCompiler.TPSType.Create
 0001:0002F9E0       uPSCompiler.TPSType.Destroy
 0001:0002FA10       uPSCompiler.TPSType.SetName
 0001:0002FA30       uPSCompiler.TPSType.Use
 0001:0002FA38       uPSCompiler.TPSRecordType.AddRecVal
 0001:0002FA5C       uPSCompiler.TPSRecordType.Create
 0001:0002FAA0       uPSCompiler.TPSRecordType.Destroy
 0001:0002FAF0       uPSCompiler.TPSRecordType.RecVal
 0001:0002FB04       uPSCompiler.TPSRecordType.RecValCount
 0001:0002FB0C       uPSCompiler.TPSRegProc.Create
 0001:0002FB50       uPSCompiler.TPSRegProc.Destroy
 0001:0002FB80       uPSCompiler.TPSRegProc.SetName
 0001:0002FBA0       uPSCompiler.TPSRecordFieldTypeDef.SetFieldOrgName
 0001:0002FC08       uPSCompiler.TPSProcVar.SetName
 0001:0002FC28       uPSCompiler.TPSProcVar.Use
 0001:0002FC30       uPSCompiler.TPSInternalProcedure.Create
 0001:0002FCA4       uPSCompiler.TPSInternalProcedure.Destroy
 0001:0002FD0C       uPSCompiler.TPSInternalProcedure.ResultUse
 0001:0002FD14       uPSCompiler.TPSInternalProcedure.SetName
 0001:0002FD34       uPSCompiler.TPSProcedure.Create
 0001:0002FD78       uPSCompiler.TPSProcedure.Destroy
 0001:0002FDA8       uPSCompiler.TPSVar.SetName
 0001:0002FDC8       uPSCompiler.TPSVar.Use
 0001:0002FDD0       uPSCompiler.TPSConstant.Destroy
 0001:0002FE00       uPSCompiler.TPSConstant.SetName
 0001:0002FE20       uPSCompiler.TPSPascalCompilerError.ErrorType
 0001:0002FE34       uPSCompiler.TPSPascalCompilerError.ShortMessageToString
 0001:000302AC       uPSCompiler.TPSPascalCompilerHint.ErrorType
 0001:000302C0       uPSCompiler.TPSPascalCompilerHint.ShortMessageToString
 0001:00030388       uPSCompiler.TPSPascalCompilerWarning.ErrorType
 0001:0003039C       uPSCompiler.TPSPascalCompilerWarning.ShortMessageToString
 0001:00030474       uPSCompiler.TPSPascalCompilerMessage.MessageToString
 0001:00030554       uPSCompiler.TPSPascalCompilerMessage.SetParserPos
 0001:00030574       uPSCompiler.TUnConstOperation.Destroy
 0001:000305A4       uPSCompiler.TBinConstOperation.Destroy
 0001:000305DC       uPSCompiler.TConstData.Destroy
 0001:0003060C       uPSCompiler.TConstOperation.SetPos
 0001:0003062C       uPSCompiler.TPSValue.SetParserPos
 0001:0003064C       uPSCompiler.TPSValueData.Destroy
 0001:0003067C       uPSCompiler.TPSValueReplace.Create
 0001:000306A8       uPSCompiler.TPSValueReplace.Destroy
 0001:000306EC       uPSCompiler.TPSUnValueOp.Destroy
 0001:0003071C       uPSCompiler.TPSBinValueOp.Destroy
 0001:00030754       uPSCompiler.TPSSubValue.Destroy
 0001:00030784       uPSCompiler.TPSValueVar.Create
 0001:000307C8       uPSCompiler.TPSValueVar.Destroy
 0001:0003081C       uPSCompiler.TPSValueVar.GetRecCount
 0001:00030824       uPSCompiler.TPSValueVar.GetRecItem
 0001:00030838       uPSCompiler.TPSValueVar.RecAdd
 0001:00030844       uPSCompiler.TPSValueVar.RecDelete
 0001:0003086C       uPSCompiler.TPSValueProc.Destroy
 0001:00030898       uPSCompiler.TPSParameter.Destroy
 0001:000308D0       uPSCompiler.TPSParameters.Add
 0001:000308F4       uPSCompiler.TPSParameters.Create
 0001:00030938       uPSCompiler.TPSParameters.Destroy
 0001:00030988       uPSCompiler.TPSParameters.GetCount
 0001:00030990       uPSCompiler.TPSParameters.GetItem
 0001:000309A4       uPSCompiler.TPSValueArray.Add
 0001:000309B0       uPSCompiler.TPSValueArray.Create
 0001:000309F4       uPSCompiler.TPSValueArray.Destroy
 0001:00030A44       uPSCompiler.TPSValueArray.GetCount
 0001:00030A4C       uPSCompiler.TPSValueArray.GetItem
 0001:00030A60       uPSCompiler.TPSValueAllocatedStackVar.Destroy
 0001:00030AD8       uPSCompiler.TPSCompileTimeClass.CastToType
 0001:00030BF8       uPSCompiler.TPSCompileTimeClass.ClassFunc_Call
 0001:00030DA0       uPSCompiler.TPSCompileTimeClass.ClassFunc_Find
 0001:00030E28       uPSCompiler.TPSCompileTimeClass.Func_Call
 0001:00030FBC       uPSCompiler.TPSCompileTimeClass.Func_Find
 0001:00031044       uPSCompiler.TPSCompileTimeClass.IsCompatibleWith
 0001:0003106C       uPSCompiler.TPSCompileTimeClass.Property_Find
 0001:0003112C       uPSCompiler.TPSCompileTimeClass.Property_Get
 0001:0003127C       uPSCompiler.TPSCompileTimeClass.Property_GetHeader
 0001:0003129C       uPSCompiler.TPSCompileTimeClass.Property_Set
 0001:000313D4       uPSCompiler.TPSCompileTimeClass.SetNil
 0001:00031498       uPSCompiler.TPSSetType.GetBitSize
 0001:000314BC       uPSCompiler.TPSSetType.GetByteSize
 0001:000314E4       uPSCompiler.TPSBlockInfo.Clear
 0001:00031518       uPSCompiler.TPSBlockInfo.Create
 0001:0003157C       uPSCompiler.TPSBlockInfo.Destroy
 0001:000315B0       uPSCompiler.TPSAttributeType.GetField
 0001:000315C4       uPSCompiler.TPSAttributeType.GetFieldCount
 0001:000315CC       uPSCompiler.TPSAttribute.GetValueCount
 0001:000315D4       uPSCompiler.TPSAttribute.GetValue
 0001:000315E0       uPSCompiler.TPSAttribute.Create
 0001:0003162C       uPSCompiler.TPSAttribute.AddValue
 0001:00031638       uPSCompiler.TPSAttribute.Destroy
 0001:00031688       uPSCompiler.TPSAttribute.Assign
 0001:000316F0       uPSCompiler.TPSAttributes.GetCount
 0001:000316F8       uPSCompiler.TPSAttributes.GetItem
 0001:0003170C       uPSCompiler.TPSAttributes.Add
 0001:00031730       uPSCompiler.TPSAttributes.Create
 0001:00031774       uPSCompiler.TPSAttributes.Destroy
 0001:000317C4       uPSCompiler.TPSAttributes.Assign
 0001:00031840       uPSCompiler.TPSParameterDecl.SetName
 0001:0003189C       uPSCompiler.TPSParametersDecl.Assign
 0001:00031940       uPSCompiler.TPSParametersDecl.GetParam
 0001:00031954       uPSCompiler.TPSParametersDecl.GetParamCount
 0001:0003195C       uPSCompiler.TPSParametersDecl.AddParam
 0001:00031980       uPSCompiler.TPSParametersDecl.Create
 0001:000319C4       uPSCompiler.TPSParametersDecl.Destroy
 0001:00031A14       uPSCompiler.TPSParametersDecl.Same
 0001:00031A9C       uPSCompiler.TPSProceduralType.Create
 0001:00031AE0       uPSCompiler.TPSProceduralType.Destroy
 0001:00031B10       uPSCompiler.TPSInterface.CastToType
 0001:00031C34       uPSCompiler.TPSInterface.Create
 0001:00031CD8       uPSCompiler.TPSInterface.SetInheritedFrom
 0001:00031CDC       uPSCompiler.TPSInterface.Destroy
 0001:00031D2C       uPSCompiler.TPSInterface.Func_Call
 0001:00031ED8       uPSCompiler.TPSInterface.Func_Find
 0001:00031F50       uPSCompiler.TPSInterface.IsCompatibleWith
 0001:00031F84       uPSCompiler.TPSInterface.RegisterDummyMethod
 0001:00031FA4       uPSCompiler.TPSInterface.SetNil
 0001:0003206C       uPSCompiler.TPSInterfaceMethod.Create
 0001:000320C0       uPSCompiler.TPSInterfaceMethod.GetAbsoluteProcOffset
 0001:000320F8       uPSCompiler.TPSInterfaceMethod.Destroy
 0001:00032128       uPSCompiler.TPSVariantType.GetDynInvokeParamType
 0001:00032180       uPSCompiler.TPSVariantType.GetDynInvokeProcNo
 0001:000321AC       uPSCompiler.TPSVariantType.GetDynIvokeResulType
 0001:000321CC       uPSCompiler.TPSVariantType.GetDynIvokeSelfType
 0001:000321FC       uPSCompiler.TPSValueProcVal.Destroy
 0001:0003223C       uPSC_dll.rpos
 0001:00032260       uPSC_dll.RemoveQuotes
 0001:0003230C       uPSC_dll.DllExternalProc
 0001:000327A4       uPSC_dll.Finalization
 0001:000327F4       ComObj..EOleError
 0001:0003284C       ComObj..EOleSysError
 0001:000328A8       ComObj..EOleException
 0001:00032960       ComObj.TrimPunctuation
 0001:000329B0       ComObj.EOleSysError.Create
 0001:00032A84       ComObj.EOleException.Create
 0001:00032B1C       ComObj.OleError
 0001:00032B38       ComObj.OleCheck
 0001:00032B48       ComObj.LoadComExProcs
 0001:00032C4C       ComObj.SafeCallError
 0001:00032D4C       ComObj.DispatchInvoke
 0001:00033088       ComObj.RaiseNameException
 0001:000330BC       ComObj.GetIDsOfNames
 0001:0003319C       ComObj.RaiseException
 0001:000331B4       ComObj.VarDispInvoke
 0001:00033250       ComObj.DispCallError
 0001:00033324       ComObj.DispatchInvokeError
 0001:00033330       ComObj.ClearExcepInfo
 0001:00033340       ComObj.DispCall
 0001:00033424       ComObj.DispCallByID
 0001:00033500       ComObj.InitComObj
 0001:0003357C       ComObj.Finalization
 0001:000335FC       uPSRuntime..TPSProcRec
 0001:00033654       uPSRuntime..TPSExternalProcRec
 0001:000336D0       uPSRuntime..TPSInternalProcRec
 0001:0003374C       uPSRuntime..TPSTypeRec
 0001:000337BC       uPSRuntime..TPSTypeRec_ProcPtr
 0001:00033834       uPSRuntime..TPSTypeRec_Class
 0001:000338A8       uPSRuntime..TPSTypeRec_Interface
 0001:00033910       uPSRuntime..TPSTypeRec_Array
 0001:00033974       uPSRuntime..TPSTypeRec_StaticArray
 0001:000339DC       uPSRuntime..TPSTypeRec_Set
 0001:00033A3C       uPSRuntime..TPSTypeRec_Record
 0001:00033AA0       uPSRuntime..TPSRuntimeAttribute
 0001:00033B14       uPSRuntime..TPSRuntimeAttributes
 0001:00033B78       uPSRuntime..TPSExec
 0001:00033C00       uPSRuntime..TPSStack
 0001:00033C5C       uPSRuntime..EPSException
 0001:00033DF8       uPSRuntime.Set_Union
 0001:00033E10       uPSRuntime.Set_Diff
 0001:00033E28       uPSRuntime.Set_Intersect
 0001:00033E40       uPSRuntime.Set_Subset
 0001:00033E78       uPSRuntime.Set_Equal
 0001:00033EA4       uPSRuntime.Set_membership
 0001:00033EC4       uPSRuntime.Trim
 0001:00033F3C       uPSRuntime.FloatToStr
 0001:00033F5C       uPSRuntime.Padl
 0001:00033FD8       uPSRuntime.Padz
 0001:00034054       uPSRuntime.Padr
 0001:000340D0       uPSRuntime.SafeStr
 0001:00034118       uPSRuntime.PSErrorToString
 0001:000343EC       uPSRuntime.TPSTypeRec.CalcSize
 0001:000344A4       uPSRuntime.TPSTypeRec.Create
 0001:000344F0       uPSRuntime.TPSTypeRec.Destroy
 0001:00034520       uPSRuntime.TPSTypeRec_Record.CalcSize
 0001:00034554       uPSRuntime.TPSTypeRec_Record.Create
 0001:000345A8       uPSRuntime.TPSTypeRec_Record.Destroy
 0001:000345E0       uPSRuntime.InitializeVariant
 0001:00034764       uPSRuntime.FinalizeVariant
 0001:00034994       uPSRuntime.CreateHeapVariant2
 0001:000349B0       uPSRuntime.DestroyHeapVariant2
 0001:000349EC       uPSRuntime.CreateHeapVariant
 0001:00034A10       uPSRuntime.DestroyHeapVariant
 0001:00034A58       uPSRuntime.TPSExec.Cleanup
 0001:00034ACC       uPSRuntime.TPSExec.Clear
 0001:00034BD4       uPSRuntime.TPSExec.Create
 0001:00034D24       uPSRuntime.TPSExec.Destroy
 0001:00034E58       uPSRuntime.TPSExec.ExceptionProc
 0001:00034F88       uPSRuntime.LookupProc
 0001:00035024       uPSRuntime.TPSExec.ImportProc
 0001:0003514C       uPSRuntime.TPSExec.RegisterFunctionName
 0001:000351EC       uPSRuntime.read
 0001:0003523C       uPSRuntime.ReadAttrib
 0001:000358E4       uPSRuntime.ReadAttributes
 0001:00035938       uPSRuntime.resolve
 0001:0003597C       uPSRuntime.LoadTypes
 0001:00036040       uPSRuntime.LoadProcs
 0001:0003650C       uPSRuntime.LoadVars
 0001:000366C4       uPSRuntime.TPSExec.LoadData
 0001:000367B4       uPSRuntime.TPSExec.Pause
 0001:000367C0       uPSRuntime.TPSExec.ReadData
 0001:000367EC       uPSRuntime.TPSExec.CMD_Err
 0001:000367F8       uPSRuntime.VarToWideStr
 0001:00036820       uPSRuntime.PSGetUInt
 0001:00036A6C       uPSRuntime.PSGetInt64
 0001:00036C08       uPSRuntime.PSGetReal
 0001:00036DD0       uPSRuntime.PSGetCurrency
 0001:00036FC8       uPSRuntime.PSGetInt
 0001:0003710C       uPSRuntime.PSGetString
 0001:00037248       uPSRuntime.PSGetWideString
 0001:00037394       uPSRuntime.PSSetInt64
 0001:0003751C       uPSRuntime.PSSetReal
 0001:00037620       uPSRuntime.PSSetInt
 0001:000377C0       uPSRuntime.PSSetString
 0001:0003786C       uPSRuntime.CopyRecordContents
 0001:000378C4       uPSRuntime.CopyArrayContents
 0001:00037D38       uPSRuntime.PSDynArrayGetLength
 0001:00037DA4       uPSRuntime.PSDynArraySetLength
 0001:00037FD4       uPSRuntime.TPSExec.SetVariantValue
 0001:00038CE8       uPSRuntime.Class_IS
 0001:00038D5C       uPSRuntime.SetBoolean
 0001:00038DFC       uPSRuntime.TPSExec.DoBooleanCalc
 0001:0003AEAC       uPSRuntime.VarIsFloat
 0001:0003AEC4       uPSRuntime.TPSExec.DoCalc
 0001:0003EEFC       uPSRuntime.TPSExec.ReadVariable
 0001:0003F954       uPSRuntime.TPSExec.DoMinus
 0001:0003FAB4       uPSRuntime.TPSExec.DoBooleanNot
 0001:0003FC34       uPSRuntime.TPSExec.Stop
 0001:0003FC60       uPSRuntime.TPSExec.ReadLong
 0001:0003FC84       uPSRuntime.TPSExec.RunProc
 0001:00040030       uPSRuntime.TPSExec.FindType2
 0001:00040040       uPSRuntime.TPSExec.FindType
 0001:0004008C       uPSRuntime.TPSExec.GetTypeNo
 0001:000400A0       uPSRuntime.TPSExec.AddResource
 0001:000400C8       uPSRuntime.TPSExec.DeleteResource
 0001:00040100       uPSRuntime.TPSExec.FindProcResource
 0001:00040134       uPSRuntime.TPSExec.FindProcResource2
 0001:0004017C       uPSRuntime.TPSExec.RunLine
 0001:0004018C       uPSRuntime.TPSExec.CMD_Err3
 0001:00040204       uPSRuntime.TPSExec.AddSpecialProcImport
 0001:00040258       uPSRuntime.TPSExec.GetProcNo
 0001:0004026C       uPSRuntime.TPSExec.DoIntegerNot
 0001:0004037C       uPSRuntime.GetRunLine
 0001:0004039C       uPSRuntime.TPSExec.RunScript
 0001:0004280C       uPSRuntime.NVarProc
 0001:00042934       uPSRuntime.DefProc
 0001:0004337C       uPSRuntime.GetArrayLength
 0001:000433D4       uPSRuntime.SetArrayLength
 0001:0004342C       uPSRuntime.RegisterInterfaceLibraryRuntime
 0001:00043450       uPSRuntime.TPSExec.RegisterStandardProcs
 0001:00043C88       uPSRuntime.RealFloatCall_Register
 0001:00043CD0       uPSRuntime.RealFloatCall_Other
 0001:00043D0C       uPSRuntime.RealFloatCall_CDecl
 0001:00043D54       uPSRuntime.RealCall_Register
 0001:00043DB0       uPSRuntime.RealCall_Other
 0001:00043E04       uPSRuntime.RealCall_CDecl
 0001:00043E60       uPSRuntime.ToString
 0001:00043E7C       uPSRuntime.BuildArray
 0001:00043F4C       uPSRuntime.IntPIFVariantToVariant
 0001:0004421C       uPSRuntime.PIFVariantToVariant
 0001:0004422C       uPSRuntime.CreateOpenArray
 0001:0004450C       uPSRuntime.DestroyOpenArray
 0001:000447AC       uPSRuntime.rp
 0001:000447D0       uPSRuntime.GetPtr
 0001:00044F30       uPSRuntime.TPSExec.InnerfuseCall
 0001:0004698C       uPSRuntime.MkMethod
 0001:000469C0       uPSRuntime.PFree
 0001:000469D0       uPSRuntime.GetMethodInfoRec
 0001:00046A3C       uPSRuntime.VirtualMethodPtrToPtr
 0001:00046A44       uPSRuntime.VirtualClassMethodPtrToPtr
 0001:00046A48       uPSRuntime.NewTPSVariantIFC
 0001:00046A80       uPSRuntime.NewPPSVariantIFC
 0001:00046AC0       uPSRuntime.DisposePPSVariantIFC
 0001:00046AD0       uPSRuntime.DisposePPSVariantIFCList
 0001:00046AFC       uPSRuntime.ClassCallProcMethod
 0001:00046D84       uPSRuntime.ClassCallProcConstructor
 0001:00047074       uPSRuntime.ClassCallProcVirtualConstructor
 0001:00047370       uPSRuntime.CastProc
 0001:000475E0       uPSRuntime.NilProc
 0001:0004763C       uPSRuntime.IntfCallProc
 0001:000478A0       uPSRuntime.InterfaceProc
 0001:00047968       uPSRuntime.getMethodNo
 0001:00047998       uPSRuntime.ClassCallProcProperty
 0001:00047F70       uPSRuntime.ClassCallProcPropertyHelper
 0001:000482AC       uPSRuntime.ClassCallProcPropertyHelperName
 0001:00048644       uPSRuntime.ClassCallProcEventPropertyHelper
 0001:00048A44       uPSRuntime.SpecImport
 0001:00048EC4       uPSRuntime.TPSExec.CMD_Err2
 0001:00048ECC       uPSRuntime.TPSExec.GetProcCount
 0001:00048ED4       uPSRuntime.TPSExec.FindSpecialProcImport
 0001:00048F08       uPSRuntime.TPSExec.InvokeExternalMethod
 0001:00049050       uPSRuntime.MyAllMethodsHandler
 0001:0004906C       uPSRuntime.ResultAsRegister
 0001:000490B4       uPSRuntime.SupportsRegister
 0001:0004910C       uPSRuntime.AlwaysAsVariable
 0001:00049144       uPSRuntime.PutOnFPUStackExtended
 0001:00049150       uPSRuntime.MyAllMethodsHandler2
 0001:0004973C       uPSRuntime.TPSRuntimeClassImporter.FindClass
 0001:00049790       uPSRuntime.DelphiFunctionProc
 0001:0004990C       uPSRuntime.DelphiFunctionProc_CDECL
 0001:00049920       uPSRuntime.DelphiFunctionProc_Register
 0001:00049934       uPSRuntime.DelphiFunctionProc_Pascal
 0001:00049948       uPSRuntime.DelphiFunctionProc_Stdcall
 0001:0004995C       uPSRuntime.TPSExec.RegisterDelphiFunction
 0001:000499BC       uPSRuntime.TPSExec.RegisterDelphiMethod
 0001:00049A94       uPSRuntime.EPSException.Create
 0001:00049AE4       uPSRuntime.TPSRuntimeAttribute.AddValue
 0001:00049AF0       uPSRuntime.TPSRuntimeAttribute.Create
 0001:00049B3C       uPSRuntime.TPSRuntimeAttribute.Destroy
 0001:00049B6C       uPSRuntime.TPSRuntimeAttributes.Add
 0001:00049B90       uPSRuntime.TPSRuntimeAttributes.Create
 0001:00049BDC       uPSRuntime.TPSRuntimeAttributes.Destroy
 0001:00049C2C       uPSRuntime.TPSInternalProcRec.Destroy
 0001:00049C60       uPSRuntime.TPSProcRec.Create
 0001:00049CAC       uPSRuntime.TPSProcRec.Destroy
 0001:00049CDC       uPSRuntime.TPSTypeRec_Array.CalcSize
 0001:00049CE4       uPSRuntime.TPSTypeRec_StaticArray.CalcSize
 0001:00049CF4       uPSRuntime.TPSTypeRec_Set.CalcSize
 0001:00049CFC       uPSRuntime.TPSStack.AdjustLength
 0001:00049D0C       uPSRuntime.TPSStack.Clear
 0001:00049D70       uPSRuntime.TPSStack.Create
 0001:00049DC0       uPSRuntime.TPSStack.Destroy
 0001:00049E34       uPSRuntime.TPSStack.GetInt
 0001:00049E54       uPSRuntime.TPSStack.GetInt64
 0001:00049E88       uPSRuntime.TPSStack.GetItem
 0001:00049E98       uPSRuntime.TPSStack.GetReal
 0001:00049EC4       uPSRuntime.TPSStack.GetString
 0001:00049EF0       uPSRuntime.TPSStack.Pop
 0001:00049F54       uPSRuntime.TPSStack.PushType
 0001:00049F9C       uPSRuntime.TPSStack.SetCapacity
 0001:0004A088       uPSRuntime.TPSStack.SetInt
 0001:0004A114       uPSRuntime.TPSStack.SetInt64
 0001:0004A1A4       uPSRuntime.TPSStack.SetReal
 0001:0004A238       uPSRuntime.TPSStack.SetString
 0001:0004A2C4       uPSRuntime.IDispatchInvoke
 0001:0004A690       uPSRuntime.TPSTypeRec_ProcPtr.CalcSize
 0001:0004A6B8       uPSR_dll.LAstErrorFree
 0001:0004A6C8       uPSR_dll.DLLSetLastError
 0001:0004A704       uPSR_dll.DLLGetLastError
 0001:0004A718       uPSR_dll.DllFree
 0001:0004A734       uPSR_dll.LoadDll
 0001:0004A8F8       uPSR_dll.DllProc
 0001:0004AB08       uPSR_dll.ProcessDllImport
 0001:0004AB10       uPSR_dll.ProcessDllImportEx
 0001:0004ABD8       uPSR_dll.GetLastErrorProc
 0001:0004ABFC       uPSR_dll.UnloadProc
 0001:0004AD60       uPSR_dll.RegisterDLLRuntime
 0001:0004AD68       uPSR_dll.RegisterDLLRuntimeEx
 0001:0004ADE8       sample3.ScriptOnUses
 0001:0004AE20       sample3.ExecuteScript
 0001:0004AED0       sample3.Finalization
 0002:00000000       System.System
 0002:00000098       Windows.Windows
 0002:000000AC       SysUtils.SysUtils
 0002:00000134       VarUtils.VarUtils
 0002:00000144       Variants.Variants
 0002:000001F0       TypInfo.TypInfo
 0002:000001F8       Classes.Classes
 0002:0000028C       uPSUtils.uPSUtils
 0002:00000294       uPSC_dll.uPSC_dll
 0002:000002A8       ComObj.ComObj
 0002:00000300       sample3.sample3
 0003:00000000       System.ExitCode
 0003:00000004       System.ErrorAddr
 0003:00000008       System.FileMode
 0003:0000000C       System.VarClearProc
 0003:00000010       System.VarAddRefProc
 0003:00000014       System.VarCopyProc
 0003:00000018       System.VarToLStrProc
 0003:0000001C       System.VarToWStrProc
 0003:00000020       System.Default8087CW
 0003:00000024       System.DebugHook
 0003:00000028       System.JITEnable
 0003:0000002C       System.NoErrMsg
 0003:00000030       System.LibModuleList
 0003:00000034       System.ModuleUnloadList
 0003:00000038       System.Copyright
 0003:0000003C       System.SmallBlockTypes
 0003:0000071C       System.MemoryManager
 0003:00000734       System.reMap
 0003:00000750       System.Ten
 0003:00000758       System.errCaption
 0003:00000760       System.runErrMsg
 0003:00000780       System.dig
 0003:00000790       SysInit.TlsIndex
 0003:00000794       SysInit.PtrToNil
 0003:00000798       SysInit.Module
 0003:000007B0       SysUtils.EmptyStr
 0003:000007B4       SysUtils.EmptyWideStr
 0003:000007B8       SysUtils.Win32Platform
 0003:000007BC       SysUtils.Win32MajorVersion
 0003:000007C0       SysUtils.Win32MinorVersion
 0003:000007C4       SysUtils.Win32BuildNumber
 0003:000007C8       SysUtils.Win32CSDVersion
 0003:000007CC       SysUtils.TwoDigitYearCenturyWindow
 0003:000007D0       SysUtils.MonthDays
 0003:00000800       SysUtils.LeadBytes
 0003:00000820       SysUtils.HexDisplayPrefix
 0003:00000824       SysUtils.GetDiskFreeSpaceEx
 0003:00000828       SysUtils.cSimpleBoolStrs
 0003:00000830       SysUtils.FormatErrorStrs
 0003:00000838       SysUtils.FCon1E18
 0003:00000844       SysUtils.DCon10
 0003:00000848       SysUtils.CWNear
 0003:0000084C       SysUtils.FMSecsPerDay
 0003:00000850       SysUtils.IMSecsPerDay
 0003:00000854       SysUtils.Format
 0003:00000858       SysUtils.DefShortMonthNames
 0003:00000888       SysUtils.DefLongMonthNames
 0003:000008B8       SysUtils.DefShortDayNames
 0003:000008D4       SysUtils.DefLongDayNames
 0003:000008F0       SysUtils.ErrorMap
 0003:00000928       SysUtils.ExceptMap
 0003:000009D8       SysUtils.TerminateProcList
 0003:000009DC       ActiveX.GUID_NULL
 0003:000009EC       VarUtils.CVarTypeToElementInfo
 0003:00000AF4       VarUtils.CResult
 0003:00000AFC       Variants.NullEqualityRule
 0003:00000B00       Variants.NullMagnitudeRule
 0003:00000B04       Variants.NullStrictConvert
 0003:00000B08       Variants.NullAsStringValue
 0003:00000B0C       Variants.PackVarCreation
 0003:00000B10       Variants.BooleanToStringRule
 0003:00000B14       Variants.BaseTypeMap
 0003:00000B2C       Variants.CInvalidCustomVariantType
 0003:00000B30       Variants.CRangeToType
 0003:00000B44       Variants.OpTypeMap
 0003:00000BC0       Variants.CBooleanToRelationship
 0003:00000BCC       Variants.CmpTypeMap
 0003:00000C48       Variants.CTruth
 0003:00000C4C       Variants.CText
 0003:00000CA0       Variants.CRelationshipToBoolean
 0003:00000CB4       TypInfo.BooleanIdents
 0003:00000CBC       TypInfo.DotSep
 0003:00000CC0       Classes.SyncList
 0003:00000CC4       uPSUtils.LookupTable
 0003:00000ECC       uPSCompiler.IUnknown_Guid
 0003:00000EDC       uPSCompiler.IDispatch_Guid
 0003:00000EEC       ComObj.CoCreateInstanceEx
 0003:00000EF0       ComObj.CoInitializeEx
 0003:00000EF4       ComObj.CoAddRefServerProcess
 0003:00000EF8       ComObj.CoReleaseServerProcess
 0003:00000EFC       ComObj.CoResumeClassObjects
 0003:00000F00       ComObj.CoSuspendClassObjects
 0003:00000F04       ComObj.CoInitFlags
 0003:00000F08       ComObj.ThreadStrs
 0003:00000F1C       uPSRuntime.EmptyPchar
 0003:00000F20       uPSRuntime.DispPropertyPut
 0004:00000000       System.DispCallByIDProc
 0004:00000004       System.ExceptProc
 0004:00000008       System.ErrorProc
 0004:0000000C       System.ExceptClsProc
 0004:00000010       System.ExceptObjProc
 0004:00000014       System.RaiseExceptionProc
 0004:00000018       System.RTLUnwindProc
 0004:0000001C       System.ExceptionClass
 0004:00000020       System.SafeCallErrorProc
 0004:00000024       System.AssertErrorProc
 0004:00000028       System.ExitProcessProc
 0004:0000002C       System.AbstractErrorProc
 0004:00000030       System.MainInstance
 0004:00000034       System.MainThreadID
 0004:00000038       System.IsLibrary
 0004:0000003C       System.CmdShow
 0004:00000040       System.CmdLine
 0004:00000044       System.InitProc
 0004:00000048       System.ExitProc
 0004:0000004C       System.IsConsole
 0004:0000004D       System.IsMultiThread
 0004:0000004E       System.Test8086
 0004:00000050       System.Input
 0004:0000021C       System.Output
 0004:000003E8       System.ErrOutput
 0004:000005B4       System.ReportMemoryLeaksOnShutdown
 0004:000005B5       System.NeverSleepOnMMThreadContention
 0004:000005B8       System..6
 0004:000005BC       System.DefaultSystemCodePage
 0004:000005C0       System.AllocSize2SmallBlockTypeIndX4
 0004:00000706       System.MinimumBlockAlignment
 0004:00000708       System.MediumBlockPoolsCircularList
 0004:00000718       System.MediumBlocksLocked
 0004:0000071C       System.LastSequentiallyFedMediumBlock
 0004:00000720       System.MediumSequentialFeedBytesLeft
 0004:00000724       System.MediumBlockBinGroupBitmap
 0004:00000728       System.MediumBlockBinBitmaps
 0004:000007A8       System.MediumBlockBins
 0004:000027A8       System.LargeBlocksLocked
 0004:000027AC       System.LargeBlocksCircularList
 0004:000027BC       System.ExpectedMemoryLeaks
 0004:000027C0       System.ExpectedMemoryLeaksListLocked
 0004:000027C4       System.MMSharingWindow
 0004:000027C8       System.InitContext
 0004:000027F4       SysInit.ModuleIsLib
 0004:000027F5       SysInit.ModuleIsCpp
 0004:000027F8       SysInit.HInstance
 0004:000027FC       SysInit.tlsBuffer
 0004:00002800       Windows..3
 0004:00002804       Windows.HtmlHelpModule
 0004:00002808       SysUtils.CurrencyString
 0004:0000280C       SysUtils.CurrencyFormat
 0004:0000280D       SysUtils.NegCurrFormat
 0004:0000280E       SysUtils.ThousandSeparator
 0004:0000280F       SysUtils.DecimalSeparator
 0004:00002810       SysUtils.CurrencyDecimals
 0004:00002811       SysUtils.DateSeparator
 0004:00002814       SysUtils.ShortDateFormat
 0004:00002818       SysUtils.LongDateFormat
 0004:0000281C       SysUtils.TimeSeparator
 0004:00002820       SysUtils.TimeAMString
 0004:00002824       SysUtils.TimePMString
 0004:00002828       SysUtils.ShortTimeFormat
 0004:0000282C       SysUtils.LongTimeFormat
 0004:00002830       SysUtils.ShortMonthNames
 0004:00002860       SysUtils.LongMonthNames
 0004:00002890       SysUtils.ShortDayNames
 0004:000028AC       SysUtils.LongDayNames
 0004:000028C8       SysUtils.SysLocale
 0004:000028D6       SysUtils.ListSeparator
 0004:000028D8       SysUtils.EraNames
 0004:000028F4       SysUtils.EraYearOffsets
 0004:00002910       SysUtils.TrueBoolStrs
 0004:00002914       SysUtils.FalseBoolStrs
 0004:00002918       SysUtils..35
 0004:0000291C       SysUtils.OutOfMemory
 0004:00002920       SysUtils.InvalidPointer
 0004:00002924       SysUtils.ValidatedUnitHashBuckets
 0004:00003918       SysUtils.UnitHashBuckets
 0004:0000490C       SysUtils.FLanguages
 0004:00004910       VarUtils.VariantChangeTypeEx
 0004:00004914       VarUtils.VarNeg
 0004:00004918       VarUtils.VarNot
 0004:0000491C       VarUtils.VarAdd
 0004:00004920       VarUtils.VarSub
 0004:00004924       VarUtils.VarMul
 0004:00004928       VarUtils.VarDiv
 0004:0000492C       VarUtils.VarIDiv
 0004:00004930       VarUtils.VarMod
 0004:00004934       VarUtils.VarAnd
 0004:00004938       VarUtils.VarOr
 0004:0000493C       VarUtils.VarXor
 0004:00004940       VarUtils.VarCmp
 0004:00004944       VarUtils.VarI4FromStr
 0004:00004948       VarUtils.VarR4FromStr
 0004:0000494C       VarUtils.VarR8FromStr
 0004:00004950       VarUtils.VarDateFromStr
 0004:00004954       VarUtils.VarCyFromStr
 0004:00004958       VarUtils.VarBoolFromStr
 0004:0000495C       VarUtils.VarBstrFromCy
 0004:00004960       VarUtils.VarBstrFromDate
 0004:00004964       VarUtils.VarBstrFromBool
 0004:00004968       VarUtils..5
 0004:0000496C       Variants.EmptyParam
 0004:0000497C       Variants.VarDispProc
 0004:00004980       Variants.ClearAnyProc
 0004:00004984       Variants.ChangeAnyProc
 0004:00004988       Variants.RefAnyProc
 0004:0000498C       Variants..81
 0004:00004990       Variants.LVarTypes
 0004:00004994       Variants.LVarTypeSync
 0004:000049AC       TypInfo..6
 0004:000049B0       Classes.GlobalNameSpace
 0004:000049B4       Classes.SyncEvent
 0004:000049B8       Classes..95
 0004:000049BC       Classes.IntConstList
 0004:000049C0       Classes.RegGroups
 0004:000049C4       Classes.FindGlobalComponentProcs
 0004:000049C8       Classes.GlobalFixupList
 0004:000049CC       Classes.ThreadLock
 0004:000049E4       uPSUtils..4
 0004:000049E8       uPSC_dll.DefaultCC
 0004:000049EC       uPSC_dll..1
 0004:000049F0       ComObj..41
 0004:000049F4       ComObj.OleUninitializing
 0004:000049F8       ComObj.ComClassManagerVar
 0004:000049FC       ComObj.SaveInitProc
 0004:00004A00       ComObj.NeedToUninitialize
 0005:00000000       System.RaiseListPtr
 0005:00000004       System.InOutRes
 0005:00000008       Classes.GlobalLists
 0005:0000000C       SysInit.TlsLast


Line numbers for uPSUtils(uPSUtils.pas) segment .text

   590 0001:00015F74   591 0001:00015F76   592 0001:00015F78   593 0001:00015F8C
   592 0001:00015FA0   594 0001:00015FA3   599 0001:00015FA8   600 0001:00015FAF
   603 0001:00015FB6   605 0001:00015FBF   606 0001:00015FCF   607 0001:00015FDD
   609 0001:00015FDF   601 0001:00015FE0   611 0001:00015FEB   612 0001:00015FF4
   613 0001:00015FFB   618 0001:00016000   619 0001:00016008   620 0001:0001601B
   622 0001:00016020   624 0001:00016029   625 0001:00016039   626 0001:00016047
   628 0001:00016049   620 0001:0001604A   630 0001:0001604F   631 0001:00016058
   632 0001:0001605F   637 0001:00016064   638 0001:0001607D   639 0001:00016089
   640 0001:000160B0   646 0001:000160D4   647 0001:000160F6   648 0001:00016111
   649 0001:0001611B   664 0001:00016140   665 0001:00016141   666 0001:00016148
   667 0001:0001614E   670 0001:00016151   677 0001:00016154   678 0001:00016158
   679 0001:0001615F   680 0001:00016165   683 0001:00016167   687 0001:0001616C
   688 0001:0001617E   689 0001:00016187   690 0001:0001618C   692 0001:00016193
   694 0001:00016198   695 0001:000161A5   699 0001:000161C0   700 0001:000161C7
   701 0001:000161D7   703 0001:000161DE   704 0001:000161E0   713 0001:000161E4
   715 0001:000161E9   716 0001:000161EE   717 0001:000161FD   718 0001:00016207
   719 0001:00016214   721 0001:0001621F   722 0001:00016228   719 0001:00016229
   723 0001:0001622C   724 0001:0001623B   725 0001:0001623E   726 0001:00016241
   732 0001:00016248   733 0001:0001624E   735 0001:00016256   736 0001:0001625A
   738 0001:00016269   739 0001:00016272   740 0001:00016275   742 0001:00016278
   743 0001:0001627B   745 0001:0001628B   773 0001:00016290   774 0001:00016296
   776 0001:00016299   777 0001:0001629C   779 0001:000162AA   784 0001:000162AC
   785 0001:000162B0   786 0001:000162B7   788 0001:000162BB   789 0001:000162D5
   791 0001:000162D8   792 0001:000162DB   795 0001:000162EB   801 0001:000162F0
   802 0001:000162F7   803 0001:000162FD   806 0001:00016301   808 0001:00016309
   809 0001:00016312   811 0001:00016314   804 0001:00016315   813 0001:0001631A
   818 0001:00016320   820 0001:00016325   822 0001:0001632A   826 0001:0001632C
   827 0001:00016337   828 0001:00016346   829 0001:00016352   833 0001:00016360
   834 0001:00016361   836 0001:0001636C   837 0001:00016372   842 0001:00016374
   843 0001:00016379   845 0001:00016380   846 0001:00016382   854 0001:00016384
   855 0001:0001638A   863 0001:0001638C   864 0001:00016390   865 0001:0001639A
   866 0001:0001639E   869 0001:000163A8   870 0001:000163B1   877 0001:000163B4
   878 0001:000163B8   879 0001:000163C2   882 0001:000163C6   883 0001:000163CF
   889 0001:000163D4   890 0001:000163DB   891 0001:000163ED   892 0001:000163F6
   893 0001:00016400   899 0001:00016404   900 0001:0001640A   901 0001:00016414
   903 0001:00016418   905 0001:00016423   906 0001:0001642D   914 0001:00016430
   915 0001:00016442   916 0001:0001644B   917 0001:0001645A   920 0001:00016474
   922 0001:00016481   921 0001:0001648A   923 0001:00016493   924 0001:0001649D
   925 0001:000164A9   945 0001:000164B8   946 0001:000164C0   947 0001:000164C9
   948 0001:000164DC   950 0001:000164E0   951 0001:000164E7   952 0001:000164EF
   953 0001:000164FB   948 0001:000164FC   955 0001:00016500   961 0001:00016508
   962 0001:00016510   963 0001:00016519   964 0001:0001652C   966 0001:00016530
   967 0001:00016537   968 0001:0001653F   969 0001:0001654B   964 0001:0001654C
   971 0001:00016550  1053 0001:00016968  1054 0001:00016971  1065 0001:00016974
  1066 0001:00016986  1067 0001:00016988  1068 0001:00016991  1069 0001:00016996
  1071 0001:0001699E  1072 0001:000169A3  1073 0001:000169BA  1075 0001:000169C6
  1077 0001:000169DA  1078 0001:000169DE  1079 0001:000169EB  1081 0001:000169ED
  1082 0001:000169FD  1084 0001:00016A02  1086 0001:00016A07  1087 0001:00016A17
  1089 0001:00016A1C  1069 0001:00016A1F  1091 0001:00016A27  1092 0001:00016A2B
  1098 0001:00016A38  1099 0001:00016A54  1100 0001:00016A5E  1101 0001:00016A7A
  1102 0001:00016A84  1110 0001:00016AA8  1111 0001:00016ACF  1112 0001:00016AD1
  1113 0001:00016AD6  1116 0001:00016BDE  1117 0001:00016BE1  1121 0001:00016BED
  1123 0001:00016BF2  1122 0001:00016BF3  1125 0001:00016C1D  1127 0001:00016C24
  1128 0001:00016C49  1131 0001:00016C58  1132 0001:00016C5E  1133 0001:00016C61
  1129 0001:00016C62  1135 0001:00016C69  1137 0001:00016C94  1142 0001:00016C9C
  1145 0001:00016CA1  1144 0001:00016CA2  1147 0001:00016CC7  1148 0001:00016CCA
  1153 0001:00016CD6  1154 0001:00016CDA  1157 0001:00016CDE  1158 0001:00016CDF
  1160 0001:00016CF4  1161 0001:00016D04  1162 0001:00016D08  1155 0001:00016D09
  1165 0001:00016D1E  1168 0001:00016D79  1169 0001:00016D7D  1170 0001:00016D7E
  1171 0001:00016D95  1173 0001:00016D96  1174 0001:00016D97  1177 0001:00016DAC
  1178 0001:00016DB2  1179 0001:00016DB7  1181 0001:00016DBA  1187 0001:00016DC6
  1190 0001:00016DC9  1191 0001:00016DEA  1193 0001:00016DF2  1194 0001:00016E02
  1198 0001:00016E03  1188 0001:00016E04  1200 0001:00016E06  1201 0001:00016E15
  1204 0001:00016E1A  1205 0001:00016E1D  1207 0001:00016E1F  1211 0001:00016E2C
  1212 0001:00016E2F  1214 0001:00016E3E  1216 0001:00016E41  1215 0001:00016E42
  1218 0001:00016E67  1219 0001:00016E6A  1223 0001:00016E76  1222 0001:00016E77
  1225 0001:00016E8C  1227 0001:00016EAE  1228 0001:00016EB0  1230 0001:00016EB5
  1231 0001:00016EB8  1236 0001:00016EC4  1237 0001:00016EC7  1241 0001:00016ED5
  1243 0001:00016EE5  1244 0001:00016EE8  1247 0001:00016EF6  1248 0001:00016EF9
  1253 0001:00016F07  1255 0001:00016F19  1256 0001:00016F1C  1258 0001:00016F2A
  1260 0001:00016F31  1261 0001:00016F34  1264 0001:00016F42  1265 0001:00016F45
  1270 0001:00016F53  1271 0001:00016F56  1275 0001:00016F64  1277 0001:00016F78
  1279 0001:00016F7D  1281 0001:00016F9C  1283 0001:00016FAB  1284 0001:00016FB4
  1285 0001:00016FC4  1286 0001:00016FC5  1287 0001:00016FD3  1289 0001:00016FE2
  1290 0001:00016FEB  1292 0001:00016FF7  1278 0001:00016FF8  1294 0001:0001700B
  1296 0001:0001701A  1297 0001:0001701D  1300 0001:00017021  1301 0001:00017024
  1303 0001:00017027  1307 0001:00017033  1308 0001:00017036  1313 0001:00017044
  1314 0001:00017047  1318 0001:00017055  1319 0001:00017058  1323 0001:00017066
  1324 0001:00017069  1328 0001:00017077  1330 0001:00017087  1331 0001:00017090
  1334 0001:00017098  1335 0001:0001709B  1340 0001:000170A9  1341 0001:000170AC
  1345 0001:000170BA  1346 0001:000170BD  1350 0001:000170CB  1351 0001:000170CE
  1355 0001:000170DC  1357 0001:000170EC  1358 0001:000170EF  1361 0001:000170FD
  1362 0001:00017100  1367 0001:0001710E  1368 0001:00017111  1372 0001:0001711F
  1373 0001:00017122  1377 0001:00017130  1378 0001:00017133  1382 0001:00017141
  1384 0001:00017151  1387 0001:00017156  1385 0001:00017157  1389 0001:00017178
  1391 0001:00017187  1394 0001:0001718C  1396 0001:0001718F  1399 0001:0001719B
  1400 0001:0001719E  1405 0001:000171AC  1408 0001:000171B0  1410 0001:000171BF
  1411 0001:000171C8  1412 0001:000171D8  1413 0001:000171D9  1414 0001:000171E7
  1416 0001:000171F6  1417 0001:000171FF  1419 0001:0001720B  1406 0001:0001720C
  1421 0001:0001722B  1422 0001:0001722E  1426 0001:0001723A  1428 0001:0001723F
  1430 0001:0001724E  1431 0001:00017257  1432 0001:00017267  1433 0001:00017268
  1434 0001:00017276  1436 0001:00017285  1437 0001:0001728E  1439 0001:0001729A
  1427 0001:0001729B  1441 0001:000172B9  1443 0001:000172C8  1444 0001:000172CB
  1446 0001:000172CF  1447 0001:000172D2  1451 0001:000172DC  1452 0001:000172DE
  1453 0001:000172E1  1456 0001:000172EA  1458 0001:00017310  1459 0001:00017332
  1461 0001:0001733A  1462 0001:00017341  1463 0001:00017348  1464 0001:0001734E
  1467 0001:00017353  1468 0001:0001735D  1469 0001:00017375  1471 0001:00017379
  1472 0001:00017380  1473 0001:00017386  1474 0001:00017390  1475 0001:0001739A
  1476 0001:000173B2  1479 0001:000173B7  1480 0001:000173DC  1482 0001:000173E8
  1483 0001:000173F7  1484 0001:0001741A  1486 0001:0001742E  1488 0001:0001743A
  1489 0001:00017449  1490 0001:0001746C  1494 0001:00017480  1495 0001:0001748F
  1496 0001:000174B2  1500 0001:000174C3  1501 0001:000174D2  1502 0001:000174F5
  1506 0001:00017504  1507 0001:0001750E  1512 0001:00017518  1515 0001:0001753C
  1516 0001:00017542  1517 0001:0001754C  1518 0001:00017552  1519 0001:00017557
  1520 0001:0001755C  1521 0001:00017560  1522 0001:00017565  1523 0001:0001756C
  1524 0001:00017572  1529 0001:00017578  1530 0001:00017579  1532 0001:00017582
  1534 0001:0001758A  1535 0001:0001758C  1537 0001:0001758E  1530 0001:0001758F
  1538 0001:00017594  1539 0001:00017597

Line numbers for uPSUtils(uPSUtils.pas) segment .itext

  1541 0002:0000028C

Line numbers for uPSCompiler(uPSCompiler.pas) segment .text

  1784 0001:00018CEC  1785 0001:00018CF4  1786 0001:00018CFB  1788 0001:00018D01
  1790 0001:00018D0F  1791 0001:00018D1B  1793 0001:00018D2C  1794 0001:00018D3B
  1796 0001:00018D49  1797 0001:00018D55  1791 0001:00018D56  1798 0001:00018D59
  1802 0001:00018D78  1803 0001:00018D92  1804 0001:00018DAA  1807 0001:00018DD0
  1808 0001:00018DDC  1809 0001:00018DF7  1810 0001:00018E1D  1813 0001:00018E24
  1814 0001:00018E28  1815 0001:00018E34  1818 0001:00018E38  1819 0001:00018E3E
  1820 0001:00018E4A  1821 0001:00018EEB  1825 0001:00018F00  1826 0001:00018F11
  1828 0001:00018F31  1830 0001:00018F43  1831 0001:00018F55  1832 0001:00018F67
  1833 0001:00018F79  1834 0001:00018F8B  1867 0001:00018F9D  1837 0001:00018FA7
  1841 0001:00018FBF  1867 0001:00018FD4  1842 0001:00018FDE  1846 0001:00018FF6
  1847 0001:00019001  1848 0001:00019015  1849 0001:0001901D  1851 0001:0001902E
  1853 0001:00019040  1854 0001:00019052  1855 0001:00019064  1857 0001:00019076
  1859 0001:00019088  1867 0001:00019097  1928 0001:0001909C  1929 0001:000190A5
  1930 0001:000190AE  1932 0001:000190B2  1933 0001:000190BD  1936 0001:000190C1
  1948 0001:000190C8  1949 0001:00019104  1950 0001:00019112  1951 0001:0001911C
  1952 0001:00019124  1953 0001:0001912A  1954 0001:0001912E  1955 0001:00019134
  1956 0001:00019140  1959 0001:00019146  1960 0001:0001914D  1961 0001:00019151
  1963 0001:00019156  1964 0001:0001915C  1966 0001:00019162  1967 0001:00019169
  1968 0001:0001916D  1970 0001:00019172  1971 0001:0001917D  1972 0001:00019183
  1974 0001:0001918D  1975 0001:00019193  1979 0001:0001919D  1981 0001:000191A3
  1982 0001:000191A7  1985 0001:000191AF  1987 0001:000191B5  1988 0001:000191B9
  1991 0001:000191C1  1993 0001:000191C7  1994 0001:000191CB  1997 0001:000191D3
  1998 0001:000191D7  2000 0001:000191DD  2001 0001:000191E4  2002 0001:000191E8
  2004 0001:000191ED  2005 0001:000191F3  2006 0001:000191F9  2008 0001:00019203
  2009 0001:00019213  2012 0001:0001921B  2013 0001:00019221  2015 0001:00019227
  2016 0001:0001922E  2017 0001:00019232  2019 0001:00019237  2020 0001:0001924F
  2010 0001:00019255  2022 0001:0001925B  2024 0001:00019261  2025 0001:00019268
  2026 0001:0001926C  2028 0001:00019271  2029 0001:00019277  2031 0001:00019281
  2032 0001:00019287  2034 0001:0001928D  2035 0001:00019294  2036 0001:00019298
  2038 0001:0001929D  2039 0001:000192A3  2041 0001:000192A9  2044 0001:000192C2
  2045 0001:000192D9  2047 0001:000192DD  2048 0001:000192E4  2049 0001:000192E8
  2051 0001:000192ED  2052 0001:00019371  2053 0001:0001938A  2054 0001:000193A3
  2055 0001:000193BC  2056 0001:000193D5  2057 0001:000193EE  2058 0001:00019407
  2059 0001:00019420  2060 0001:00019439  2061 0001:00019452  2062 0001:0001946B
  2063 0001:00019484  2064 0001:0001949D  2065 0001:000194B6  2067 0001:000194CF
  2068 0001:000194E8  2070 0001:00019501  2071 0001:0001951A  2074 0001:00019567
  2075 0001:0001956E  2076 0001:00019572  2080 0001:00019577  2081 0001:0001957D
  2083 0001:00019584  2084 0001:00019591  2086 0001:00019595  2087 0001:0001959C
  2088 0001:000195A0  2093 0001:000195A5  2098 0001:000195AF  2099 0001:000195B5
  2100 0001:000195BB  2101 0001:000195C1  2102 0001:000195C8  2103 0001:000195F3
  2105 0001:000195F6  2091 0001:00019612  2107 0001:00019623  2108 0001:00019629
  2110 0001:0001962F  2112 0001:00019635  2113 0001:0001963C  2114 0001:00019640
  2116 0001:00019645  1977 0001:0001964B  2119 0001:00019650  2121 0001:00019656
  2123 0001:0001965C  2125 0001:00019662  2126 0001:00019669  2127 0001:0001966D
  2130 0001:0001966F  2131 0001:00019675  2132 0001:00019682  2134 0001:00019686
  2135 0001:0001968D  2136 0001:00019691  2139 0001:00019693  2141 0001:00019699
  2143 0001:000196A8  2144 0001:000196AA  2145 0001:000196B0  2146 0001:000196B7
  2147 0001:000196BD  2149 0001:000196C5  2150 0001:000196CB  2151 0001:000196CF
  2161 0001:00019B08  2162 0001:00019B14  2163 0001:00019B20  2165 0001:00019B2C
  2166 0001:00019B35  2168 0001:00019B44  2171 0001:00019B5C  2172 0001:00019B5E
  2177 0001:00019B60  2180 0001:00019B79  2181 0001:00019B7B  2184 0001:00019B7D
  2163 0001:00019B7E  2185 0001:00019B83  2187 0001:00019B8F  2188 0001:00019B9B
  2190 0001:00019BB1  2191 0001:00019BBF  2192 0001:00019BC2  2193 0001:00019BCC
  2194 0001:00019BD3  2196 0001:00019BD5  2185 0001:00019BD6  2197 0001:00019BDB
  2198 0001:00019BDE  2223 0001:00019BE8  2224 0001:00019BF2  2226 0001:00019C00
  2227 0001:00019C0C  2229 0001:00019C24  2230 0001:00019C2D  2232 0001:00019C2F
  2224 0001:00019C30  2233 0001:00019C33  2234 0001:00019C41  2235 0001:00019C4A
  2239 0001:00019C51  2240 0001:00019C58  2241 0001:00019C5D  2242 0001:00019C62
  2243 0001:00019C6C  2244 0001:00019C75  2249 0001:00019C7C  2250 0001:00019C84
  2251 0001:00019C99  2253 0001:00019CA3  2255 0001:00019CB4  2256 0001:00019CC3
  2258 0001:00019CD1  2259 0001:00019CDD  2260 0001:00019CF3  2253 0001:00019CF4
  2261 0001:00019CF7  2274 0001:00019D20  2275 0001:00019D26  2276 0001:00019D32
  2277 0001:00019D3B  2283 0001:00019D50  2284 0001:00019D71  2286 0001:00019D77
  2289 0001:00019D98  2290 0001:00019E21  2291 0001:00019E34  2292 0001:00019E47
  2293 0001:00019E57  2294 0001:00019E67  2295 0001:00019E77  2296 0001:00019E87
  2297 0001:00019E97  2298 0001:00019EA7  2300 0001:00019EB7  2303 0001:00019EC7
  2305 0001:00019ED5  2306 0001:00019EE9  2307 0001:00019EF3  2311 0001:00019EFA
  2312 0001:00019F01  2313 0001:00019F06  2314 0001:00019F0B  2315 0001:00019F15
  2328 0001:00019F40  2329 0001:00019F66  2330 0001:00019F6F  2332 0001:00019F90
  2333 0001:00019F9F  2334 0001:00019FA9  2335 0001:00019FB8  2336 0001:00019FBD
  2337 0001:00019FCB  2338 0001:00019FD6  2339 0001:00019FDC  2340 0001:00019FE0
  2342 0001:00019FE6  2343 0001:0001A016  2344 0001:0001A01D  2345 0001:0001A026
  2346 0001:0001A056  2347 0001:0001A064  2348 0001:0001A06B  2350 0001:0001A078
  2351 0001:0001A07F  2355 0001:0001A08C  2357 0001:0001A095  2358 0001:0001A097
  2360 0001:0001A0A0  2362 0001:0001A0A9  2363 0001:0001A0AB  2365 0001:0001A0B4
  2367 0001:0001A0BD  2368 0001:0001A0BF  2371 0001:0001A0C8  2372 0001:0001A0CA
  2373 0001:0001A0D3  2374 0001:0001A104  2375 0001:0001A117  2378 0001:0001A120
  2379 0001:0001A127  2380 0001:0001A130  2381 0001:0001A161  2382 0001:0001A17C
  2376 0001:0001A183  2384 0001:0001A18C  2386 0001:0001A195  2387 0001:0001A19D
  2389 0001:0001A1CE  2390 0001:0001A1D5  2391 0001:0001A1E5  2392 0001:0001A1ED
  2395 0001:0001A220  2397 0001:0001A22A  2398 0001:0001A22D  2399 0001:0001A258
  2401 0001:0001A25B  2393 0001:0001A277  2403 0001:0001A288  2404 0001:0001A28F
  2406 0001:0001A298  2407 0001:0001A2A1  2408 0001:0001A2D2  2353 0001:0001A2D9
  2411 0001:0001A2DE  2413 0001:0001A2E5  2415 0001:0001A2EF  2416 0001:0001A2F8
  2418 0001:0001A329  2419 0001:0001A330  2420 0001:0001A340  2421 0001:0001A344
  2424 0001:0001A377  2425 0001:0001A379  2426 0001:0001A37F  2427 0001:0001A38E
  2428 0001:0001A39C  2429 0001:0001A3B2  2430 0001:0001A3B9  2431 0001:0001A3C7
  2433 0001:0001A3D0  2435 0001:0001A3E2  2436 0001:0001A3F2  2438 0001:0001A404
  2439 0001:0001A414  2441 0001:0001A426  2442 0001:0001A436  2436 0001:0001A437
  2444 0001:0001A43A  2446 0001:0001A455  2447 0001:0001A45D  2449 0001:0001A46D
  2450 0001:0001A470  2455 0001:0001A4D4  2456 0001:0001A4E2  2457 0001:0001A4F0
  2458 0001:0001A4F7  2459 0001:0001A501  2460 0001:0001A50B  2461 0001:0001A516
  2462 0001:0001A520  2463 0001:0001A522  2469 0001:0001A52C  2470 0001:0001A53A
  2471 0001:0001A548  2472 0001:0001A54F  2474 0001:0001A559  2481 0001:0001A563
  2482 0001:0001A56E  2483 0001:0001A578  2484 0001:0001A57A  2490 0001:0001A584
  2491 0001:0001A592  2492 0001:0001A5A0  2493 0001:0001A5A7  2494 0001:0001A5B1
  2495 0001:0001A5BB  2496 0001:0001A5C6  2497 0001:0001A5D0  2498 0001:0001A5D2
  2503 0001:0001A5DC  2504 0001:0001A5E1  2505 0001:0001A5E9  2506 0001:0001A5F1
  2507 0001:0001A5FF  2506 0001:0001A60F  2508 0001:0001A612  2509 0001:0001A619
  2511 0001:0001A625  2512 0001:0001A634  2509 0001:0001A635  2513 0001:0001A63A
  2514 0001:0001A641  2517 0001:0001A648  2518 0001:0001A64E  2519 0001:0001A6CD
  2520 0001:0001A6D7  2521 0001:0001A6E2  2522 0001:0001A6EB  2523 0001:0001A6F4
  2524 0001:0001A703  2525 0001:0001A71A  2526 0001:0001A729  2527 0001:0001A733
  2528 0001:0001A742  2530 0001:0001A750  2531 0001:0001A75E  2534 0001:0001A765
  2537 0001:0001A768  2538 0001:0001A76C  2539 0001:0001A778  2540 0001:0001A786
  2541 0001:0001A78F  2545 0001:0001A794  2546 0001:0001A79A  2547 0001:0001A7A8
  2549 0001:0001A7AE  2553 0001:0001A7BF  2550 0001:0001A7C9  2552 0001:0001A7DD
  2553 0001:0001A7DF  2556 0001:0001A7E4  2557 0001:0001A7E8  2558 0001:0001A7F4
  2559 0001:0001A7FD  2567 0001:0001A804  2568 0001:0001A814  2570 0001:0001A823
  2571 0001:0001A828  2573 0001:0001A836  2576 0001:0001A838  2577 0001:0001A83B
  2579 0001:0001A83F  2580 0001:0001A846  2582 0001:0001A852  2588 0001:0001A854
  2589 0001:0001A858  2591 0001:0001A85B  2593 0001:0001A861  2594 0001:0001A866
  2595 0001:0001A868  2599 0001:0001A86C  2600 0001:0001A875  2602 0001:0001A878
  2604 0001:0001A87A  2608 0001:0001A87C  2609 0001:0001A886  2611 0001:0001A889
  2613 0001:0001A88B  2617 0001:0001A88C  2619 0001:0001A899  2621 0001:0001A89C
  2624 0001:0001A89E  2627 0001:0001A8A0  2628 0001:0001A8A7  2630 0001:0001A8BB
  2631 0001:0001A8CA  2632 0001:0001A8D5  2633 0001:0001A8E4  2635 0001:0001A8EF
  2636 0001:0001A8F3  2637 0001:0001A8F5  2642 0001:0001A8FC  2643 0001:0001A904
  2646 0001:0001A931  2651 0001:0001A98D  2653 0001:0001A9A3  2654 0001:0001A9A5
  2656 0001:0001A9A7  2658 0001:0001A9B8  2660 0001:0001A9D5  2661 0001:0001A9D7
  2663 0001:0001A9D9  2656 0001:0001A9DA  2664 0001:0001A9DD  2665 0001:0001A9E1
  2668 0001:0001A9E5  2669 0001:0001A9E7  2673 0001:0001A9EC  2674 0001:0001AA31
  2675 0001:0001AA36  2676 0001:0001AA3B  2677 0001:0001AA40  2678 0001:0001AA45
  2679 0001:0001AA49  2681 0001:0001AA4D  2683 0001:0001AA51  2685 0001:0001AA56
  2687 0001:0001AA5B  2690 0001:0001AA5F  2691 0001:0001AA62  2694 0001:0001AA64
  2698 0001:0001AA68  2699 0001:0001AAAD  2700 0001:0001AAB2  2701 0001:0001AAB7
  2702 0001:0001AABC  2703 0001:0001AAC1  2704 0001:0001AAC5  2706 0001:0001AAC9
  2708 0001:0001AACD  2710 0001:0001AAD2  2712 0001:0001AAD7  2715 0001:0001AADB
  2716 0001:0001AADE  2719 0001:0001AAE0  2722 0001:0001AAE4  2723 0001:0001AAE9
  2724 0001:0001AB45  2725 0001:0001AB57  2726 0001:0001AB68  2727 0001:0001AB77
  2728 0001:0001AB85  2729 0001:0001AB93  2730 0001:0001ABA0  2731 0001:0001ABAF
  2733 0001:0001ABC1  2735 0001:0001ABD3  2738 0001:0001ABE1  2739 0001:0001ABE4
  2742 0001:0001ABF3  2746 0001:0001AC00  2747 0001:0001AC05  2748 0001:0001AC7F
  2749 0001:0001AC94  2750 0001:0001ACA9  2751 0001:0001ACBE  2752 0001:0001ACCA
  2753 0001:0001ACE4  2755 0001:0001ACED  2757 0001:0001ACF6  2759 0001:0001AD0B
  2761 0001:0001AD20  2762 0001:0001AD29  2763 0001:0001AD32  2764 0001:0001AD41
  2767 0001:0001AD59  2768 0001:0001AD5C  2771 0001:0001AD6A  2774 0001:0001AD78
  2775 0001:0001AD7E  2776 0001:0001AD96  2777 0001:0001ADA4  2779 0001:0001ADB1
  2780 0001:0001ADBF  2784 0001:0001ADCC  2785 0001:0001ADCF  2788 0001:0001ADD6
  2792 0001:0001ADDC  2793 0001:0001ADE6  2794 0001:0001ADFE  2795 0001:0001AE0B
  2796 0001:0001AE17  2797 0001:0001AE24  2800 0001:0001AE30  2801 0001:0001AE33
  2804 0001:0001AE3A  2815 0001:0001AE40  2816 0001:0001AE41  2817 0001:0001AE47
  2816 0001:0001AE4F  2818 0001:0001AE54  2823 0001:0001AE58  2824 0001:0001AE59
  2825 0001:0001AE5F  2824 0001:0001AE69  2826 0001:0001AE6E  2831 0001:0001AE70
  2832 0001:0001AE71  2833 0001:0001AE77  2832 0001:0001AE7F  2834 0001:0001AE84
  2839 0001:0001AE88  2840 0001:0001AE8F  2842 0001:0001AE95  2844 0001:0001AEA3
  2845 0001:0001AEA9  2847 0001:0001AEAB  2840 0001:0001AEAC  2848 0001:0001AEB1
  2849 0001:0001AEB7  2854 0001:0001AEC0  2855 0001:0001AEC8  2857 0001:0001AECE
  2859 0001:0001AED7  2860 0001:0001AEDA  2862 0001:0001AEDC  2855 0001:0001AEDD
  2863 0001:0001AEE2  2864 0001:0001AEE5  2867 0001:0001AEEC  2868 0001:0001AEF0
  2869 0001:0001AF08  2872 0001:0001AF0C  2873 0001:0001AF0D  2874 0001:0001AF1C
  2877 0001:0001AF20  2878 0001:0001AF2C  2879 0001:0001AF33  2880 0001:0001AF37
  2882 0001:0001AF45  2883 0001:0001AF4A  2884 0001:0001AF51  2889 0001:0001AF58
  2890 0001:0001AF66  2891 0001:0001AF6D  2892 0001:0001AF78  2893 0001:0001AF7E
  2895 0001:0001AF92  2896 0001:0001AF9B  2897 0001:0001AFA6  2902 0001:0001AFB0
  2903 0001:0001AFBE  2904 0001:0001AFC5  2905 0001:0001AFD0  2906 0001:0001AFD6
  2908 0001:0001AFEA  2909 0001:0001AFF3  2910 0001:0001AFFE  2916 0001:0001B008
  2917 0001:0001B01C  2918 0001:0001B028  2919 0001:0001B02E  2920 0001:0001B03A
  2921 0001:0001B043  2922 0001:0001B04C  2923 0001:0001B053  2924 0001:0001B05C
  2927 0001:0001B07F  2928 0001:0001B091  2930 0001:0001B0AF  2934 0001:0001B0C8
  2935 0001:0001B0DA  2937 0001:0001B0F8  2941 0001:0001B111  2942 0001:0001B123
  2944 0001:0001B13E  2948 0001:0001B154  2949 0001:0001B166  2951 0001:0001B187
  2954 0001:0001B1A1  2955 0001:0001B1A8  2959 0001:0001B1B8  2961 0001:0001B1C4
  2990 0001:0001B3B9  2991 0001:0001B3BD  2992 0001:0001B3C5  2994 0001:0001B3D1
  2995 0001:0001B3D5  2997 0001:0001B3E1  2999 0001:0001B3ED  3002 0001:0001B3FA
  3003 0001:0001B3FC  3011 0001:0001B404  3012 0001:0001B434  3013 0001:0001B438
  3014 0001:0001B446  3015 0001:0001B464  3016 0001:0001B473  3019 0001:0001B4D3
  3020 0001:0001B562  3021 0001:0001B574  3022 0001:0001B586  3023 0001:0001B599
  3024 0001:0001B5AC  3025 0001:0001B5BE  3026 0001:0001B5D0  3027 0001:0001B5EB
  3028 0001:0001B601  3029 0001:0001B617  3030 0001:0001B62F  3033 0001:0001B64D
  3035 0001:0001B653  3036 0001:0001B66C  3040 0001:0001B675  3042 0001:0001B6B1
  3044 0001:0001B6CE  3047 0001:0001B6EF  3050 0001:0001B733  3055 0001:0001B73C
  3056 0001:0001B7B5  3057 0001:0001B7C7  3058 0001:0001B7D9  3059 0001:0001B7EC
  3060 0001:0001B7FF  3061 0001:0001B811  3062 0001:0001B823  3063 0001:0001B849
  3064 0001:0001B85F  3065 0001:0001B875  3066 0001:0001B88D  3069 0001:0001B8AB
  3071 0001:0001B8AF  3072 0001:0001B8C8  3074 0001:0001B8D1  3079 0001:0001B8DA
  3080 0001:0001B954  3081 0001:0001B96B  3082 0001:0001B982  3083 0001:0001B99A
  3084 0001:0001B9B2  3085 0001:0001B9C8  3086 0001:0001B9DE  3087 0001:0001BA00
  3088 0001:0001BA16  3089 0001:0001BA2C  3090 0001:0001BA44  3093 0001:0001BA5C
  3095 0001:0001BA60  3096 0001:0001BA79  3098 0001:0001BA82  3103 0001:0001BA8B
  3104 0001:0001BAF1  3105 0001:0001BB0F  3106 0001:0001BB2C  3107 0001:0001BB4B
  3108 0001:0001BB69  3109 0001:0001BB84  3110 0001:0001BB9E  3111 0001:0001BBC0
  3112 0001:0001BBD6  3113 0001:0001BBEC  3114 0001:0001BC04  3115 0001:0001BC1C
  3120 0001:0001BC25  3121 0001:0001BC74  3122 0001:0001BC92  3123 0001:0001BCAF
  3124 0001:0001BCCE  3125 0001:0001BCEC  3126 0001:0001BD07  3127 0001:0001BD21
  3128 0001:0001BD43  3133 0001:0001BD4C  3134 0001:0001BD9B  3135 0001:0001BDAF
  3136 0001:0001BDC3  3137 0001:0001BDD8  3138 0001:0001BDED  3139 0001:0001BE01
  3140 0001:0001BE15  3141 0001:0001BE37  3146 0001:0001BE40  3147 0001:0001BE8F
  3148 0001:0001BEA9  3149 0001:0001BEC3  3150 0001:0001BEDE  3151 0001:0001BEF9
  3152 0001:0001BF0D  3153 0001:0001BF21  3154 0001:0001BF43  3159 0001:0001BF4C
  3160 0001:0001BF82  3161 0001:0001BF94  3162 0001:0001BFA6  3163 0001:0001BFB9
  3164 0001:0001BFCC  3165 0001:0001BFDE  3166 0001:0001BFF0  3167 0001:0001C002
  3168 0001:0001C01D  3173 0001:0001C026  3174 0001:0001C05C  3175 0001:0001C06E
  3176 0001:0001C080  3177 0001:0001C093  3178 0001:0001C0A6  3179 0001:0001C0B8
  3180 0001:0001C0CA  3181 0001:0001C0E5  3182 0001:0001C0F7  3187 0001:0001C100
  3188 0001:0001C136  3189 0001:0001C148  3190 0001:0001C15A  3191 0001:0001C16D
  3192 0001:0001C180  3193 0001:0001C192  3194 0001:0001C1A4  3195 0001:0001C1BF
  3196 0001:0001C1D1  3201 0001:0001C1DA  3202 0001:0001C254  3203 0001:0001C26D
  3204 0001:0001C286  3205 0001:0001C29F  3206 0001:0001C2B8  3207 0001:0001C2CE
  3208 0001:0001C2E4  3209 0001:0001C306  3210 0001:0001C31D  3211 0001:0001C334
  3212 0001:0001C34D  3215 0001:0001C36C  3217 0001:0001C372  3218 0001:0001C38C
  3221 0001:0001C392  3223 0001:0001C396  3227 0001:0001C3AC  3228 0001:0001C426
  3229 0001:0001C43F  3230 0001:0001C458  3231 0001:0001C471  3232 0001:0001C48A
  3233 0001:0001C4A0  3234 0001:0001C4B6  3235 0001:0001C4D8  3236 0001:0001C4EF
  3237 0001:0001C506  3238 0001:0001C51F  3241 0001:0001C53E  3243 0001:0001C544
  3244 0001:0001C55E  3247 0001:0001C564  3249 0001:0001C568  3253 0001:0001C57E
  3254 0001:0001C5E4  3255 0001:0001C5FD  3256 0001:0001C616  3257 0001:0001C62F
  3258 0001:0001C648  3259 0001:0001C65E  3260 0001:0001C674  3261 0001:0001C693
  3262 0001:0001C6AA  3263 0001:0001C6C1  3264 0001:0001C6DA  3266 0001:0001C6F9
  3268 0001:0001C6FD  3272 0001:0001C713  3273 0001:0001C779  3274 0001:0001C792
  3275 0001:0001C7AB  3276 0001:0001C7C4  3277 0001:0001C7DD  3278 0001:0001C7F3
  3279 0001:0001C809  3280 0001:0001C828  3281 0001:0001C83F  3282 0001:0001C856
  3283 0001:0001C86F  3285 0001:0001C88E  3287 0001:0001C892  3291 0001:0001C8A8
  3292 0001:0001C93B  3293 0001:0001C954  3294 0001:0001C96D  3295 0001:0001C986
  3296 0001:0001C99F  3297 0001:0001C9B5  3298 0001:0001C9D2  3299 0001:0001C9E8
  3300 0001:0001CA02  3301 0001:0001CA1C  3302 0001:0001CA38  3303 0001:0001CA5A
  3304 0001:0001CA70  3305 0001:0001CA91  3307 0001:0001CAC0  3308 0001:0001CAE2
  3312 0001:0001CB12  3314 0001:0001CB18  3315 0001:0001CB30  3316 0001:0001CB3B
  3319 0001:0001CB41  3321 0001:0001CB45  3325 0001:0001CB5B  3326 0001:0001CBEE
  3327 0001:0001CC07  3328 0001:0001CC20  3329 0001:0001CC39  3330 0001:0001CC52
  3331 0001:0001CC68  3332 0001:0001CC7E  3333 0001:0001CC9B  3334 0001:0001CCB5
  3335 0001:0001CCCF  3336 0001:0001CCEB  3337 0001:0001CD0D  3338 0001:0001CD23
  3339 0001:0001CD44  3341 0001:0001CD70  3342 0001:0001CD92  3346 0001:0001CDC2
  3348 0001:0001CDC8  3349 0001:0001CDE2  3352 0001:0001CDE8  3354 0001:0001CDEC
  3358 0001:0001CDFF  3360 0001:0001CE0E  3361 0001:0001CE25  3364 0001:0001CE2B
  3369 0001:0001CE65  3370 0001:0001CE69  3371 0001:0001CE77  3375 0001:0001CE7E
  3376 0001:0001CE82  3377 0001:0001CE90  3381 0001:0001CE97  3382 0001:0001CE9B
  3383 0001:0001CEAB  3387 0001:0001CEB2  3388 0001:0001CEB6  3389 0001:0001CEC6
  3392 0001:0001CED2  3394 0001:0001CED8  3396 0001:0001CEE6  3397 0001:0001CEEC
  3398 0001:0001CEF2  3401 0001:0001CEF8  3407 0001:0001CF6C  3408 0001:0001CF7A
  3409 0001:0001CF83  3411 0001:0001CF91  3412 0001:0001CF93  3414 0001:0001CF98
  3415 0001:0001CF9E  3417 0001:0001CFAA  3420 0001:0001CFCD  3421 0001:0001CFCF
  3423 0001:0001CFD4  3415 0001:0001CFD5  3425 0001:0001CFDA  3426 0001:0001CFE0
  3428 0001:0001CFEC  3429 0001:0001CFF9  3431 0001:0001D00A  3433 0001:0001D023
  3434 0001:0001D025  3439 0001:0001D02A  3442 0001:0001D049  3443 0001:0001D04B
  3446 0001:0001D050  3426 0001:0001D051  3447 0001:0001D056  3448 0001:0001D05C
  3450 0001:0001D068  3453 0001:0001D08B  3454 0001:0001D08D  3456 0001:0001D08F
  3448 0001:0001D090  3457 0001:0001D095  3458 0001:0001D09B  3460 0001:0001D0A7
  3463 0001:0001D0CA  3464 0001:0001D0CC  3466 0001:0001D0CE  3458 0001:0001D0CF
  3467 0001:0001D0D4  3468 0001:0001D0D6  3473 0001:0001D0F0  3474 0001:0001D0F5
  3475 0001:0001D100  3474 0001:0001D10F  3476 0001:0001D112  3477 0001:0001D119
  3486 0001:0001D120  3487 0001:0001D14A  3488 0001:0001D150  3490 0001:0001D156
  3491 0001:0001D15A  3492 0001:0001D169  3493 0001:0001D177  3494 0001:0001D17D
  3496 0001:0001D187  3497 0001:0001D18D  3501 0001:0001D197  3503 0001:0001D19D
  3504 0001:0001D1A1  3506 0001:0001D1A9  3508 0001:0001D1AF  3509 0001:0001D1B3
  3511 0001:0001D1BB  3513 0001:0001D1C1  3514 0001:0001D1C5  3517 0001:0001D1CD
  3518 0001:0001D1D1  3520 0001:0001D1D7  3521 0001:0001D1DC  3522 0001:0001D1E4
  3523 0001:0001D1F2  3525 0001:0001D1FC  3526 0001:0001D20C  3529 0001:0001D214
  3530 0001:0001D21A  3532 0001:0001D220  3533 0001:0001D225  3534 0001:0001D22D
  3535 0001:0001D23B  3537 0001:0001D245  3538 0001:0001D25D  3527 0001:0001D263
  3540 0001:0001D269  3542 0001:0001D26F  3543 0001:0001D274  3544 0001:0001D27C
  3545 0001:0001D28A  3547 0001:0001D294  3548 0001:0001D29A  3550 0001:0001D2A0
  3551 0001:0001D2A5  3552 0001:0001D2AD  3553 0001:0001D2BB  3555 0001:0001D2C5
  3556 0001:0001D2D2  3558 0001:0001D2DA  3559 0001:0001D2E2  3560 0001:0001D2F2
  3561 0001:0001D2F7  3565 0001:0001D301  3567 0001:0001D30B  3568 0001:0001D312
  3569 0001:0001D33D  3571 0001:0001D340  3563 0001:0001D35C  3573 0001:0001D36D
  3574 0001:0001D373  3576 0001:0001D379  3578 0001:0001D37F  3579 0001:0001D387
  3580 0001:0001D395  3581 0001:0001D39A  3583 0001:0001D3A4  3499 0001:0001D3AA
  3586 0001:0001D3AF  3588 0001:0001D3B5  3590 0001:0001D3BF  3592 0001:0001D3C5
  3593 0001:0001D3CD  3594 0001:0001D3DB  3595 0001:0001D3E0  3597 0001:0001D3EA
  3598 0001:0001D3F0  3600 0001:0001D3F6  3601 0001:0001D3FB  3602 0001:0001D403
  3603 0001:0001D411  3605 0001:0001D41B  3606 0001:0001D428  3608 0001:0001D42C
  3609 0001:0001D434  3610 0001:0001D444  3611 0001:0001D449  3613 0001:0001D453
  3616 0001:0001D45B  3617 0001:0001D45D  3618 0001:0001D463  3619 0001:0001D471
  3620 0001:0001D486  3621 0001:0001D491  3625 0001:0001D495  3626 0001:0001D49B
  3627 0001:0001D4A1  3628 0001:0001D4AB  3629 0001:0001D4B6  3630 0001:0001D4C3
  3632 0001:0001D4D3  3634 0001:0001D4E3  3648 0001:0001D524  3649 0001:0001D562
  3651 0001:0001D56E  3652 0001:0001D57C  3653 0001:0001D581  3655 0001:0001D589
  3656 0001:0001D58F  3658 0001:0001D595  3659 0001:0001D5A2  3660 0001:0001D5A4
  3662 0001:0001D5A9  3663 0001:0001D5AF  3665 0001:0001D5B5  3666 0001:0001D5C2
  3667 0001:0001D5C4  3669 0001:0001D5C9  3670 0001:0001D5D6  3672 0001:0001D5DC
  3673 0001:0001D5E9  3674 0001:0001D5EB  3676 0001:0001D5F0  3678 0001:0001D603
  3679 0001:0001D609  3680 0001:0001D618  3681 0001:0001D62E  3682 0001:0001D63C
  3686 0001:0001D643  3687 0001:0001D64C  3688 0001:0001D655  3689 0001:0001D662
  3690 0001:0001D66B  3691 0001:0001D676  3694 0001:0001D67E  3695 0001:0001D68B
  3697 0001:0001D68D  3698 0001:0001D692  3700 0001:0001D69A  3701 0001:0001D6A0
  3702 0001:0001D6A2  3703 0001:0001D6B1  3704 0001:0001D6C7  3705 0001:0001D6D5
  3709 0001:0001D6DC  3710 0001:0001D6E5  3711 0001:0001D6EE  3712 0001:0001D6FB
  3715 0001:0001D706  3717 0001:0001D70C  3718 0001:0001D711  3719 0001:0001D71E
  3720 0001:0001D720  3722 0001:0001D725  3723 0001:0001D730  3725 0001:0001D750
  3726 0001:0001D755  3727 0001:0001D764  3728 0001:0001D766  3730 0001:0001D76B
  3732 0001:0001D77B  3736 0001:0001D784  3737 0001:0001D78D  3738 0001:0001D796
  3740 0001:0001D7A3  3741 0001:0001D7A4  3742 0001:0001D7AA  3744 0001:0001D7B2
  3746 0001:0001D7B6  3747 0001:0001D7BB  3748 0001:0001D7C8  3749 0001:0001D7CA
  3751 0001:0001D7CF  3752 0001:0001D7D5  3753 0001:0001D7DA  3754 0001:0001D7E0
  3755 0001:0001D7E7  3756 0001:0001D7EA  3758 0001:0001D7EF  3760 0001:0001D7F7
  3761 0001:0001D7FD  3763 0001:0001D807  3764 0001:0001D80D  3765 0001:0001D818
  3767 0001:0001D81C  3768 0001:0001D81E  3770 0001:0001D823  3771 0001:0001D86E
  3772 0001:0001D877  3773 0001:0001D880  3774 0001:0001D889  3775 0001:0001D892
  3776 0001:0001D89A  3778 0001:0001D8A2  3782 0001:0001D8AA  3783 0001:0001D8AF
  3784 0001:0001D8BC  3785 0001:0001D8BE  3788 0001:0001D8C3  3789 0001:0001D8C8
  3791 0001:0001D8CE  3792 0001:0001D8DB  3793 0001:0001D8DD  3795 0001:0001D8E2
  3796 0001:0001D8E8  3797 0001:0001D8F3  3799 0001:0001D8F7  3800 0001:0001D8F9
  3802 0001:0001D8FE  3803 0001:0001D949  3804 0001:0001D94F  3805 0001:0001D955
  3806 0001:0001D95B  3807 0001:0001D961  3808 0001:0001D966  3810 0001:0001D96B
  3813 0001:0001D970  3814 0001:0001D975  3815 0001:0001D982  3816 0001:0001D984
  3818 0001:0001D989  3819 0001:0001D98E  3820 0001:0001D992  3822 0001:0001D99E
  3823 0001:0001D9AB  3824 0001:0001D9AD  3826 0001:0001D9B2  3828 0001:0001D9B8
  3829 0001:0001D9C5  3830 0001:0001D9C7  3832 0001:0001D9CC  3835 0001:0001D9D4
  3836 0001:0001D9D9  3838 0001:0001D9DC  3840 0001:0001D9E2  3841 0001:0001D9E7
  3842 0001:0001D9F4  3843 0001:0001D9F6  3845 0001:0001D9FB  3846 0001:0001DA01
  3847 0001:0001DA0F  3849 0001:0001DA15  3850 0001:0001DA1A  3851 0001:0001DA27
  3852 0001:0001DA29  3854 0001:0001DA2E  3856 0001:0001DA39  3858 0001:0001DA42
  3860 0001:0001DA58  3861 0001:0001DA66  3863 0001:0001DAA2  3864 0001:0001DAA5
  3866 0001:0001DAAA  3858 0001:0001DAAD  3869 0001:0001DAB2  3871 0001:0001DAB7
  3872 0001:0001DAC6  3873 0001:0001DACF  3874 0001:0001DAD2  3877 0001:0001DADB
  3878 0001:0001DAEA  3880 0001:0001DAF1  3881 0001:0001DB07  3885 0001:0001DB15
  3886 0001:0001DB1E  3887 0001:0001DB27  3888 0001:0001DB34  3889 0001:0001DB3D
  3890 0001:0001DB48  3891 0001:0001DB4B  3893 0001:0001DB50  3895 0001:0001DB58
  3896 0001:0001DB5E  3899 0001:0001DB6D  3901 0001:0001DB73  3902 0001:0001DB7B
  3903 0001:0001DB80  3904 0001:0001DB8D  3905 0001:0001DB8F  3907 0001:0001DB94
  3908 0001:0001DB9F  3909 0001:0001DBB7  3910 0001:0001DBBD  3911 0001:0001DBC8
  3913 0001:0001DBD9  3916 0001:0001DC02  3917 0001:0001DC07  3918 0001:0001DC16
  3919 0001:0001DC1E  3920 0001:0001DC20  3922 0001:0001DC25  3911 0001:0001DC26
  3923 0001:0001DC2B  3924 0001:0001DC33  3926 0001:0001DC37  3927 0001:0001DC3C
  3928 0001:0001DC49  3929 0001:0001DC51  3930 0001:0001DC53  3932 0001:0001DC58
  3933 0001:0001DC5E  3934 0001:0001DC63  3935 0001:0001DC69  3936 0001:0001DC77
  3938 0001:0001DC7D  3939 0001:0001DC85  3940 0001:0001DC87  3942 0001:0001DC8C
  3943 0001:0001DC99  3945 0001:0001DC9F  3946 0001:0001DCA7  3947 0001:0001DCAC
  3948 0001:0001DCB9  3949 0001:0001DCBB  3951 0001:0001DCC0  3954 0001:0001DCC8
  3955 0001:0001DCE9  3956 0001:0001DD05  3957 0001:0001DD14  3958 0001:0001DD1F
  3959 0001:0001DD28  3952 0001:0001DD33  3961 0001:0001DD44  3962 0001:0001DD4E
  3963 0001:0001DD54  3964 0001:0001DD63  3965 0001:0001DD79  3966 0001:0001DD87
  3970 0001:0001DD8E  3971 0001:0001DD97  3972 0001:0001DDA0  3973 0001:0001DDAD
  3975 0001:0001DDBE  3976 0001:0001DDCB  3978 0001:0001DDD5  3979 0001:0001DDE2
  3981 0001:0001DDEB  3982 0001:0001DDF3  3973 0001:0001DDF4  3983 0001:0001DDF9
  3984 0001:0001DE01  3985 0001:0001DE0C  3986 0001:0001DE0F  3987 0001:0001DE14
  3989 0001:0001DE1C  3990 0001:0001DE27  3991 0001:0001DE32  3992 0001:0001DE37
  3994 0001:0001DE48  3995 0001:0001DE55  3997 0001:0001DE70  3998 0001:0001DE76
  3999 0001:0001DE83  4001 0001:0001DE85  3992 0001:0001DE86  4002 0001:0001DE8B
  4004 0001:0001DE91  4005 0001:0001DE93  4006 0001:0001DE9C  4007 0001:0001DEAB
  4009 0001:0001DEB0  4011 0001:0001DEB6  4012 0001:0001DEC5  4013 0001:0001DEDB
  4014 0001:0001DEE9  4018 0001:0001DEF0  4019 0001:0001DEF9  4020 0001:0001DF02
  4021 0001:0001DF0F  4022 0001:0001DF18  4023 0001:0001DF23  4024 0001:0001DF26
  4027 0001:0001DF28  4028 0001:0001DF2B  4031 0001:0001DF2D  4032 0001:0001DF2F
  4033 0001:0001DF34  4035 0001:0001DF41  4042 0001:0001DF98  4043 0001:0001DFC2
  4044 0001:0001DFCC  4046 0001:0001DFDA  4047 0001:0001DFDC  4050 0001:0001DFE1
  4052 0001:0001DFED  4053 0001:0001DFF9  4055 0001:0001E009  4057 0001:0001E023
  4058 0001:0001E025  4063 0001:0001E02A  4065 0001:0001E04A  4066 0001:0001E04C
  4069 0001:0001E051  4050 0001:0001E052  4070 0001:0001E057  4072 0001:0001E061
  4074 0001:0001E070  4077 0001:0001E09C  4078 0001:0001E09E  4080 0001:0001E0A3
  4072 0001:0001E0A4  4081 0001:0001E0A9  4083 0001:0001E0BC  4085 0001:0001E0D5
  4086 0001:0001E0D7  4088 0001:0001E0DC  4081 0001:0001E0DD  4092 0001:0001E0E4
  4094 0001:0001E0F0  4097 0001:0001E116  4098 0001:0001E118  4100 0001:0001E11D
  4092 0001:0001E11E  4102 0001:0001E123  4105 0001:0001E130  4107 0001:0001E15D
  4108 0001:0001E15F  4110 0001:0001E161  4103 0001:0001E17D  4112 0001:0001E18E
  4114 0001:0001E19A  4117 0001:0001E1C0  4118 0001:0001E1C2  4120 0001:0001E1C4
  4112 0001:0001E1C5  4121 0001:0001E1CA  4122 0001:0001E1CC  4133 0001:0001E218
  4134 0001:0001E242  4135 0001:0001E246  4136 0001:0001E24D  4138 0001:0001E256
  4139 0001:0001E263  4142 0001:0001E268  4144 0001:0001E280  4145 0001:0001E292
  4147 0001:0001E297  4148 0001:0001E2AA  4149 0001:0001E2AF  4151 0001:0001E2B5
  4152 0001:0001E2BB  4154 0001:0001E2E1  4156 0001:0001E2FC  4157 0001:0001E305
  4158 0001:0001E30B  4159 0001:0001E313  4162 0001:0001E31F  4163 0001:0001E325
  4165 0001:0001E32E  4167 0001:0001E33B  4169 0001:0001E353  4170 0001:0001E365
  4172 0001:0001E36A  4173 0001:0001E385  4174 0001:0001E388  4176 0001:0001E38E
  4177 0001:0001E394  4179 0001:0001E3BA  4181 0001:0001E3D5  4160 0001:0001E3DC
  4183 0001:0001E3E9  4185 0001:0001E3F2  4186 0001:0001E3FF  4188 0001:0001E404
  4189 0001:0001E40B  4190 0001:0001E423  4192 0001:0001E42D  4196 0001:0001E432
  4197 0001:0001E453  4198 0001:0001E46F  4200 0001:0001E475  4201 0001:0001E483
  4202 0001:0001E48E  4206 0001:0001E4A3  4207 0001:0001E4A9  4208 0001:0001E4AF
  4209 0001:0001E4B5  4210 0001:0001E4BB  4214 0001:0001E4C7  4215 0001:0001E4D5
  4216 0001:0001E4E0  4217 0001:0001E4F5  4221 0001:0001E4FB  4222 0001:0001E501
  4223 0001:0001E507  4224 0001:0001E50D  4194 0001:0001E51A  4227 0001:0001E52F
  4229 0001:0001E538  4230 0001:0001E545  4232 0001:0001E547  4233 0001:0001E54E
  4234 0001:0001E55B  4235 0001:0001E55F  4238 0001:0001E5A8  4239 0001:0001E5B2
  4240 0001:0001E5C0  4241 0001:0001E5CA  4245 0001:0001E5D3  4246 0001:0001E5DC
  4247 0001:0001E5E5  4248 0001:0001E5F0  4249 0001:0001E5FA  4256 0001:0001E604
  4257 0001:0001E627  4258 0001:0001E631  4259 0001:0001E63F  4260 0001:0001E646
  4261 0001:0001E655  4262 0001:0001E65C  4263 0001:0001E670  4266 0001:0001E677
  4268 0001:0001E68C  4270 0001:0001E6A5  4271 0001:0001E6A7  4273 0001:0001E6AC
  4266 0001:0001E6AD  4274 0001:0001E6B0  4276 0001:0001E6C1  4278 0001:0001E6EF
  4279 0001:0001E6F1  4281 0001:0001E6F3  4274 0001:0001E6F4  4282 0001:0001E6F7
  4284 0001:0001E70C  4285 0001:0001E71C  4286 0001:0001E72E  4288 0001:0001E73D
  4289 0001:0001E74F  4291 0001:0001E75B  4292 0001:0001E75D  4295 0001:0001E75F
  4282 0001:0001E760  4296 0001:0001E763  4298 0001:0001E765  4304 0001:0001E7A0
  4305 0001:0001E7BE  4308 0001:0001E7C5  4310 0001:0001E7CE  4311 0001:0001E7DB
  4312 0001:0001E7DD  4314 0001:0001E7E2  4315 0001:0001E7F0  4317 0001:0001E800
  4318 0001:0001E80F  4319 0001:0001E811  4321 0001:0001E813  4322 0001:0001E81A
  4323 0001:0001E84D  4325 0001:0001E856  4326 0001:0001E85D  4328 0001:0001E85F
  4330 0001:0001E868  4331 0001:0001E875  4332 0001:0001E877  4334 0001:0001E879
  4306 0001:0001E880  4336 0001:0001E885  4337 0001:0001E887  4345 0001:0001E8C4
  4346 0001:0001E8EE  4347 0001:0001E8F7  4348 0001:0001E902  4350 0001:0001E90B
  4354 0001:0001E913  4355 0001:0001E919  4356 0001:0001E92C  4357 0001:0001E9A1
  4363 0001:0001E9EC  4364 0001:0001EA12  4365 0001:0001EA2D  4367 0001:0001EA36
  4369 0001:0001EA50  4370 0001:0001EA61  4369 0001:0001EA84  4371 0001:0001EA87
  4372 0001:0001EAAA  4374 0001:0001EAB8  4375 0001:0001EADA  4372 0001:0001EADB
  4376 0001:0001EADE  4377 0001:0001EAEB  4378 0001:0001EAF6  4384 0001:0001EB68
  4385 0001:0001EB72  4387 0001:0001EB80  4388 0001:0001EB8C  4390 0001:0001EB92
  4392 0001:0001EBA3  4393 0001:0001EBA9  4394 0001:0001EBAF  4397 0001:0001EBB5
  4385 0001:0001EBB6  4398 0001:0001EBB9  4400 0001:0001EBC8  4402 0001:0001EBDA
  4403 0001:0001EBE0  4404 0001:0001EBE6  4407 0001:0001EBEC  4413 0001:0001EC04
  4414 0001:0001EC28  4415 0001:0001EC36  4416 0001:0001EC3D  4417 0001:0001EC48
  4420 0001:0001EC4F  4422 0001:0001EC61  4424 0001:0001EC77  4425 0001:0001EC79
  4427 0001:0001EC7E  4428 0001:0001EC89  4420 0001:0001EC8A  4429 0001:0001EC8D
  4432 0001:0001EC9A  4434 0001:0001ECC7  4435 0001:0001ECC9  4437 0001:0001ECCE
  4430 0001:0001ECEA  4439 0001:0001ECFB  4441 0001:0001ED01  4442 0001:0001ED03
  4444 0001:0001ED05  4446 0001:0001ED16  4448 0001:0001ED2F  4449 0001:0001ED31
  4451 0001:0001ED33  4444 0001:0001ED34  4452 0001:0001ED37  4454 0001:0001ED4C
  4455 0001:0001ED5C  4456 0001:0001ED6E  4458 0001:0001ED7A  4459 0001:0001ED7C
  4461 0001:0001ED7E  4452 0001:0001ED7F  4462 0001:0001ED82  4464 0001:0001ED84
  4469 0001:0001EDD8  4470 0001:0001EDF9  4472 0001:0001EE07  4473 0001:0001EE14
  4474 0001:0001EE3D  4470 0001:0001EE3E  4475 0001:0001EE41  4481 0001:0001EE74
  4482 0001:0001EE7E  4484 0001:0001EE90  4486 0001:0001EEA3  4488 0001:0001EEC8
  4489 0001:0001EECA  4492 0001:0001EECC  4482 0001:0001EECD  4493 0001:0001EED0
  4494 0001:0001EED2  4514 0001:0001EED8  4515 0001:0001EF05  4517 0001:0001EF0B
  4518 0001:0001EF1A  4520 0001:0001EF28  4521 0001:0001EF30  4522 0001:0001EF34
  4526 0001:0001EF39  4527 0001:0001EF42  4529 0001:0001EF48  4530 0001:0001EF4C
  4531 0001:0001EF51  4532 0001:0001EF55  4533 0001:0001EF59  4535 0001:0001EF62
  4536 0001:0001EF6F  4537 0001:0001EF77  4539 0001:0001EF7C  4540 0001:0001EF85
  4541 0001:0001EF8B  4542 0001:0001EF93  4543 0001:0001EFA1  4544 0001:0001EFAC
  4545 0001:0001EFB3  4547 0001:0001EFC4  4548 0001:0001EFD0  4550 0001:0001EFF2
  4551 0001:0001EFFF  4552 0001:0001F002  4554 0001:0001F004  4545 0001:0001F005
  4555 0001:0001F00A  4557 0001:0001F025  4558 0001:0001F02D  4559 0001:0001F03C
  4561 0001:0001F041  4562 0001:0001F048  4563 0001:0001F057  4564 0001:0001F065
  4566 0001:0001F072  4567 0001:0001F079  4569 0001:0001F082  4573 0001:0001F08E
  4574 0001:0001F094  4576 0001:0001F09D  4579 0001:0001F0A2  4581 0001:0001F0AB
  4582 0001:0001F0AF  4585 0001:0001F0B8  4587 0001:0001F0C1  4588 0001:0001F0C5
  4591 0001:0001F0CE  4593 0001:0001F0D7  4594 0001:0001F0DB  4597 0001:0001F0E4
  4598 0001:0001F0E8  4600 0001:0001F0F1  4601 0001:0001F0FE  4603 0001:0001F108
  4604 0001:0001F111  4605 0001:0001F11A  4606 0001:0001F125  4608 0001:0001F145
  4609 0001:0001F157  4611 0001:0001F161  4612 0001:0001F174  4614 0001:0001F17A
  4616 0001:0001F194  4617 0001:0001F197  4620 0001:0001F1A3  4621 0001:0001F1AA
  4623 0001:0001F1B3  4624 0001:0001F1C0  4626 0001:0001F1CA  4628 0001:0001F1EA
  4629 0001:0001F1F7  4631 0001:0001F201  4633 0001:0001F207  4635 0001:0001F221
  4636 0001:0001F224  4638 0001:0001F23F  4618 0001:0001F246  4640 0001:0001F253
  4642 0001:0001F25C  4643 0001:0001F269  4645 0001:0001F273  4646 0001:0001F27A
  4647 0001:0001F292  4649 0001:0001F298  4653 0001:0001F2A2  4655 0001:0001F2AC
  4656 0001:0001F2D7  4657 0001:0001F2DE  4661 0001:0001F2E4  4662 0001:0001F2EA
  4663 0001:0001F2F0  4665 0001:0001F2F6  4651 0001:0001F312  4667 0001:0001F327
  4669 0001:0001F330  4671 0001:0001F339  4672 0001:0001F346  4674 0001:0001F350
  4577 0001:0001F357  4676 0001:0001F35C  4679 0001:0001F363  4681 0001:0001F369
  4683 0001:0001F372  4684 0001:0001F37F  4686 0001:0001F389  4687 0001:0001F390
  4688 0001:0001F3A8  4689 0001:0001F3AE  4690 0001:0001F3B8  4692 0001:0001F3C1
  4694 0001:0001F3CA  4695 0001:0001F3D7  4697 0001:0001F3E1  4698 0001:0001F3E8
  4700 0001:0001F3FF  4701 0001:0001F406  4703 0001:0001F40F  4704 0001:0001F41C
  4706 0001:0001F426  4707 0001:0001F434  4708 0001:0001F456  4709 0001:0001F45D
  4711 0001:0001F466  4712 0001:0001F473  4714 0001:0001F47D  4715 0001:0001F484
  4717 0001:0001F48A  4718 0001:0001F497  4720 0001:0001F4A1  4721 0001:0001F4B2
  4723 0001:0001F4B6  4724 0001:0001F4C3  4726 0001:0001F4CD  4727 0001:0001F4DB
  4728 0001:0001F4E8  4729 0001:0001F4EB  4730 0001:0001F4F5  4731 0001:0001F4FF
  4732 0001:0001F50B  4733 0001:0001F515  4735 0001:0001F528  4737 0001:0001F52E
  4738 0001:0001F53B  4740 0001:0001F545  4742 0001:0001F54B  4743 0001:0001F552
  4745 0001:0001F55B  4746 0001:0001F568  4748 0001:0001F572  4750 0001:0001F579
  4751 0001:0001F589  4752 0001:0001F599  4756 0001:0001F5A0  4757 0001:0001F5A9
  4758 0001:0001F5B2  4759 0001:0001F5BB  4760 0001:0001F5C9  4761 0001:0001F5D6
  4763 0001:0001F5E0  4765 0001:0001F5E6  4766 0001:0001F5F6  4767 0001:0001F606
  4771 0001:0001F614  4772 0001:0001F61D  4773 0001:0001F626  4774 0001:0001F62F
  4775 0001:0001F639  4777 0001:0001F647  4778 0001:0001F64B  4781 0001:0001F655
  4783 0001:0001F667  4784 0001:0001F674  4785 0001:0001F678  4787 0001:0001F682
  4789 0001:0001F689  4791 0001:0001F696  4792 0001:0001F69D  4794 0001:0001F6A6
  4795 0001:0001F6B3  4797 0001:0001F6BD  4801 0001:0001F6C6  4803 0001:0001F6CF
  4804 0001:0001F6DD  4805 0001:0001F6E7  4807 0001:0001F6F0  4808 0001:0001F6FE
  4811 0001:0001F708  4812 0001:0001F715  4799 0001:0001F71F  4815 0001:0001F728
  4816 0001:0001F735  4817 0001:0001F743  4818 0001:0001F754  4819 0001:0001F758
  4820 0001:0001F75E  4821 0001:0001F764  4823 0001:0001F771  4824 0001:0001F778
  4826 0001:0001F77F  4827 0001:0001F786  4828 0001:0001F790  4830 0001:0001F7AA
  4831 0001:0001F7B2  4833 0001:0001F7C2  4836 0001:0001F808  4837 0001:0001F80F
  4838 0001:0001F81D  4842 0001:0001F822  4844 0001:0001F82E  4847 0001:0001F834
  4848 0001:0001F83D  4849 0001:0001F84C  4850 0001:0001F854  4851 0001:0001F863
  4852 0001:0001F86B  4853 0001:0001F87A  4854 0001:0001F894  4855 0001:0001F8A3
  4856 0001:0001F8AD  4857 0001:0001F8BE  4858 0001:0001F8C6  4859 0001:0001F8E2
  4860 0001:0001F8FA  4861 0001:0001F909  4862 0001:0001F919  4863 0001:0001F928
  4864 0001:0001F934  4865 0001:0001F945  4866 0001:0001F958  4867 0001:0001F967
  4869 0001:0001F975  4870 0001:0001F977  4873 0001:0001F994  4874 0001:0001F99D
  4875 0001:0001F9A8  4876 0001:0001F9B3  4877 0001:0001F9C1  4884 0001:0001F9C8
  4885 0001:0001F9D9  4886 0001:0001F9E4  4887 0001:0001F9E6  4890 0001:0001F9FF
  4889 0001:0001FA00  4891 0001:0001FA1A  4893 0001:0001FA25  4894 0001:0001FA33
  4895 0001:0001FA35  4897 0001:0001FA3A  4898 0001:0001FA54  4899 0001:0001FA70
  4901 0001:0001FA84  4903 0001:0001FA9F  4905 0001:0001FAAF  4906 0001:0001FAC1
  4907 0001:0001FAD3  4909 0001:0001FAE5  4910 0001:0001FAE7  4912 0001:0001FAEC
  4913 0001:0001FAFB  4915 0001:0001FB30  4916 0001:0001FB5A  4918 0001:0001FB80
  4920 0001:0001FBA2  4921 0001:0001FBB0  4922 0001:0001FBB2  4924 0001:0001FBB7
  4926 0001:0001FBDF  4927 0001:0001FBED  4928 0001:0001FBEF  4931 0001:0001FBF1
  4932 0001:0001FBF2  4887 0001:0001FBF3  4933 0001:0001FBFC  4935 0001:0001FC0E
  4937 0001:0001FC1D  4938 0001:0001FC2B  4939 0001:0001FC2D  4941 0001:0001FC2F
  4933 0001:0001FC30  4942 0001:0001FC35  4943 0001:0001FC37  4951 0001:0001FC40
  4952 0001:0001FC64  4953 0001:0001FC68  4955 0001:0001FC6E  4956 0001:0001FC7D
  4958 0001:0001FC8C  4959 0001:0001FC94  4961 0001:0001FC99  4963 0001:0001FCA5
  4964 0001:0001FCB5  4966 0001:0001FCBA  4968 0001:0001FCC0  4969 0001:0001FCCE
  4970 0001:0001FCD6  4973 0001:0001FCDB  4974 0001:0001FCE6  4975 0001:0001FCF1
  4977 0001:0001FD07  4978 0001:0001FD17  4979 0001:0001FD1F  4982 0001:0001FD24
  4983 0001:0001FD2A  4985 0001:0001FD30  4986 0001:0001FD3E  4987 0001:0001FD46
  4989 0001:0001FD4B  4990 0001:0001FD51  4991 0001:0001FD60  4993 0001:0001FD64
  4994 0001:0001FD6C  4996 0001:0001FD71  4997 0001:0001FD7E  4999 0001:0001FD96
  5000 0001:0001FDAA  5001 0001:0001FDCD  4997 0001:0001FDD0  5002 0001:0001FDD5
  5003 0001:0001FDDD  5005 0001:0001FDE3  5006 0001:0001FDF1  5008 0001:0001FDF3
  5009 0001:0001FDF9  5010 0001:0001FE0D  5011 0001:0001FE11  5016 0001:0001FE44
  5017 0001:0001FE4A  5019 0001:0001FE50  5024 0001:0001FE5D  5025 0001:0001FE5F
  5026 0001:0001FE70  5032 0001:0001FE74  5033 0001:0001FE7C  5034 0001:0001FE88
  5035 0001:0001FE9A  5036 0001:0001FEA7  5048 0001:0001FEB0  5049 0001:0001FECE
  5050 0001:0001FEE0  5051 0001:0001FEE8  5052 0001:0001FEEA  5053 0001:0001FEFB
  5058 0001:0001FF20  5059 0001:0001FF45  5060 0001:0001FF67  5061 0001:0001FF75
  5063 0001:0001FF79  5065 0001:0001FFA5  5066 0001:0001FFB4  5068 0001:0001FFB5
  5061 0001:0001FFB6  5070 0001:0001FFBA  5071 0001:0001FFC5  5074 0001:0001FFEC
  5075 0001:00020013  5078 0001:00020020  5079 0001:00020027  5081 0001:0002002C
  5083 0001:00020034  5084 0001:00020055  5086 0001:0002005E  5088 0001:0002007F
  5089 0001:00020088  5090 0001:00020093  5094 0001:000200A2  5095 0001:000200C1
  5097 0001:000200CA  5099 0001:000200DB  5100 0001:000200E8  5101 0001:000200EC
  5076 0001:000200EE  5104 0001:00020109  5105 0001:00020114  5106 0001:00020118
  5112 0001:00020170  5113 0001:00020190  5114 0001:00020194  5116 0001:000201A2
  5117 0001:000201A4  5120 0001:000201A9  5122 0001:000201AF  5123 0001:000201BB
  5125 0001:000201C6  5126 0001:000201E3  5128 0001:000201F2  5129 0001:0002020F
  5132 0001:0002021C  5134 0001:00020227  5135 0001:00020233  5137 0001:00020242
  5138 0001:0002025F  5140 0001:0002026A  5141 0001:00020287  5146 0001:00020292
  5152 0001:000202C0  5153 0001:000202CA  5155 0001:000202D6  5156 0001:000202E8
  5158 0001:00020310  5159 0001:0002032B  5160 0001:00020333  5162 0001:00020344
  5163 0001:0002035F  5166 0001:00020367  5167 0001:00020382  5174 0001:0002038F
  5181 0001:00020398  5185 0001:0002039F  5189 0001:000203AD  5190 0001:000203BC
  5191 0001:000203CB  5192 0001:000203DC  5193 0001:000203E5  5194 0001:000203E8
  5195 0001:000203FB  5196 0001:00020409  5197 0001:00020419  5198 0001:00020427
  5202 0001:00020431  5205 0001:00020438  5206 0001:0002043F  5207 0001:0002044D
  5208 0001:0002045A  5209 0001:00020468  5212 0001:00020470  5213 0001:00020477
  5214 0001:0002049D  5215 0001:000204B4  5225 0001:000204BC  5226 0001:000204C8
  5227 0001:000204DE  5228 0001:000204F3  5230 0001:000204FF  5233 0001:00020550
  5234 0001:00020552  5236 0001:00020557  5239 0001:000205BA  5240 0001:000205BC
  5242 0001:000205C1  5245 0001:00020624  5246 0001:00020626  5248 0001:0002062B
  5250 0001:00020645  5251 0001:00020658  5252 0001:0002065A  5254 0001:00020673
  5255 0001:00020683  5257 0001:00020685  5259 0001:00020689  5261 0001:000206A4
  5263 0001:000206A8  5264 0001:000206B9  5270 0001:000206C0  5271 0001:000206D0
  5272 0001:000206DE  5273 0001:000206E1  5274 0001:000206E4  5275 0001:00020701
  5277 0001:0002071C  5278 0001:00020738  5279 0001:0002074A  5280 0001:0002074F
  5281 0001:00020756  5288 0001:00020764  5289 0001:00020774  5290 0001:0002078A
  5292 0001:0002079C  5294 0001:000207AD  5295 0001:000207B0  5296 0001:000207B6
  5298 0001:000207BC  5299 0001:000207BE  5301 0001:000207C3  5303 0001:000207C9
  5305 0001:000207D0  5307 0001:000207E0  5309 0001:000207F3  5310 0001:000207F5
  5312 0001:000207FA  5313 0001:00020807  5314 0001:00020816  5315 0001:00020823
  5316 0001:00020845  5317 0001:00020852  5318 0001:0002085F  5319 0001:00020866
  5322 0001:00020876  5325 0001:0002087A  5327 0001:00020889  5329 0001:0002089A
  5330 0001:0002089D  5331 0001:000208A3  5333 0001:000208A9  5334 0001:000208AB
  5339 0001:000208B0  5341 0001:000208BF  5343 0001:000208D0  5344 0001:000208D3
  5345 0001:000208D9  5347 0001:000208DF  5348 0001:000208E1  5352 0001:000208E6
  5353 0001:000208F4  5355 0001:000208FD  5356 0001:00020903  5360 0001:0002091A
  5362 0001:0002091E  5364 0001:00020931  5366 0001:0002093F  5367 0001:0002094B
  5369 0001:00020953  5371 0001:00020962  5373 0001:00020973  5374 0001:00020976
  5375 0001:0002097C  5377 0001:00020982  5378 0001:00020984  5380 0001:00020989
  5381 0001:00020997  5383 0001:000209A0  5384 0001:000209A6  5385 0001:000209BD
  5387 0001:000209C1  5389 0001:000209D4  5391 0001:000209E2  5393 0001:000209EB
  5395 0001:000209FC  5396 0001:000209FF  5397 0001:00020A05  5399 0001:00020A0B
  5401 0001:00020A0D  5408 0001:00020A18  5409 0001:00020A26  5411 0001:00020A30
  5413 0001:00020A40  5414 0001:00020A60  5416 0001:00020A7B  5417 0001:00020A82
  5418 0001:00020A86  5420 0001:00020A8B  5423 0001:00020A99  5424 0001:00020AA1
  5426 0001:00020AA4  5428 0001:00020AA7  5430 0001:00020AB7  5431 0001:00020AD7
  5433 0001:00020AF2  5434 0001:00020AF9  5435 0001:00020AFD  5437 0001:00020B02
  5440 0001:00020B10  5441 0001:00020B18  5443 0001:00020B1B  5445 0001:00020B1E
  5447 0001:00020B3C  5449 0001:00020B75  5450 0001:00020B79  5452 0001:00020B7E
  5455 0001:00020B8C  5456 0001:00020BA3  5457 0001:00020BB2  5458 0001:00020BB8
  5459 0001:00020BBE  5460 0001:00020BC4  5461 0001:00020BCA  5463 0001:00020BD4
  5464 0001:00020BDA  5466 0001:00020BF1  5468 0001:00020BFB  5469 0001:00020C01
  5472 0001:00020C18  5474 0001:00020C1E  5475 0001:00020C2C  5476 0001:00020C30
  5477 0001:00020C33  5478 0001:00020C4B  5479 0001:00020C4D  5482 0001:00020C5F
  5483 0001:00020C6E  5485 0001:00020C80  5486 0001:00020C87  5488 0001:00020C97
  5489 0001:00020C9D  5490 0001:00020CA2  5492 0001:00020CA5  5494 0001:00020CB9
  5495 0001:00020CBF  5496 0001:00020CC4  5498 0001:00020CC7  5500 0001:00020CCC
  5502 0001:00020D2D  5503 0001:00020D31  5505 0001:00020D36  5506 0001:00020D43
  5507 0001:00020D7A  5508 0001:00020D89  5509 0001:00020D98  5510 0001:00020DA7
  5511 0001:00020DB6  5512 0001:00020DC5  5513 0001:00020DD4  5514 0001:00020DE3
  5517 0001:00020DF0  5519 0001:00020E29  5520 0001:00020E2D  5522 0001:00020E32
  5523 0001:00020E3F  5524 0001:00020E4C  5525 0001:00020E59  5527 0001:00020E69
  5528 0001:00020E6F  5529 0001:00020E74  5531 0001:00020E77  5533 0001:00020E8B
  5534 0001:00020E91  5535 0001:00020E96  5538 0001:00020E9E  5540 0001:00020EB1
  5541 0001:00020EB5  5543 0001:00020EBA  5545 0001:00020EC9  5547 0001:00020EDD
  5548 0001:00020EE1  5551 0001:00020EE6  5553 0001:00020F0C  5555 0001:00020F14
  5556 0001:00020F21  5557 0001:00020F3E  5558 0001:00020F4B  5559 0001:00020F5A
  5560 0001:00020F79  5562 0001:00020F7D  5563 0001:00020F8A  5564 0001:00020FA7
  5565 0001:00020FB4  5566 0001:00020FC3  5569 0001:00020FE2  5570 0001:00020FE4
  5574 0001:00020FE8  5575 0001:00020FEA  5577 0001:00020FEC  5579 0001:00021013
  5580 0001:00021017  5582 0001:0002101C  5583 0001:00021029  5584 0001:00021038
  5586 0001:0002105E  5587 0001:00021062  5589 0001:00021064  5590 0001:00021071
  5592 0001:00021093  5594 0001:000210C5  5596 0001:000210D2  5597 0001:000210D6
  5602 0001:000210E4  5603 0001:000210F0  5605 0001:00021103  5606 0001:00021105
  5608 0001:0002110A  5611 0001:00021125  5613 0001:00021134  5615 0001:00021148
  5616 0001:0002114A  5619 0001:0002114F  5620 0001:00021173  5622 0001:00021182
  5623 0001:0002118F  5625 0001:000211A6  5626 0001:000211A8  5631 0001:000211AD
  5633 0001:000211BC  5635 0001:000211D0  5636 0001:000211D2  5639 0001:000211D7
  5640 0001:000211E4  5642 0001:000211FB  5643 0001:000211FD  5648 0001:00021202
  5651 0001:00021222  5653 0001:00021234  5654 0001:0002123A  5656 0001:00021288
  5657 0001:0002128A  5658 0001:0002129E  5660 0001:000212A3  5661 0001:000212B0
  5663 0001:000212D6  5664 0001:000212D8  5665 0001:000212E8  5667 0001:000212EA
  5668 0001:000212F7  5670 0001:000212FF  5672 0001:00021313  5673 0001:00021315
  5674 0001:0002131D  5677 0001:0002131F  5678 0001:0002132C  5679 0001:00021334
  5683 0001:0002133C  5684 0001:00021349  5685 0001:0002134B  5689 0001:00021354
  5690 0001:00021357  5691 0001:00021366  5692 0001:0002136B  5693 0001:0002137A
  5694 0001:00021385  5695 0001:00021394  5696 0001:0002139F  5697 0001:000213AE
  5699 0001:000213B9  5700 0001:000213BC  5714 0001:000213C0  5715 0001:000213CE
  5716 0001:000213D2  5717 0001:000213E0  5718 0001:000213EE  5720 0001:00021404
  5721 0001:00021426  5723 0001:0002142E  5725 0001:00021445  5726 0001:00021457
  5727 0001:00021469  5729 0001:0002147B  5730 0001:00021482  5731 0001:00021486
  5733 0001:0002148B  5735 0001:000214A3  5736 0001:000214B7  5738 0001:000214BD
  5739 0001:000214C4  5741 0001:000214C6  5744 0001:000214D3  5745 0001:000214DA
  5746 0001:000214EE  5747 0001:000214F2  5749 0001:000214F4  5718 0001:000214F5
  5750 0001:000214FE  5753 0001:00021510  5754 0001:00021521  5755 0001:00021527
  5757 0001:0002152E  5758 0001:0002153C  5759 0001:00021548  5760 0001:00021557
  5761 0001:00021559  5763 0001:0002156B  5765 0001:0002157A  5768 0001:00021585
  5770 0001:00021597  5772 0001:0002159D  5773 0001:000215AE  5774 0001:000215B0
  5776 0001:000215B5  5777 0001:000215C3  5778 0001:000215D0  5779 0001:000215DB
  5782 0001:000215EA  5783 0001:000215F1  5784 0001:000215F9  5786 0001:000215FC
  5788 0001:00021609  5790 0001:0002161F  5792 0001:00021625  5793 0001:00021636
  5794 0001:00021638  5796 0001:0002163D  5797 0001:0002164C  5799 0001:00021673
  5800 0001:0002167A  5801 0001:0002167C  5803 0001:00021681  5806 0001:00021690
  5807 0001:00021697  5808 0001:0002169F  5810 0001:000216A2  5812 0001:000216AF
  5814 0001:000216C5  5816 0001:000216CB  5817 0001:000216DC  5818 0001:000216DE
  5820 0001:000216E3  5822 0001:000216EC  5823 0001:000216FD  5825 0001:00021702
  5826 0001:0002170B  5828 0001:00021720  5829 0001:0002172F  5830 0001:00021749
  5831 0001:00021756  5832 0001:00021765  5833 0001:00021772  5834 0001:0002178D
  5835 0001:000217A4  5836 0001:000217B1  5837 0001:000217BF  5838 0001:000217CC
  5839 0001:000217E9  5840 0001:000217F6  5841 0001:000217FE  5842 0001:0002180D
  5843 0001:00021819  5844 0001:00021823  5846 0001:0002183C  5847 0001:00021842
  5848 0001:00021851  5850 0001:00021878  5851 0001:0002187F  5852 0001:00021881
  5854 0001:00021886  5855 0001:00021892  5857 0001:000218A1  5858 0001:000218AE
  5860 0001:000218D3  5861 0001:000218DA  5862 0001:000218DC  5864 0001:000218E1
  5865 0001:000218EE  5844 0001:000218EF  5866 0001:000218F8  5867 0001:00021901
  5870 0001:00021910  5871 0001:00021917  5872 0001:0002191F  5874 0001:00021922
  5875 0001:0002192F  5877 0001:00021941  5878 0001:00021963  5880 0001:00021978
  5881 0001:0002197A  5883 0001:0002197F  5886 0001:0002198E  5887 0001:00021995
  5888 0001:0002199D  5890 0001:000219A0  5891 0001:000219AD  5893 0001:000219BF
  5894 0001:000219E1  5896 0001:000219F6  5897 0001:000219FD  5898 0001:000219FF
  5900 0001:00021A04  5903 0001:00021A13  5904 0001:00021A1A  5905 0001:00021A22
  5907 0001:00021A25  5908 0001:00021A32  5910 0001:00021A46  5911 0001:00021A5A
  5913 0001:00021A6F  5914 0001:00021A76  5915 0001:00021A78  5917 0001:00021A7D
  5920 0001:00021A8C  5921 0001:00021A93  5922 0001:00021A9B  5924 0001:00021A9E
  5925 0001:00021AAB  5927 0001:00021AD5  5929 0001:00021AE4  5930 0001:00021AF3
  5932 0001:00021B07  5935 0001:00021B2D  5936 0001:00021B4F  5937 0001:00021B5C
  5938 0001:00021B6A  5939 0001:00021B77  5940 0001:00021B8E  5942 0001:00021BA7
  5943 0001:00021BB6  5945 0001:00021BC6  5946 0001:00021BD3  5947 0001:00021BE1
  5948 0001:00021BEE  5949 0001:00021C02  5951 0001:00021C18  5952 0001:00021C32
  5954 0001:00021C49  5955 0001:00021C51  5956 0001:00021C58  5957 0001:00021C5A
  5959 0001:00021C5F  5960 0001:00021C6C  5961 0001:00021C7A  5962 0001:00021C87
  5963 0001:00021C9B  5964 0001:00021CB0  5966 0001:00021CB8  5940 0001:00021CB9
  5967 0001:00021CC2  5970 0001:00021CD1  5971 0001:00021CDC  5972 0001:00021CDF
  5974 0001:00021CE3  5977 0001:00021CEB  5982 0001:00021D28  5983 0001:00021D2C
  5985 0001:00021D43  5986 0001:00021D48  5988 0001:00021D50  5989 0001:00021D53
  5990 0001:00021D5A  5993 0001:00021D5C  5998 0001:00021D60  5999 0001:00021D6C
  6000 0001:00021D6E  6001 0001:00021D7D  6002 0001:00021D95  6004 0001:00021DAA
  6006 0001:00021DB7  6007 0001:00021DC4  6011 0001:00021DDD  6012 0001:00021DE8
  6014 0001:00021DF7  6015 0001:00021E04  6016 0001:00021E18  6020 0001:00021E28
  6021 0001:00021E35  6022 0001:00021E49  6025 0001:00021E60  6027 0001:00021E6F
  6029 0001:00021E75  6030 0001:00021E82  6034 0001:00021E92  6035 0001:00021E94
  6038 0001:00021E96  6039 0001:00021E98  6054 0001:00021EA0  6055 0001:00021EA9
  6056 0001:00021EBE  6057 0001:00021ED1  6058 0001:00021EE3  6060 0001:00021EF6
  6061 0001:00021F04  6062 0001:00021F09  6063 0001:00021F19  6064 0001:00021F2C
  6065 0001:00021F3C  6066 0001:00021F4B  6067 0001:00021F59  6068 0001:00021F7B
  6069 0001:00021F9C  6071 0001:00021FA4  6072 0001:00021FA7  6074 0001:00021FAF
  6075 0001:00021FBC  6076 0001:00021FCA  6078 0001:00021FCE  6079 0001:00021FD5
  6080 0001:00021FD9  6082 0001:00021FDE  6084 0001:00021FE9  6085 0001:00021FEF
  6087 0001:0002200F  6088 0001:00022016  6090 0001:0002201D  6091 0001:0002202B
  6092 0001:00022048  6093 0001:00022058  6094 0001:0002206B  6095 0001:0002207B
  6096 0001:0002208A  6097 0001:00022098  6098 0001:000220BA  6099 0001:000220DB
  6101 0001:000220E3  6102 0001:000220E6  6104 0001:000220EE  6105 0001:000220F5
  6107 0001:000220F7  6121 0001:00022140  6122 0001:00022146  6124 0001:0002215E
  6125 0001:00022177  6127 0001:00022181  6128 0001:00022195  6129 0001:0002219C
  6130 0001:000221A0  6132 0001:000221A3  6133 0001:000221B5  6134 0001:000221BF
  6136 0001:000221D0  6153 0001:000221D4  6154 0001:000221E3  6155 0001:000221EE
  6157 0001:00022200  6158 0001:0002220C  6160 0001:00022221  6161 0001:00022223
  6163 0001:00022225  6155 0001:00022226  6164 0001:00022229  6165 0001:0002222C
  6167 0001:00022234  6170 0001:00022242  6171 0001:0002225D  6174 0001:00022265
  6176 0001:00022297  6178 0001:000222AD  6180 0001:000222B7  6181 0001:000222C7
  6182 0001:000222D8  6184 0001:000222DC  6185 0001:000222E3  6186 0001:000222E7
  6188 0001:000222EC  6190 0001:00022312  6191 0001:00022326  6192 0001:0002232D
  6193 0001:00022334  6194 0001:00022338  6196 0001:0002233D  6197 0001:0002234D
  6199 0001:00022363  6200 0001:00022379  6202 0001:0002237F  6203 0001:00022396
  6204 0001:0002239D  6205 0001:000223A4  6206 0001:000223A8  6208 0001:000223AD
  6209 0001:000223BC  6210 0001:000223C4  6211 0001:000223D8  6212 0001:000223E1
  6213 0001:000223F5  6214 0001:00022407  6215 0001:00022415  6217 0001:00022423
  6218 0001:00022429  6223 0001:00022448  6225 0001:00022456  6226 0001:0002245E
  6230 0001:0002247D  6232 0001:00022484  6233 0001:00022489  6234 0001:00022499
  6235 0001:000224AA  6237 0001:000224AE  6238 0001:000224B5  6239 0001:000224B9
  6241 0001:000224BE  6243 0001:000224DD  6244 0001:000224E4  6245 0001:000224E8
  6246 0001:000224EF  6247 0001:00022503  6250 0001:00022508  6251 0001:0002250E
  6256 0001:00022532  6257 0001:00022548  6259 0001:0002254E  6260 0001:00022565
  6261 0001:0002256C  6262 0001:00022573  6263 0001:00022577  6265 0001:0002257C
  6266 0001:0002258B  6267 0001:000225A1  6268 0001:000225AA  6269 0001:000225BE
  6270 0001:000225D0  6272 0001:000225DE  6273 0001:000225E6  6278 0001:00022605
  6279 0001:00022616  6281 0001:0002261F  6283 0001:00022626  6285 0001:00022634
  6286 0001:0002263A  6291 0001:00022659  6293 0001:0002265E  6294 0001:00022663
  6296 0001:00022688  6297 0001:00022698  6298 0001:000226A9  6300 0001:000226AD
  6301 0001:000226B4  6302 0001:000226B8  6304 0001:000226BD  6306 0001:000226E3
  6307 0001:000226F7  6308 0001:000226FE  6309 0001:00022705  6310 0001:00022709
  6312 0001:0002270E  6314 0001:0002271D  6315 0001:0002272C  6316 0001:00022736
  6317 0001:0002273C  6319 0001:00022752  6320 0001:00022763  6321 0001:0002276A
  6322 0001:00022773  6326 0001:0002277E  6328 0001:00022784  6329 0001:00022793
  6330 0001:0002279A  6331 0001:000227A0  6332 0001:000227AE  6333 0001:000227C6
  6334 0001:000227CF  6335 0001:000227D5  6336 0001:000227EB  6338 0001:000227EE
  6339 0001:000227FD  6340 0001:00022807  6341 0001:0002280D  6342 0001:00022816
  6344 0001:0002281C  6346 0001:0002282E  6347 0001:00022842  6348 0001:00022849
  6349 0001:0002284D  6351 0001:00022852  6353 0001:00022867  6354 0001:0002287B
  6355 0001:00022882  6356 0001:00022886  6359 0001:0002288B  6361 0001:000228A7
  6362 0001:000228AD  6363 0001:000228BD  6365 0001:000228C7  6366 0001:000228E0
  6368 0001:000228E6  6369 0001:000228F0  6370 0001:00022912  6371 0001:00022919
  6372 0001:0002291D  6374 0001:0002291F  6375 0001:00022923  6376 0001:00022933
  6377 0001:00022942  6378 0001:0002294C  6379 0001:00022955  6380 0001:00022968
  6384 0001:00022973  6385 0001:0002297A  6386 0001:0002298E  6393 0001:00022992
  6403 0001:000229DC  6404 0001:000229EC  6405 0001:000229F5  6406 0001:00022A39
  6407 0001:00022A55  6409 0001:00022A6B  6411 0001:00022A7F  6412 0001:00022A93
  6413 0001:00022A9A  6414 0001:00022A9E  6416 0001:00022AA3  6418 0001:00022AA8
  6419 0001:00022AB7  6421 0001:00022AF4  6422 0001:00022B02  6423 0001:00022B12
  6424 0001:00022B14  6427 0001:00022B22  6428 0001:00022B33  6430 0001:00022B3D
  6433 0001:00022B76  6434 0001:00022B7D  6435 0001:00022B84  6436 0001:00022B8B
  6437 0001:00022B8F  6439 0001:00022B94  6441 0001:00022BA3  6442 0001:00022BA9
  6444 0001:00022BC8  6446 0001:00022BDE  6447 0001:00022BE8  6448 0001:00022BF9
  6450 0001:00022BFD  6451 0001:00022C04  6452 0001:00022C0B  6453 0001:00022C0F
  6455 0001:00022C14  6457 0001:00022C21  6458 0001:00022C27  6460 0001:00022C3E
  6462 0001:00022C53  6463 0001:00022C5A  6464 0001:00022C6E  6465 0001:00022C75
  6466 0001:00022C79  6468 0001:00022C7B  6469 0001:00022C83  6473 0001:00022C8A
  6475 0001:00022C9F  6476 0001:00022CA6  6477 0001:00022CBA  6478 0001:00022CC1
  6479 0001:00022CC5  6481 0001:00022CC7  6482 0001:00022CCF  6484 0001:00022CF1
  6486 0001:00022CF8  6494 0001:00022D14  6495 0001:00022D32  6496 0001:00022D4D
  6497 0001:00022D55  6500 0001:00022D64  6501 0001:00022D6A  6502 0001:00022D7A
  6504 0001:00022D8C  6505 0001:00022D96  6506 0001:00022DAA  6507 0001:00022DB1
  6508 0001:00022DB5  6510 0001:00022DBA  6511 0001:00022DD1  6513 0001:00022DE3
  6514 0001:00022DF3  6515 0001:00022E01  6516 0001:00022E15  6518 0001:00022E1A
  6522 0001:00022E1C  6523 0001:00022E22  6524 0001:00022E38  6525 0001:00022E3F
  6526 0001:00022E43  6528 0001:00022E45  6529 0001:00022E49  6530 0001:00022E64
  6498 0001:00022E6E  6532 0001:00022E8E  6545 0001:00022EB4  6546 0001:00022EDE
  6547 0001:00022EF9  6548 0001:00022F01  6551 0001:00022F10  6552 0001:00022F16
  6553 0001:00022F26  6555 0001:00022F38  6556 0001:00022F42  6557 0001:00022F56
  6558 0001:00022F5D  6559 0001:00022F61  6561 0001:00022F66  6562 0001:00022F7D
  6564 0001:00022F8F  6565 0001:00022F9F  6566 0001:00022FA6  6567 0001:00022FB4
  6568 0001:00022FC8  6570 0001:00022FD1  6572 0001:00022FD6  6574 0001:00022FEC
  6575 0001:00022FFE  6576 0001:00023015  6577 0001:00023025  6579 0001:0002302B
  6580 0001:00023031  6582 0001:0002303E  6583 0001:00023056  6584 0001:00023065
  6586 0001:00023096  6587 0001:000230A5  6588 0001:000230B3  6589 0001:000230B8
  6592 0001:000230C6  6593 0001:000230D7  6595 0001:000230E1  6597 0001:000230ED
  6600 0001:00023129  6601 0001:00023131  6602 0001:00023139  6603 0001:00023140
  6604 0001:00023144  6607 0001:00023149  6609 0001:00023158  6610 0001:00023161
  6612 0001:00023191  6614 0001:000231A7  6615 0001:000231B7  6616 0001:000231C9
  6618 0001:000231CF  6619 0001:000231D7  6620 0001:000231DE  6621 0001:000231E2
  6623 0001:000231E7  6625 0001:000231F4  6626 0001:000231FD  6632 0001:00023217
  6634 0001:00023229  6635 0001:0002323D  6636 0001:00023245  6637 0001:0002324C
  6638 0001:00023250  6640 0001:00023255  6641 0001:0002325D  6642 0001:00023264
  6643 0001:0002326C  6645 0001:00023271  6647 0001:00023283  6648 0001:00023297
  6649 0001:0002329F  6650 0001:000232A6  6651 0001:000232AA  6653 0001:000232AF
  6654 0001:000232B7  6656 0001:000232D9  6659 0001:000232E3  6660 0001:000232E9
  6661 0001:000232FF  6662 0001:00023306  6663 0001:0002330A  6665 0001:0002330C
  6666 0001:00023310  6667 0001:0002332B  6549 0001:00023335  6669 0001:00023355
  6678 0001:0002338C  6679 0001:000233AA  6680 0001:000233C5  6681 0001:000233CD
  6683 0001:000233E1  6688 0001:00023407  6689 0001:0002340A  6690 0001:0002340E
  6692 0001:00023412  6693 0001:00023418  6695 0001:00023428  6697 0001:0002343A
  6698 0001:00023444  6699 0001:0002344A  6700 0001:0002345E  6701 0001:00023465
  6702 0001:00023469  6705 0001:0002346E  6707 0001:0002347E  6708 0001:00023484
  6710 0001:0002348E  6711 0001:000234A5  6713 0001:000234B5  6714 0001:000234B9
  6715 0001:000234D4  6716 0001:000234EA  6719 0001:00023501  6720 0001:00023518
  6722 0001:0002353B  6723 0001:0002354B  6724 0001:00023559  6725 0001:0002356D
  6727 0001:00023576  6731 0001:00023578  6732 0001:00023582  6733 0001:00023598
  6734 0001:0002359F  6735 0001:000235A3  6737 0001:000235A5  6738 0001:000235A9
  6739 0001:000235C4  6685 0001:000235DA  6742 0001:00023602  6749 0001:00023628
  6750 0001:00023634  6752 0001:0002364A  6753 0001:00023654  6754 0001:00023665
  6756 0001:00023669  6757 0001:0002366B  6759 0001:00023670  6761 0001:00023682
  6762 0001:00023689  6763 0001:0002369D  6764 0001:0002369F  6766 0001:000236A4
  6767 0001:000236BF  6769 0001:000236DF  6771 0001:00023701  6772 0001:00023708
  6773 0001:0002371C  6774 0001:0002371E  6776 0001:00023723  6777 0001:00023731
  6778 0001:00023742  6779 0001:00023756  6780 0001:0002375C  6782 0001:00023767
  6783 0001:0002376D  6785 0001:0002378C  6787 0001:00023796  6788 0001:000237B9
  6791 0001:000237CA  6792 0001:000237DD  6793 0001:000237E8  6796 0001:00023802
  6797 0001:00023812  6799 0001:00023817  6801 0001:00023830  6802 0001:00023837
  6803 0001:0002384B  6804 0001:0002384D  6806 0001:00023852  6807 0001:00023862
  6810 0001:00023870  6811 0001:00023876  6812 0001:00023879  6813 0001:0002388C
  6815 0001:000238A0  6817 0001:000238A5  6819 0001:000238B7  6820 0001:000238B9
  6821 0001:000238CD  6823 0001:000238D2  6825 0001:000238DB  6826 0001:000238DD
  6827 0001:000238F1  6829 0001:000238F6  6830 0001:00023906  6832 0001:00023927
  6833 0001:00023929  6834 0001:0002394B  6836 0001:00023950  6837 0001:00023960
  6838 0001:0002396E  6841 0001:0002397C  6842 0001:000239A6  6844 0001:000239C0
  6845 0001:000239D4  6847 0001:000239D8  6848 0001:000239EC  6850 0001:000239EE
  6852 0001:000239F0  6860 0001:000239FC  6861 0001:00023A07  6863 0001:00023A0D
  6864 0001:00023A1B  6866 0001:00023A20  6868 0001:00023A39  6869 0001:00023A43
  6870 0001:00023A54  6872 0001:00023A58  6873 0001:00023A5A  6875 0001:00023A5F
  6877 0001:00023A71  6878 0001:00023A78  6879 0001:00023A8C  6880 0001:00023A8E
  6882 0001:00023A93  6883 0001:00023AAE  6887 0001:00023AD8  6890 0001:00023ADE
  6892 0001:00023AFF  6893 0001:00023B06  6894 0001:00023B1A  6895 0001:00023B1C
  6899 0001:00023B21  6901 0001:00023B42  6902 0001:00023B49  6903 0001:00023B5D
  6904 0001:00023B5F  6908 0001:00023B64  6909 0001:00023B72  6910 0001:00023B81
  6911 0001:00023B94  6912 0001:00023B9A  6914 0001:00023BA5  6915 0001:00023BAB
  6920 0001:00023BCA  6922 0001:00023BD4  6926 0001:00023BF7  6927 0001:00023C06
  6929 0001:00023C0C  6930 0001:00023C20  6931 0001:00023C2E  6934 0001:00023C4A
  6935 0001:00023C5A  6937 0001:00023C5F  6939 0001:00023C77  6940 0001:00023C7E
  6941 0001:00023C92  6942 0001:00023C94  6944 0001:00023C99  6945 0001:00023CA9
  6948 0001:00023CB7  6949 0001:00023CBB  6950 0001:00023CBE  6951 0001:00023CD1
  6954 0001:00023CE4  6956 0001:00023CE9  6958 0001:00023CF4  6959 0001:00023D02
  6960 0001:00023D15  6961 0001:00023D21  6962 0001:00023D24  6963 0001:00023D4D
  6964 0001:00023D60  6966 0001:00023D65  6968 0001:00023D6B  6969 0001:00023D6D
  6970 0001:00023D81  6972 0001:00023D86  6973 0001:00023D96  6975 0001:00023DB6
  6976 0001:00023DB8  6977 0001:00023DDA  6979 0001:00023DDF  6980 0001:00023DEF
  6981 0001:00023DFD  6984 0001:00023E0B  6985 0001:00023E35  6987 0001:00023E4E
  6988 0001:00023E62  6990 0001:00023E66  6991 0001:00023E79  6993 0001:00023E7B
  6995 0001:00023E7D  7008 0001:00023E88  7009 0001:00023EB0  7011 0001:00023EC4
  7013 0001:00023ECE  7014 0001:00023ED7  7016 0001:00023EE1  7018 0001:00023EF7
  7019 0001:00023F05  7020 0001:00023F1E  7021 0001:00023F20  7022 0001:00023F23
  7023 0001:00023F27  7024 0001:00023F36  7025 0001:00023F4B  7026 0001:00023F60
  7029 0001:00023F68  7030 0001:00023F6A  7031 0001:00023F7A  7032 0001:00023F90
  7033 0001:00023FA6  7034 0001:00023FBC  7035 0001:00023FCA  7036 0001:00023FDE
  7037 0001:00023FE1  7038 0001:00023FEE  7039 0001:00023FF3  7041 0001:00023FF8
  7042 0001:00023FFF  7016 0001:00024002  7043 0001:0002400C  7014 0001:00024015
  7047 0001:0002401F  7049 0001:00024032  7051 0001:00024044  7052 0001:00024049
  7056 0001:0002406A  7057 0001:00024072  7060 0001:00024081  7061 0001:00024092
  7063 0001:0002409A  7064 0001:0002409C  7065 0001:000240A0  7066 0001:000240AC
  7067 0001:000240DA  7069 0001:000240E7  7070 0001:000240EA  7071 0001:000240FC
  7072 0001:00024114  7073 0001:0002412C  7074 0001:00024144  7075 0001:00024154
  7076 0001:0002416A  7077 0001:0002416D  7079 0001:00024180  7081 0001:00024185
  7082 0001:00024197  7084 0001:0002419E  7085 0001:000241A5  7087 0001:000241BD
  7089 0001:000241E1  7092 0001:000241F0  7093 0001:00024201  7095 0001:0002420A
  7096 0001:0002420E  7097 0001:00024211  7098 0001:0002421D  7099 0001:0002424B
  7101 0001:00024258  7102 0001:0002425B  7103 0001:0002426D  7104 0001:00024285
  7105 0001:0002429D  7106 0001:000242B5  7107 0001:000242C5  7108 0001:000242DB
  7109 0001:000242DE  7110 0001:000242F1  7112 0001:000242F6  7113 0001:000242F9
  7114 0001:00024304  7085 0001:00024305  7116 0001:0002430C  7118 0001:00024316
  7120 0001:00024336  7123 0001:00024378  7124 0001:00024391  7125 0001:00024394
  7126 0001:00024398  7127 0001:000243A4  7128 0001:000243D2  7131 0001:000243E1
  7132 0001:000243EA  7134 0001:000243F8  7136 0001:00024405  7137 0001:00024408
  7138 0001:0002441A  7139 0001:00024432  7140 0001:0002444A  7141 0001:00024462
  7142 0001:00024472  7143 0001:00024488  7144 0001:0002448B  7146 0001:0002449E
  7148 0001:000244A3  7118 0001:000244A6  7150 0001:000244AD  7152 0001:000244CA
  7155 0001:00024506  7156 0001:0002451C  7159 0001:0002452B  7160 0001:0002453C
  7163 0001:00024545  7164 0001:00024549  7165 0001:0002454C  7166 0001:00024558
  7167 0001:00024586  7169 0001:00024593  7170 0001:00024596  7171 0001:000245A9
  7172 0001:000245BB  7173 0001:000245D3  7174 0001:000245EB  7175 0001:00024603
  7176 0001:00024613  7177 0001:00024629  7178 0001:0002462C  7179 0001:0002463F
  7181 0001:00024644  7150 0001:00024647  7182 0001:0002464E  7183 0001:00024667
  7185 0001:0002466F  7186 0001:0002467E  7188 0001:00024684  7189 0001:00024689
  7190 0001:000246A5  7192 0001:000246AA  7193 0001:000246AE  7194 0001:000246B1
  7195 0001:000246BE  7197 0001:000246CD  7198 0001:000246D0  7199 0001:000246E2
  7200 0001:000246FA  7201 0001:00024712  7202 0001:0002472A  7203 0001:0002473A
  7204 0001:00024750  7205 0001:00024753  7207 0001:00024766  7209 0001:0002476B
  7210 0001:00024784  7212 0001:0002478D  7214 0001:00024793  7215 0001:00024798
  7216 0001:000247B4  7218 0001:000247B9  7219 0001:000247C6  7220 0001:000247D7
  7222 0001:000247E1  7223 0001:000247F2  7224 0001:000247F6  7226 0001:000247F9
  7227 0001:000247FC  7228 0001:0002480E  7229 0001:00024826  7230 0001:0002483E
  7231 0001:00024856  7232 0001:00024866  7233 0001:0002487C  7234 0001:0002487F
  7235 0001:00024892  7237 0001:00024897  7239 0001:000248B4  7240 0001:000248C7
  7242 0001:000248E1  7244 0001:000248E7  7245 0001:000248EC  7246 0001:00024908
  7248 0001:0002490D  7249 0001:0002491A  7252 0001:00024929  7253 0001:0002493A
  7254 0001:00024957  7256 0001:00024961  7258 0001:00024963  7237 0001:00024966
  7259 0001:0002496D  7260 0001:00024972  7261 0001:0002498E  7277 0001:000249D4
  7278 0001:000249ED  7279 0001:000249F6  7280 0001:00024A04  7281 0001:00024A10
  7285 0001:00024A1F  7286 0001:00024A24  7287 0001:00024A34  7289 0001:00024A3A
  7290 0001:00024A3C  7291 0001:00024A43  7293 0001:00024A45  7295 0001:00024A59
  7296 0001:00024A61  7297 0001:00024A68  7298 0001:00024A6A  7300 0001:00024A6C
  7301 0001:00024A76  7302 0001:00024A81  7304 0001:00024A8C  7305 0001:00024A99
  7306 0001:00024AA0  7307 0001:00024AA2  7309 0001:00024AA4  7283 0001:00024AAD
  7312 0001:00024AB2  7313 0001:00024ABB  7314 0001:00024ABD  7319 0001:00024AC8
  7320 0001:00024AD0  7321 0001:00024ADE  7322 0001:00024AF7  7323 0001:00024B1A
  7324 0001:00024B2B  7326 0001:00024B34  7327 0001:00024B37  7331 0001:00024B59
  7333 0001:00024B5D  7334 0001:00024B5F  7339 0001:00024B78  7340 0001:00024B80
  7341 0001:00024B8E  7342 0001:00024BA4  7343 0001:00024BA8  7344 0001:00024BB7
  7345 0001:00024BD7  7346 0001:00024BDE  7347 0001:00024BE1  7348 0001:00024C03
  7349 0001:00024C05  7354 0001:00024C0C  7355 0001:00024C14  7356 0001:00024C22
  7357 0001:00024C38  7358 0001:00024C3C  7359 0001:00024C4B  7360 0001:00024C6B
  7361 0001:00024C72  7362 0001:00024C75  7363 0001:00024C97  7364 0001:00024C99
  7366 0001:00024CA0  7367 0001:00024CAF  7370 0001:00024D6B  7372 0001:00024D7A
  7373 0001:00024D7C  7378 0001:00024D81  7379 0001:00024D87  7380 0001:00024D94
  7382 0001:00024D9A  7383 0001:00024D9C  7385 0001:00024DA1  7386 0001:00024DAF
  7387 0001:00024DBB  7388 0001:00024DD1  7389 0001:00024DD5  7390 0001:00024DDB
  7394 0001:00024DE3  7395 0001:00024DE9  7396 0001:00024DF6  7398 0001:00024E00
  7399 0001:00024E02  7404 0001:00024E07  7405 0001:00024E0D  7406 0001:00024E1A
  7408 0001:00024E20  7409 0001:00024E22  7411 0001:00024E27  7412 0001:00024E35
  7413 0001:00024E41  7414 0001:00024E57  7415 0001:00024E5B  7416 0001:00024E61
  7420 0001:00024E69  7421 0001:00024E6F  7422 0001:00024E7E  7426 0001:00024E90
  7427 0001:00024E96  7429 0001:00024EA1  7430 0001:00024EAE  7431 0001:00024EB0
  7433 0001:00024EB5  7434 0001:00024EC4  7435 0001:00024ED1  7436 0001:00024EE8
  7438 0001:00024EED  7439 0001:00024F01  7440 0001:00024F09  7441 0001:00024F0B
  7443 0001:00024F10  7444 0001:00024F22  7446 0001:00024F31  7447 0001:00024F45
  7448 0001:00024F4D  7449 0001:00024F4F  7451 0001:00024F54  7455 0001:00024F62
  7456 0001:00024F68  7457 0001:00024F75  7459 0001:00024F7B  7460 0001:00024F7D
  7462 0001:00024F82  7464 0001:00024F8D  7465 0001:00024F95  7466 0001:00024F97
  7467 0001:00024FA4  7469 0001:00024FA9  7473 0001:00024FB7  7474 0001:00024FC6
  7475 0001:00024FD3  7476 0001:00024FE2  7478 0001:00024FEA  7479 0001:00024FF2
  7480 0001:00024FF4  7485 0001:00024FF9  7486 0001:00025008  7487 0001:00025015
  7488 0001:0002502A  7492 0001:00025038  7493 0001:00025047  7494 0001:00025054
  7495 0001:00025069  7499 0001:00025077  7500 0001:0002507D  7502 0001:00025088
  7503 0001:0002508A  7504 0001:00025097  7506 0001:0002509C  7507 0001:000250A5
  7508 0001:000250B2  7510 0001:000250B8  7511 0001:000250BA  7513 0001:000250BF
  7515 0001:000250CA  7516 0001:000250D2  7517 0001:000250D4  7518 0001:000250E1
  7520 0001:000250E6  7524 0001:00025151  7525 0001:00025159  7526 0001:0002515B
  7527 0001:00025168  7529 0001:0002516D  7530 0001:0002517B  7531 0001:00025187
  7532 0001:0002518B  7533 0001:000251A0  7534 0001:000251A6  7535 0001:000251A9
  7539 0001:000251B7  7540 0001:000251BD  7542 0001:000251C8  7543 0001:000251CA
  7544 0001:000251D7  7546 0001:000251DC  7547 0001:000251E5  7548 0001:000251F2
  7550 0001:000251F8  7551 0001:000251FA  7553 0001:000251FF  7555 0001:0002520A
  7556 0001:00025212  7557 0001:00025214  7558 0001:00025221  7560 0001:00025226
  7562 0001:00025246  7563 0001:0002524E  7564 0001:00025250  7565 0001:0002525D
  7567 0001:00025262  7568 0001:00025270  7569 0001:0002527C  7570 0001:00025280
  7571 0001:00025295  7572 0001:0002529B  7573 0001:0002529E  7577 0001:000252AC
  7579 0001:000252BF  7580 0001:000252C5  7582 0001:000252D0  7583 0001:000252D2
  7584 0001:000252DF  7586 0001:000252E4  7587 0001:000252ED  7588 0001:000252FA
  7590 0001:00025300  7591 0001:00025302  7593 0001:00025307  7596 0001:00025357
  7597 0001:0002535F  7598 0001:00025361  7599 0001:0002536E  7601 0001:00025373
  7603 0001:0002537E  7604 0001:00025386  7605 0001:00025388  7606 0001:00025395
  7608 0001:0002539A  7609 0001:000253A7  7611 0001:000253B5  7613 0001:000253CD
  7614 0001:000253D3  7616 0001:000253DE  7617 0001:000253E0  7618 0001:000253ED
  7620 0001:000253F2  7621 0001:000253FB  7622 0001:00025408  7624 0001:0002540E
  7625 0001:00025410  7627 0001:00025415  7630 0001:00025465  7631 0001:0002546D
  7632 0001:0002546F  7633 0001:0002547C  7635 0001:00025481  7637 0001:0002548C
  7638 0001:00025494  7639 0001:00025496  7640 0001:000254A3  7642 0001:000254A8
  7643 0001:000254B5  7645 0001:000254C3  7647 0001:000254DB  7648 0001:000254E1
  7650 0001:000254EC  7651 0001:000254EE  7652 0001:000254FB  7654 0001:00025500
  7655 0001:00025509  7656 0001:0002551B  7658 0001:00025521  7659 0001:00025523
  7661 0001:00025528  7665 0001:0002558A  7666 0001:00025592  7667 0001:00025594
  7668 0001:000255A1  7670 0001:000255A3  7672 0001:000255AE  7673 0001:000255B6
  7674 0001:000255B8  7675 0001:000255C5  7677 0001:000255C7  7678 0001:000255D4
  7681 0001:000255DF  7682 0001:000255F1  7684 0001:000255F7  7685 0001:000255F9
  7691 0001:000255FB  7692 0001:00025608  7693 0001:0002560A  7696 0001:0002560C
  7697 0001:0002560F  7702 0001:0002564C  7703 0001:0002565D  7704 0001:00025678
  7705 0001:00025694  7707 0001:000256A0  7709 0001:000256C7  7710 0001:000256D6
  7712 0001:000256DA  7713 0001:000256DC  7714 0001:000256F9  7716 0001:0002571A
  7717 0001:0002571C  7719 0001:00025721  7720 0001:00025723  7722 0001:00025728
  7725 0001:00025788  7735 0001:000257CB  7737 0001:000257D2  7748 0001:00025835
  7749 0001:00025845  7750 0001:0002584C  7751 0001:00025866  7752 0001:0002586D
  7755 0001:00025887  7756 0001:00025898  7758 0001:0002589A  7760 0001:0002589F
  7761 0001:000258B4  7762 0001:000258BB  7764 0001:000258D4  7765 0001:000258F8
  7767 0001:0002591F  7769 0001:00025955  7772 0001:0002597C  7776 0001:00025983
  7779 0001:000259A8  7780 0001:000259AF  7781 0001:000259CB  7782 0001:000259D2
  7783 0001:000259F3  7784 0001:000259FA  7787 0001:00025A23  7791 0001:00025A54
  7792 0001:00025A6E  7793 0001:00025A75  7796 0001:00025A8F  7797 0001:00025AA0
  7799 0001:00025AA2  7802 0001:00025AA7  7806 0001:00025AAE  7809 0001:00025AD3
  7811 0001:00025ADA  7815 0001:00025B0B  7816 0001:00025B25  7817 0001:00025B2C
  7819 0001:00025B4C  7820 0001:00025B4E  7822 0001:00025B71  7824 0001:00025B7B
  7826 0001:00025B8A  7828 0001:00025B93  7830 0001:00025BAD  7831 0001:00025BB6
  7832 0001:00025BBF  7836 0001:00025BCD  7838 0001:00025BE7  7839 0001:00025BF0
  7840 0001:00025BF9  7844 0001:00025C07  7846 0001:00025C13  7848 0001:00025C2D
  7849 0001:00025C36  7850 0001:00025C3F  7855 0001:00025C4D  7857 0001:00025C67
  7858 0001:00025C70  7859 0001:00025C79  7863 0001:00025C87  7865 0001:00025C91
  7867 0001:00025CA0  7869 0001:00025CA9  7871 0001:00025CC3  7872 0001:00025CCC
  7873 0001:00025CD5  7878 0001:00025CE3  7880 0001:00025CFD  7881 0001:00025D06
  7882 0001:00025D0F  7886 0001:00025D1D  7888 0001:00025D29  7890 0001:00025D43
  7891 0001:00025D4C  7892 0001:00025D55  7897 0001:00025D63  7899 0001:00025D7D
  7900 0001:00025D86  7901 0001:00025D8F  7908 0001:00025D9D  7912 0001:00025DA4
  7915 0001:00025DC9  7917 0001:00025DD0  7921 0001:00025E01  7922 0001:00025E1B
  7924 0001:00025E22  7928 0001:00025E29  7934 0001:00025E60  7935 0001:00025E71
  7936 0001:00025E8D  7938 0001:00025E9E  7944 0001:00025ED5  7945 0001:00025EE6
  7946 0001:00025F00  7947 0001:00025F11  7949 0001:00025F2B  7951 0001:00025F3C
  7953 0001:00025F6C  7954 0001:00025F7D  7955 0001:00025F95  7957 0001:00025FA6
  7961 0001:00025FAD  7967 0001:00025FE4  7968 0001:00025FF5  7969 0001:00026005
  7971 0001:00026016  7977 0001:0002604D  7978 0001:0002605E  7979 0001:00026078
  7980 0001:00026089  7982 0001:000260A3  7984 0001:000260B4  7986 0001:000260E4
  7987 0001:000260F5  7988 0001:0002610A  7989 0001:0002611B  7990 0001:00026130
  7991 0001:00026141  7992 0001:0002614B  7993 0001:0002615C  7994 0001:00026168
  7995 0001:00026179  7996 0001:00026191  7997 0001:0002619F  8001 0001:000261A3
  8002 0001:000261AE  8004 0001:000261BC  8008 0001:000261C0  8010 0001:000261C6
  8012 0001:000261D4  8016 0001:000261D8  8018 0001:000261DE  8020 0001:000261F9
  8023 0001:000261FD  8025 0001:000261FF  8034 0001:00026290  8035 0001:00026299
  8036 0001:000262A5  8038 0001:000262AD  8039 0001:000262B2  8043 0001:000262B7
  8044 0001:000262CA  8045 0001:000262DA  8046 0001:000262E6  8048 0001:000262EA
  8049 0001:000262F1  8050 0001:000262F6  8052 0001:000262FB  8053 0001:00026329
  8054 0001:0002632F  8055 0001:00026335  8056 0001:0002633B  8057 0001:00026341
  8058 0001:00026347  8059 0001:0002634D  8061 0001:00026353  8063 0001:00026357
  8064 0001:00026365  8065 0001:00026368  8066 0001:0002636B  8067 0001:00026372
  8068 0001:00026387  8070 0001:0002638D  8071 0001:000263A1  8072 0001:000263A8
  8073 0001:000263AD  8075 0001:000263AF  8041 0001:000263B1  8077 0001:000263D7
  8078 0001:000263DA  8086 0001:000263EC  8087 0001:000263F5  8088 0001:00026401
  8090 0001:00026409  8091 0001:0002640E  8095 0001:00026413  8096 0001:00026426
  8097 0001:00026436  8098 0001:00026442  8100 0001:00026446  8101 0001:0002644D
  8102 0001:00026452  8104 0001:00026457  8105 0001:0002646D  8106 0001:00026473
  8107 0001:00026479  8108 0001:0002647F  8110 0001:00026485  8112 0001:00026489
  8113 0001:00026497  8114 0001:0002649A  8115 0001:0002649D  8116 0001:000264A4
  8117 0001:000264B9  8119 0001:000264BF  8120 0001:000264D3  8121 0001:000264DA
  8122 0001:000264DF  8124 0001:000264E1  8093 0001:000264E3  8126 0001:0002650D
  8127 0001:00026510  8136 0001:0002651C  8137 0001:00026525  8138 0001:00026531
  8140 0001:00026539  8141 0001:0002653E  8145 0001:00026543  8146 0001:00026556
  8147 0001:00026566  8148 0001:00026572  8150 0001:00026576  8151 0001:0002657D
  8152 0001:00026582  8154 0001:00026587  8155 0001:000265B3  8156 0001:000265B9
  8157 0001:000265BF  8158 0001:000265C5  8159 0001:000265CB  8160 0001:000265D1
  8161 0001:000265D7  8162 0001:000265DD  8164 0001:000265E3  8166 0001:000265E7
  8167 0001:000265F5  8168 0001:000265F8  8169 0001:000265FB  8170 0001:00026602
  8171 0001:00026617  8173 0001:0002661D  8174 0001:00026631  8175 0001:00026638
  8176 0001:0002663D  8178 0001:0002663F  8143 0001:00026641  8180 0001:0002666B
  8181 0001:0002666E  8186 0001:00026678  8187 0001:00026680  8189 0001:00026695
  8191 0001:000266BB  8192 0001:000266BD  8194 0001:000266C2  8196 0001:000266EE
  8198 0001:0002672D  8199 0001:0002672F  8201 0001:00026734  8202 0001:00026742
  8203 0001:0002674A  8204 0001:00026752  8205 0001:0002675A  8206 0001:00026765
  8207 0001:0002676F  8208 0001:00026776  8210 0001:0002677D  8212 0001:00026792
  8214 0001:000267A5  8215 0001:000267A7  8217 0001:000267AC  8220 0001:000267C2
  8223 0001:000267E0  8226 0001:00026813  8228 0001:00026827  8231 0001:0002683D
  8232 0001:00026851  8233 0001:00026853  8236 0001:00026858  8237 0001:0002685D
  8238 0001:00026863  8239 0001:00026868  8240 0001:0002686D  8241 0001:00026873
  8243 0001:00026878  8247 0001:0002688A  8248 0001:0002689E  8249 0001:000268A0
  8252 0001:000268A5  8253 0001:000268AA  8254 0001:000268AF  8255 0001:000268B6
  8259 0001:000268BD  8260 0001:00026929  8261 0001:0002692E  8262 0001:00026934
  8263 0001:00026939  8264 0001:0002693E  8265 0001:00026944  8267 0001:00026949
  8269 0001:0002695E  8270 0001:00026969  8271 0001:00026974  8272 0001:0002697F
  8275 0001:0002698A  8276 0001:0002699E  8277 0001:000269A0  8280 0001:000269A5
  8281 0001:000269AA  8282 0001:000269AF  8283 0001:000269B6  8287 0001:000269BD
  8288 0001:000269CB  8289 0001:000269DA  8292 0001:00026A31  8293 0001:00026A91
  8295 0001:00026A9D  8297 0001:00026AA9  8298 0001:00026AB5  8299 0001:00026AC1
  8300 0001:00026ACD  8301 0001:00026AD9  8302 0001:00026AE5  8304 0001:00026AF1
  8308 0001:00026AFD  8309 0001:00026B11  8310 0001:00026B18  8311 0001:00026B1A
  8317 0001:00026B1F  8318 0001:00026B7F  8320 0001:00026B8B  8322 0001:00026B97
  8323 0001:00026BA3  8324 0001:00026BAF  8325 0001:00026BBB  8326 0001:00026BC7
  8327 0001:00026BD3  8329 0001:00026BDF  8333 0001:00026BEB  8334 0001:00026BFF
  8335 0001:00026C06  8336 0001:00026C08  8342 0001:00026C0D  8343 0001:00026C6D
  8345 0001:00026C7A  8347 0001:00026C87  8348 0001:00026C94  8349 0001:00026CA1
  8350 0001:00026CAE  8351 0001:00026CBB  8352 0001:00026CC8  8354 0001:00026CD5
  8358 0001:00026CE2  8359 0001:00026CF6  8360 0001:00026CFD  8361 0001:00026CFF
  8367 0001:00026D04  8368 0001:00026D64  8370 0001:00026D71  8372 0001:00026D7E
  8373 0001:00026D8B  8374 0001:00026D98  8375 0001:00026DA5  8376 0001:00026DB2
  8377 0001:00026DBF  8379 0001:00026DCC  8383 0001:00026DD9  8384 0001:00026DED
  8385 0001:00026DF4  8386 0001:00026DF6  8392 0001:00026DFB  8393 0001:00026E5B
  8395 0001:00026E67  8397 0001:00026E73  8398 0001:00026E7F  8399 0001:00026E8B
  8400 0001:00026E97  8401 0001:00026EA3  8402 0001:00026EAE  8404 0001:00026EB9
  8408 0001:00026EC4  8409 0001:00026ED8  8410 0001:00026EDF  8411 0001:00026EE1
  8417 0001:00026EE6  8418 0001:00026F46  8420 0001:00026F52  8422 0001:00026F5E
  8423 0001:00026F6A  8424 0001:00026F76  8425 0001:00026F82  8426 0001:00026F8E
  8427 0001:00026F99  8429 0001:00026FA4  8433 0001:00026FAF  8434 0001:00026FC3
  8435 0001:00026FCA  8436 0001:00026FCC  8443 0001:00026FD1  8444 0001:00027031
  8446 0001:0002704D  8448 0001:00027069  8449 0001:00027082  8450 0001:0002709A
  8451 0001:000270B3  8452 0001:000270CB  8453 0001:000270E3  8454 0001:000270FA
  8457 0001:00027113  8458 0001:00027127  8459 0001:0002712E  8460 0001:00027130
  8467 0001:00027135  8468 0001:0002718F  8469 0001:000271A3  8470 0001:000271B7
  8471 0001:000271CB  8472 0001:000271DC  8473 0001:000271ED  8474 0001:000271FD
  8476 0001:0002720D  8480 0001:0002721D  8481 0001:00027231  8482 0001:00027233
  8483 0001:0002723A  8489 0001:0002723C  8490 0001:00027250  8491 0001:00027252
  8492 0001:00027259  8495 0001:0002725B  8496 0001:00027262  8500 0001:00027266
  8501 0001:0002727A  8502 0001:0002727C  8507 0001:0002727E  8508 0001:00027280
  8513 0001:00027288  8514 0001:0002728C  8515 0001:00027296  8517 0001:0002729C
  8518 0001:0002729E  8520 0001:000272A1  8522 0001:000272AF  8523 0001:000272B7
  8524 0001:000272B9  8526 0001:000272BC  8527 0001:000272BF  8532 0001:000272C4
  8533 0001:000272D6  8535 0001:000272DA  8536 0001:000272DC  8538 0001:000272E2
  8539 0001:000272E4  8541 0001:000272E8  8543 0001:000272F2  8544 0001:000272F8
  8546 0001:00027306  8547 0001:0002730A  8548 0001:0002730C  8552 0001:0002730E
  8553 0001:00027310  8556 0001:00027312  8558 0001:0002731C  8559 0001:0002732D
  8561 0001:00027331  8562 0001:00027333  8565 0001:00027335  8567 0001:00027343
  8568 0001:00027347  8570 0001:00027349  8572 0001:00027354  8573 0001:00027361
  8574 0001:00027363  8576 0001:00027365  8577 0001:0002736E  8578 0001:00027370
  8579 0001:00027372  8584 0001:0002737C  8585 0001:0002738A  8586 0001:000273A8
  8588 0001:000273C1  8589 0001:000273DB  8590 0001:000273E9  8591 0001:000273F7
  8592 0001:000273FF  8595 0001:00027408  8596 0001:00027418  8597 0001:00027427
  8599 0001:0002742B  8603 0001:00027433  8605 0001:00027446  8606 0001:0002744D
  8607 0001:00027454  8608 0001:00027456  8611 0001:00027458  8613 0001:00027474
  8614 0001:0002747B  8615 0001:00027482  8616 0001:00027484  8618 0001:00027486
  8620 0001:0002748A  8622 0001:00027496  8623 0001:00027499  8626 0001:000274AF
  8635 0001:000274B8  8636 0001:000274C9  8637 0001:000274D8  8638 0001:000274E6
  8640 0001:00027507  8641 0001:0002750E  8642 0001:00027513  8645 0001:0002751D
  8647 0001:0002752C  8648 0001:00027533  8649 0001:00027537  8650 0001:00027545
  8652 0001:00027549  8653 0001:00027550  8654 0001:00027555  8656 0001:0002755F
  8658 0001:00027567  8662 0001:0002756C  8665 0001:00027570  8666 0001:0002757F
  8669 0001:00027588  8670 0001:00027598  8671 0001:000275A9  8673 0001:000275B1
  8675 0001:000275BB  8676 0001:000275C1  8678 0001:000275D5  8680 0001:000275DF
  8681 0001:000275EE  8682 0001:00027604  8683 0001:0002760B  8686 0001:00027617
  8688 0001:00027621  8689 0001:00027630  8690 0001:0002764A  8691 0001:00027655
  8694 0001:00027665  8696 0001:0002766F  8697 0001:0002767E  8698 0001:0002768F
  8700 0001:00027692  8702 0001:000276A4  8703 0001:000276B8  8704 0001:000276C7
  8700 0001:000276C8  8707 0001:000276CB  8709 0001:000276F2  8712 0001:00027702
  8719 0001:0002770C  8720 0001:00027716  8721 0001:0002772D  8723 0001:0002773A
  8727 0001:00027748  8728 0001:00027750  8729 0001:00027756  8732 0001:00027765
  8734 0001:00027778  8735 0001:0002777F  8736 0001:00027781  8739 0001:00027783
  8741 0001:0002779C  8742 0001:000277A3  8745 0001:000277A5  8753 0001:000277B0
  8754 0001:000277BD  8755 0001:000277BF  8757 0001:000277CE  8758 0001:000277E5
  8759 0001:000277EC  8761 0001:000277FB  8762 0001:00027821  8763 0001:00027825
  8765 0001:00027836  8766 0001:00027843  8767 0001:00027847  8769 0001:00027858
  8771 0001:00027870  8773 0001:0002788E  8774 0001:00027890  8776 0001:00027892
  8769 0001:00027895  8778 0001:0002789A  8779 0001:000278A4  8780 0001:000278B0
  8782 0001:000278C4  8783 0001:000278D5  8784 0001:000278D7  8786 0001:000278DC
  8788 0001:000278EB  8789 0001:000278ED  8791 0001:000278F2  8793 0001:00027904
  8795 0001:00027919  8797 0001:0002792C  8798 0001:0002792E  8800 0001:00027933
  8802 0001:00027968  8804 0001:0002797A  8806 0001:00027992  8807 0001:0002799A
  8808 0001:0002799C  8812 0001:000279A1  8814 0001:000279B9  8815 0001:000279C1
  8816 0001:000279C3  8819 0001:000279C8  8821 0001:000279EE  8823 0001:00027A02
  8824 0001:00027A0A  8825 0001:00027A0C  8828 0001:00027A0E  8830 0001:00027A35
  8831 0001:00027A37  8833 0001:00027A39  8834 0001:00027A46  8836 0001:00027A6C
  8837 0001:00027A6E  8839 0001:00027A70  8841 0001:00027A78  8842 0001:00027A80
  8844 0001:00027A82  8857 0001:00027A88  8858 0001:00027A94  8860 0001:00027AA8
  8861 0001:00027ABA  8862 0001:00027ACE  8863 0001:00027ADF  8858 0001:00027AE0
  8864 0001:00027AE3  8865 0001:00027AF4  8866 0001:00027AFE  8867 0001:00027B07
  8868 0001:00027B12  8870 0001:00027B1B  8872 0001:00027B29  8874 0001:00027B32
  8876 0001:00027B4F  8877 0001:00027B51  8878 0001:00027B5C  8881 0001:00027B5E
  8884 0001:00027B69  8885 0001:00027B6B  8887 0001:00027B74  8888 0001:00027B83
  8889 0001:00027B89  8890 0001:00027B8D  8892 0001:00027B97  8893 0001:00027BA8
  8895 0001:00027BAD  8897 0001:00027BB1  8899 0001:00027BCF  8900 0001:00027BE0
  8903 0001:00027BE8  8904 0001:00027BED  8906 0001:00027BF3  8908 0001:00027C06
  8909 0001:00027C0D  8912 0001:00027C12  8914 0001:00027C24  8916 0001:00027C3A
  8917 0001:00027C41  8920 0001:00027C46  8922 0001:00027C5D  8923 0001:00027C6C
  8925 0001:00027C76  8927 0001:00027C9E  8929 0001:00027CAF  8930 0001:00027CB8
  8931 0001:00027CC1  8933 0001:00027CCA  8934 0001:00027CD1  8936 0001:00027CD6
  8938 0001:00027CF7  8940 0001:00027D0A  8941 0001:00027D11  8943 0001:00027D16
  8944 0001:00027D23  8945 0001:00027D32  8946 0001:00027D41  8950 0001:00027D4B
  8951 0001:00027D51  8952 0001:00027D68  8954 0001:00027D71  8957 0001:00027D9A
  8959 0001:00027DAA  8961 0001:00027DBE  8962 0001:00027DC5  8965 0001:00027DCA
  8920 0001:00027DCB  8966 0001:00027DD4  8968 0001:00027DD8  8970 0001:00027DE5
  8972 0001:00027DF8  8973 0001:00027DFF  8974 0001:00027E13  8977 0001:00027E15
  8979 0001:00027E27  8980 0001:00027E34  8982 0001:00027E48  8983 0001:00027E55
  8985 0001:00027E66  8986 0001:00027E6A  8987 0001:00027E77  8989 0001:00027E82
  8990 0001:00027E86  8992 0001:00027E88  8993 0001:00027E8C  9001 0001:00027EA8
  9002 0001:00027ED0  9003 0001:00027EDE  9005 0001:00027EFF  9006 0001:00027F16
  9008 0001:00027F34  9009 0001:00027F46  9011 0001:00027F50  9003 0001:00027F53
  9012 0001:00027F58  9014 0001:00027F7D  9015 0001:00027F94  9017 0001:00027FB6
  9018 0001:00027FC8  9019 0001:00027FCD  9021 0001:00027FDE  9023 0001:00027FF7
  9024 0001:00027FFE  9026 0001:00028000  9019 0001:00028001  9027 0001:00028004
  9029 0001:0002800E  9030 0001:0002801F  9031 0001:00028021  9032 0001:00028028
  9035 0001:0002802D  9036 0001:0002803F  9037 0001:00028046  9039 0001:00028057
  9041 0001:00028070  9042 0001:00028075  9044 0001:00028077  9037 0001:00028078
  9045 0001:0002807B  9047 0001:00028081  9048 0001:00028092  9049 0001:00028094
  9050 0001:0002809B  9053 0001:0002809D  9012 0001:000280A0  9054 0001:000280A9
  9055 0001:000280B0  9056 0001:000280B2  9070 0001:000280E8  9071 0001:000280F7
  9072 0001:00028104  9073 0001:00028108  9074 0001:00028111  9076 0001:0002811C
  9077 0001:00028129  9079 0001:0002812E  9080 0001:0002813D  9082 0001:00028147
  9086 0001:00028160  9087 0001:0002816D  9088 0001:00028175  9091 0001:0002817A
  9093 0001:00028185  9094 0001:00028192  9095 0001:0002819A  9097 0001:0002819F
  9098 0001:000281A8  9099 0001:000281B6  9101 0001:000281BA  9102 0001:000281C2
  9104 0001:000281C7  9105 0001:000281D2  9106 0001:000281D8  9107 0001:000281E3
  9110 0001:000281E9  9111 0001:000281F6  9112 0001:000281FE  9113 0001:00028205
  9115 0001:0002820A  9116 0001:00028213  9117 0001:00028222  9119 0001:00028228
  9120 0001:00028230  9121 0001:00028237  9123 0001:0002823C  9125 0001:00028247
  9126 0001:00028254  9127 0001:0002825C  9128 0001:00028263  9129 0001:0002826B
  9131 0001:00028270  9132 0001:00028279  9134 0001:0002828C  9135 0001:00028294
  9136 0001:0002829B  9137 0001:000282A3  9139 0001:000282A8  9140 0001:000282AF
  9141 0001:000282C8  9142 0001:000282E6  9144 0001:0002830C  9145 0001:00028314
  9146 0001:0002831C  9147 0001:00028324  9149 0001:00028329  9150 0001:00028336
  9152 0001:0002833C  9156 0001:0002834B  9158 0001:00028358  9160 0001:00028391
  9161 0001:00028399  9162 0001:000283A1  9163 0001:000283A9  9165 0001:000283AE
  9166 0001:000283B6  9167 0001:000283BE  9168 0001:000283C6  9169 0001:000283D3
  9170 0001:000283F0  9171 0001:00028400  9172 0001:0002840F  9173 0001:0002842D
  9174 0001:00028435  9175 0001:00028446  9176 0001:0002844E  9177 0001:0002845F
  9178 0001:00028473  9179 0001:00028477  9181 0001:00028484  9182 0001:0002848B
  9183 0001:00028493  9184 0001:0002849B  9185 0001:000284A5  9186 0001:000284AF
  9187 0001:000284B7  9188 0001:000284BF  9190 0001:000284C4  9191 0001:000284CB
  9192 0001:000284E9  9194 0001:000284FC  9195 0001:00028504  9196 0001:0002850C
  9197 0001:00028516  9198 0001:00028520  9199 0001:00028528  9200 0001:00028530
  9202 0001:00028535  9203 0001:0002853B  9205 0001:0002854A  9206 0001:00028557
  9208 0001:0002856A  9209 0001:00028572  9210 0001:0002857A  9211 0001:00028584
  9212 0001:0002858E  9213 0001:00028596  9214 0001:0002859E  9216 0001:000285A3
  9217 0001:000285AB  9218 0001:000285B8  9219 0001:000285E6  9220 0001:00028614
  9222 0001:00028629  9223 0001:00028638  9224 0001:00028667  9220 0001:0002866A
  9225 0001:0002866D  9227 0001:00028682  9228 0001:00028691  9229 0001:000286A8
  9225 0001:000286AB  9230 0001:000286AE  9231 0001:000286B8  9232 0001:000286C2
  9233 0001:000286CA  9234 0001:000286D2  9235 0001:000286DA  9236 0001:000286E2
  9238 0001:00028710  9239 0001:00028714  9241 0001:00028716  9242 0001:0002871A
  9251 0001:00028728  9252 0001:00028731  9253 0001:00028735  9254 0001:00028746
  9255 0001:00028753  9256 0001:00028761  9258 0001:00028769  9260 0001:00028778
  9261 0001:0002877F  9262 0001:00028790  9264 0001:00028795  9265 0001:000287B6
  9266 0001:000287D4  9267 0001:000287E0  9268 0001:000287F5  9269 0001:00028801
  9270 0001:00028816  9272 0001:00028829  9273 0001:00028830  9274 0001:00028838
  9275 0001:00028846  9276 0001:00028854  9277 0001:00028860  9278 0001:0002886C
  9280 0001:00028871  9281 0001:00028878  9282 0001:00028885  9283 0001:00028892
  9284 0001:000288A2  9285 0001:000288BF  9287 0001:000288D2  9288 0001:000288E6
  9289 0001:000288EE  9290 0001:000288FC  9291 0001:0002890A  9292 0001:00028916
  9293 0001:00028922  9295 0001:00028927  9296 0001:0002893B  9297 0001:0002893F
  9299 0001:00028950  9300 0001:00028957  9301 0001:0002895F  9302 0001:0002896D
  9303 0001:0002897B  9304 0001:00028987  9305 0001:00028993  9307 0001:00028998
  9308 0001:0002899F  9309 0001:000289B0  9310 0001:000289BD  9311 0001:000289EB
  9312 0001:00028A17  9314 0001:00028A2B  9315 0001:00028A3D  9316 0001:00028A6C
  9312 0001:00028A6D  9317 0001:00028A70  9319 0001:00028A84  9320 0001:00028A96
  9321 0001:00028AAD  9317 0001:00028AAE  9322 0001:00028AB1  9323 0001:00028ABF
  9324 0001:00028ACD  9325 0001:00028AD9  9326 0001:00028AE5  9327 0001:00028AED
  9329 0001:00028B1A  9330 0001:00028B1E  9332 0001:00028B20  9333 0001:00028B24
  9342 0001:00028B40  9343 0001:00028B49  9344 0001:00028B4B  9345 0001:00028B5C
  9346 0001:00028B69  9347 0001:00028B75  9348 0001:00028B8A  9349 0001:00028B96
  9350 0001:00028BAB  9351 0001:00028BCC  9352 0001:00028BEA  9353 0001:00028BFE
  9354 0001:00028C02  9356 0001:00028C13  9357 0001:00028C1A  9358 0001:00028C28
  9359 0001:00028C36  9360 0001:00028C42  9361 0001:00028C4E  9362 0001:00028C56
  9364 0001:00028C5B  9365 0001:00028C62  9366 0001:00028C6F  9367 0001:00028C7D
  9369 0001:00028C81  9370 0001:00028C8F  9371 0001:00028C9D  9372 0001:00028CA9
  9373 0001:00028CB5  9374 0001:00028CBD  9376 0001:00028CC2  9377 0001:00028CE0
  9379 0001:00028CF3  9380 0001:00028CFA  9381 0001:00028D02  9382 0001:00028D10
  9383 0001:00028D1E  9384 0001:00028D2A  9385 0001:00028D36  9387 0001:00028D3B
  9388 0001:00028D42  9389 0001:00028D4F  9390 0001:00028D5F  9391 0001:00028D7C
  9393 0001:00028D8F  9394 0001:00028DA3  9395 0001:00028DAB  9396 0001:00028DB9
  9397 0001:00028DC7  9398 0001:00028DD3  9399 0001:00028DDF  9401 0001:00028DE4
  9403 0001:00028E10  9405 0001:00028E24  9406 0001:00028E36  9407 0001:00028E65
  9403 0001:00028E66  9408 0001:00028E69  9410 0001:00028E7D  9411 0001:00028E8F
  9412 0001:00028EA6  9408 0001:00028EA7  9413 0001:00028EAA  9414 0001:00028EB8
  9415 0001:00028EC6  9416 0001:00028ED2  9417 0001:00028EDE  9418 0001:00028EE6
  9420 0001:00028F14  9421 0001:00028F16  9423 0001:00028F18  9424 0001:00028F1A
  9431 0001:00028F34  9432 0001:00028F43  9433 0001:00028F47  9434 0001:00028F54
  9435 0001:00028F61  9436 0001:00028F6F  9438 0001:00028F77  9440 0001:00028F86
  9441 0001:00028F8D  9442 0001:00028F9E  9444 0001:00028FA3  9445 0001:00028FC3
  9447 0001:00028FD5  9448 0001:00028FDC  9449 0001:00028FE3  9451 0001:00028FE8
  9452 0001:00028FEF  9453 0001:00028FF8  9455 0001:0002900A  9456 0001:0002901E
  9457 0001:00029025  9459 0001:0002902A  9460 0001:00029033  9461 0001:0002903A
  9462 0001:00029043  9463 0001:0002904F  9464 0001:00029068  9465 0001:00029075
  9466 0001:00029085  9467 0001:00029089  9469 0001:0002909A  9470 0001:000290A1
  9472 0001:000290A6  9473 0001:000290AD  9475 0001:000290C0  9476 0001:000290C9
  9477 0001:000290D5  9478 0001:000290F1  9479 0001:0002910D  9480 0001:0002911A
  9481 0001:0002912A  9482 0001:0002912E  9484 0001:0002913F  9485 0001:00029146
  9487 0001:00029148  9488 0001:0002914F  9492 0001:00029177  9494 0001:0002919F
  9495 0001:000291A3  9501 0001:000291C0  9502 0001:000291DC  9503 0001:000291EF
  9505 0001:0002920E  9506 0001:00029224  9507 0001:00029236  9509 0001:00029246
  9510 0001:00029258  9512 0001:00029272  9513 0001:00029288  9514 0001:000292AD
  9515 0001:000292C3  9516 0001:000292D0  9518 0001:000292DF  9519 0001:000292E4
  9520 0001:000292EB  9522 0001:000292ED  9523 0001:000292FE  9524 0001:00029300
  9528 0001:00029302  9503 0001:00029303  9529 0001:0002930A  9530 0001:0002930F
  9535 0001:00029338  9536 0001:0002933E  9537 0001:00029340  9538 0001:00029351
  9539 0001:0002935F  9541 0001:00029367  9543 0001:0002937C  9545 0001:0002938B
  9546 0001:0002939C  9547 0001:000293A3  9549 0001:000293A8  9550 0001:000293B5
  9551 0001:000293C3  9553 0001:000293C7  9554 0001:000293CE  9556 0001:000293D3
  9558 0001:000293E5  9559 0001:000293EC  9560 0001:000293F3  9562 0001:000293F5
  9563 0001:000293FC  9564 0001:00029405  9566 0001:00029416  9567 0001:00029426
  9568 0001:0002942D  9571 0001:0002942F  9572 0001:00029443  9573 0001:0002944A
  9574 0001:0002944C  9579 0001:0002944E  9580 0001:00029450  9582 0001:00029452
  9583 0001:00029454  9595 0001:00029468  9596 0001:0002946F  9597 0001:0002947D
  9598 0001:00029490  9599 0001:00029493  9600 0001:00029497  9603 0001:000294A0
  9604 0001:000294AA  9606 0001:000294AE  9607 0001:000294B2  9609 0001:000294B6
  9612 0001:000294BA  9613 0001:000294C8  9614 0001:000294D7  9615 0001:000294DB
  9616 0001:000294EE  9617 0001:000294F1  9619 0001:000294F4  9621 0001:000294FC
  9622 0001:0002950B  9623 0001:00029518  9624 0001:00029521  9625 0001:00029530
  9627 0001:00029536  9628 0001:0002953A  9630 0001:0002953F  9632 0001:0002954A
  9633 0001:00029557  9634 0001:0002955F  9635 0001:00029563  9637 0001:00029568
  9638 0001:00029571  9639 0001:0002958E  9641 0001:000295A2  9642 0001:000295AA
  9643 0001:000295B2  9644 0001:000295B6  9646 0001:000295BB  9647 0001:000295C3
  9648 0001:000295D2  9649 0001:000295EB  9651 0001:00029609  9654 0001:0002960B
  9655 0001:0002961A  9657 0001:00029620  9658 0001:00029627  9659 0001:0002962F
  9660 0001:00029637  9661 0001:0002963F  9662 0001:00029643  9664 0001:00029648
  9665 0001:00029656  9666 0001:00029662  9667 0001:00029666  9668 0001:00029675
  9669 0001:0002967B  9670 0001:00029688  9671 0001:00029695  9672 0001:000296A0
  9674 0001:000296AB  9675 0001:000296B8  9676 0001:000296BF  9677 0001:000296C7
  9678 0001:000296CF  9679 0001:000296D7  9680 0001:000296DB  9682 0001:000296E0
  9652 0001:000296E9  9684 0001:000296EE  9685 0001:000296F7  9687 0001:0002970A
  9688 0001:00029712  9689 0001:00029719  9690 0001:00029721  9691 0001:00029725
  9693 0001:0002972A  9694 0001:00029731  9695 0001:0002973E  9696 0001:0002974E
  9697 0001:0002976B  9698 0001:0002977A  9699 0001:0002978E  9700 0001:00029792
  9702 0001:0002979F  9703 0001:000297A6  9704 0001:000297AE  9705 0001:000297B6
  9706 0001:000297BE  9707 0001:000297C2  9709 0001:000297C7  9710 0001:000297CE
  9711 0001:000297DB  9712 0001:000297EB  9713 0001:00029810  9714 0001:0002983C
  9715 0001:0002984B  9717 0001:0002985A  9718 0001:0002985E  9719 0001:00029872
  9720 0001:00029876  9722 0001:00029883  9723 0001:0002988A  9724 0001:00029892
  9725 0001:0002989A  9726 0001:000298A2  9727 0001:000298A6  9729 0001:000298AB
  9730 0001:000298B2  9731 0001:000298C1  9733 0001:000298CC  9734 0001:000298D9
  9735 0001:000298E1  9736 0001:000298E9  9737 0001:000298F1  9738 0001:000298F5
  9741 0001:000298FA  9742 0001:00029909  9743 0001:00029912  9745 0001:00029920
  9746 0001:00029973  9743 0001:00029974  9747 0001:00029977  9748 0001:0002997F
  9749 0001:00029987  9750 0001:0002998F  9752 0001:00029997  9754 0001:000299A7
  9756 0001:000299B8  9758 0001:000299D7  9752 0001:000299D8  9760 0001:000299DB
  9762 0001:000299E3  9764 0001:000299F3  9766 0001:00029A04  9768 0001:00029A23
  9762 0001:00029A24  9770 0001:00029A27  9772 0001:00029A55  9773 0001:00029A59
  9775 0001:00029A5B  9776 0001:00029A5F  9781 0001:00029A6C  9782 0001:00029A86
  9783 0001:00029A97  9784 0001:00029AA4  9785 0001:00029AB7  9787 0001:00029AD6
  9788 0001:00029AEC  9789 0001:00029AFE  9791 0001:00029B0E  9792 0001:00029B20
  9794 0001:00029B36  9795 0001:00029B43  9796 0001:00029B50  9797 0001:00029B60
  9798 0001:00029BAA  9799 0001:00029BAC  9802 0001:00029BAE  9785 0001:00029BAF
  9803 0001:00029BB6  9804 0001:00029BD2  9805 0001:00029BD4  9812 0001:00029C08
  9813 0001:00029C0F  9814 0001:00029C20  9815 0001:00029C35  9817 0001:00029C3C
  9819 0001:00029C49  9820 0001:00029C57  9822 0001:00029C5B  9823 0001:00029C63
  9824 0001:00029C65  9826 0001:00029C6A  9827 0001:00029C7D  9829 0001:00029C8F
  9830 0001:00029CA0  9831 0001:00029CA8  9832 0001:00029CAA  9835 0001:00029CAF
  9836 0001:00029CBD  9837 0001:00029CCD  9838 0001:00029CD3  9839 0001:00029CD7
  9840 0001:00029CDA  9841 0001:00029CFA  9843 0001:00029D0D  9844 0001:00029D14
  9845 0001:00029D1C  9846 0001:00029D1E  9848 0001:00029D23  9850 0001:00029D30
  9852 0001:00029D42  9853 0001:00029D49  9855 0001:00029D4B  9857 0001:00029D53
  9858 0001:00029D64  9859 0001:00029D6C  9860 0001:00029D6E  9862 0001:00029D70
  9863 0001:00029D7D  9865 0001:00029D82  9867 0001:00029D94  9868 0001:00029D9C
  9869 0001:00029D9E  9871 0001:00029DA0  9872 0001:00029DA8  9873 0001:00029DAA
  9879 0001:00029DB0  9880 0001:00029DB6  9881 0001:00029DC3  9882 0001:00029DD0
  9883 0001:00029DEE  9884 0001:00029DFC  9885 0001:00029E0A  9886 0001:00029E18
  9887 0001:00029E26  9888 0001:00029E3A  9889 0001:00029E3E  9891 0001:00029E53
  9892 0001:00029E5A  9893 0001:00029E67  9894 0001:00029E74  9896 0001:00029E8A
  9897 0001:00029E91  9898 0001:00029EBD  9899 0001:00029ED1  9900 0001:00029ED5
  9902 0001:00029EEA  9903 0001:00029EF1  9904 0001:00029EFE  9905 0001:00029F0B
  9907 0001:00029F20  9908 0001:00029F4C  9909 0001:00029F60  9910 0001:00029F64
  9911 0001:00029F71  9913 0001:00029F82  9914 0001:00029F89  9916 0001:00029F98
  9917 0001:00029FA5  9919 0001:00029FB4  9920 0001:00029FC5  9921 0001:00029FC7
  9923 0001:00029FCC  9924 0001:00029FDA  9926 0001:00029FE1  9927 0001:00029FF2
  9928 0001:00029FF4  9930 0001:00029FF9  9931 0001:0002A00B  9932 0001:0002A019
  9934 0001:0002A025  9935 0001:0002A02C  9936 0001:0002A058  9937 0001:0002A06C
  9938 0001:0002A070  9940 0001:0002A085  9941 0001:0002A08C  9942 0001:0002A099
  9943 0001:0002A0A6  9945 0001:0002A0BB  9946 0001:0002A0E7  9947 0001:0002A0F4
  9948 0001:0002A108  9949 0001:0002A10C  9951 0001:0002A11D  9952 0001:0002A124
  9954 0001:0002A133  9955 0001:0002A140  9957 0001:0002A14F  9958 0001:0002A160
  9959 0001:0002A162  9961 0001:0002A164  9962 0001:0002A16F  9964 0001:0002A176
  9965 0001:0002A187  9966 0001:0002A189  9968 0001:0002A18B  9969 0001:0002A19A
  9971 0001:0002A1A5  9972 0001:0002A1B0  9973 0001:0002A1DC  9974 0001:0002A1DE
  9979 0001:0002A1E4  9980 0001:0002A1F3  9981 0001:0002A1F5  9987 0001:0002A208
  9991 0001:0002A212  9994 0001:0002A2BB  9996 0001:0002A2CA  9997 0001:0002A2E4
 10001 0001:0002A2E9 10003 0001:0002A2F8 10004 0001:0002A312 10008 0001:0002A317
 10010 0001:0002A326 10011 0001:0002A340 10015 0001:0002A345 10019 0001:0002A35F
 10020 0001:0002A36D 10025 0001:0002A372 10026 0001:0002A383 10027 0001:0002A387
 10029 0001:0002A395 10030 0001:0002A39C 10032 0001:0002A3A1 10034 0001:0002A3A8
 10035 0001:0002A3B2 10036 0001:0002A3CC 10040 0001:0002A3D1 10041 0001:0002A3D7
 10042 0001:0002A3F1 10046 0001:0002A3F6 10047 0001:0002A401 10053 0001:0002A40E
 10054 0001:0002A41C 10056 0001:0002A421 10057 0001:0002A43B 10061 0001:0002A440
 10065 0001:0002A44D 10066 0001:0002A45B 10071 0001:0002A460 10073 0001:0002A46F
 10074 0001:0002A489 10078 0001:0002A48E 10080 0001:0002A49D 10081 0001:0002A4B7
 10085 0001:0002A4BC 10087 0001:0002A4CB 10088 0001:0002A4E5 10092 0001:0002A4EA
 10093 0001:0002A4F5 10094 0001:0002A4FF 10098 0001:0002A50E 10100 0001:0002A51D
 10101 0001:0002A537 10105 0001:0002A53C 10107 0001:0002A54B 10108 0001:0002A565
 10112 0001:0002A56A 10117 0001:0002A580 10119 0001:0002A599 10121 0001:0002A5A2
 10122 0001:0002A5B0 10124 0001:0002A5B5 10125 0001:0002A5BF 10126 0001:0002A5CC
 10127 0001:0002A5F7 10128 0001:0002A601 10129 0001:0002A61B 10130 0001:0002A620
 10132 0001:0002A639 10134 0001:0002A642 10135 0001:0002A650 10137 0001:0002A655
 10138 0001:0002A65F 10139 0001:0002A66C 10140 0001:0002A697 10141 0001:0002A6A1
 10142 0001:0002A6BB 10144 0001:0002A6BD 10146 0001:0002A6CC 10147 0001:0002A6DE
 10167 0001:0002A6E3 10176 0001:0002A719 10177 0001:0002A727 10182 0001:0002A72C
 10183 0001:0002A73A 10187 0001:0002A73F 10188 0001:0002A74D 10192 0001:0002A752
 10195 0001:0002A761 10196 0001:0002A76C 10201 0001:0002A776 10202 0001:0002A780
 10206 0001:0002A795 10207 0001:0002A7A3 10209 0001:0002A7A5 10211 0001:0002A7BA
 10212 0001:0002A7C8 10214 0001:0002A7CA 10219 0001:0002A7D4 10220 0001:0002A7D6
 10224 0001:0002A804 10225 0001:0002A80C 10226 0001:0002A813 10227 0001:0002A81F
 10229 0001:0002A830 10230 0001:0002A851 10227 0001:0002A852 10231 0001:0002A855
 10236 0001:0002A85C 10237 0001:0002A864 10238 0001:0002A86F 10240 0001:0002A873
 10241 0001:0002A875 10243 0001:0002A87A 10245 0001:0002A884 10246 0001:0002A8C3
 10249 0001:0002A8D4 10251 0001:0002A8E5 10252 0001:0002A906 10249 0001:0002A907
 10254 0001:0002A90C 10257 0001:0002A91D 10260 0001:0002A927 10261 0001:0002A92E
 10262 0001:0002A934 10264 0001:0002A937 10265 0001:0002A939 10271 0001:0002A940
 10272 0001:0002A95F 10274 0001:0002A971 10275 0001:0002A97E 10277 0001:0002A98B
 10278 0001:0002A99D 10279 0001:0002A9AD 10280 0001:0002A9AF 10282 0001:0002A9B1
 10272 0001:0002A9B2 10283 0001:0002A9B5 10285 0001:0002A9C5 10286 0001:0002A9D2
 10287 0001:0002A9EA 10288 0001:0002AA11 10283 0001:0002AA12 10289 0001:0002AA17
 10290 0001:0002AA19 10310 0001:0002AA44 10319 0001:0002AA50 10320 0001:0002AA58
 10321 0001:0002AA5F 10323 0001:0002AA69 10324 0001:0002AA79 10323 0001:0002AA8B
 10325 0001:0002AA8E 10326 0001:0002AA98 10328 0001:0002AAA8 10329 0001:0002AAB9
 10326 0001:0002AABA 10330 0001:0002AABD 10331 0001:0002AAC7 10333 0001:0002AAD7
 10334 0001:0002AAE8 10331 0001:0002AAE9 10335 0001:0002AAEC 10336 0001:0002AAF6
 10337 0001:0002AAFD 10338 0001:0002AB0D 10337 0001:0002AB1F 10339 0001:0002AB22
 10340 0001:0002AB2C 10341 0001:0002AB33 10343 0001:0002AB43 10344 0001:0002AB4F
 10345 0001:0002AB54 10341 0001:0002AB55 10346 0001:0002AB58 10349 0001:0002AB62
 10350 0001:0002AB70 10349 0001:0002AB82 10351 0001:0002AB87 10354 0001:0002AB91
 10356 0001:0002AB9F 10357 0001:0002ABB0 10354 0001:0002ABB1 10358 0001:0002ABB6
 10359 0001:0002ABC0 10361 0001:0002ABCE 10362 0001:0002ABDF 10359 0001:0002ABE0
 10363 0001:0002ABE5 10364 0001:0002ABEF 10384 0001:0002ABF6 10389 0001:0002ABFC
 10390 0001:0002AC12 10391 0001:0002AC36 10396 0001:0002AC58 10397 0001:0002AC63
 10398 0001:0002AC69 10399 0001:0002AC86 10400 0001:0002AC9A 10401 0001:0002ACB7
 10404 0001:0002ACC0 10405 0001:0002ACC7 10406 0001:0002ACD9 10409 0001:0002ACDC
 10410 0001:0002ACE2 10411 0001:0002ACF1 10412 0001:0002AD92 10416 0001:0002ADA5
 10417 0001:0002ADB7 10419 0001:0002ADD8 10421 0001:0002ADED 10422 0001:0002AE02
 10423 0001:0002AE17 10424 0001:0002AE2C 10425 0001:0002AE41 10456 0001:0002AE56
 10428 0001:0002AE60 10432 0001:0002AE7A 10456 0001:0002AE90 10433 0001:0002AE9A
 10437 0001:0002AEB4 10438 0001:0002AEBF 10439 0001:0002AED6 10440 0001:0002AEDE
 10442 0001:0002AEF2 10444 0001:0002AF07 10445 0001:0002AF1C 10446 0001:0002AF31
 10448 0001:0002AF46 10450 0001:0002AF5B 10456 0001:0002AF6D 10461 0001:0002AF70
 10462 0001:0002AF7C 10463 0001:0002AF8E 10465 0001:0002AFA5 10466 0001:0002AFC6
 10467 0001:0002AFD2 10468 0001:0002AFF3 10469 0001:0002B00C 10471 0001:0002B025
 10472 0001:0002B040 10469 0001:0002B041 10473 0001:0002B044 10463 0001:0002B045
 10474 0001:0002B04E 10485 0001:0002B058 10486 0001:0002B05F 10487 0001:0002B074
 10488 0001:0002B078 10489 0001:0002B097 10490 0001:0002B0A6 10491 0001:0002B0B4
 10492 0001:0002B0C6 10491 0001:0002B0D0 10493 0001:0002B0D3 10495 0001:0002B0EA
 10496 0001:0002B0FF 10497 0001:0002B105 10498 0001:0002B112 10493 0001:0002B113
 10499 0001:0002B116 10501 0001:0002B128 10502 0001:0002B134 10503 0001:0002B13A
 10505 0001:0002B147 10506 0001:0002B14F 10508 0001:0002B166 10510 0001:0002B17F
 10511 0001:0002B186 10513 0001:0002B192 10515 0001:0002B198 10516 0001:0002B19C
 10517 0001:0002B1A6 10518 0001:0002B1AC 10519 0001:0002B1B3 10521 0001:0002B1B9
 10523 0001:0002B1BD 10525 0001:0002B1C3 10528 0001:0002B1D5 10529 0001:0002B1E3
 10531 0001:0002B1EB 10532 0001:0002B205 10534 0001:0002B209 10569 0001:0002B222
 10535 0001:0002B22F 10537 0001:0002B24E 10539 0001:0002B252 10540 0001:0002B25D
 10569 0001:0002B273 10541 0001:0002B27D 10543 0001:0002B299 10545 0001:0002B29D
 10547 0001:0002B2B3 10549 0001:0002B2BF 10550 0001:0002B2CF 10551 0001:0002B2D5
 10552 0001:0002B2E4 10554 0001:0002B2E8 10555 0001:0002B2F2 10556 0001:0002B304
 10557 0001:0002B31B 10556 0001:0002B335 10559 0001:0002B33A 10561 0001:0002B340
 10569 0001:0002B356 10562 0001:0002B360 10564 0001:0002B377 10565 0001:0002B384
 10499 0001:0002B385 10567 0001:0002B399 10569 0001:0002B3A9 10575 0001:0002B3D4
 10576 0001:0002B3DB 10578 0001:0002B3FB 10579 0001:0002B411 10581 0001:0002B417
 10583 0001:0002B42C 10585 0001:0002B445 10586 0001:0002B465 10588 0001:0002B467
 10581 0001:0002B468 10590 0001:0002B46F 10591 0001:0002B47F 10593 0001:0002B485
 10594 0001:0002B491 10595 0001:0002B4A7 10597 0001:0002B4C9 10598 0001:0002B4D5
 10576 0001:0002B4D8 10599 0001:0002B4DF 10609 0001:0002B4E8 10610 0001:0002B504
 10612 0001:0002B524 10613 0001:0002B53A 10614 0001:0002B550 10616 0001:0002B563
 10617 0001:0002B565 10618 0001:0002B583 10619 0001:0002B593 10620 0001:0002B59F
 10621 0001:0002B5AB 10622 0001:0002B5C1 10623 0001:0002B5ED 10624 0001:0002B601
 10651 0001:0002B617 10625 0001:0002B621 10629 0001:0002B63D 10630 0001:0002B63F
 10632 0001:0002B64C 10633 0001:0002B65C 10635 0001:0002B665 10636 0001:0002B67B
 10638 0001:0002B6B5 10640 0001:0002B6C1 10641 0001:0002B6DA 10643 0001:0002B70E
 10644 0001:0002B71E 10645 0001:0002B737 10648 0001:0002B76F 10649 0001:0002B77B
 10650 0001:0002B788 10610 0001:0002B78B 10651 0001:0002B792 10658 0001:0002B7B8
 10659 0001:0002B7C1 10661 0001:0002B7E1 10662 0001:0002B7F7 10664 0001:0002B80A
 10665 0001:0002B810 10666 0001:0002B81D 10667 0001:0002B83B 10669 0001:0002B860
 10670 0001:0002B880 10671 0001:0002B8A1 10673 0001:0002B8C6 10659 0001:0002B8C9
 10674 0001:0002B8D0 10723 0001:0002B8E4 10724 0001:0002B8F3 10726 0001:0002B903
 10729 0001:0002B937 10730 0001:0002B939 10732 0001:0002B93B 10724 0001:0002B93C
 10733 0001:0002B93F 10734 0001:0002B942 10743 0001:0002B958 10744 0001:0002B96E
 10745 0001:0002B97B 10747 0001:0002B992 10748 0001:0002B9A7 10750 0001:0002B9B6
 10751 0001:0002B9C5 10753 0001:0002B9D4 10757 0001:0002B9EE 10759 0001:0002BA09
 10745 0001:0002BA0A 10760 0001:0002BA0D 10761 0001:0002BA1A 10763 0001:0002BA31
 10764 0001:0002BA46 10765 0001:0002BA5E 10761 0001:0002BA5F 10766 0001:0002BA62
 10767 0001:0002BA6F 10768 0001:0002BA80 10773 0001:0002BAD8 10774 0001:0002BADC
 10776 0001:0002BAE8 10778 0001:0002BAFB 10779 0001:0002BAFD 10782 0001:0002BB00
 10783 0001:0002BB09 10784 0001:0002BB10 10785 0001:0002BB1C 10786 0001:0002BB28
 10787 0001:0002BB38 10788 0001:0002BB4B 10789 0001:0002BB5E 10790 0001:0002BB67
 10791 0001:0002BB70 10792 0001:0002BB77 10793 0001:0002BB7E 10794 0001:0002BB85
 10796 0001:0002BB8C 10797 0001:0002BB8E 10803 0001:0002BB94 10804 0001:0002BBB0
 10806 0001:0002BBBC 10807 0001:0002BBBE 10809 0001:0002BBC0 10811 0001:0002BBD9
 10812 0001:0002BBEC 10814 0001:0002BBFB 10816 0001:0002BC24 10817 0001:0002BC26
 10820 0001:0002BC28 10809 0001:0002BC2B 10821 0001:0002BC2E 10822 0001:0002BC30
 10829 0001:0002BC58 10830 0001:0002BC80 10832 0001:0002BC89 10834 0001:0002BC94
 10835 0001:0002BCA1 10836 0001:0002BCA3 10838 0001:0002BCA8 10839 0001:0002BCB3
 10840 0001:0002BCB9 10841 0001:0002BCC1 10842 0001:0002BCD1 10844 0001:0002BCF1
 10845 0001:0002BCFE 10846 0001:0002BD00 10848 0001:0002BD05 10849 0001:0002BD0E
 10851 0001:0002BD19 10852 0001:0002BD26 10853 0001:0002BD28 10855 0001:0002BD2D
 10856 0001:0002BD36 10857 0001:0002BD46 10859 0001:0002BD4A 10860 0001:0002BD4C
 10862 0001:0002BD51 10864 0001:0002BD5C 10865 0001:0002BD69 10866 0001:0002BD6B
 10868 0001:0002BD70 10869 0001:0002BD7E 10870 0001:0002BD89 10874 0001:0002BD9E
 10875 0001:0002BDA4 10876 0001:0002BDAA 10877 0001:0002BDB0 10878 0001:0002BDBD
 10879 0001:0002BDC7 10880 0001:0002BDD1 10881 0001:0002BDD7 10882 0001:0002BDE3
 10883 0001:0002BDEA 10884 0001:0002BDF3 10885 0001:0002BE02 10886 0001:0002BE04
 10900 0001:0002BE3C 10901 0001:0002BE56 10903 0001:0002BE63 10904 0001:0002BE72
 10907 0001:0002BE7F 10909 0001:0002BE8E 10911 0001:0002BE9F 10913 0001:0002BEA7
 10914 0001:0002BEA9 10916 0001:0002BEAE 10920 0001:0002BEC2 10922 0001:0002BED4
 10925 0001:0002BEEE 10926 0001:0002BF01 10927 0001:0002BF09 10928 0001:0002BF0B
 10933 0001:0002BF10 10920 0001:0002BF11 10938 0001:0002BF14 10939 0001:0002BF1F
 10941 0001:0002BF2F 10948 0001:0002BF3D 10951 0001:0002BF5C 10957 0001:0002BF64
 10958 0001:0002BF66 10966 0001:0002BF8E 10968 0001:0002BFA1 10970 0001:0002BFA9
 10971 0001:0002BFAB 10978 0001:0002BFB7 10979 0001:0002BFC4 10980 0001:0002BFD5
 10982 0001:0002BFDC 10983 0001:0002BFED 10985 0001:0002BFEF 10987 0001:0002BFF7
 10989 0001:0002BFF9 10990 0001:0002C006 10992 0001:0002C00B 10994 0001:0002C013
 10995 0001:0002C020 10996 0001:0002C022 11003 0001:0002C060 11004 0001:0002C06E
 11010 0001:0002C072 11011 0001:0002C07A 11012 0001:0002C081 11013 0001:0002C089
 11014 0001:0002C090 11015 0001:0002C09D 11016 0001:0002C0AF 11017 0001:0002C0C1
 11018 0001:0002C0D3 11019 0001:0002C0E5 11020 0001:0002C0F7 11021 0001:0002C109
 11029 0001:0002C11B 11031 0001:0002C12D 11032 0001:0002C143 11034 0001:0002C147
 11035 0001:0002C162 11043 0001:0002C178 11044 0001:0002C180 11046 0001:0002C188
 11048 0001:0002C191 11049 0001:0002C19F 11051 0001:0002C1B1 11052 0001:0002C1B8
 11057 0001:0002C1E0 11058 0001:0002C1F0 11059 0001:0002C1F7 11079 0001:0002C206
 11081 0001:0002C208 11083 0001:0002C214 11085 0001:0002C21D 11086 0001:0002C224
 11088 0001:0002C229 11092 0001:0002C236 11093 0001:0002C244 11094 0001:0002C24B
 11097 0001:0002C250 11107 0001:0002C260 11108 0001:0002C262 11109 0001:0002C266
 11111 0001:0002C272 11112 0001:0002C280 11113 0001:0002C287 11115 0001:0002C28C
 11116 0001:0002C296 11118 0001:0002C2A2 11119 0001:0002C2B0 11120 0001:0002C2B7
 11122 0001:0002C2BC 11124 0001:0002C2CB 11126 0001:0002C2E1 11127 0001:0002C2E3
 11129 0001:0002C2F2 11131 0001:0002C303 11132 0001:0002C305 11134 0001:0002C30E
 11136 0001:0002C32F 11137 0001:0002C331 11138 0001:0002C338 11139 0001:0002C342
 11141 0001:0002C34E 11142 0001:0002C35C 11143 0001:0002C363 11145 0001:0002C368
 11146 0001:0002C372 11148 0001:0002C37E 11149 0001:0002C38C 11150 0001:0002C393
 11152 0001:0002C398 11154 0001:0002C3A7 11156 0001:0002C3BD 11157 0001:0002C3C2
 11159 0001:0002C3C6 11160 0001:0002C3C8 11162 0001:0002C3D7 11163 0001:0002C3DE
 11165 0001:0002C3E3 11168 0001:0002C3F9 11170 0001:0002C403 11172 0001:0002C417
 11173 0001:0002C41E 11176 0001:0002C423 11177 0001:0002C425 11179 0001:0002C439
 11180 0001:0002C440 11184 0001:0002C445 11186 0001:0002C449 11187 0001:0002C44B
 11189 0001:0002C464 11190 0001:0002C46B 11193 0001:0002C470 11195 0001:0002C474
 11196 0001:0002C476 11198 0001:0002C488 11199 0001:0002C48F 11202 0001:0002C494
 11204 0001:0002C498 11205 0001:0002C49A 11207 0001:0002C4A9 11208 0001:0002C4B0
 11211 0001:0002C4B5 11213 0001:0002C4B9 11214 0001:0002C4BB 11216 0001:0002C4CD
 11217 0001:0002C4D4 11220 0001:0002C4D9 11251 0001:0002C4DD 11252 0001:0002C4EC
 11253 0001:0002C4F8 11254 0001:0002C50F 11260 0001:0002C51D 11261 0001:0002C524
 11291 0001:0002C529 11293 0001:0002C547 11294 0001:0002C551 11296 0001:0002C55D
 11297 0001:0002C56B 11298 0001:0002C572 11303 0001:0002C577 11304 0001:0002C585
 11305 0001:0002C58C 11314 0001:0002C591 11316 0001:0002C5A6 11317 0001:0002C5AD
 11321 0001:0002C5B2 11323 0001:0002C5C3 11324 0001:0002C5D2 11326 0001:0002C5E7
 11328 0001:0002C5F9 11329 0001:0002C5FF 11330 0001:0002C605 11332 0001:0002C60B
 11333 0001:0002C612 11335 0001:0002C617 11321 0001:0002C618 11336 0001:0002C61B
 11338 0001:0002C626 11339 0001:0002C62D 11341 0001:0002C632 11343 0001:0002C643
 11345 0001:0002C656 11347 0001:0002C675 11348 0001:0002C688 11349 0001:0002C69B
 11352 0001:0002C6AE 11341 0001:0002C6AF 11354 0001:0002C6B2 11355 0001:0002C6BC
 11366 0001:0002C6C3 11369 0001:0002C704 11370 0001:0002C717 11371 0001:0002C720
 11372 0001:0002C731 11373 0001:0002C73B 11374 0001:0002C74A 11378 0001:0002C752
 11379 0001:0002C761 11382 0001:0002C77C 11383 0001:0002C787 11384 0001:0002C78E
 11386 0001:0002C796 11387 0001:0002C79E 11388 0001:0002C7A6 11389 0001:0002C7B2
 11392 0001:0002C7C0 11393 0001:0002C7C6 11395 0001:0002C7D6 11396 0001:0002C7E0
 11399 0001:0002C7E5 11400 0001:0002C7E7 11415 0001:0002C7EC 11416 0001:0002C7F0
 11417 0001:0002C7FE 11418 0001:0002C814 11419 0001:0002C818 11421 0001:0002C826
 11423 0001:0002C82D 11425 0001:0002C83B 11426 0001:0002C849 11428 0001:0002C857
 11429 0001:0002C865 11430 0001:0002C873 11431 0001:0002C881 11432 0001:0002C88F
 11433 0001:0002C8A6 11434 0001:0002C8B4 11435 0001:0002C8C5 11436 0001:0002C8D6
 11438 0001:0002C8E4 11440 0001:0002C8F2 11441 0001:0002C900 11442 0001:0002C90E
 11443 0001:0002C91C 11444 0001:0002C92A 11445 0001:0002C938 11446 0001:0002C946
 11447 0001:0002C954 11448 0001:0002C979 11450 0001:0002C99A 11452 0001:0002C9A6
 11455 0001:0002C9B0 11457 0001:0002C9BC 11459 0001:0002C9C6 11461 0001:0002C9D2
 11463 0001:0002C9DC 11470 0001:0002CCCC 11471 0001:0002CCEC 11472 0001:0002CCF6
 11473 0001:0002CD00 11474 0001:0002CD0B 11476 0001:0002CD17 11477 0001:0002CD20
 11479 0001:0002CD35 11480 0001:0002CD40 11482 0001:0002CD42 11474 0001:0002CD43
 11483 0001:0002CD48 11484 0001:0002CD4A 11490 0001:0002CD70 11491 0001:0002CD99
 11493 0001:0002CDC0 11494 0001:0002CDCB 11495 0001:0002CDCF 11496 0001:0002CE00
 11497 0001:0002CE0E 11498 0001:0002CE19 11499 0001:0002CE2E 11503 0001:0002CE35
 11504 0001:0002CE42 11505 0001:0002CE4C 11506 0001:0002CE52 11508 0001:0002CE5C
 11517 0001:0002CE90 11518 0001:0002CEB1 11519 0001:0002CEC3 11520 0001:0002CEC7
 11522 0001:0002CED0 11523 0001:0002CEDD 11524 0001:0002CEE1 11526 0001:0002CEE6
 11527 0001:0002CEF4 11528 0001:0002CEFF 11529 0001:0002CF01 11531 0001:0002CF0D
 11532 0001:0002CF19 11534 0001:0002CF2E 11535 0001:0002CF30 11529 0001:0002CF31
 11536 0001:0002CF36 11538 0001:0002CF3A 11539 0001:0002CF47 11540 0001:0002CF4B
 11542 0001:0002CF50 11543 0001:0002CF57 11544 0001:0002CF59 11547 0001:0002CF68
 11548 0001:0002CF8A 11545 0001:0002CF8B 11550 0001:0002CF9A 11552 0001:0002CFA3
 11553 0001:0002CFB0 11554 0001:0002CFB4 11556 0001:0002CFB9 11557 0001:0002CFC0
 11561 0001:0002CFD4 11562 0001:0002CFE3 11564 0001:0002CFE9 11565 0001:0002CFED
 11567 0001:0002CFF2 11568 0001:0002CFFD 11570 0001:0002D01B 11571 0001:0002D028
 11572 0001:0002D02C 11574 0001:0002D031 11577 0001:0002D034 11578 0001:0002D056
 11575 0001:0002D057 11580 0001:0002D071 11585 0001:0002D07C 11587 0001:0002D085
 11588 0001:0002D092 11589 0001:0002D096 11592 0001:0002D098 11559 0001:0002D09F
 11595 0001:0002D0AE 11597 0001:0002D0B7 11598 0001:0002D0C4 11599 0001:0002D0C8
 11601 0001:0002D0CA 11602 0001:0002D0D1 11604 0001:0002D0DA 11605 0001:0002D0E7
 11606 0001:0002D0EB 11608 0001:0002D0ED 11609 0001:0002D0F4 11610 0001:0002D0F8
 11657 0001:0002D294 11658 0001:0002D29A 11660 0001:0002D2B5 11677 0001:0002D2CC
 11678 0001:0002D2E2 11679 0001:0002D2F6 11680 0001:0002D300 11682 0001:0002D315
 11683 0001:0002D32A 11685 0001:0002D33C 11686 0001:0002D348 11687 0001:0002D354
 11688 0001:0002D35E 11689 0001:0002D36B 11691 0001:0002D36D 11680 0001:0002D36E
 11692 0001:0002D373 11693 0001:0002D387 11694 0001:0002D389 11695 0001:0002D3B0
 11696 0001:0002D3B5 11699 0001:0002D40A 11700 0001:0002D414 11701 0001:0002D420
 11703 0001:0002D424 11704 0001:0002D426 11706 0001:0002D42B 11707 0001:0002D437
 11708 0001:0002D43B 11709 0001:0002D43E 11713 0001:0002D445 11714 0001:0002D44F
 11715 0001:0002D45B 11717 0001:0002D45F 11718 0001:0002D461 11720 0001:0002D466
 11721 0001:0002D472 11722 0001:0002D476 11723 0001:0002D479 11727 0001:0002D480
 11728 0001:0002D48A 11729 0001:0002D496 11731 0001:0002D49A 11732 0001:0002D49C
 11734 0001:0002D4A1 11736 0001:0002D4AD 11737 0001:0002D4B4 11738 0001:0002D4B6
 11739 0001:0002D4C7 11741 0001:0002D4CC 11745 0001:0002D4DB 11746 0001:0002D4E9
 11747 0001:0002D4F6 11751 0001:0002D509 11752 0001:0002D517 11753 0001:0002D524
 11754 0001:0002D53B 11758 0001:0002D54A 11759 0001:0002D558 11760 0001:0002D565
 11761 0001:0002D57C 11765 0001:0002D588 11766 0001:0002D596 11767 0001:0002D5A3
 11768 0001:0002D5AF 11770 0001:0002D5B3 11771 0001:0002D5BA 11772 0001:0002D5BC
 11777 0001:0002D5BE 11778 0001:0002D5CF 11783 0001:0002D5D1 11791 0001:0002D5D8
 11792 0001:0002D5E1 11793 0001:0002D5ED 11795 0001:0002D5F5 11796 0001:0002D5FA
 11800 0001:0002D5FF 11801 0001:0002D60C 11802 0001:0002D616 11803 0001:0002D622
 11805 0001:0002D626 11806 0001:0002D62D 11807 0001:0002D632 11809 0001:0002D637
 11810 0001:0002D690 11811 0001:0002D696 11812 0001:0002D69C 11813 0001:0002D6A2
 11814 0001:0002D6A8 11815 0001:0002D6AE 11817 0001:0002D6B4 11819 0001:0002D6B8
 11820 0001:0002D6C6 11821 0001:0002D6C9 11822 0001:0002D6CC 11823 0001:0002D6D3
 11798 0001:0002D6D5 11825 0001:0002D70B 11826 0001:0002D70E 11834 0001:0002D718
 11835 0001:0002D721 11836 0001:0002D72D 11838 0001:0002D735 11839 0001:0002D73A
 11843 0001:0002D73F 11844 0001:0002D74C 11845 0001:0002D756 11846 0001:0002D762
 11848 0001:0002D766 11849 0001:0002D76D 11850 0001:0002D772 11852 0001:0002D774
 11853 0001:0002D78A 11854 0001:0002D790 11855 0001:0002D796 11856 0001:0002D79C
 11858 0001:0002D7A2 11860 0001:0002D7A6 11861 0001:0002D7B4 11862 0001:0002D7B7
 11863 0001:0002D7BA 11864 0001:0002D7C1 11841 0001:0002D7C3 11866 0001:0002D7E7
 11867 0001:0002D7EA 11876 0001:0002D7F4 11877 0001:0002D7FD 11878 0001:0002D809
 11880 0001:0002D811 11881 0001:0002D816 11885 0001:0002D81B 11886 0001:0002D828
 11887 0001:0002D832 11888 0001:0002D83E 11890 0001:0002D842 11891 0001:0002D849
 11892 0001:0002D84E 11894 0001:0002D853 11895 0001:0002D87E 11896 0001:0002D884
 11897 0001:0002D88A 11898 0001:0002D890 11899 0001:0002D896 11900 0001:0002D89C
 11902 0001:0002D8A2 11904 0001:0002D8A6 11905 0001:0002D8B4 11906 0001:0002D8B7
 11907 0001:0002D8BA 11908 0001:0002D8C1 11883 0001:0002D8C3 11910 0001:0002D8D7
 11911 0001:0002D8DA 11917 0001:0002D8E4 11918 0001:0002D8ED 11920 0001:0002D902
 11921 0001:0002D911 11922 0001:0002D91C 11923 0001:0002D92B 11924 0001:0002D93D
 11926 0001:0002D965 11927 0001:0002D96C 11929 0001:0002D973 11930 0001:0002D975
 11932 0001:0002D97A 11933 0001:0002D981 11934 0001:0002D988 11938 0001:0002D99D
 11939 0001:0002D9AE 11941 0001:0002D9C1 11942 0001:0002DA10 11943 0001:0002DA18
 11944 0001:0002DA21 11945 0001:0002DA29 11946 0001:0002DA31 11947 0001:0002DA3A
 11949 0001:0002DA42 11953 0001:0002DA57 11954 0001:0002DA68 11955 0001:0002DA6F
 11956 0001:0002DA71 11960 0001:0002DA76 11961 0001:0002DADC 11962 0001:0002DAE4
 11963 0001:0002DAED 11964 0001:0002DAF2 11965 0001:0002DAF7 11966 0001:0002DAFD
 11968 0001:0002DB02 11970 0001:0002DB17 11971 0001:0002DB22 11972 0001:0002DB2D
 11973 0001:0002DB38 11976 0001:0002DB43 11977 0001:0002DB54 11978 0001:0002DB5B
 11979 0001:0002DB5D 11984 0001:0002DB62 11985 0001:0002DB69 11986 0001:0002DB6B
 11990 0001:0002DB70 11993 0001:0002DB77 11996 0001:0002DBBC 11997 0001:0002DBC8
 11998 0001:0002DBDE 11999 0001:0002DBF7 12001 0001:0002DBFB 12002 0001:0002DC07
 12003 0001:0002DC20 12004 0001:0002DC37 12007 0001:0002DC39 12011 0001:0002DC40
 12012 0001:0002DC4E 12013 0001:0002DC57 12015 0001:0002DC5B 12016 0001:0002DC5D
 12018 0001:0002DC5F 12019 0001:0002DC6A 12020 0001:0002DC71 12023 0001:0002DC7C
 12024 0001:0002DC82 12025 0001:0002DC8C 12055 0001:0002DC90 12056 0001:0002DC95
 12057 0001:0002DCA1 12058 0001:0002DCAD 12059 0001:0002DCB9 12060 0001:0002DCC5
 12061 0001:0002DCD1 12062 0001:0002DCDD 12063 0001:0002DCE9 12064 0001:0002DCF7
 12066 0001:0002DD01 12067 0001:0002DD0D 12069 0001:0002DD11 12070 0001:0002DD1F
 12072 0001:0002DD29 12073 0001:0002DD35 12075 0001:0002DD39 12077 0001:0002DD43
 12078 0001:0002DD4F 12080 0001:0002DD5B 12081 0001:0002DD67 12082 0001:0002DD73
 12083 0001:0002DD7F 12084 0001:0002DD8B 12085 0001:0002DD97 12086 0001:0002DDA3
 12087 0001:0002DDAF 12088 0001:0002DDBB 12089 0001:0002DDC7 12090 0001:0002DDD3
 12091 0001:0002DDDF 12092 0001:0002DDEB 12093 0001:0002DDF7 12094 0001:0002DE03
 12095 0001:0002DE0F 12096 0001:0002DE1B 12097 0001:0002DE27 12098 0001:0002DE33
 12099 0001:0002DE3F 12100 0001:0002DE4B 12101 0001:0002DE57 12102 0001:0002DE63
 12103 0001:0002DE6F 12104 0001:0002DE7B 12105 0001:0002DE87 12106 0001:0002DE98
 12107 0001:0002DEB2 12108 0001:0002DECC 12109 0001:0002DEE6 12110 0001:0002DF00
 12111 0001:0002DF1A 12112 0001:0002DF34 12113 0001:0002DF4E 12114 0001:0002DF68
 12115 0001:0002DF82 12116 0001:0002DF9C 12117 0001:0002DFB6 12118 0001:0002DFD0
 12119 0001:0002DFEA 12121 0001:0002E004 12122 0001:0002E01E 12123 0001:0002E038
 12124 0001:0002E052 12125 0001:0002E06C 12128 0001:0002E086 12129 0001:0002E0A0
 12131 0001:0002E0BA 12132 0001:0002E0D4 12133 0001:0002E0EE 12134 0001:0002E108
 12135 0001:0002E122 12136 0001:0002E12E 12137 0001:0002E13A 12138 0001:0002E146
 12139 0001:0002E152 12140 0001:0002E15E 12145 0001:0002E16F 12146 0001:0002E17B
 12147 0001:0002E187 12148 0001:0002E193 12149 0001:0002E19F 12150 0001:0002E1AB
 12151 0001:0002E1B7 12153 0001:0002E1C3 12154 0001:0002E1CF 12157 0001:0002E1DB
 12159 0001:0002E1EF 12162 0001:0002E1F9 12164 0001:0002E20E 12165 0001:0002E215
 12166 0001:0002E21C 12168 0001:0002E223 12170 0001:0002E238 12171 0001:0002E23F
 12172 0001:0002E246 12176 0001:0002E24D 12178 0001:0002E26E 12179 0001:0002E275
 12180 0001:0002E27C 12181 0001:0002E283 12183 0001:0002E28A 12185 0001:0002E296
 12187 0001:0002E29A 12190 0001:0002E2A6 12232 0001:0002F16C 12233 0001:0002F185
 12234 0001:0002F1AC 12235 0001:0002F1BA 12236 0001:0002F1C4 12237 0001:0002F1CD
 12310 0001:0002F1F4 12311 0001:0002F1FD 12312 0001:0002F211 12316 0001:0002F218
 12317 0001:0002F236 12318 0001:0002F25D 12319 0001:0002F268 12320 0001:0002F28D
 12321 0001:0002F29A 12322 0001:0002F29D 12326 0001:0002F2C8 12327 0001:0002F2D1
 12328 0001:0002F2E5 12376 0001:0002F2EC 12377 0001:0002F312 12378 0001:0002F339
 12379 0001:0002F347 12380 0001:0002F351 12381 0001:0002F35E 12383 0001:0002F362
 12387 0001:0002F369 12388 0001:0002F36E 12390 0001:0002F373 12391 0001:0002F37A
 12392 0001:0002F3AC 12399 0001:0002F3DC 12400 0001:0002F3E4 12401 0001:0002F3EA
 12402 0001:0002F3EC 12405 0001:0002F3F1 12407 0001:0002F3F4 12408 0001:0002F40B
 12410 0001:0002F41A 12411 0001:0002F42A 12413 0001:0002F446 12414 0001:0002F448
 12416 0001:0002F44A 12418 0001:0002F45B 12420 0001:0002F494 12421 0001:0002F496
 12423 0001:0002F498 12416 0001:0002F499 12424 0001:0002F49C 12425 0001:0002F49E
 12430 0001:0002F4A4 12431 0001:0002F4C4 12432 0001:0002F4D9 12434 0001:0002F4E3
 12436 0001:0002F4F5 12437 0001:0002F504 12439 0001:0002F512 12440 0001:0002F51E
 12441 0001:0002F53F 12434 0001:0002F540 12442 0001:0002F545 12460 0001:0002F590
 12461 0001:0002F594 12462 0001:0002F5A2 12463 0001:0002F5AE 12464 0001:0002F5BA
 12466 0001:0002F5C6 12468 0001:0002F5D1 12479 0001:0002F5D4 12480 0001:0002F5F9
 12481 0001:0002F608 12482 0001:0002F60D 12483 0001:0002F61B 12484 0001:0002F636
 12486 0001:0002F664 12487 0001:0002F673 12488 0001:0002F689 12489 0001:0002F697
 12490 0001:0002F69E 12492 0001:0002F6AC 12494 0001:0002F6B7 12496 0001:0002F6C0
 12498 0001:0002F6D2 12499 0001:0002F6E2 12501 0001:0002F6F4 12502 0001:0002F704
 12504 0001:0002F716 12505 0001:0002F726 12499 0001:0002F727 12507 0001:0002F737
 12509 0001:0002F747 12510 0001:0002F74A 12516 0001:0002F794 12517 0001:0002F7C4
 12518 0001:0002F7EB 12519 0001:0002F7F6 12521 0001:0002F80B 12522 0001:0002F80E
 12523 0001:0002F81A 12524 0001:0002F824 12526 0001:0002F826 12527 0001:0002F833
 12528 0001:0002F85A 12529 0001:0002F864 12530 0001:0002F867 12536 0001:0002F894
 12537 0001:0002F8BB 12538 0001:0002F8E2 12539 0001:0002F8ED 12540 0001:0002F8F8
 12542 0001:0002F904 12543 0001:0002F910 12545 0001:0002F925 12540 0001:0002F926
 12546 0001:0002F92B 12547 0001:0002F95C 12683 0001:0002F994 12684 0001:0002F9A6
 12685 0001:0002F9AF 12686 0001:0002F9BE 12687 0001:0002F9C5 12690 0001:0002F9E0
 12691 0001:0002F9EB 12692 0001:0002F9F3 12693 0001:0002F9FF 12696 0001:0002FA10
 12697 0001:0002FA16 12698 0001:0002FA20 12699 0001:0002FA2A 12703 0001:0002FA30
 12704 0001:0002FA34 12709 0001:0002FA38 12710 0001:0002FA3C 12711 0001:0002FA4A
 12712 0001:0002FA54 12715 0001:0002FA5C 12716 0001:0002FA6E 12717 0001:0002FA77
 12718 0001:0002FA86 12723 0001:0002FAA0 12724 0001:0002FAAC 12725 0001:0002FAB8
 12724 0001:0002FAC8 12726 0001:0002FACD 12727 0001:0002FAD5 12728 0001:0002FAE1
 12731 0001:0002FAF0 12732 0001:0002FAF6 12733 0001:0002FB00 12737 0001:0002FB04
 12738 0001:0002FB0A 12744 0001:0002FB0C 12745 0001:0002FB1E 12746 0001:0002FB27
 12747 0001:0002FB36 12750 0001:0002FB50 12751 0001:0002FB5B 12752 0001:0002FB63
 12753 0001:0002FB6F 12756 0001:0002FB80 12757 0001:0002FB86 12758 0001:0002FB90
 12759 0001:0002FB9B 12764 0001:0002FBA0 12765 0001:0002FBB9 12766 0001:0002FBC3
 12767 0001:0002FBD8 12768 0001:0002FBE3 12773 0001:0002FC08 12774 0001:0002FC0E
 12775 0001:0002FC18 12776 0001:0002FC23 12780 0001:0002FC28 12781 0001:0002FC2C
 12788 0001:0002FC30 12789 0001:0002FC42 12790 0001:0002FC4B 12791 0001:0002FC5A
 12792 0001:0002FC69 12793 0001:0002FC78 12794 0001:0002FC87 12799 0001:0002FCA4
 12800 0001:0002FCB0 12801 0001:0002FCB8 12802 0001:0002FCC4 12801 0001:0002FCD4
 12803 0001:0002FCD9 12804 0001:0002FCE1 12805 0001:0002FCE9 12806 0001:0002FCF1
 12807 0001:0002FCFD 12811 0001:0002FD0C 12812 0001:0002FD10 12815 0001:0002FD14
 12816 0001:0002FD1A 12817 0001:0002FD24 12818 0001:0002FD2F 12827 0001:0002FD34
 12828 0001:0002FD46 12829 0001:0002FD4F 12830 0001:0002FD5E 12833 0001:0002FD78
 12834 0001:0002FD83 12835 0001:0002FD8B 12836 0001:0002FD97 12841 0001:0002FDA8
 12842 0001:0002FDAE 12843 0001:0002FDB8 12844 0001:0002FDC2 12848 0001:0002FDC8
 12849 0001:0002FDCC 12854 0001:0002FDD0 12855 0001:0002FDDB 12856 0001:0002FDE3
 12857 0001:0002FDEF 12937 0001:0002FE00 12938 0001:0002FE06 12939 0001:0002FE10
 12940 0001:0002FE1A 13034 0001:0002FE20 13035 0001:0002FE23 13036 0001:0002FE2F
 13039 0001:0002FE34 13040 0001:0002FE55 13041 0001:0002FF11 13042 0001:0002FF3D
 13043 0001:0002FF4E 13044 0001:0002FF5F 13045 0001:0002FF70 13046 0001:0002FF81
 13047 0001:0002FF92 13048 0001:0002FFA3 13049 0001:0002FFB4 13050 0001:0002FFC5
 13051 0001:0002FFD6 13052 0001:00030002 13053 0001:00030013 13054 0001:0003003F
 13055 0001:00030050 13056 0001:00030061 13057 0001:0003008D 13058 0001:0003009E
 13059 0001:000300AF 13060 0001:000300C0 13061 0001:000300D1 13062 0001:000300E2
 13063 0001:000300F3 13064 0001:00030104 13065 0001:00030115 13066 0001:00030126
 13067 0001:00030137 13068 0001:00030148 13069 0001:00030159 13070 0001:0003016A
 13071 0001:00030196 13072 0001:000301A7 13073 0001:000301B8 13074 0001:000301C9
 13075 0001:000301DA 13076 0001:000301EB 13077 0001:000301F9 13078 0001:00030205
 13079 0001:00030213 13080 0001:00030221 13081 0001:0003024A 13082 0001:00030258
 13088 0001:00030266 13090 0001:00030272 13091 0001:0003027B 13097 0001:000302AC
 13098 0001:000302AF 13099 0001:000302BB 13102 0001:000302C0 13103 0001:000302E2
 13104 0001:000302F2 13105 0001:0003031B 13106 0001:00030344 13108 0001:00030350
 13110 0001:0003035C 13115 0001:00030388 13116 0001:0003038B 13117 0001:00030397
 13120 0001:0003039C 13121 0001:000303BE 13122 0001:000303D0 13123 0001:000303DC
 13124 0001:00030405 13125 0001:0003042E 13127 0001:0003043C 13129 0001:00030448
 13134 0001:00030474 13135 0001:00030491 13136 0001:000304EE 13139 0001:00030554
 13140 0001:0003055A 13141 0001:00030560 13142 0001:00030566 13143 0001:00030570
 13155 0001:00030574 13156 0001:0003057F 13157 0001:00030587 13158 0001:00030593
 13164 0001:000305A4 13165 0001:000305AF 13166 0001:000305B7 13167 0001:000305BF
 13168 0001:000305CB 13173 0001:000305DC 13174 0001:000305E7 13175 0001:000305EF
 13176 0001:000305FB 13182 0001:0003060C 13183 0001:00030612 13184 0001:00030618
 13185 0001:0003061E 13186 0001:00030628 13191 0001:0003062C 13192 0001:00030632
 13193 0001:00030638 13194 0001:0003063E 13195 0001:00030648 13200 0001:0003064C
 13201 0001:00030657 13202 0001:0003065F 13203 0001:0003066B 13209 0001:0003067C
 13210 0001:00030688 13211 0001:0003068C 13212 0001:00030693 13215 0001:000306A8
 13216 0001:000306B3 13217 0001:000306B9 13218 0001:000306C1 13219 0001:000306C7
 13220 0001:000306CF 13221 0001:000306DB 13228 0001:000306EC 13229 0001:000306F7
 13230 0001:000306FF 13231 0001:0003070B 13236 0001:0003071C 13237 0001:00030727
 13238 0001:0003072F 13239 0001:00030737 13240 0001:00030743 13248 0001:00030754
 13249 0001:0003075F 13250 0001:00030767 13251 0001:00030773 13256 0001:00030784
 13257 0001:00030796 13258 0001:0003079F 13259 0001:000307AE 13264 0001:000307C8
 13265 0001:000307D5 13267 0001:000307E3 13268 0001:000307F2 13265 0001:000307F3
 13269 0001:000307F6 13270 0001:000307FE 13271 0001:0003080A 13275 0001:0003081C
 13276 0001:00030822 13279 0001:00030824 13280 0001:0003082A 13281 0001:00030834
 13285 0001:00030838 13286 0001:00030840 13291 0001:00030844 13292 0001:0003084B
 13293 0001:00030857 13294 0001:00030861 13295 0001:00030868 13300 0001:0003086C
 13301 0001:00030877 13302 0001:0003087F 13303 0001:00030887 13307 0001:00030898
 13308 0001:000308A3 13309 0001:000308AB 13310 0001:000308B3 13311 0001:000308BF
 13317 0001:000308D0 13318 0001:000308D4 13319 0001:000308E2 13320 0001:000308EC
 13323 0001:000308F4 13324 0001:00030906 13325 0001:0003090F 13326 0001:0003091E
 13340 0001:00030938 13341 0001:00030944 13343 0001:00030950 13344 0001:0003095F
 13341 0001:00030960 13345 0001:00030965 13346 0001:0003096D 13347 0001:00030979
 13351 0001:00030988 13352 0001:0003098E 13355 0001:00030990 13356 0001:00030996
 13357 0001:000309A0 13364 0001:000309A4 13365 0001:000309AC 13368 0001:000309B0
 13369 0001:000309C2 13370 0001:000309CB 13371 0001:000309DA 13381 0001:000309F4
 13382 0001:00030A00 13383 0001:00030A0C 13382 0001:00030A1C 13384 0001:00030A21
 13386 0001:00030A29 13387 0001:00030A35 13391 0001:00030A44 13392 0001:00030A4A
 13395 0001:00030A4C 13396 0001:00030A52 13397 0001:00030A5C 13405 0001:00030A60
 13413 0001:00030A6D 13415 0001:00030A74 13416 0001:00030A87 13417 0001:00030A96
 13418 0001:00030A9D 13420 0001:00030AAD 13421 0001:00030AB9 13458 0001:00030AD8
 13459 0001:00030AE3 13461 0001:00030AF3 13462 0001:00030AF5 13464 0001:00030AFA
 13466 0001:00030B02 13467 0001:00030B05 13468 0001:00030B07 13470 0001:00030B0C
 13471 0001:00030B19 13472 0001:00030B2E 13474 0001:00030B37 13476 0001:00030B47
 13477 0001:00030B53 13479 0001:00030B59 13481 0001:00030B69 13482 0001:00030B75
 13484 0001:00030B8C 13485 0001:00030B98 13486 0001:00030BA5 13487 0001:00030BAB
 13488 0001:00030BAD 13499 0001:00030BF8 13500 0001:00030C1B 13501 0001:00030C21
 13503 0001:00030C2F 13505 0001:00030C3B 13506 0001:00030C4B 13507 0001:00030C60
 13508 0001:00030C69 13509 0001:00030C7A 13510 0001:00030CA4 13511 0001:00030CAD
 13513 0001:00030CBC 13514 0001:00030CC9 13516 0001:00030CDA 13517 0001:00030CEA
 13519 0001:00030CF9 13520 0001:00030D06 13514 0001:00030D07 13521 0001:00030D0A
 13522 0001:00030D1B 13524 0001:00030D25 13526 0001:00030D2A 13527 0001:00030D2C
 13536 0001:00030DA0 13537 0001:00030DAE 13538 0001:00030DB9 13539 0001:00030DBB
 13541 0001:00030DBF 13543 0001:00030DCB 13544 0001:00030DD7 13546 0001:00030DFD
 13547 0001:00030E02 13548 0001:00030E07 13550 0001:00030E09 13541 0001:00030E0A
 13551 0001:00030E0F 13539 0001:00030E12 13553 0001:00030E16 13554 0001:00030E1B
 13596 0001:00030E28 13597 0001:00030E49 13598 0001:00030E4B 13600 0001:00030E57
 13601 0001:00030E67 13602 0001:00030E7C 13603 0001:00030E85 13604 0001:00030E96
 13605 0001:00030EC0 13606 0001:00030EC9 13608 0001:00030ED8 13609 0001:00030EE5
 13611 0001:00030EF6 13612 0001:00030F06 13614 0001:00030F15 13615 0001:00030F22
 13609 0001:00030F23 13616 0001:00030F26 13617 0001:00030F37 13619 0001:00030F41
 13621 0001:00030F46 13622 0001:00030F48 13631 0001:00030FBC 13632 0001:00030FCA
 13633 0001:00030FD5 13634 0001:00030FD7 13636 0001:00030FDB 13638 0001:00030FE7
 13639 0001:00030FF3 13641 0001:00031019 13642 0001:0003101E 13643 0001:00031023
 13645 0001:00031025 13636 0001:00031026 13646 0001:0003102B 13634 0001:0003102E
 13648 0001:00031032 13649 0001:00031037 13665 0001:00031044 13667 0001:0003104A
 13668 0001:0003104C 13670 0001:0003104F 13671 0001:00031052 13673 0001:00031056
 13675 0001:0003105A 13676 0001:0003105C 13678 0001:0003105F 13671 0001:00031062
 13680 0001:00031066 13681 0001:00031068 13690 0001:0003106C 13691 0001:0003107A
 13693 0001:0003107E 13694 0001:00031080 13696 0001:00031084 13698 0001:0003108C
 13699 0001:0003109B 13700 0001:000310A0 13702 0001:000310A2 13694 0001:000310A5
 13704 0001:000310A9 13705 0001:000310AE 13707 0001:000310B0 13708 0001:000310BB
 13709 0001:000310BD 13711 0001:000310C1 13713 0001:000310CD 13714 0001:000310D9
 13716 0001:000310FF 13717 0001:00031104 13718 0001:00031109 13720 0001:0003110B
 13711 0001:0003110C 13721 0001:00031111 13709 0001:00031114 13723 0001:00031118
 13724 0001:0003111D 13733 0001:0003112C 13734 0001:0003114C 13735 0001:0003114E
 13737 0001:00031154 13738 0001:00031156 13740 0001:0003115B 13742 0001:00031167
 13743 0001:00031174 13744 0001:00031187 13745 0001:00031194 13746 0001:000311A6
 13747 0001:000311D0 13748 0001:000311F5 13749 0001:00031206 13751 0001:0003120D
 13753 0001:0003120F 13754 0001:00031211 13760 0001:0003127C 13761 0001:00031280
 13762 0001:00031282 13763 0001:0003128D 13764 0001:00031297 13765 0001:00031299
 13774 0001:0003129C 13775 0001:000312BC 13776 0001:000312BE 13778 0001:000312C4
 13779 0001:000312C6 13781 0001:000312CB 13783 0001:000312D7 13784 0001:000312E4
 13785 0001:000312F7 13786 0001:00031304 13787 0001:00031329 13788 0001:0003134E
 13789 0001:0003135F 13791 0001:00031366 13793 0001:00031368 13794 0001:0003136A
 13942 0001:000313D4 13943 0001:000313DC 13945 0001:000313E4 13946 0001:000313E6
 13947 0001:000313E8 13949 0001:000313EA 13950 0001:000313F6 13951 0001:0003140B
 13952 0001:00031414 13954 0001:00031424 13955 0001:00031430 13957 0001:0003143E
 13958 0001:00031451 13959 0001:00031456 13960 0001:00031458 13966 0001:00031498
 13967 0001:000314AD 13968 0001:000314B2 13970 0001:000314B8 13972 0001:000314BA
 13978 0001:000314BC 13979 0001:000314C1 13980 0001:000314D7 13981 0001:000314E1
 13989 0001:000314E4 13990 0001:000314E8 13992 0001:000314F4 13993 0001:00031503
 13994 0001:0003150D 13990 0001:0003150E 13995 0001:00031513 13998 0001:00031518
 13999 0001:0003152D 14000 0001:00031536 14001 0001:00031539 14002 0001:00031548
 14004 0001:0003154F 14005 0001:00031555 14007 0001:0003155E 14010 0001:0003157C
 14011 0001:00031587 14012 0001:0003158E 14013 0001:00031596 14014 0001:000315A2
 14033 0001:000315B0 14034 0001:000315B6 14035 0001:000315C0 14039 0001:000315C4
 14040 0001:000315CA 14085 0001:000315CC 14086 0001:000315D2 14090 0001:000315D4
 14091 0001:000315DC 14094 0001:000315E0 14095 0001:000315F5 14096 0001:000315FE
 14097 0001:0003160D 14098 0001:00031610 14111 0001:0003162C 14112 0001:00031634
 14118 0001:00031638 14119 0001:00031644 14121 0001:00031650 14122 0001:0003165F
 14119 0001:00031660 14123 0001:00031665 14124 0001:0003166D 14125 0001:00031679
 14132 0001:00031688 14133 0001:00031690 14135 0001:0003169C 14136 0001:000316AB
 14133 0001:000316AC 14137 0001:000316B1 14138 0001:000316B8 14139 0001:000316BE
 14141 0001:000316CC 14142 0001:000316DB 14143 0001:000316E5 14139 0001:000316E6
 14144 0001:000316E9 14150 0001:000316F0 14151 0001:000316F6 14154 0001:000316F8
 14155 0001:000316FE 14156 0001:00031708 14168 0001:0003170C 14169 0001:00031710
 14170 0001:00031720 14171 0001:0003172A 14174 0001:00031730 14175 0001:00031742
 14176 0001:0003174B 14177 0001:0003175A 14182 0001:00031774 14183 0001:00031780
 14185 0001:0003178C 14186 0001:0003179B 14183 0001:0003179C 14187 0001:000317A1
 14188 0001:000317A9 14189 0001:000317B5 14195 0001:000317C4 14196 0001:000317D4
 14198 0001:000317E0 14199 0001:000317EC 14201 0001:000317F3 14202 0001:00031800
 14205 0001:0003180C 14206 0001:0003181D 14207 0001:00031826 14209 0001:00031833
 14196 0001:00031834 14211 0001:00031839 14232 0001:00031840 14233 0001:00031859
 14234 0001:00031863 14235 0001:00031878 14244 0001:0003189C 14245 0001:000318A8
 14247 0001:000318B4 14248 0001:000318C3 14245 0001:000318C4 14249 0001:000318C9
 14250 0001:000318D0 14252 0001:000318D9 14254 0001:000318EE 14255 0001:000318FD
 14256 0001:00031906 14257 0001:00031910 14258 0001:00031917 14259 0001:0003191D
 14260 0001:00031923 14261 0001:00031929 14262 0001:0003192F 14252 0001:00031930
 14263 0001:00031936 14267 0001:00031940 14268 0001:00031946 14269 0001:00031950
 14273 0001:00031954 14274 0001:0003195A 14277 0001:0003195C 14278 0001:00031960
 14279 0001:0003196E 14280 0001:00031978 14292 0001:00031980 14293 0001:00031992
 14294 0001:0003199B 14295 0001:000319AA 14300 0001:000319C4 14301 0001:000319D0
 14303 0001:000319DC 14304 0001:000319EB 14301 0001:000319EC 14305 0001:000319F1
 14306 0001:000319F9 14307 0001:00031A05 14312 0001:00031A14 14313 0001:00031A1C
 14314 0001:00031A3C 14316 0001:00031A40 14318 0001:00031A51 14320 0001:00031A8A
 14321 0001:00031A8C 14323 0001:00031A8E 14316 0001:00031A8F 14324 0001:00031A92
 14326 0001:00031A94 14331 0001:00031A9C 14332 0001:00031AAE 14333 0001:00031AB7
 14335 0001:00031AC6 14338 0001:00031AE0 14339 0001:00031AEB 14340 0001:00031AF3
 14341 0001:00031AFF 14372 0001:00031B10 14373 0001:00031B1B 14375 0001:00031B25
 14376 0001:00031B27 14378 0001:00031B2C 14380 0001:00031B34 14381 0001:00031B37
 14382 0001:00031B39 14384 0001:00031B3E 14385 0001:00031B4B 14386 0001:00031B60
 14387 0001:00031B69 14389 0001:00031B79 14390 0001:00031B85 14392 0001:00031B8B
 14394 0001:00031B9B 14395 0001:00031BA7 14397 0001:00031BBE 14399 0001:00031BD4
 14400 0001:00031BE1 14401 0001:00031BE7 14402 0001:00031BE9 14405 0001:00031C34
 14406 0001:00031C5D 14407 0001:00031C66 14408 0001:00031C6D 14410 0001:00031C74
 14411 0001:00031C7A 14412 0001:00031C7D 14413 0001:00031C89 14415 0001:00031C93
 14416 0001:00031CA2 14417 0001:00031CAC 14418 0001:00031CB6 14422 0001:00031CD8
 14423 0001:00031CDB 14428 0001:00031CDC 14429 0001:00031CE8 14431 0001:00031CF4
 14432 0001:00031D03 14429 0001:00031D04 14433 0001:00031D09 14434 0001:00031D11
 14435 0001:00031D1D 14444 0001:00031D2C 14445 0001:00031D4F 14446 0001:00031D51
 14448 0001:00031D59 14449 0001:00031D5E 14450 0001:00031D60 14452 0001:00031D65
 14453 0001:00031D75 14454 0001:00031D8A 14455 0001:00031D93 14456 0001:00031D9E
 14457 0001:00031DAF 14458 0001:00031DE2 14459 0001:00031DEB 14461 0001:00031DFA
 14462 0001:00031E07 14464 0001:00031E18 14465 0001:00031E28 14467 0001:00031E37
 14468 0001:00031E44 14462 0001:00031E45 14469 0001:00031E48 14470 0001:00031E59
 14471 0001:00031E61 14472 0001:00031E63 14481 0001:00031ED8 14482 0001:00031EE6
 14483 0001:00031EF1 14484 0001:00031EF3 14486 0001:00031EF7 14488 0001:00031F03
 14489 0001:00031F0F 14491 0001:00031F24 14492 0001:00031F29 14493 0001:00031F2E
 14495 0001:00031F30 14486 0001:00031F31 14496 0001:00031F36 14484 0001:00031F39
 14498 0001:00031F3D 14499 0001:00031F42 14505 0001:00031F50 14507 0001:00031F59
 14508 0001:00031F5B 14510 0001:00031F5E 14512 0001:00031F63 14513 0001:00031F65
 14515 0001:00031F68 14516 0001:00031F6B 14518 0001:00031F6F 14520 0001:00031F73
 14521 0001:00031F75 14523 0001:00031F78 14516 0001:00031F7B 14525 0001:00031F7F
 14526 0001:00031F81 14529 0001:00031F84 14530 0001:00031F87 14531 0001:00031F9F
 14561 0001:00031FA4 14562 0001:00031FAC 14564 0001:00031FB4 14565 0001:00031FB6
 14566 0001:00031FB8 14568 0001:00031FBA 14569 0001:00031FC6 14570 0001:00031FDB
 14571 0001:00031FE4 14573 0001:00031FF4 14574 0001:00031FF8 14575 0001:00032004
 14577 0001:00032012 14578 0001:00032025 14579 0001:0003202A 14580 0001:0003202C
 14585 0001:0003206C 14586 0001:00032081 14587 0001:0003208A 14588 0001:00032099
 14589 0001:0003209C 14590 0001:000320A3 14595 0001:000320C0 14596 0001:000320C3
 14598 0001:000320C9 14599 0001:000320D9 14600 0001:000320DF 14602 0001:000320E3
 14603 0001:000320EC 14600 0001:000320EF 14606 0001:000320F3 14607 0001:000320F6
 14611 0001:000320F8 14612 0001:00032103 14613 0001:0003210B 14614 0001:00032117
 14620 0001:00032128 14621 0001:0003212B 14622 0001:00032145 14626 0001:00032180
 14627 0001:00032183 14628 0001:0003218F 14633 0001:000321AC 14634 0001:000321B8
 14637 0001:000321CC 14638 0001:000321CF 14639 0001:000321E4 14704 0001:000321FC
 14705 0001:00032207 14706 0001:0003220F 14707 0001:0003221B 14715 0001:00032257

Line numbers for uPSC_dll(uPSC_dll.pas) segment .text

    46 0001:0003223C    47 0001:0003224C    46 0001:00032256    48 0001:0003225A
    49 0001:0003225C    52 0001:00032260    53 0001:00032282    54 0001:0003228C
    55 0001:00032291    56 0001:000322A9    57 0001:000322E8    66 0001:0003230C
    67 0001:00032337    68 0001:00032339    69 0001:00032344    71 0001:00032355
    72 0001:00032372    73 0001:00032374    75 0001:00032379    76 0001:000323A7
    77 0001:000323C3    79 0001:000323D8    81 0001:000323E4    82 0001:000323F6
    83 0001:0003243A    84 0001:00032456    87 0001:00032478    88 0001:000324B1
    90 0001:000324CD    92 0001:000324E2    93 0001:00032503    94 0001:0003253A
    95 0001:00032556    96 0001:00032570    99 0001:00032574   100 0001:00032591
   101 0001:00032593   104 0001:00032598   105 0001:000325AE   106 0001:000325C6
   107 0001:000325DE   108 0001:000325F3   110 0001:00032608   111 0001:00032625
   112 0001:00032627   116 0001:0003262C   117 0001:0003264F   118 0001:00032657
   120 0001:00032661   121 0001:0003269F   122 0001:000326AD   123 0001:000326B8
   124 0001:000326C2   125 0001:000326CC   126 0001:000326D0

Line numbers for uPSC_dll(uPSC_dll.pas) segment .itext

   135 0002:00000294   136 0002:0000029D   137 0002:000002A4

Line numbers for uPSRuntime(uPSRuntime.pas) segment .text

  1213 0001:00033DF8  1214 0001:00033DF9  1215 0001:00033DFF  1214 0001:00033E07
  1216 0001:00033E0C  1221 0001:00033E10  1222 0001:00033E11  1223 0001:00033E17
  1222 0001:00033E21  1224 0001:00033E26  1229 0001:00033E28  1230 0001:00033E29
  1231 0001:00033E2F  1230 0001:00033E37  1232 0001:00033E3C  1237 0001:00033E40
  1238 0001:00033E47  1240 0001:00033E4D  1242 0001:00033E5B  1243 0001:00033E61
  1245 0001:00033E63  1238 0001:00033E64  1246 0001:00033E69  1247 0001:00033E6F
  1252 0001:00033E78  1253 0001:00033E80  1255 0001:00033E86  1257 0001:00033E8F
  1258 0001:00033E92  1260 0001:00033E94  1253 0001:00033E95  1261 0001:00033E9A
  1262 0001:00033E9D  1265 0001:00033EA4  1266 0001:00033EA8  1267 0001:00033EC0
  1276 0001:00033EC4  1277 0001:00033ECC  1278 0001:00033ED7  1279 0001:00033EFC
  1280 0001:00033F36  1282 0001:00033F3C  1283 0001:00033F42  1284 0001:00033F54
  1289 0001:00033F5C  1290 0001:00033F87  1291 0001:00033FAE  1295 0001:00033FD8
  1296 0001:00034003  1297 0001:0003402A  1301 0001:00034054  1302 0001:0003407F
  1303 0001:000340A6  1412 0001:000340D0  1413 0001:000340D7  1414 0001:000340E0
  1416 0001:000340F4  1418 0001:000340FE  1419 0001:0003410E  1421 0001:00034110
  1414 0001:00034111  1423 0001:00034114  1577 0001:00034118  1578 0001:00034139
  1579 0001:000341B0  1580 0001:000341C1  1581 0001:000341F7  1582 0001:00034208
  1583 0001:00034219  1584 0001:0003422A  1585 0001:0003423B  1586 0001:0003424C
  1587 0001:0003425D  1588 0001:0003426E  1589 0001:0003427F  1590 0001:00034290
  1591 0001:000342A1  1592 0001:000342B2  1593 0001:000342C3  1594 0001:000342D4
  1595 0001:000342E5  1596 0001:000342F6  1597 0001:00034328  1598 0001:00034336
  1599 0001:00034344  1600 0001:00034352  1601 0001:00034360  1602 0001:00034386
  1603 0001:00034394  1605 0001:0003439F  1608 0001:000343AB  1613 0001:000343EC
  1614 0001:0003444E  1615 0001:00034456  1616 0001:0003445E  1618 0001:00034466
  1619 0001:0003446E  1620 0001:00034476  1621 0001:0003447E  1622 0001:00034486
  1623 0001:0003448E  1624 0001:00034496  1626 0001:0003449E  1628 0001:000344A3
  1631 0001:000344A4  1632 0001:000344B9  1633 0001:000344C2  1634 0001:000344D3
  1637 0001:000344F0  1638 0001:000344FB  1639 0001:00034503  1640 0001:0003450F
  1645 0001:00034520  1646 0001:00034525  1647 0001:0003452C  1649 0001:00034550
  1652 0001:00034554  1653 0001:00034566  1654 0001:0003456F  1655 0001:0003457E
  1656 0001:0003458D  1659 0001:000345A8  1660 0001:000345B3  1661 0001:000345BB
  1662 0001:000345C3  1663 0001:000345CF  1673 0001:000345E0  1674 0001:000345E9
  1675 0001:00034669  1676 0001:00034671  1679 0001:0003467B  1682 0001:00034684
  1683 0001:00034688  1684 0001:00034693  1688 0001:0003469F  1689 0001:000346A3
  1690 0001:000346AE  1692 0001:000346BA  1693 0001:000346C6  1694 0001:000346D8
  1695 0001:000346E5  1699 0001:000346F4  1701 0001:00034707  1702 0001:00034714
  1703 0001:0003471D  1704 0001:00034724  1699 0001:00034727  1708 0001:0003472C
  1709 0001:00034731  1711 0001:0003473A  1712 0001:00034743  1709 0001:0003474A
  1717 0001:0003474F  1720 0001:0003475B  1733 0001:00034764  1734 0001:00034772
  1735 0001:000347D0  1736 0001:000347DC  1743 0001:000347E8  1747 0001:000347F4
  1748 0001:00034802  1750 0001:00034821  1753 0001:0003482B  1755 0001:0003483B
  1756 0001:00034847  1760 0001:00034850  1761 0001:0003485A  1762 0001:00034860
  1763 0001:0003486C  1764 0001:00034871  1765 0001:0003487D  1766 0001:00034883
  1767 0001:00034889  1768 0001:00034892  1769 0001:0003489A  1770 0001:000348A3
  1774 0001:000348B9  1776 0001:000348C2  1777 0001:000348CC  1774 0001:000348D5
  1781 0001:000348D8  1782 0001:000348EC  1786 0001:000348F5  1788 0001:0003490F
  1789 0001:0003491F  1791 0001:00034935  1793 0001:0003493E  1794 0001:00034945
  1786 0001:00034948  1798 0001:0003494D  1799 0001:00034953  1804 0001:0003496E
  1806 0001:00034977  1807 0001:00034980  1804 0001:00034987  1811 0001:0003498A
  1814 0001:00034994  1815 0001:00034998  1816 0001:000349A2  1817 0001:000349AB
  1820 0001:000349B0  1821 0001:000349B6  1822 0001:000349BA  1823 0001:000349D4
  1824 0001:000349DD  1825 0001:000349E7  1831 0001:000349EC  1832 0001:000349F0
  1833 0001:000349F6  1834 0001:000349FD  1835 0001:000349FF  1836 0001:00034A0B
  1839 0001:00034A10  1840 0001:00034A13  1841 0001:00034A17  1842 0001:00034A39
  1843 0001:00034A44  1844 0001:00034A53  1892 0001:00034A58  1893 0001:00034A5D
  1895 0001:00034A63  1896 0001:00034A6B  1897 0001:00034A73  1899 0001:00034A7F
  1900 0001:00034A8B  1901 0001:00034AA7  1902 0001:00034AB3  1903 0001:00034ABF
  1897 0001:00034AC0  1904 0001:00034AC5  1912 0001:00034ACC  1913 0001:00034AD2
  1915 0001:00034ADE  1916 0001:00034AE7  1917 0001:00034AF1  1913 0001:00034AF2
  1918 0001:00034AF7  1920 0001:00034B03  1921 0001:00034B0C  1922 0001:00034B0E
  1923 0001:00034B17  1924 0001:00034B23  1918 0001:00034B24  1925 0001:00034B29
  1926 0001:00034B35  1925 0001:00034B4A  1927 0001:00034B4F  1928 0001:00034B5B
  1927 0001:00034B6C  1929 0001:00034B71  1930 0001:00034B78  1931 0001:00034B80
  1932 0001:00034B88  1933 0001:00034B94  1932 0001:00034BA3  1934 0001:00034BA8
  1935 0001:00034BAF  1936 0001:00034BB3  1937 0001:00034BBA  1938 0001:00034BC1
  1939 0001:00034BC8  1940 0001:00034BCF  1943 0001:00034BD4  1944 0001:00034BE7
  1945 0001:00034BF0  1946 0001:00034BFF  1947 0001:00034C0E  1948 0001:00034C12
  1949 0001:00034C21  1950 0001:00034C30  1951 0001:00034C3F  1952 0001:00034C4E
  1953 0001:00034C5D  1954 0001:00034C62  1955 0001:00034C66  1956 0001:00034C75
  1957 0001:00034C84  1958 0001:00034C93  1959 0001:00034C9A  1960 0001:00034CAD
  1961 0001:00034CB1  1962 0001:00034CB7  1963 0001:00034CCA  1964 0001:00034CCE
  1965 0001:00034CD4  1966 0001:00034CE7  1967 0001:00034CEB  1968 0001:00034CF1
  1969 0001:00034CFA  1970 0001:00034D09  1977 0001:00034D24  1978 0001:00034D32
  1979 0001:00034D39  1980 0001:00034D41  1981 0001:00034D49  1983 0001:00034D51
  1984 0001:00034D5D  1986 0001:00034D69  1987 0001:00034D72  1988 0001:00034D7D
  1984 0001:00034D7E  1989 0001:00034D83  1990 0001:00034D8B  1991 0001:00034D93
  1992 0001:00034D9B  1993 0001:00034DA3  1994 0001:00034DAB  1995 0001:00034DB3
  1996 0001:00034DBB  1997 0001:00034DC3  1999 0001:00034DCF  2000 0001:00034DD8
  2001 0001:00034DEB  2002 0001:00034DF7  1997 0001:00034DF8  2003 0001:00034DFD
  2004 0001:00034E05  2005 0001:00034E0D  2007 0001:00034E19  2008 0001:00034E28
  2005 0001:00034E29  2009 0001:00034E2E  2010 0001:00034E36  2011 0001:00034E44
  2017 0001:00034E58  2018 0001:00034E61  2019 0001:00034E64  2020 0001:00034E67
  2021 0001:00034E6E  2022 0001:00034E7C  2023 0001:00034E83  2024 0001:00034E88
  2025 0001:00034E8E  2026 0001:00034E98  2028 0001:00034EAB  2029 0001:00034EB8
  2031 0001:00034EC5  2032 0001:00034ECD  2031 0001:00034ED5  2034 0001:00034ED8
  2036 0001:00034EDD  2037 0001:00034EE9  2038 0001:00034EF1  2039 0001:00034EF5
  2041 0001:00034EFA  2042 0001:00034EFF  2043 0001:00034F05  2045 0001:00034F0E
  2046 0001:00034F14  2048 0001:00034F1C  2049 0001:00034F1F  2050 0001:00034F26
  2051 0001:00034F28  2053 0001:00034F35  2054 0001:00034F38  2055 0001:00034F3F
  2056 0001:00034F41  2058 0001:00034F49  2059 0001:00034F4C  2060 0001:00034F53
  2062 0001:00034F55  2063 0001:00034F61  2064 0001:00034F69  2026 0001:00034F6C
  2065 0001:00034F76  2066 0001:00034F7C  2067 0001:00034F80  2073 0001:00034F88
  2074 0001:00034FA9  2075 0001:00034FBF  2077 0001:00034FC8  2078 0001:00034FCE
  2080 0001:00034FE9  2081 0001:00034FF4  2083 0001:00034FF6  2075 0001:00034FF7
  2084 0001:00034FFC  2085 0001:00034FFE  2094 0001:00035024  2095 0001:00035047
  2097 0001:00035050  2098 0001:0003505E  2099 0001:0003507F  2100 0001:0003508A
  2102 0001:00035099  2103 0001:000350A8  2105 0001:000350C3  2107 0001:000350D2
  2108 0001:000350D4  2111 0001:000350D6  2100 0001:000350D7  2112 0001:000350DC
  2113 0001:000350DE  2115 0001:000350E0  2116 0001:000350ED  2117 0001:000350F1
  2118 0001:000350F3  2120 0001:000350F5  2121 0001:00035101  2122 0001:0003510D
  2123 0001:00035119  2124 0001:0003511B  2130 0001:0003514C  2131 0001:00035168
  2132 0001:00035172  2133 0001:0003517E  2134 0001:0003518D  2135 0001:0003519B
  2136 0001:000351A1  2137 0001:000351A9  2138 0001:000351B2  2139 0001:000351BB
  2141 0001:000351C5  2149 0001:000351EC  2150 0001:000351F3  2151 0001:00035214
  2152 0001:0003522B  2153 0001:00035231  2156 0001:00035235  2157 0001:00035237
  2172 0001:0003523C  2173 0001:00035258  2175 0001:000352A0  2176 0001:000352B0
  2177 0001:000352B2  2179 0001:000352B7  2180 0001:000352C2  2182 0001:000352DE
  2183 0001:000352EE  2184 0001:000352F0  2186 0001:000352F5  2188 0001:0003530E
  2189 0001:0003531E  2190 0001:00035320  2192 0001:00035325  2193 0001:00035332
  2194 0001:0003533D  2195 0001:00035348  2197 0001:00035355  2199 0001:00035382
  2200 0001:00035392  2201 0001:00035394  2204 0001:00035399  2205 0001:000353B8
  2208 0001:00035432  2210 0001:0003544F  2212 0001:0003545F  2213 0001:00035466
  2214 0001:00035468  2217 0001:0003546D  2219 0001:0003548A  2220 0001:0003549A
  2221 0001:000354A1  2222 0001:000354A3  2224 0001:000354A8  2225 0001:000354C5
  2226 0001:000354D5  2227 0001:000354DC  2228 0001:000354DE  2232 0001:000354E3
  2234 0001:00035500  2235 0001:00035510  2236 0001:00035517  2237 0001:00035519
  2239 0001:0003551E  2240 0001:0003553E  2244 0001:00035550  2246 0001:0003556D
  2247 0001:0003557D  2248 0001:00035584  2249 0001:00035586  2251 0001:0003558B
  2252 0001:000355AB  2254 0001:000355AF  2255 0001:000355B4  2257 0001:000355B9
  2260 0001:000355CB  2262 0001:000355E8  2263 0001:000355F8  2264 0001:000355FF
  2265 0001:00035601  2268 0001:00035606  2270 0001:00035623  2271 0001:00035633
  2272 0001:0003563A  2273 0001:0003563C  2275 0001:00035641  2277 0001:0003565E
  2278 0001:0003566E  2279 0001:00035675  2280 0001:00035677  2282 0001:0003567C
  2284 0001:00035699  2285 0001:000356A9  2286 0001:000356B0  2287 0001:000356B2
  2289 0001:000356B7  2291 0001:000356D4  2292 0001:000356E4  2293 0001:000356EB
  2294 0001:000356ED  2298 0001:000356F2  2300 0001:0003570B  2301 0001:0003571B
  2302 0001:00035722  2303 0001:00035724  2305 0001:00035729  2306 0001:00035736
  2307 0001:00035741  2308 0001:00035761  2309 0001:00035771  2310 0001:00035778
  2311 0001:0003577A  2317 0001:0003577F  2319 0001:00035798  2320 0001:000357A8
  2321 0001:000357AF  2322 0001:000357B1  2324 0001:000357B6  2325 0001:000357C3
  2326 0001:000357CE  2327 0001:000357EC  2328 0001:000357FC  2329 0001:00035803
  2330 0001:00035805  2335 0001:0003580A  2336 0001:0003581A  2337 0001:00035821
  2338 0001:00035823  2195 0001:00035828  2342 0001:0003582F  2343 0001:0003583A
  2345 0001:0003584F  2348 0001:00035888  2350 0001:000358AF  2351 0001:000358B1
  2354 0001:000358B3  2343 0001:000358B4  2355 0001:000358B9  2356 0001:000358BB
  2359 0001:000358E4  2360 0001:000358EE  2362 0001:00035904  2363 0001:00035911
  2364 0001:00035913  2366 0001:00035915  2368 0001:0003591E  2370 0001:00035929
  2371 0001:0003592B  2366 0001:0003592D  2374 0001:00035930  2375 0001:00035932
  2390 0001:00035938  2391 0001:00035941  2392 0001:00035943  2394 0001:00035956
  2395 0001:00035960  2396 0001:0003596E  2392 0001:00035971  2397 0001:00035974
  2398 0001:00035976  2399 0001:0003597C  2400 0001:00035985  2401 0001:00035987
  2402 0001:00035997  2403 0001:000359AD  2404 0001:000359BA  2405 0001:000359BC
  2407 0001:000359C1  2408 0001:000359C7  2409 0001:000359CB  2411 0001:000359D1
  2412 0001:000359D5  2417 0001:00035A2F  2418 0001:00035A43  2419 0001:00035A4A
  2423 0001:00035A5F  2424 0001:00035A73  2426 0001:00035A92  2427 0001:00035A99
  2428 0001:00035AA6  2429 0001:00035AA8  2431 0001:00035AAD  2432 0001:00035AB8
  2434 0001:00035AD1  2435 0001:00035AD8  2436 0001:00035AE5  2437 0001:00035AE7
  2439 0001:00035AEC  2440 0001:00035AF3  2444 0001:00035B08  2445 0001:00035B1C
  2447 0001:00035B3B  2448 0001:00035B42  2449 0001:00035B4F  2450 0001:00035B51
  2452 0001:00035B56  2453 0001:00035B61  2455 0001:00035B7A  2456 0001:00035B81
  2457 0001:00035B8E  2458 0001:00035B90  2460 0001:00035B95  2461 0001:00035B9C
  2466 0001:00035BB1  2467 0001:00035BC5  2469 0001:00035BDB  2470 0001:00035BE2
  2471 0001:00035BEF  2472 0001:00035BF1  2474 0001:00035BF6  2475 0001:00035BFD
  2480 0001:00035C12  2481 0001:00035C26  2483 0001:00035C3C  2484 0001:00035C43
  2485 0001:00035C50  2486 0001:00035C52  2488 0001:00035C57  2490 0001:00035C60
  2491 0001:00035C67  2492 0001:00035C74  2493 0001:00035C76  2496 0001:00035C7B
  2497 0001:00035C83  2498 0001:00035C8C  2499 0001:00035C95  2500 0001:00035C9C
  2504 0001:00035CB1  2505 0001:00035CC5  2507 0001:00035CDB  2508 0001:00035CE2
  2509 0001:00035CEF  2510 0001:00035CF1  2512 0001:00035CF6  2514 0001:00035D07
  2515 0001:00035D0E  2516 0001:00035D1B  2517 0001:00035D1D  2519 0001:00035D22
  2520 0001:00035D36  2522 0001:00035D4C  2523 0001:00035D53  2524 0001:00035D60
  2525 0001:00035D62  2527 0001:00035D67  2529 0001:00035D70  2530 0001:00035D77
  2531 0001:00035D84  2532 0001:00035D86  2534 0001:00035D8B  2535 0001:00035D91
  2536 0001:00035D98  2539 0001:00035DAD  2540 0001:00035DC1  2542 0001:00035DD7
  2543 0001:00035DDE  2544 0001:00035DEB  2545 0001:00035DED  2547 0001:00035DF2
  2549 0001:00035E03  2550 0001:00035E0A  2551 0001:00035E17  2552 0001:00035E19
  2554 0001:00035E1E  2555 0001:00035E25  2556 0001:00035E39  2560 0001:00035E4E
  2561 0001:00035E62  2563 0001:00035E7E  2564 0001:00035E85  2565 0001:00035E92
  2566 0001:00035E94  2568 0001:00035E99  2570 0001:00035EA3  2572 0001:00035EB9
  2573 0001:00035EC0  2574 0001:00035ECD  2575 0001:00035ECF  2577 0001:00035ED4
  2579 0001:00035EE5  2580 0001:00035EEC  2581 0001:00035EF9  2582 0001:00035EFB
  2584 0001:00035F00  2585 0001:00035F1B  2568 0001:00035F1E  2587 0001:00035F28
  2589 0001:00035F33  2590 0001:00035F3A  2591 0001:00035F47  2592 0001:00035F49
  2594 0001:00035F4E  2595 0001:00035F55  2598 0001:00035F67  2599 0001:00035F69
  2600 0001:00035F76  2603 0001:00035F7B  2604 0001:00035F85  2605 0001:00035F9B
  2606 0001:00035FA8  2607 0001:00035FAA  2609 0001:00035FAF  2611 0001:00035FB8
  2612 0001:00035FC5  2613 0001:00035FC7  2615 0001:00035FC9  2616 0001:00035FD4
  2618 0001:00035FED  2619 0001:00035FFA  2620 0001:00035FFC  2622 0001:00035FFE
  2624 0001:00036009  2625 0001:0003600F  2627 0001:00036018  2629 0001:00036029
  2630 0001:0003602B  2401 0001:0003602D  2634 0001:00036034  2643 0001:00036040
  2644 0001:0003605F  2645 0001:00036061  2646 0001:00036074  2647 0001:0003608A
  2648 0001:00036097  2649 0001:00036099  2651 0001:0003609E  2653 0001:000360A8
  2654 0001:000360BC  2655 0001:000360D2  2656 0001:000360D9  2657 0001:000360E6
  2658 0001:000360E8  2660 0001:000360ED  2661 0001:000360F9  2662 0001:00036113
  2663 0001:0003611A  2664 0001:00036127  2665 0001:00036129  2667 0001:0003612E
  2668 0001:00036139  2670 0001:00036147  2672 0001:000361AA  2673 0001:000361B1
  2674 0001:000361BE  2675 0001:000361C0  2677 0001:000361C5  2678 0001:000361D0
  2679 0001:000361E5  2681 0001:000361F0  2682 0001:0003621E  2683 0001:00036224
  2685 0001:00036236  2686 0001:00036246  2687 0001:0003624D  2688 0001:0003624F
  2691 0001:00036254  2692 0001:00036268  2693 0001:0003627E  2694 0001:00036285
  2695 0001:00036292  2696 0001:00036294  2698 0001:00036299  2699 0001:000362AF
  2700 0001:000362B6  2701 0001:000362C3  2702 0001:000362C5  2704 0001:000362CA
  2705 0001:0003632A  2706 0001:00036331  2707 0001:0003633E  2708 0001:00036340
  2711 0001:00036345  2712 0001:00036352  2713 0001:00036368  2714 0001:0003636E
  2715 0001:00036378  2716 0001:0003638E  2717 0001:00036395  2718 0001:000363A2
  2719 0001:000363A4  2721 0001:000363A9  2722 0001:000363B2  2723 0001:000363B9
  2724 0001:000363C6  2725 0001:000363C8  2727 0001:000363CD  2728 0001:000363D8
  2729 0001:000363F1  2730 0001:000363F8  2731 0001:00036405  2732 0001:00036407
  2734 0001:0003640C  2735 0001:00036422  2736 0001:00036429  2737 0001:00036436
  2738 0001:00036438  2740 0001:0003643D  2741 0001:00036446  2742 0001:0003644D
  2743 0001:0003645A  2744 0001:0003645C  2746 0001:00036461  2747 0001:0003646C
  2748 0001:00036485  2749 0001:0003648C  2750 0001:00036499  2751 0001:0003649B
  2753 0001:0003649D  2756 0001:000364A8  2758 0001:000364AE  2760 0001:000364BF
  2761 0001:000364C6  2762 0001:000364C8  2765 0001:000364CA  2645 0001:000364DA
  2767 0001:000364E3  2776 0001:0003650C  2777 0001:00036518  2778 0001:0003651A
  2779 0001:0003652A  2780 0001:0003653F  2781 0001:0003654C  2782 0001:0003654E
  2784 0001:00036553  2785 0001:0003655D  2786 0001:0003656A  2787 0001:0003656C
  2789 0001:00036571  2790 0001:00036590  2791 0001:00036594  2792 0001:000365A1
  2793 0001:000365A3  2795 0001:000365A8  2797 0001:000365B2  2798 0001:000365C8
  2799 0001:000365D5  2800 0001:000365D7  2802 0001:000365DC  2803 0001:000365EF
  2804 0001:000365FD  2805 0001:00036608  2807 0001:00036621  2808 0001:0003662F
  2809 0001:0003663C  2810 0001:0003663E  2812 0001:00036648  2813 0001:00036658
  2814 0001:0003666A  2816 0001:0003668A  2817 0001:00036698  2818 0001:000366A5
  2819 0001:000366A7  2778 0001:000366B3  2823 0001:000366BA  2825 0001:000366C4
  2826 0001:000366D1  2827 0001:000366D9  2828 0001:000366DE  2829 0001:000366E0
  2831 0001:000366F3  2832 0001:000366FD  2834 0001:00036702  2836 0001:0003670B
  2837 0001:00036715  2839 0001:0003671A  2840 0001:00036727  2841 0001:00036731
  2843 0001:00036733  2845 0001:0003673E  2846 0001:00036746  2848 0001:00036748
  2850 0001:00036753  2851 0001:0003675B  2853 0001:0003675D  2855 0001:00036768
  2856 0001:00036770  2858 0001:00036772  2859 0001:00036787  2860 0001:00036791
  2861 0001:00036799  2864 0001:0003679B  2865 0001:000367A4  2866 0001:000367AB
  2867 0001:000367AD  2872 0001:000367B4  2873 0001:000367BA  2874 0001:000367BE
  2877 0001:000367C0  2878 0001:000367C6  2879 0001:000367D2  2880 0001:000367DF
  2881 0001:000367E2  2884 0001:000367E7  2885 0001:000367E9  2889 0001:000367EC
  2890 0001:000367F5  3102 0001:000367F8  3103 0001:000367FE  3104 0001:00036809
  3106 0001:00036815  3107 0001:0003681C  3111 0001:00036820  3112 0001:00036841
  3114 0001:00036847  3115 0001:0003684E  3116 0001:00036850  3118 0001:00036879
  3119 0001:000368E1  3120 0001:000368EB  3121 0001:000368F5  3122 0001:000368FF
  3123 0001:00036909  3124 0001:00036910  3125 0001:00036917  3127 0001:0003691E
  3128 0001:00036928  3130 0001:00036932  3132 0001:00036949  3133 0001:00036968
  3135 0001:0003697F  3138 0001:000369A2  3139 0001:000369B7  3141 0001:000369CB
  3144 0001:000369EE  3146 0001:000369F9  3148 0001:00036A1A  3181 0001:00036A6C
  3182 0001:00036A8B  3184 0001:00036A91  3185 0001:00036A98  3186 0001:00036A9A
  3188 0001:00036AC3  3189 0001:00036B2B  3190 0001:00036B3B  3191 0001:00036B4A
  3192 0001:00036B5A  3193 0001:00036B66  3194 0001:00036B72  3195 0001:00036B7D
  3196 0001:00036B8A  3198 0001:00036B9A  3201 0001:00036BAA  3203 0001:00036BB9
  3205 0001:00036BDA  3209 0001:00036C08  3210 0001:00036C27  3212 0001:00036C2D
  3213 0001:00036C34  3214 0001:00036C36  3216 0001:00036C5F  3217 0001:00036CD7
  3218 0001:00036CE9  3219 0001:00036CFB  3220 0001:00036D0D  3221 0001:00036D18
  3222 0001:00036D2B  3223 0001:00036D33  3224 0001:00036D3B  3225 0001:00036D43
  3226 0001:00036D4B  3227 0001:00036D60  3228 0001:00036D6E  3229 0001:00036D7B
  3231 0001:00036D9C  3234 0001:00036DD0  3235 0001:00036DEF  3237 0001:00036DF5
  3238 0001:00036DFC  3239 0001:00036DFE  3241 0001:00036E27  3242 0001:00036E9F
  3243 0001:00036EB7  3244 0001:00036ECF  3245 0001:00036EE7  3246 0001:00036EF8
  3247 0001:00036F14  3248 0001:00036F22  3249 0001:00036F30  3250 0001:00036F3E
  3251 0001:00036F4C  3252 0001:00036F5A  3253 0001:00036F67  3254 0001:00036F74
  3256 0001:00036F95  3260 0001:00036FC8  3261 0001:00036FE0  3263 0001:00036FE6
  3264 0001:00036FED  3265 0001:00036FEF  3267 0001:00037018  3268 0001:00037080
  3269 0001:00037087  3270 0001:0003708E  3271 0001:00037095  3272 0001:0003709C
  3273 0001:000370A0  3274 0001:000370A4  3275 0001:000370A8  3276 0001:000370AF
  3277 0001:000370B6  3278 0001:000370C1  3280 0001:000370E2  3284 0001:0003710C
  3285 0001:00037127  3287 0001:0003712D  3288 0001:00037134  3289 0001:00037136
  3291 0001:0003715F  3292 0001:000371AF  3293 0001:000371BB  3294 0001:000371C7
  3295 0001:000371D2  3296 0001:000371DE  3297 0001:000371E9  3298 0001:000371F4
  3299 0001:000371FF  3301 0001:00037220  3304 0001:00037248  3305 0001:00037263
  3307 0001:00037269  3308 0001:00037270  3309 0001:00037272  3311 0001:0003729B
  3312 0001:000372EF  3313 0001:000372FB  3314 0001:00037307  3315 0001:00037313
  3316 0001:0003731E  3317 0001:0003732A  3318 0001:00037335  3319 0001:00037340
  3320 0001:0003734B  3322 0001:0003736C  3368 0001:00037394  3369 0001:000373A0
  3370 0001:000373B3  3372 0001:000373B9  3373 0001:000373C0  3374 0001:000373C2
  3376 0001:000373D5  3377 0001:0003744D  3378 0001:00037458  3379 0001:00037463
  3380 0001:0003746F  3381 0001:0003747B  3382 0001:00037485  3383 0001:0003748F
  3384 0001:0003749C  3386 0001:000374A3  3388 0001:000374AB  3389 0001:000374B3
  3390 0001:000374BB  3391 0001:000374C9  3395 0001:000374D1  3396 0001:000374DF
  3398 0001:000374FD  3402 0001:0003750A  3404 0001:00037510  3408 0001:0003751C
  3409 0001:00037528  3410 0001:0003753B  3412 0001:00037541  3413 0001:00037548
  3414 0001:0003754A  3416 0001:0003755D  3417 0001:000375A5  3418 0001:000375AD
  3419 0001:000375B5  3420 0001:000375C3  3423 0001:000375D8  3424 0001:000375E6
  3426 0001:000375FF  3429 0001:0003760C  3431 0001:00037612  3460 0001:00037620
  3461 0001:0003762C  3462 0001:0003763F  3464 0001:00037645  3465 0001:0003764C
  3466 0001:0003764E  3468 0001:00037661  3469 0001:000376D9  3470 0001:000376E4
  3471 0001:000376EF  3472 0001:000376FB  3475 0001:00037707  3476 0001:0003770C
  3477 0001:00037717  3479 0001:00037723  3480 0001:0003772D  3481 0001:00037734
  3482 0001:0003773F  3483 0001:00037746  3484 0001:0003774F  3485 0001:00037757
  3486 0001:0003775F  3487 0001:0003776D  3490 0001:00037775  3491 0001:00037783
  3493 0001:0003779E  3496 0001:000377AB  3498 0001:000377B1  3501 0001:000377C0
  3502 0001:000377CC  3503 0001:000377DF  3505 0001:000377E5  3506 0001:000377EC
  3507 0001:000377EE  3509 0001:000377FE  3510 0001:00037810  3511 0001:0003781C
  3514 0001:00037828  3515 0001:00037836  3517 0001:0003784F  3520 0001:0003785C
  3522 0001:00037862  3554 0001:0003786C  3555 0001:0003787C  3557 0001:0003788A
  3558 0001:00037896  3559 0001:000378B7  3555 0001:000378B8  3560 0001:000378BB
  3561 0001:000378BD  3567 0001:000378C4  3568 0001:000378CF  3569 0001:000378DD
  3571 0001:00037960  3573 0001:0003796C  3574 0001:00037971  3575 0001:00037972
  3571 0001:00037973  3578 0001:0003797B  3580 0001:00037987  3581 0001:0003798D
  3582 0001:00037990  3578 0001:00037993  3585 0001:0003799B  3587 0001:000379A7
  3588 0001:000379AB  3589 0001:000379AE  3590 0001:000379B1  3591 0001:000379B5
  3592 0001:000379B8  3593 0001:000379BB  3594 0001:000379BF  3595 0001:000379C2
  3585 0001:000379C5  3598 0001:000379CD  3600 0001:000379D9  3601 0001:000379DD
  3602 0001:000379E0  3598 0001:000379E3  3605 0001:000379EB  3607 0001:000379F7
  3608 0001:00037A01  3609 0001:00037A04  3605 0001:00037A07  3612 0001:00037A0F
  3614 0001:00037A1B  3615 0001:00037A25  3616 0001:00037A28  3612 0001:00037A2B
  3619 0001:00037A33  3621 0001:00037A3F  3622 0001:00037A51  3623 0001:00037A54
  3619 0001:00037A57  3626 0001:00037A5F  3628 0001:00037A6B  3629 0001:00037A75
  3630 0001:00037A78  3626 0001:00037A7B  3633 0001:00037A83  3635 0001:00037A8F
  3636 0001:00037A98  3637 0001:00037A9B  3633 0001:00037A9E  3640 0001:00037AA6
  3642 0001:00037AB2  3643 0001:00037ABB  3644 0001:00037ABE  3640 0001:00037AC1
  3647 0001:00037AC9  3649 0001:00037AD5  3650 0001:00037ADE  3651 0001:00037AE1
  3647 0001:00037AE4  3655 0001:00037AEC  3656 0001:00037AF5  3658 0001:00037B01
  3660 0001:00037B1B  3661 0001:00037B1D  3663 0001:00037B2A  3664 0001:00037B2D
  3656 0001:00037B30  3669 0001:00037B38  3671 0001:00037B44  3672 0001:00037B48
  3674 0001:00037B4C  3676 0001:00037B53  3677 0001:00037B56  3669 0001:00037B59
  3682 0001:00037B61  3683 0001:00037B6A  3685 0001:00037B76  3687 0001:00037B86
  3688 0001:00037B88  3690 0001:00037B95  3691 0001:00037B98  3683 0001:00037B9B
  3696 0001:00037BA3  3697 0001:00037BAC  3699 0001:00037BB8  3700 0001:00037BC4
  3701 0001:00037BC7  3697 0001:00037BCA  3707 0001:00037BD2  3716 0001:00037BDE
  3721 0001:00037BE7  3722 0001:00037BEA  3707 0001:00037BED  3728 0001:00037BF5
  3730 0001:00037C09  3732 0001:00037C15  3733 0001:00037C19  3734 0001:00037C1C
  3735 0001:00037C1F  3736 0001:00037C23  3737 0001:00037C26  3738 0001:00037C29
  3739 0001:00037C2D  3740 0001:00037C30  3730 0001:00037C33  3743 0001:00037C3B
  3745 0001:00037C47  3746 0001:00037C51  3747 0001:00037C5F  3749 0001:00037C65
  3751 0001:00037C6F  3752 0001:00037C71  3753 0001:00037C7F  3756 0001:00037C8F
  3757 0001:00037C9D  3758 0001:00037CAB  3759 0001:00037CB6  3761 0001:00037CD0
  3762 0001:00037CD2  3767 0001:00037CDC  3768 0001:00037CE0  3769 0001:00037CE9
  3771 0001:00037CF2  3772 0001:00037CF5  3743 0001:00037CF8  3779 0001:00037D01
  3780 0001:00037D03  3783 0001:00037D1C  3784 0001:00037D1E  3786 0001:00037D2A
  3787 0001:00037D2C  3801 0001:00037D38  3802 0001:00037D4C  3803 0001:00037D73
  3804 0001:00037D80  3810 0001:00037DA4  3811 0001:00037DC8  3812 0001:00037DF2
  3813 0001:00037DFF  3814 0001:00037E0B  3815 0001:00037E1B  3817 0001:00037E33
  3819 0001:00037E3F  3820 0001:00037E65  3821 0001:00037E75  3817 0001:00037E76
  3822 0001:00037E79  3823 0001:00037E80  3825 0001:00037E86  3826 0001:00037E97
  3827 0001:00037E9B  3829 0001:00037EA0  3830 0001:00037EB1  3831 0001:00037EB8
  3832 0001:00037EBF  3833 0001:00037EC6  3835 0001:00037ED6  3836 0001:00037EEB
  3833 0001:00037EEC  3839 0001:00037EF4  3841 0001:00037EFA  3842 0001:00037F06
  3843 0001:00037F17  3844 0001:00037F1B  3845 0001:00037F1D  3846 0001:00037F21
  3848 0001:00037F26  3849 0001:00037F36  3850 0001:00037F3C  3851 0001:00037F3F
  3852 0001:00037F44  3853 0001:00037F47  3855 0001:00037F4D  3856 0001:00037F55
  3858 0001:00037F6A  3859 0001:00037F7D  3861 0001:00037F87  3862 0001:00037F89
  3864 0001:00037F95  3865 0001:00037FAA  3862 0001:00037FAB  3867 0001:00037FAE
  3953 0001:00037FD4  3954 0001:00038004  3955 0001:00038006  3956 0001:00038014
  3959 0001:00038097  3960 0001:0003809C  3962 0001:000380B1  3964 0001:000380B8
  3965 0001:000380CB  3966 0001:000380DE  3967 0001:000380F2  3970 0001:00038106
  3972 0001:0003810C  3973 0001:00038113  3974 0001:00038115  3976 0001:0003813E
  3979 0001:0003814C  3983 0001:00038158  3984 0001:0003815F  3985 0001:00038172
  3987 0001:00038181  3992 0001:000381A7  3994 0001:000381AD  3995 0001:000381B4
  3996 0001:000381B6  3998 0001:000381DF  3999 0001:00038247  4000 0001:00038254
  4001 0001:00038261  4002 0001:0003826E  4003 0001:0003827B  4004 0001:00038287
  4005 0001:00038293  4006 0001:0003829F  4007 0001:000382AC  4008 0001:000382B9
  4009 0001:000382CA  4014 0001:000382F0  4016 0001:000382F6  4017 0001:000382FD
  4018 0001:000382FF  4020 0001:00038328  4021 0001:00038390  4022 0001:0003839D
  4023 0001:000383AA  4024 0001:000383B7  4025 0001:000383C4  4026 0001:000383D0
  4027 0001:000383DC  4028 0001:000383E8  4029 0001:000383F5  4030 0001:00038402
  4031 0001:00038413  4035 0001:00038439  4039 0001:0003844F  4041 0001:00038455
  4042 0001:0003845C  4043 0001:0003845E  4045 0001:00038487  4046 0001:000384FF
  4047 0001:00038513  4048 0001:00038527  4049 0001:0003853B  4050 0001:00038548
  4051 0001:00038560  4052 0001:0003856D  4053 0001:0003857A  4054 0001:00038586
  4055 0001:00038593  4056 0001:000385A0  4057 0001:000385B3  4058 0001:000385C5
  4063 0001:000385EB  4065 0001:000385F1  4066 0001:000385F8  4067 0001:000385FA
  4069 0001:00038623  4070 0001:0003869B  4071 0001:000386AF  4072 0001:000386C3
  4073 0001:000386D7  4074 0001:000386E4  4075 0001:000386FC  4076 0001:00038709
  4077 0001:00038716  4078 0001:00038723  4079 0001:00038735  4080 0001:00038742
  4081 0001:00038755  4082 0001:00038767  4088 0001:0003878D  4090 0001:00038793
  4091 0001:0003879A  4092 0001:0003879C  4094 0001:000387C5  4095 0001:0003883D
  4096 0001:00038851  4097 0001:00038865  4098 0001:00038879  4099 0001:00038886
  4100 0001:0003889E  4101 0001:000388AB  4102 0001:000388B8  4103 0001:000388C5
  4104 0001:000388D2  4105 0001:000388EC  4106 0001:000388FF  4107 0001:00038911
  4110 0001:00038937  4111 0001:0003894B  4113 0001:00038969  4114 0001:00038985
  4116 0001:00038998  4117 0001:000389B4  4121 0001:000389C8  4122 0001:000389CD
  4124 0001:000389D4  4128 0001:000389ED  4130 0001:000389FE  4131 0001:00038A0C
  4133 0001:00038A24  4135 0001:00038A43  4137 0001:00038A4A  4141 0001:00038A62
  4142 0001:00038A67  4144 0001:00038A6E  4149 0001:00038A86  4152 0001:00038A95
  4158 0001:00038AA4  4159 0001:00038AAA  4162 0001:00038AB9  4163 0001:00038AC6
  4164 0001:00038AC9  4165 0001:00038ACC  4166 0001:00038AD1  4171 0001:00038AE5
  4172 0001:00038AEB  4174 0001:00038AF7  4179 0001:00038AFB  4181 0001:00038B03
  4184 0001:00038B15  4189 0001:00038B21  4192 0001:00038B25  4194 0001:00038B29
  4196 0001:00038B4A  4197 0001:00038B4C  4198 0001:00038B56  4201 0001:00038B63
  4210 0001:00038B67  4216 0001:00038B73  4220 0001:00038B77  4223 0001:00038B79
  4224 0001:00038B7D  4227 0001:00038B99  4236 0001:00038BA0  4238 0001:00038BA8
  4240 0001:00038BB9  4241 0001:00038BBB  4242 0001:00038BD3  4244 0001:00038BDD
  4246 0001:00038BEE  4247 0001:00038BF0  4248 0001:00038BFD  4250 0001:00038C07
  4252 0001:00038C18  4253 0001:00038C1A  4254 0001:00038C27  4256 0001:00038C2E
  4258 0001:00038C3F  4259 0001:00038C41  4260 0001:00038C4E  4263 0001:00038C55
  4264 0001:00038C6A  4266 0001:00038C7A  4267 0001:00038C87  4269 0001:00038C8E
  4278 0001:00038CE8  4279 0001:00038CF4  4281 0001:00038CF8  4282 0001:00038CFA
  4284 0001:00038CFC  4285 0001:00038D08  4287 0001:00038D0C  4288 0001:00038D0E
  4290 0001:00038D10  4291 0001:00038D1A  4293 0001:00038D1E  4294 0001:00038D20
  4296 0001:00038D22  4297 0001:00038D30  4299 0001:00038D4B  4301 0001:00038D52
  4311 0001:00038D5C  4312 0001:00038D62  4313 0001:00038D65  4314 0001:00038D97
  4315 0001:00038DA2  4316 0001:00038DAD  4317 0001:00038DBC  4318 0001:00038DCB
  4319 0001:00038DD9  4321 0001:00038DE7  4322 0001:00038DF4  4325 0001:00038DF7
  4326 0001:00038DFC  4327 0001:00038E2A  4328 0001:00038E2E  4329 0001:00038E3C
  4331 0001:00038E6F  4333 0001:00038EEA  4334 0001:00038EF6  4336 0001:00038F23
  4337 0001:00038F3A  4338 0001:00038F51  4339 0001:00038F68  4340 0001:00038F7F
  4343 0001:00038F93  4345 0001:00038F99  4346 0001:00038FA0  4347 0001:00038FA2
  4349 0001:00038FCB  4350 0001:00039033  4351 0001:00039043  4352 0001:00039053
  4353 0001:00039063  4354 0001:00039073  4355 0001:00039080  4356 0001:0003908D
  4357 0001:000390A6  4358 0001:000390BF  4359 0001:000390D9  4360 0001:000390E9
  4361 0001:000390F9  4362 0001:00039118  4365 0001:0003913E  4366 0001:00039156
  4367 0001:0003916E  4368 0001:00039188  4370 0001:000391A2  4372 0001:000391C2
  4373 0001:000391E1  4375 0001:0003920E  4376 0001:00039238  4380 0001:00039254
  4382 0001:00039264  4384 0001:0003926A  4388 0001:0003927A  4390 0001:0003927F
  4391 0001:00039294  4394 0001:0003929A  4395 0001:000392A4  4398 0001:000392B1
  4399 0001:000392B7  4400 0001:000392C1  4402 0001:000392CE  4405 0001:000392E1
  4407 0001:0003935C  4408 0001:00039368  4410 0001:00039395  4411 0001:000393AC
  4412 0001:000393C3  4413 0001:000393DA  4414 0001:000393F1  4417 0001:00039405
  4419 0001:0003940B  4420 0001:00039412  4421 0001:00039414  4423 0001:0003943D
  4424 0001:000394A5  4425 0001:000394B5  4426 0001:000394C5  4427 0001:000394D5
  4428 0001:000394E5  4429 0001:000394F2  4430 0001:000394FF  4431 0001:00039518
  4432 0001:00039531  4433 0001:0003954B  4434 0001:0003955B  4435 0001:0003956B
  4436 0001:0003958A  4438 0001:000395B0  4439 0001:000395C8  4440 0001:000395E2
  4441 0001:000395FA  4443 0001:00039614  4445 0001:00039634  4446 0001:00039653
  4448 0001:00039680  4449 0001:000396B6  4453 0001:000396D8  4455 0001:000396E8
  4457 0001:000396EE  4461 0001:000396FE  4463 0001:00039703  4464 0001:00039718
  4467 0001:0003971E  4468 0001:00039728  4471 0001:00039735  4472 0001:0003973B
  4473 0001:00039745  4475 0001:00039752  4478 0001:00039765  4480 0001:000397E0
  4481 0001:000397EC  4483 0001:00039825  4484 0001:0003983C  4485 0001:00039853
  4486 0001:0003986A  4487 0001:00039881  4490 0001:00039895  4492 0001:0003989B
  4493 0001:000398A2  4494 0001:000398A4  4496 0001:000398D3  4497 0001:0003993B
  4498 0001:0003994B  4499 0001:0003995B  4500 0001:0003996B  4501 0001:0003997B
  4502 0001:00039988  4503 0001:00039995  4504 0001:000399AE  4505 0001:000399C7
  4506 0001:000399E1  4507 0001:000399F1  4508 0001:00039A01  4509 0001:00039A26
  4511 0001:00039A52  4512 0001:00039A6A  4513 0001:00039A82  4514 0001:00039A9C
  4516 0001:00039AB6  4518 0001:00039AD6  4519 0001:00039AFB  4521 0001:00039B34
  4522 0001:00039B6A  4526 0001:00039B8C  4528 0001:00039B9C  4530 0001:00039BA2
  4533 0001:00039BB2  4534 0001:00039BBC  4537 0001:00039BC9  4538 0001:00039BCF
  4539 0001:00039BD9  4541 0001:00039BE6  4544 0001:00039BF9  4546 0001:00039C74
  4547 0001:00039C80  4549 0001:00039CB9  4550 0001:00039CD0  4551 0001:00039CE7
  4552 0001:00039CFE  4553 0001:00039D15  4556 0001:00039D29  4558 0001:00039D2F
  4559 0001:00039D36  4560 0001:00039D38  4562 0001:00039D67  4563 0001:00039DCF
  4564 0001:00039DDF  4565 0001:00039DEF  4566 0001:00039DFF  4567 0001:00039E0F
  4568 0001:00039E1C  4569 0001:00039E29  4570 0001:00039E42  4571 0001:00039E5B
  4572 0001:00039E75  4573 0001:00039E85  4574 0001:00039E95  4575 0001:00039EBA
  4577 0001:00039EE6  4578 0001:00039EFE  4579 0001:00039F16  4580 0001:00039F30
  4582 0001:00039F4A  4584 0001:00039F6A  4585 0001:00039F8F  4587 0001:00039FC8
  4588 0001:00039FFE  4592 0001:0003A020  4594 0001:0003A030  4596 0001:0003A036
  4599 0001:0003A046  4600 0001:0003A050  4603 0001:0003A05D  4604 0001:0003A063
  4605 0001:0003A06D  4607 0001:0003A07A  4610 0001:0003A08D  4613 0001:0003A110
  4614 0001:0003A116  4616 0001:0003A123  4620 0001:0003A12C  4621 0001:0003A132
  4623 0001:0003A13F  4626 0001:0003A148  4627 0001:0003A154  4629 0001:0003A18D
  4630 0001:0003A1A4  4631 0001:0003A1BB  4632 0001:0003A1D2  4635 0001:0003A1E9
  4637 0001:0003A1EF  4638 0001:0003A1F4  4641 0001:0003A218  4642 0001:0003A221
  4644 0001:0003A22A  4647 0001:0003A23E  4649 0001:0003A244  4650 0001:0003A24B
  4651 0001:0003A24D  4653 0001:0003A27C  4654 0001:0003A2E8  4655 0001:0003A2F8
  4656 0001:0003A308  4657 0001:0003A318  4658 0001:0003A328  4659 0001:0003A335
  4660 0001:0003A342  4661 0001:0003A35B  4662 0001:0003A374  4663 0001:0003A389
  4664 0001:0003A399  4665 0001:0003A3A9  4666 0001:0003A3CE  4668 0001:0003A3FA
  4669 0001:0003A412  4670 0001:0003A42A  4671 0001:0003A444  4672 0001:0003A45E
  4674 0001:0003A483  4676 0001:0003A49E  4678 0001:0003A4D7  4679 0001:0003A510
  4683 0001:0003A532  4685 0001:0003A542  4687 0001:0003A548  4691 0001:0003A558
  4693 0001:0003A55D  4694 0001:0003A570  4695 0001:0003A57B  4698 0001:0003A581
  4699 0001:0003A58B  4702 0001:0003A598  4703 0001:0003A59E  4704 0001:0003A5A8
  4706 0001:0003A5B5  4709 0001:0003A5C8  4712 0001:0003A64B  4713 0001:0003A651
  4715 0001:0003A65E  4719 0001:0003A667  4720 0001:0003A66D  4722 0001:0003A67A
  4725 0001:0003A683  4726 0001:0003A68F  4728 0001:0003A6C8  4729 0001:0003A6DF
  4730 0001:0003A6F6  4731 0001:0003A70D  4732 0001:0003A724  4735 0001:0003A738
  4737 0001:0003A73E  4738 0001:0003A743  4741 0001:0003A767  4742 0001:0003A770
  4746 0001:0003A779  4748 0001:0003A77F  4749 0001:0003A786  4750 0001:0003A788
  4752 0001:0003A7B7  4753 0001:0003A823  4754 0001:0003A833  4755 0001:0003A843
  4756 0001:0003A853  4757 0001:0003A863  4758 0001:0003A870  4759 0001:0003A87D
  4760 0001:0003A896  4761 0001:0003A8AF  4762 0001:0003A8C4  4763 0001:0003A8D4
  4764 0001:0003A8E4  4765 0001:0003A909  4767 0001:0003A935  4768 0001:0003A94D
  4769 0001:0003A965  4770 0001:0003A97F  4771 0001:0003A999  4773 0001:0003A9BE
  4775 0001:0003A9D9  4777 0001:0003AA12  4778 0001:0003AA48  4782 0001:0003AA6A
  4784 0001:0003AA7A  4786 0001:0003AA80  4790 0001:0003AA90  4792 0001:0003AA95
  4793 0001:0003AAAA  4796 0001:0003AAB0  4797 0001:0003AABA  4800 0001:0003AAC7
  4801 0001:0003AACD  4802 0001:0003AAD7  4804 0001:0003AAE4  4807 0001:0003AAF7
  4809 0001:0003AAFD  4810 0001:0003AB0A  4812 0001:0003AB10  4813 0001:0003AB1A
  4815 0001:0003AB27  4817 0001:0003AB2F  4818 0001:0003AB39  4819 0001:0003AB3D
  4821 0001:0003AB4A  4822 0001:0003AB57  4825 0001:0003AB6A  4826 0001:0003AB74
  4831 0001:0003AB81  4834 0001:0003AB8C  4835 0001:0003AB92  4838 0001:0003AB98
  4839 0001:0003ABA7  4840 0001:0003ABB1  4843 0001:0003ABB7  4848 0001:0003ABCF
  4849 0001:0003ABD9  4852 0001:0003ABE6  4853 0001:0003ABEC  4854 0001:0003ABF6
  4858 0001:0003AC03  4859 0001:0003AC07  4860 0001:0003AC11  4865 0001:0003AC30
  4874 0001:0003AC37  4876 0001:0003AC3F  4878 0001:0003AC50  4879 0001:0003AC54
  4880 0001:0003AC6C  4882 0001:0003AC76  4884 0001:0003AC87  4885 0001:0003AC8B
  4886 0001:0003AC98  4888 0001:0003ACA2  4890 0001:0003ACB3  4891 0001:0003ACB7
  4892 0001:0003ACC4  4894 0001:0003ACCB  4896 0001:0003ACDC  4897 0001:0003ACE0
  4898 0001:0003ACED  4901 0001:0003ACF4  4902 0001:0003AD09  4904 0001:0003AD19
  4905 0001:0003AD26  4907 0001:0003AD2F  4910 0001:0003AEAC  4911 0001:0003AEAF
  4912 0001:0003AEC0  4919 0001:0003AEC4  4920 0001:0003AEF0  4921 0001:0003AEFE
  4922 0001:0003AF00  4924 0001:0003AF3F  4925 0001:0003AFBA  4926 0001:0003AFCB
  4927 0001:0003AFDC  4928 0001:0003AFEE  4931 0001:0003B000  4933 0001:0003B009
  4934 0001:0003B013  4935 0001:0003B015  4937 0001:0003B040  4938 0001:0003B0AB
  4939 0001:0003B0B5  4940 0001:0003B0BF  4941 0001:0003B0C9  4942 0001:0003B0D3
  4943 0001:0003B0DC  4944 0001:0003B0E5  4945 0001:0003B0EE  4946 0001:0003B0F8
  4947 0001:0003B102  4948 0001:0003B127  4953 0001:0003B14D  4955 0001:0003B156
  4956 0001:0003B160  4957 0001:0003B162  4959 0001:0003B18D  4960 0001:0003B1F8
  4961 0001:0003B202  4962 0001:0003B20C  4963 0001:0003B216  4964 0001:0003B220
  4965 0001:0003B229  4966 0001:0003B232  4967 0001:0003B23B  4968 0001:0003B245
  4969 0001:0003B24F  4970 0001:0003B274  4974 0001:0003B29A  4978 0001:0003B2B3
  4980 0001:0003B2BC  4981 0001:0003B2C6  4982 0001:0003B2C8  4984 0001:0003B2F3
  4985 0001:0003B36E  4986 0001:0003B381  4987 0001:0003B394  4988 0001:0003B3A7
  4989 0001:0003B3B3  4990 0001:0003B3CA  4991 0001:0003B3D6  4992 0001:0003B3E2
  4993 0001:0003B3EE  4994 0001:0003B3FA  4995 0001:0003B406  4996 0001:0003B420
  4997 0001:0003B444  5002 0001:0003B46A  5004 0001:0003B473  5005 0001:0003B47D
  5006 0001:0003B47F  5008 0001:0003B4AA  5009 0001:0003B525  5010 0001:0003B538
  5011 0001:0003B54B  5012 0001:0003B55E  5013 0001:0003B56A  5014 0001:0003B581
  5015 0001:0003B58D  5016 0001:0003B599  5017 0001:0003B5A5  5018 0001:0003B5B1
  5019 0001:0003B5BD  5020 0001:0003B5D7  5021 0001:0003B5FB  5026 0001:0003B621
  5028 0001:0003B62A  5029 0001:0003B634  5030 0001:0003B636  5032 0001:0003B667
  5033 0001:0003B6E2  5034 0001:0003B6FD  5035 0001:0003B718  5036 0001:0003B733
  5037 0001:0003B747  5038 0001:0003B764  5039 0001:0003B778  5040 0001:0003B78A
  5041 0001:0003B79E  5042 0001:0003B7B2  5043 0001:0003B7C6  5044 0001:0003B7D4
  5045 0001:0003B801  5050 0001:0003B82D  5052 0001:0003B836  5053 0001:0003B840
  5054 0001:0003B842  5056 0001:0003B873  5057 0001:0003B8EE  5058 0001:0003B903
  5059 0001:0003B918  5060 0001:0003B92D  5061 0001:0003B93B  5062 0001:0003B954
  5063 0001:0003B962  5064 0001:0003B970  5065 0001:0003B97C  5066 0001:0003B988
  5067 0001:0003B996  5068 0001:0003B9B0  5069 0001:0003B9DD  5072 0001:0003BA09
  5073 0001:0003BA2B  5075 0001:0003BA3C  5076 0001:0003BA4E  5080 0001:0003BA6D
  5082 0001:0003BA7E  5084 0001:0003BA82  5088 0001:0003BAAC  5090 0001:0003BAB4
  5091 0001:0003BAC5  5095 0001:0003BAC9  5096 0001:0003BAD3  5099 0001:0003BAE0
  5100 0001:0003BAE8  5101 0001:0003BAF2  5105 0001:0003BAFF  5106 0001:0003BB7A
  5107 0001:0003BB8B  5108 0001:0003BB9C  5109 0001:0003BBAE  5112 0001:0003BBC0
  5114 0001:0003BBC9  5115 0001:0003BBD3  5116 0001:0003BBD5  5118 0001:0003BC06
  5119 0001:0003BC71  5120 0001:0003BC7B  5121 0001:0003BC85  5122 0001:0003BC8F
  5123 0001:0003BC99  5124 0001:0003BCA2  5125 0001:0003BCAB  5126 0001:0003BCB4
  5127 0001:0003BCBE  5128 0001:0003BCC8  5129 0001:0003BCF6  5134 0001:0003BD22
  5136 0001:0003BD2B  5137 0001:0003BD35  5138 0001:0003BD37  5140 0001:0003BD68
  5141 0001:0003BDD3  5142 0001:0003BDDD  5143 0001:0003BDE7  5144 0001:0003BDF1
  5145 0001:0003BDFB  5146 0001:0003BE04  5147 0001:0003BE0D  5148 0001:0003BE16
  5149 0001:0003BE20  5150 0001:0003BE2A  5151 0001:0003BE58  5155 0001:0003BE84
  5159 0001:0003BEA8  5161 0001:0003BEB1  5162 0001:0003BEBB  5163 0001:0003BEBD
  5165 0001:0003BEEE  5166 0001:0003BF69  5167 0001:0003BF7C  5168 0001:0003BF8F
  5169 0001:0003BFA2  5170 0001:0003BFAE  5171 0001:0003BFC5  5172 0001:0003BFD1
  5173 0001:0003BFDD  5174 0001:0003BFE9  5175 0001:0003BFF5  5176 0001:0003C001
  5177 0001:0003C01B  5178 0001:0003C048  5183 0001:0003C074  5185 0001:0003C07D
  5186 0001:0003C087  5187 0001:0003C089  5189 0001:0003C0BA  5190 0001:0003C135
  5191 0001:0003C150  5192 0001:0003C16B  5193 0001:0003C186  5194 0001:0003C19A
  5195 0001:0003C1B7  5196 0001:0003C1CB  5197 0001:0003C1DD  5198 0001:0003C1F1
  5199 0001:0003C205  5200 0001:0003C219  5201 0001:0003C227  5202 0001:0003C254
  5207 0001:0003C280  5209 0001:0003C289  5210 0001:0003C293  5211 0001:0003C295
  5213 0001:0003C2C6  5214 0001:0003C341  5215 0001:0003C354  5216 0001:0003C367
  5217 0001:0003C37A  5218 0001:0003C386  5219 0001:0003C39D  5220 0001:0003C3A9
  5221 0001:0003C3B5  5222 0001:0003C3C1  5223 0001:0003C3CD  5224 0001:0003C3D9
  5225 0001:0003C3F3  5226 0001:0003C420  5231 0001:0003C44C  5233 0001:0003C455
  5234 0001:0003C45F  5235 0001:0003C461  5237 0001:0003C492  5238 0001:0003C50D
  5239 0001:0003C522  5240 0001:0003C537  5241 0001:0003C54C  5242 0001:0003C55A
  5243 0001:0003C573  5244 0001:0003C581  5245 0001:0003C58F  5246 0001:0003C59B
  5247 0001:0003C5A7  5248 0001:0003C5B5  5249 0001:0003C5CF  5250 0001:0003C5FC
  5253 0001:0003C628  5255 0001:0003C639  5259 0001:0003C648  5261 0001:0003C659
  5263 0001:0003C65D  5267 0001:0003C687  5269 0001:0003C68F  5270 0001:0003C6A0
  5273 0001:0003C6A4  5274 0001:0003C6AE  5277 0001:0003C6BB  5278 0001:0003C6C3
  5279 0001:0003C6CD  5283 0001:0003C6DA  5284 0001:0003C755  5285 0001:0003C76A
  5286 0001:0003C77F  5287 0001:0003C795  5290 0001:0003C7AB  5292 0001:0003C7B4
  5293 0001:0003C7BE  5294 0001:0003C7C0  5296 0001:0003C7F1  5297 0001:0003C85C
  5298 0001:0003C869  5299 0001:0003C876  5300 0001:0003C883  5301 0001:0003C890
  5302 0001:0003C89C  5303 0001:0003C8A8  5304 0001:0003C8B4  5305 0001:0003C8C1
  5306 0001:0003C8CE  5307 0001:0003C8FC  5312 0001:0003C928  5314 0001:0003C931
  5315 0001:0003C93B  5316 0001:0003C93D  5318 0001:0003C96E  5319 0001:0003C9D9
  5320 0001:0003C9E6  5321 0001:0003C9F3  5322 0001:0003CA00  5323 0001:0003CA0D
  5324 0001:0003CA19  5325 0001:0003CA25  5326 0001:0003CA31  5327 0001:0003CA3E
  5328 0001:0003CA4B  5329 0001:0003CA79  5333 0001:0003CAA5  5337 0001:0003CAC5
  5339 0001:0003CACE  5340 0001:0003CAD8  5341 0001:0003CADA  5343 0001:0003CB0B
  5344 0001:0003CB86  5345 0001:0003CB9B  5346 0001:0003CBB0  5347 0001:0003CBC5
  5348 0001:0003CBD3  5349 0001:0003CBF0  5350 0001:0003CBFE  5351 0001:0003CC10
  5352 0001:0003CC1C  5353 0001:0003CC28  5354 0001:0003CC36  5355 0001:0003CC4A
  5356 0001:0003CC77  5361 0001:0003CCA3  5363 0001:0003CCAC  5364 0001:0003CCB6
  5365 0001:0003CCB8  5367 0001:0003CCE9  5368 0001:0003CD64  5369 0001:0003CD77
  5370 0001:0003CD8A  5371 0001:0003CD9D  5372 0001:0003CDA9  5373 0001:0003CDC0
  5374 0001:0003CDCC  5375 0001:0003CDD8  5376 0001:0003CDE4  5377 0001:0003CDF0
  5378 0001:0003CDFC  5379 0001:0003CE10  5380 0001:0003CE3D  5385 0001:0003CE69
  5387 0001:0003CE72  5388 0001:0003CE7C  5389 0001:0003CE7E  5391 0001:0003CEAF
  5392 0001:0003CF2A  5393 0001:0003CF3D  5394 0001:0003CF50  5395 0001:0003CF63
  5396 0001:0003CF6F  5397 0001:0003CF86  5398 0001:0003CF92  5399 0001:0003CF9E
  5400 0001:0003CFAA  5401 0001:0003CFB6  5402 0001:0003CFC2  5403 0001:0003CFD6
  5404 0001:0003D003  5409 0001:0003D02F  5411 0001:0003D038  5412 0001:0003D042
  5413 0001:0003D044  5415 0001:0003D075  5416 0001:0003D0F0  5417 0001:0003D105
  5418 0001:0003D11A  5419 0001:0003D12F  5420 0001:0003D13D  5421 0001:0003D156
  5422 0001:0003D164  5423 0001:0003D172  5424 0001:0003D17E  5425 0001:0003D18A
  5426 0001:0003D198  5427 0001:0003D1AC  5428 0001:0003D1D9  5433 0001:0003D202
  5435 0001:0003D213  5437 0001:0003D217  5441 0001:0003D241  5443 0001:0003D249
  5444 0001:0003D25A  5447 0001:0003D25E  5448 0001:0003D268  5451 0001:0003D275
  5452 0001:0003D27D  5453 0001:0003D287  5457 0001:0003D294  5458 0001:0003D30F
  5459 0001:0003D32B  5460 0001:0003D346  5461 0001:0003D363  5464 0001:0003D37F
  5466 0001:0003D388  5467 0001:0003D392  5468 0001:0003D394  5470 0001:0003D3C5
  5471 0001:0003D430  5472 0001:0003D440  5473 0001:0003D450  5474 0001:0003D460
  5475 0001:0003D470  5476 0001:0003D47F  5477 0001:0003D48E  5478 0001:0003D4A3
  5479 0001:0003D4B3  5480 0001:0003D4C3  5481 0001:0003D4F1  5486 0001:0003D51D
  5488 0001:0003D526  5489 0001:0003D530  5490 0001:0003D532  5492 0001:0003D563
  5493 0001:0003D5CE  5494 0001:0003D5DD  5495 0001:0003D5EC  5496 0001:0003D5FB
  5497 0001:0003D60A  5498 0001:0003D618  5499 0001:0003D626  5500 0001:0003D63A
  5501 0001:0003D649  5502 0001:0003D658  5503 0001:0003D686  5507 0001:0003D6B2
  5511 0001:0003D6D2  5513 0001:0003D6DB  5514 0001:0003D6E5  5515 0001:0003D6E7
  5517 0001:0003D718  5518 0001:0003D793  5519 0001:0003D7A6  5520 0001:0003D7B9
  5521 0001:0003D7CC  5522 0001:0003D7D8  5523 0001:0003D7EF  5524 0001:0003D7FB
  5525 0001:0003D807  5526 0001:0003D813  5527 0001:0003D81F  5528 0001:0003D82B
  5529 0001:0003D83F  5530 0001:0003D86C  5535 0001:0003D898  5537 0001:0003D8A1
  5538 0001:0003D8AB  5539 0001:0003D8AD  5541 0001:0003D8DE  5542 0001:0003D959
  5543 0001:0003D96E  5544 0001:0003D983  5545 0001:0003D998  5546 0001:0003D9A6
  5547 0001:0003D9C3  5548 0001:0003D9D1  5549 0001:0003D9E3  5550 0001:0003D9EF
  5551 0001:0003D9FB  5552 0001:0003DA09  5553 0001:0003DA1D  5554 0001:0003DA4A
  5559 0001:0003DA76  5561 0001:0003DA7F  5562 0001:0003DA89  5563 0001:0003DA8B
  5565 0001:0003DABC  5566 0001:0003DB37  5567 0001:0003DB4A  5568 0001:0003DB5D
  5569 0001:0003DB70  5570 0001:0003DB7C  5571 0001:0003DB93  5572 0001:0003DB9F
  5573 0001:0003DBAB  5574 0001:0003DBB7  5575 0001:0003DBC3  5576 0001:0003DBCF
  5577 0001:0003DBE3  5578 0001:0003DC10  5583 0001:0003DC3C  5585 0001:0003DC45
  5586 0001:0003DC4F  5587 0001:0003DC51  5589 0001:0003DC82  5590 0001:0003DCFD
  5591 0001:0003DD12  5592 0001:0003DD27  5593 0001:0003DD3C  5594 0001:0003DD4A
  5595 0001:0003DD63  5596 0001:0003DD71  5597 0001:0003DD7F  5598 0001:0003DD8B
  5599 0001:0003DD97  5600 0001:0003DDA5  5601 0001:0003DDB9  5602 0001:0003DDE6
  5607 0001:0003DE12  5609 0001:0003DE23  5612 0001:0003DE27  5613 0001:0003DE32
  5615 0001:0003DE5C  5619 0001:0003DE86  5620 0001:0003DE90  5623 0001:0003DE9D
  5624 0001:0003DEA5  5625 0001:0003DEAF  5629 0001:0003DEBC  5630 0001:0003DF1B
  5631 0001:0003DF37  5632 0001:0003DF52  5633 0001:0003DF6F  5636 0001:0003DF8B
  5638 0001:0003DF94  5639 0001:0003DF9E  5640 0001:0003DFA0  5642 0001:0003DFD1
  5643 0001:0003E03C  5644 0001:0003E04C  5645 0001:0003E05C  5646 0001:0003E06C
  5647 0001:0003E07C  5648 0001:0003E08B  5649 0001:0003E09A  5650 0001:0003E0AF
  5651 0001:0003E0BF  5652 0001:0003E0CF  5653 0001:0003E0FD  5658 0001:0003E129
  5660 0001:0003E132  5661 0001:0003E13C  5662 0001:0003E13E  5664 0001:0003E16F
  5665 0001:0003E1DA  5666 0001:0003E1E9  5667 0001:0003E1F8  5668 0001:0003E207
  5669 0001:0003E216  5670 0001:0003E224  5671 0001:0003E232  5672 0001:0003E246
  5673 0001:0003E255  5674 0001:0003E264  5675 0001:0003E292  5679 0001:0003E2BB
  5683 0001:0003E2D8  5685 0001:0003E2E9  5687 0001:0003E2ED  5690 0001:0003E317
  5691 0001:0003E321  5694 0001:0003E32E  5695 0001:0003E336  5696 0001:0003E340
  5700 0001:0003E34D  5701 0001:0003E3AC  5702 0001:0003E3BF  5703 0001:0003E3D2
  5704 0001:0003E3E6  5705 0001:0003E3FA  5706 0001:0003E40D  5708 0001:0003E41D
  5712 0001:0003E43A  5714 0001:0003E44B  5716 0001:0003E44F  5719 0001:0003E479
  5720 0001:0003E483  5723 0001:0003E490  5724 0001:0003E498  5725 0001:0003E4A2
  5729 0001:0003E4AF  5730 0001:0003E50E  5731 0001:0003E526  5732 0001:0003E53E
  5733 0001:0003E557  5734 0001:0003E570  5735 0001:0003E583  5737 0001:0003E593
  5741 0001:0003E5B0  5743 0001:0003E5C1  5745 0001:0003E5C5  5748 0001:0003E5EF
  5749 0001:0003E5F9  5752 0001:0003E606  5753 0001:0003E60E  5754 0001:0003E618
  5758 0001:0003E625  5759 0001:0003E684  5760 0001:0003E695  5761 0001:0003E6A6
  5762 0001:0003E6B8  5763 0001:0003E6CA  5764 0001:0003E6D8  5766 0001:0003E6E6
  5770 0001:0003E6FC  5772 0001:0003E70D  5774 0001:0003E711  5777 0001:0003E73B
  5778 0001:0003E745  5781 0001:0003E752  5782 0001:0003E75A  5783 0001:0003E764
  5787 0001:0003E771  5788 0001:0003E7D0  5789 0001:0003E7E1  5790 0001:0003E7F2
  5791 0001:0003E804  5792 0001:0003E816  5793 0001:0003E824  5795 0001:0003E832
  5799 0001:0003E848  5801 0001:0003E859  5803 0001:0003E85D  5806 0001:0003E887
  5807 0001:0003E891  5810 0001:0003E89E  5811 0001:0003E8A6  5812 0001:0003E8B0
  5816 0001:0003E8BD  5817 0001:0003E91C  5818 0001:0003E92D  5819 0001:0003E93E
  5820 0001:0003E950  5821 0001:0003E962  5822 0001:0003E970  5824 0001:0003E97E
  5828 0001:0003E994  5830 0001:0003E9A5  5832 0001:0003E9A9  5835 0001:0003E9D3
  5836 0001:0003E9DD  5839 0001:0003E9EA  5840 0001:0003E9F2  5841 0001:0003E9FC
  5846 0001:0003EA09  5849 0001:0003EA14  5850 0001:0003EA1D  5853 0001:0003EA21
  5854 0001:0003EA31  5855 0001:0003EA40  5858 0001:0003EA44  5859 0001:0003EA55
  5864 0001:0003EA59  5865 0001:0003EA63  5868 0001:0003EA70  5869 0001:0003EA74
  5870 0001:0003EA7E  5874 0001:0003EA8B  5875 0001:0003EA8D  5876 0001:0003EA97
  5881 0001:0003EAB6  5890 0001:0003EABD  5892 0001:0003EAC5  5894 0001:0003EAD6
  5895 0001:0003EAD8  5896 0001:0003EAF0  5898 0001:0003EAFA  5900 0001:0003EB0B
  5901 0001:0003EB0D  5902 0001:0003EB1A  5904 0001:0003EB24  5906 0001:0003EB35
  5907 0001:0003EB37  5908 0001:0003EB44  5910 0001:0003EB4B  5912 0001:0003EB5C
  5913 0001:0003EB5E  5914 0001:0003EB6B  5917 0001:0003EB72  5918 0001:0003EB87
  5920 0001:0003EB97  5921 0001:0003EBA4  5923 0001:0003EBAB  5932 0001:0003EEFC
  5933 0001:0003EF08  5935 0001:0003EF13  5936 0001:0003EF1C  5937 0001:0003EF1E
  5939 0001:0003EF23  5940 0001:0003EF2D  5941 0001:0003EF30  5942 0001:0003EF3A
  5943 0001:0003EF3E  5946 0001:0003EF5C  5947 0001:0003EF60  5949 0001:0003EF68
  5951 0001:0003EF70  5952 0001:0003EF79  5953 0001:0003EF7B  5955 0001:0003EF80
  5958 0001:0003EF8B  5960 0001:0003EF97  5962 0001:0003EF9F  5963 0001:0003EFA8
  5964 0001:0003EFAA  5966 0001:0003EFAF  5968 0001:0003EFB8  5970 0001:0003EFC6
  5971 0001:0003EFCE  5972 0001:0003EFD3  5974 0001:0003EFDB  5975 0001:0003EFE4
  5976 0001:0003EFE6  5980 0001:0003EFEB  5981 0001:0003EFF2  5985 0001:0003EFFC
  5987 0001:0003F004  5988 0001:0003F00D  5989 0001:0003F00F  5991 0001:0003F014
  5992 0001:0003F01D  5993 0001:0003F023  5994 0001:0003F031  5995 0001:0003F041
  5997 0001:0003F047  5999 0001:0003F04F  6000 0001:0003F053  6002 0001:0003F065
  6003 0001:0003F071  6005 0001:0003F077  6006 0001:0003F07D  6010 0001:0003F08E
  6011 0001:0003F090  6012 0001:0003F095  6013 0001:0003F09A  6014 0001:0003F09E
  6017 0001:0003F115  6019 0001:0003F129  6020 0001:0003F132  6021 0001:0003F13A
  6022 0001:0003F13C  6027 0001:0003F141  6029 0001:0003F149  6030 0001:0003F152
  6031 0001:0003F15A  6032 0001:0003F15C  6034 0001:0003F161  6035 0001:0003F16F
  6039 0001:0003F177  6041 0001:0003F180  6042 0001:0003F189  6043 0001:0003F191
  6044 0001:0003F193  6046 0001:0003F198  6047 0001:0003F1A8  6051 0001:0003F1B1
  6053 0001:0003F1BC  6054 0001:0003F1C5  6055 0001:0003F1CD  6056 0001:0003F1CF
  6058 0001:0003F1D4  6059 0001:0003F1E2  6063 0001:0003F1EB  6065 0001:0003F1F6
  6066 0001:0003F1FF  6067 0001:0003F207  6068 0001:0003F209  6070 0001:0003F20E
  6071 0001:0003F21C  6072 0001:0003F225  6073 0001:0003F22E  6078 0001:0003F237
  6080 0001:0003F242  6081 0001:0003F24B  6082 0001:0003F253  6083 0001:0003F255
  6085 0001:0003F25A  6086 0001:0003F26E  6091 0001:0003F277  6093 0001:0003F282
  6094 0001:0003F28B  6095 0001:0003F293  6096 0001:0003F295  6098 0001:0003F29A
  6099 0001:0003F2A8  6103 0001:0003F2B1  6105 0001:0003F2BC  6106 0001:0003F2C5
  6107 0001:0003F2CD  6108 0001:0003F2CF  6110 0001:0003F2D4  6111 0001:0003F2E8
  6116 0001:0003F2F1  6118 0001:0003F2FC  6119 0001:0003F305  6120 0001:0003F30D
  6121 0001:0003F30F  6123 0001:0003F314  6124 0001:0003F330  6128 0001:0003F339
  6130 0001:0003F344  6131 0001:0003F34D  6132 0001:0003F355  6133 0001:0003F357
  6135 0001:0003F35C  6136 0001:0003F366  6137 0001:0003F36A  6138 0001:0003F370
  6139 0001:0003F377  6141 0001:0003F391  6142 0001:0003F39A  6143 0001:0003F3A2
  6144 0001:0003F3A4  6150 0001:0003F3A9  6152 0001:0003F3B4  6153 0001:0003F3BD
  6154 0001:0003F3C5  6155 0001:0003F3C7  6157 0001:0003F3CC  6158 0001:0003F3D6
  6159 0001:0003F3DA  6160 0001:0003F3E0  6161 0001:0003F3E7  6163 0001:0003F405
  6164 0001:0003F40E  6165 0001:0003F416  6166 0001:0003F418  6171 0001:0003F41D
  6172 0001:0003F426  6173 0001:0003F42E  6174 0001:0003F430  6180 0001:0003F435
  6181 0001:0003F439  6182 0001:0003F441  6184 0001:0003F449  6185 0001:0003F452
  6186 0001:0003F454  6188 0001:0003F459  6191 0001:0003F464  6192 0001:0003F470
  6194 0001:0003F478  6195 0001:0003F481  6196 0001:0003F483  6198 0001:0003F488
  6200 0001:0003F491  6202 0001:0003F499  6203 0001:0003F4A1  6204 0001:0003F4A6
  6206 0001:0003F4AA  6207 0001:0003F4B3  6208 0001:0003F4B5  6212 0001:0003F4BA
  6213 0001:0003F4C1  6215 0001:0003F4C6  6217 0001:0003F4D1  6218 0001:0003F4DA
  6219 0001:0003F4DC  6221 0001:0003F4E1  6222 0001:0003F4EB  6223 0001:0003F4EF
  6226 0001:0003F50B  6228 0001:0003F513  6229 0001:0003F51C  6230 0001:0003F51E
  6232 0001:0003F523  6233 0001:0003F534  6237 0001:0003F549  6239 0001:0003F558
  6240 0001:0003F561  6241 0001:0003F563  6243 0001:0003F568  6244 0001:0003F57C
  6248 0001:0003F587  6250 0001:0003F58C  6251 0001:0003F595  6252 0001:0003F597
  6254 0001:0003F59C  6255 0001:0003F5AE  6258 0001:0003F5B9  6259 0001:0003F5C2
  6260 0001:0003F5C4  6263 0001:0003F5C9  6265 0001:0003F5E0  6266 0001:0003F5EA
  6267 0001:0003F5F0  6269 0001:0003F5F8  6270 0001:0003F601  6271 0001:0003F603
  6277 0001:0003F608  6278 0001:0003F60C  6279 0001:0003F614  6281 0001:0003F61C
  6282 0001:0003F625  6283 0001:0003F627  6285 0001:0003F62C  6288 0001:0003F637
  6289 0001:0003F643  6291 0001:0003F64B  6292 0001:0003F654  6293 0001:0003F656
  6295 0001:0003F65B  6297 0001:0003F664  6299 0001:0003F66C  6300 0001:0003F674
  6301 0001:0003F679  6303 0001:0003F67D  6304 0001:0003F686  6305 0001:0003F688
  6309 0001:0003F68D  6310 0001:0003F694  6312 0001:0003F699  6313 0001:0003F6A3
  6314 0001:0003F6A7  6316 0001:0003F6AF  6318 0001:0003F6B7  6319 0001:0003F6C0
  6320 0001:0003F6C2  6322 0001:0003F6C7  6325 0001:0003F6D5  6326 0001:0003F6E1
  6328 0001:0003F6E9  6329 0001:0003F6F2  6330 0001:0003F6F4  6332 0001:0003F6F9
  6334 0001:0003F705  6335 0001:0003F753  6336 0001:0003F75E  6337 0001:0003F769
  6338 0001:0003F774  6339 0001:0003F77F  6340 0001:0003F787  6343 0001:0003F78F
  6345 0001:0003F79A  6346 0001:0003F7E3  6347 0001:0003F7ED  6348 0001:0003F7F7
  6349 0001:0003F801  6350 0001:0003F80B  6351 0001:0003F812  6354 0001:0003F819
  6355 0001:0003F822  6356 0001:0003F824  6361 0001:0003F829  6362 0001:0003F832
  6363 0001:0003F834  6367 0001:0003F839  6368 0001:0003F842  6369 0001:0003F844
  6371 0001:0003F849  6374 0001:0003F861  6376 0001:0003F869  6377 0001:0003F872
  6378 0001:0003F874  6380 0001:0003F879  6381 0001:0003F88A  6385 0001:0003F89C
  6387 0001:0003F8AB  6388 0001:0003F8B4  6389 0001:0003F8B6  6391 0001:0003F8BB
  6392 0001:0003F8CF  6396 0001:0003F8DA  6398 0001:0003F8DF  6399 0001:0003F8E8
  6400 0001:0003F8EA  6402 0001:0003F8EC  6403 0001:0003F8FE  6406 0001:0003F909
  6407 0001:0003F912  6408 0001:0003F914  6410 0001:0003F916  6412 0001:0003F925
  6413 0001:0003F92F  6414 0001:0003F935  6416 0001:0003F939  6417 0001:0003F942
  6418 0001:0003F944  6424 0001:0003F946  6425 0001:0003F948  6428 0001:0003F94A
  6429 0001:0003F94C  6432 0001:0003F954  6433 0001:0003F969  6434 0001:0003F9E1
  6435 0001:0003F9E8  6436 0001:0003F9F0  6437 0001:0003F9F7  6438 0001:0003F9FE
  6439 0001:0003FA06  6441 0001:0003FA0D  6443 0001:0003FA23  6444 0001:0003FA2C
  6445 0001:0003FA35  6446 0001:0003FA3E  6449 0001:0003FA47  6450 0001:0003FA55
  6452 0001:0003FA80  6453 0001:0003FA8A  6454 0001:0003FA8C  6459 0001:0003FA9A
  6460 0001:0003FAA4  6461 0001:0003FAA6  6464 0001:0003FAA8  6465 0001:0003FAAA
  6468 0001:0003FAB4  6469 0001:0003FAD7  6470 0001:0003FB33  6471 0001:0003FB40
  6472 0001:0003FB52  6473 0001:0003FB62  6474 0001:0003FB6F  6475 0001:0003FB81
  6477 0001:0003FB8E  6481 0001:0003FBA6  6482 0001:0003FBB4  6484 0001:0003FBE3
  6485 0001:0003FBED  6486 0001:0003FBEF  6491 0001:0003FBFD  6492 0001:0003FC07
  6493 0001:0003FC09  6496 0001:0003FC0B  6497 0001:0003FC0D  6501 0001:0003FC34
  6502 0001:0003FC37  6503 0001:0003FC3F  6504 0001:0003FC45  6505 0001:0003FC49
  6506 0001:0003FC4D  6507 0001:0003FC55  6509 0001:0003FC5D  6513 0001:0003FC60
  6514 0001:0003FC61  6515 0001:0003FC6E  6516 0001:0003FC78  6517 0001:0003FC7C
  6520 0001:0003FC80  6521 0001:0003FC82  6591 0001:0003FC84  6592 0001:0003FC96
  6593 0001:0003FCA3  6594 0001:0003FCB1  6595 0001:0003FCBB  6596 0001:0003FCBF
  6598 0001:0003FCC4  6600 0001:0003FCCA  6602 0001:0003FCD8  6603 0001:0003FCE4
  6605 0001:0003FCE8  6606 0001:0003FCEC  6608 0001:0003FCF1  6609 0001:0003FD08
  6611 0001:0003FD10  6612 0001:0003FD16  6614 0001:0003FD1E  6615 0001:0003FD23
  6617 0001:0003FD29  6600 0001:0003FD2A  6619 0001:0003FD2D  6620 0001:0003FD36
  6621 0001:0003FD3F  6622 0001:0003FD49  6624 0001:0003FD69  6625 0001:0003FD7C
  6626 0001:0003FD83  6627 0001:0003FD8C  6628 0001:0003FD95  6629 0001:0003FDA5
  6630 0001:0003FDBA  6631 0001:0003FDC3  6632 0001:0003FDD2  6633 0001:0003FDDA
  6634 0001:0003FDE1  6637 0001:0003FDF1  6638 0001:0003FDFF  6639 0001:0003FE28
  6641 0001:0003FE2E  6642 0001:0003FE37  6646 0001:0003FE53  6655 0001:0003FE5A
  6657 0001:0003FE62  6659 0001:0003FE73  6660 0001:0003FE77  6661 0001:0003FE8F
  6663 0001:0003FE99  6665 0001:0003FEAA  6666 0001:0003FEAE  6667 0001:0003FEBB
  6669 0001:0003FEC5  6671 0001:0003FED6  6672 0001:0003FEDA  6673 0001:0003FEE7
  6675 0001:0003FEF1  6677 0001:0003FF02  6678 0001:0003FF06  6679 0001:0003FF13
  6682 0001:0003FF1D  6683 0001:0003FF32  6684 0001:0003FF42  6685 0001:0003FF4F
  6686 0001:0003FF53  6689 0001:0003FF62  6691 0001:0003FF6F  6692 0001:0003FF78
  6694 0001:0003FF86  6695 0001:0003FF98  6694 0001:0003FFA3  6696 0001:0003FFA6
  6697 0001:0003FFB1  6698 0001:0003FFBA  6701 0001:0003FFC5  6703 0001:0003FFCB
  6705 0001:0003FFD7  6708 0001:0003FFE3  6703 0001:0003FFE8  6711 0001:0003FFEE
  6712 0001:0003FFF8  6713 0001:00040001  6715 0001:00040005  6716 0001:0004000E
  6719 0001:0004001F  6721 0001:00040023  6727 0001:00040030  6728 0001:00040031
  6730 0001:0004003B  6736 0001:00040040  6737 0001:00040051  6738 0001:00040060
  6739 0001:0004006A  6740 0001:00040073  6742 0001:00040078  6744 0001:0004007A
  6737 0001:0004007B  6745 0001:0004007E  6746 0001:00040080  6749 0001:0004008C
  6750 0001:00040092  6751 0001:0004009C  6799 0001:000400A0  6800 0001:000400A9
  6801 0001:000400B3  6802 0001:000400B5  6803 0001:000400B8  6804 0001:000400C2
  6809 0001:000400C8  6810 0001:000400CF  6812 0001:000400DB  6814 0001:000400EA
  6815 0001:000400F4  6817 0001:000400F6  6810 0001:000400F7  6818 0001:000400FC
  6824 0001:00040100  6825 0001:00040107  6827 0001:00040113  6828 0001:0004011D
  6830 0001:00040121  6831 0001:00040124  6833 0001:00040126  6825 0001:00040127
  6834 0001:0004012C  6835 0001:0004012E  6858 0001:00040134  6859 0001:0004013E
  6860 0001:00040149  6861 0001:0004014B  6863 0001:00040152  6864 0001:0004015C
  6866 0001:00040160  6867 0001:00040163  6868 0001:00040166  6870 0001:00040168
  6861 0001:00040169  6871 0001:0004016E  6872 0001:00040174  6873 0001:00040176
  6876 0001:0004017C  6877 0001:0004017D  6878 0001:00040183  6879 0001:00040188
  6885 0001:0004018C  6886 0001:0004019B  6887 0001:000401A2  6888 0001:000401AE
  6889 0001:000401BC  6890 0001:000401BF  6892 0001:000401C1  6887 0001:000401C2
  6893 0001:000401C7  6894 0001:000401CD  6895 0001:000401E3  6896 0001:000401F9
  6902 0001:00040204  6903 0001:00040212  6904 0001:00040224  6905 0001:00040229
  6906 0001:00040233  6907 0001:0004023E  6908 0001:00040244  6909 0001:0004024E
  6943 0001:00040258  6944 0001:0004025E  6945 0001:00040268  6948 0001:0004026C
  6949 0001:00040281  6950 0001:000402DD  6951 0001:000402E4  6952 0001:000402EC
  6953 0001:000402F0  6954 0001:000402F4  6955 0001:000402F9  6957 0001:000402FD
  6961 0001:0004030D  6962 0001:0004031B  6964 0001:00040346  6965 0001:00040350
  6966 0001:00040352  6971 0001:00040360  6972 0001:0004036A  6973 0001:0004036C
  6976 0001:0004036E  6977 0001:00040370  6984 0001:0004037C  6985 0001:0004037F
  6986 0001:0004038F  6988 0001:00040393  6989 0001:00040395  7007 0001:0004039C
  7008 0001:000403A8  7009 0001:000403AF  7011 0001:000403B8  7013 0001:000403C7
  7014 0001:000403D3  7015 0001:000403DF  7011 0001:000403E0  7016 0001:000403E5
  7018 0001:000403EF  7019 0001:00040403  7020 0001:00040407  7021 0001:00040411
  7023 0001:00040422  7025 0001:0004042B  7026 0001:0004042F  7028 0001:00040434
  7029 0001:0004043B  7030 0001:00040453  7031 0001:00040466  7032 0001:00040470
  7033 0001:00040477  7035 0001:0004047C  7036 0001:0004048B  7037 0001:0004049A
  7038 0001:000404A4  7041 0001:000404AE  7044 0001:000404B7  7045 0001:000404BB
  7048 0001:000404C0  7050 0001:000404D7  7054 0001:000404E3  7055 0001:000404EF
  7057 0001:000404FD  7058 0001:00040507  7061 0001:0004050C  7063 0001:0004051C
  7064 0001:00040522  7067 0001:000405EC  7069 0001:00040601  7071 0001:0004060B
  7072 0001:00040628  7073 0001:00040633  7074 0001:00040655  7076 0001:0004065E
  7077 0001:00040667  7079 0001:00040681  7080 0001:0004068D  7082 0001:000406B2
  7083 0001:000406BC  7085 0001:000406C1  7087 0001:000406D6  7089 0001:000406F4
  7091 0001:000406FE  7092 0001:0004071B  7093 0001:00040726  7094 0001:00040748
  7096 0001:00040751  7097 0001:0004075A  7099 0001:00040774  7100 0001:00040780
  7102 0001:000407A9  7104 0001:000407AE  7106 0001:000407B8  7107 0001:000407D5
  7108 0001:000407E0  7109 0001:00040802  7111 0001:0004080B  7112 0001:00040814
  7114 0001:0004082E  7115 0001:0004083A  7120 0001:00040868  7122 0001:00040876
  7123 0001:00040880  7125 0001:00040885  7126 0001:00040898  7127 0001:0004089E
  7129 0001:000408B3  7131 0001:000408BD  7132 0001:000408DA  7133 0001:000408E5
  7134 0001:00040907  7136 0001:00040910  7137 0001:00040919  7139 0001:00040933
  7140 0001:0004093F  7141 0001:00040964  7142 0001:0004096E  7144 0001:00040973
  7146 0001:00040988  7148 0001:000409AA  7150 0001:000409B4  7151 0001:000409D1
  7152 0001:000409DC  7153 0001:000409FE  7155 0001:00040A07  7156 0001:00040A10
  7158 0001:00040A2A  7159 0001:00040A36  7161 0001:00040A5F  7163 0001:00040A64
  7165 0001:00040A6E  7166 0001:00040A8B  7167 0001:00040A96  7168 0001:00040AB8
  7170 0001:00040AC1  7171 0001:00040ACA  7173 0001:00040AE4  7174 0001:00040AF0
  7179 0001:00040B1E  7181 0001:00040B33  7182 0001:00040B44  7183 0001:00040B4D
  7184 0001:00040B55  7185 0001:00040B59  7187 0001:00040B77  7189 0001:00040B81
  7190 0001:00040B9E  7191 0001:00040BA9  7192 0001:00040BCB  7194 0001:00040BD4
  7195 0001:00040BDD  7197 0001:00040BF7  7198 0001:00040C03  7200 0001:00040C2C
  7202 0001:00040C31  7204 0001:00040C3B  7205 0001:00040C58  7206 0001:00040C63
  7207 0001:00040C85  7209 0001:00040C8E  7210 0001:00040C97  7212 0001:00040CB1
  7213 0001:00040CBD  7218 0001:00040CEB  7220 0001:00040D00  7222 0001:00040D06
  7223 0001:00040D11  7224 0001:00040D1B  7226 0001:00040D20  7227 0001:00040D3A
  7229 0001:00040D43  7230 0001:00040D4E  7231 0001:00040D5C  7235 0001:00040D69
  7236 0001:00040D72  7237 0001:00040D7B  7241 0001:00040D88  7243 0001:00040D94
  7244 0001:00040D9E  7246 0001:00040DA3  7247 0001:00040DBC  7249 0001:00040DCD
  7250 0001:00040DD7  7252 0001:00040DDC  7254 0001:00040DE5  7255 0001:00040DEE
  7257 0001:00040E08  7258 0001:00040E1D  7259 0001:00040E3C  7260 0001:00040E4C
  7263 0001:00040E7A  7265 0001:00040E8B  7266 0001:00040E95  7268 0001:00040E9A
  7269 0001:00040EAE  7270 0001:00040EB5  7271 0001:00040EC3  7272 0001:00040ECD
  7274 0001:00040ED2  7275 0001:00040EE4  7276 0001:00040EF8  7277 0001:00040F06
  7279 0001:00040F23  7280 0001:00040F2C  7281 0001:00040F36  7285 0001:00040F55
  7294 0001:00040F5D  7296 0001:00040F67  7298 0001:00040F79  7299 0001:00040F7D
  7300 0001:00040F9C  7302 0001:00040FA6  7304 0001:00040FB8  7305 0001:00040FBC
  7306 0001:00040FCC  7308 0001:00040FD6  7310 0001:00040FE8  7311 0001:00040FEC
  7312 0001:00040FFC  7314 0001:00041006  7316 0001:00041018  7317 0001:0004101C
  7318 0001:0004102C  7321 0001:00041036  7322 0001:0004104E  7323 0001:00041064
  7324 0001:00041074  7328 0001:00041088  7329 0001:0004109C  7330 0001:000410A5
  7331 0001:000410AD  7332 0001:000410B1  7333 0001:000410BD  7334 0001:000410C9
  7336 0001:000410D5  7337 0001:000410E5  7338 0001:000410EE  7339 0001:000410FD
  7340 0001:0004110C  7345 0001:00041119  7346 0001:00041124  7348 0001:00041135
  7349 0001:0004113F  7351 0001:00041144  7352 0001:00041158  7353 0001:0004115F
  7357 0001:0004116D  7358 0001:00041178  7359 0001:00041183  7361 0001:00041194
  7362 0001:0004119E  7364 0001:000411A3  7365 0001:000411B7  7366 0001:000411BE
  7370 0001:000411CC  7372 0001:000411DD  7373 0001:000411E7  7375 0001:000411EC
  7376 0001:00041200  7377 0001:00041207  7381 0001:00041215  7383 0001:00041226
  7384 0001:00041230  7386 0001:00041235  7387 0001:00041249  7388 0001:00041250
  7389 0001:00041254  7391 0001:0004126B  7392 0001:0004129A  7393 0001:000412A6
  7394 0001:000412B2  7395 0001:000412BF  7396 0001:000412CC  7397 0001:000412D8
  7399 0001:000412E4  7400 0001:000412EE  7401 0001:000412F8  7402 0001:00041303
  7405 0001:00041308  7406 0001:0004130E  7407 0001:00041319  7408 0001:00041323
  7412 0001:00041331  7414 0001:00041342  7415 0001:0004134C  7417 0001:00041351
  7418 0001:00041365  7419 0001:0004136C  7420 0001:00041370  7422 0001:00041387
  7423 0001:000413B6  7424 0001:000413C2  7425 0001:000413CE  7426 0001:000413DB
  7427 0001:000413E8  7428 0001:000413F4  7430 0001:00041400  7431 0001:0004140A
  7432 0001:00041414  7433 0001:0004141F  7436 0001:00041424  7437 0001:0004142A
  7438 0001:00041435  7439 0001:0004143F  7442 0001:0004144D  7443 0001:00041457
  7444 0001:0004145C  7446 0001:0004146C  7449 0001:00041487  7451 0001:0004148D
  7453 0001:000414A3  7455 0001:000414B1  7456 0001:000414C6  7455 0001:000414D1
  7458 0001:000414D6  7459 0001:000414DF  7461 0001:000414E5  7462 0001:000414EE
  7463 0001:000414F5  7464 0001:000414FC  7465 0001:000414FE  7467 0001:00041504
  7468 0001:0004150D  7469 0001:00041514  7470 0001:0004151B  7473 0001:0004151D
  7474 0001:00041529  7475 0001:00041534  7476 0001:00041540  7447 0001:00041556
  7480 0001:0004157A  7482 0001:00041584  7483 0001:0004158B  7485 0001:00041594
  7486 0001:0004159E  7488 0001:000415A3  7489 0001:000415BC  7488 0001:000415C7
  7490 0001:000415CC  7492 0001:000415DD  7493 0001:000415E7  7495 0001:000415EC
  7496 0001:00041601  7497 0001:0004160D  7498 0001:00041619  7499 0001:00041625
  7500 0001:00041630  7501 0001:00041639  7502 0001:00041643  7504 0001:00041648
  7505 0001:00041657  7509 0001:0004166B  7511 0001:0004167C  7512 0001:00041686
  7514 0001:0004168B  7515 0001:0004169F  7516 0001:000416A6  7518 0001:000416B4
  7519 0001:000416BE  7521 0001:000416C3  7525 0001:000416E2  7527 0001:000416F7
  7528 0001:000416FD  7529 0001:00041708  7530 0001:0004171E  7534 0001:00041723
  7536 0001:00041738  7537 0001:0004173E  7538 0001:00041749  7539 0001:0004175F
  7543 0001:00041764  7545 0001:00041779  7546 0001:0004177F  7547 0001:0004178A
  7548 0001:000417A0  7552 0001:000417A5  7554 0001:000417BA  7556 0001:000417C8
  7557 0001:000417D2  7558 0001:000417DC  7559 0001:000417E7  7561 0001:000417EC
  7562 0001:000417FF  7563 0001:00041805  7564 0001:00041838  7565 0001:00041849
  7566 0001:0004185A  7567 0001:0004186C  7568 0001:0004187E  7569 0001:0004188F
  7571 0001:000418A0  7572 0001:000418AA  7573 0001:000418B4  7574 0001:000418BF
  7577 0001:000418C4  7578 0001:000418CA  7579 0001:000418D9  7580 0001:000418E3
  7584 0001:000418F3  7586 0001:00041904  7587 0001:0004190E  7589 0001:00041913
  7590 0001:00041927  7591 0001:0004192E  7592 0001:0004193B  7596 0001:00041949
  7597 0001:00041955  7598 0001:0004195D  7599 0001:00041966  7600 0001:00041972
  7601 0001:00041981  7602 0001:0004198B  7603 0001:00041997  7605 0001:0004199C
  7606 0001:000419AB  7607 0001:000419B5  7608 0001:000419C1  7610 0001:000419C6
  7611 0001:000419D5  7612 0001:000419DF  7613 0001:000419EB  7615 0001:000419F0
  7616 0001:000419FF  7617 0001:00041A09  7618 0001:00041A15  7620 0001:00041A1A
  7621 0001:00041A20  7622 0001:00041A29  7623 0001:00041A2F  7624 0001:00041A38
  7625 0001:00041A3E  7626 0001:00041A47  7627 0001:00041A4D  7628 0001:00041A56
  7633 0001:00041A9A  7634 0001:00041AA4  7635 0001:00041AB0  7637 0001:00041AB5
  7641 0001:00041AC7  7643 0001:00041AD5  7644 0001:00041ADF  7646 0001:00041AE4
  7647 0001:00041AF7  7648 0001:00041AFD  7651 0001:00041B1E  7652 0001:00041B32
  7654 0001:00041B3E  7655 0001:00041B48  7657 0001:00041B4D  7658 0001:00041B63
  7659 0001:00041B67  7660 0001:00041B71  7662 0001:00041B76  7663 0001:00041B7D
  7665 0001:00041B83  7666 0001:00041B8C  7668 0001:00041B98  7669 0001:00041B9E
  7670 0001:00041BAA  7671 0001:00041BB5  7673 0001:00041BBB  7675 0001:00041BC9
  7681 0001:00041BD7  7682 0001:00041BED  7683 0001:00041BF1  7684 0001:00041BFB
  7686 0001:00041C00  7688 0001:00041C06  7689 0001:00041C0F  7690 0001:00041C1B
  7692 0001:00041C21  7693 0001:00041C2A  7695 0001:00041C36  7696 0001:00041C3C
  7697 0001:00041C48  7698 0001:00041C53  7700 0001:00041C5C  7701 0001:00041C65
  7702 0001:00041C6D  7704 0001:00041C9C  7706 0001:00041CA2  7708 0001:00041CB0
  7714 0001:00041CBE  7715 0001:00041CD4  7716 0001:00041CD8  7717 0001:00041CE2
  7719 0001:00041CE7  7721 0001:00041CFC  7722 0001:00041D05  7723 0001:00041D11
  7725 0001:00041D17  7726 0001:00041D20  7728 0001:00041D2C  7729 0001:00041D32
  7730 0001:00041D3E  7731 0001:00041D49  7733 0001:00041D52  7734 0001:00041D5B
  7735 0001:00041D63  7737 0001:00041D92  7739 0001:00041D98  7741 0001:00041DA6
  7747 0001:00041DB4  7748 0001:00041DCA  7749 0001:00041DCE  7750 0001:00041DD8
  7752 0001:00041DDD  7753 0001:00041DE3  7754 0001:00041DEF  7755 0001:00041DFA
  7757 0001:00041E03  7758 0001:00041E0C  7759 0001:00041E14  7761 0001:00041E43
  7763 0001:00041E49  7765 0001:00041E57  7772 0001:00041E65  7774 0001:00041E7A
  7776 0001:00041E80  7777 0001:00041E8B  7778 0001:00041E95  7780 0001:00041E9A
  7782 0001:00041EA3  7783 0001:00041EAD  7785 0001:00041EB2  7787 0001:00041EC7
  7788 0001:00041ED2  7789 0001:00041EE4  7791 0001:00041EF1  7793 0001:00041EF9
  7794 0001:00041F0B  7795 0001:00041F1B  7796 0001:00041F27  7798 0001:00041F4C
  7799 0001:00041F52  7800 0001:00041F5D  7801 0001:00041F67  7805 0001:00041F6C
  7806 0001:00041F73  7807 0001:00041F7D  7810 0001:00041F89  7811 0001:00041F96
  7812 0001:00041FA1  7813 0001:00041FAD  7815 0001:00041FC7  7816 0001:00041FCD
  7817 0001:00041FD8  7818 0001:00041FE2  7821 0001:00041FE7  7822 0001:00041FF1
  7828 0001:00042001  7830 0001:00042016  7832 0001:0004201C  7833 0001:00042027
  7834 0001:00042031  7836 0001:00042036  7837 0001:00042086  7838 0001:00042090
  7839 0001:0004209A  7840 0001:000420A5  7841 0001:000420B0  7842 0001:000420BA
  7844 0001:000420C4  7848 0001:000420D3  7849 0001:000420DD  7855 0001:000420E2
  7857 0001:000420F7  7859 0001:000420FD  7860 0001:00042108  7861 0001:00042112
  7863 0001:00042117  7864 0001:00042167  7865 0001:00042171  7866 0001:0004217B
  7867 0001:00042186  7868 0001:00042191  7869 0001:0004219B  7871 0001:000421A5
  7875 0001:000421B4  7876 0001:000421BE  7882 0001:000421C3  7884 0001:000421D8
  7886 0001:000421DE  7887 0001:000421E9  7888 0001:000421F3  7890 0001:000421F8
  7892 0001:00042201  7893 0001:0004220B  7895 0001:00042210  7897 0001:00042225
  7899 0001:0004222B  7900 0001:00042236  7901 0001:00042240  7903 0001:00042245
  7905 0001:0004224E  7906 0001:00042258  7910 0001:0004226D  7911 0001:00042275
  7916 0001:00042285  7918 0001:0004229A  7920 0001:000422A3  7921 0001:000422A9
  7922 0001:000422B4  7923 0001:000422BE  7925 0001:000422C3  7926 0001:000422CB
  7927 0001:000422D1  7928 0001:000422DC  7930 0001:000422ED  7931 0001:00042311
  7933 0001:00042316  7934 0001:0004232F  7935 0001:00042339  7937 0001:0004233E
  7938 0001:00042350  7939 0001:00042360  7940 0001:00042381  7943 0001:00042390
  7944 0001:000423A4  7945 0001:000423B0  7946 0001:000423BC  7947 0001:000423C8
  7948 0001:000423D8  7949 0001:000423E1  7950 0001:000423F0  7951 0001:000423FF
  7957 0001:0004240C  7959 0001:0004241A  7960 0001:00042424  7962 0001:00042429
  7963 0001:0004243C  7964 0001:00042442  7966 0001:00042457  7968 0001:00042461
  7969 0001:0004247E  7970 0001:00042489  7971 0001:000424AB  7973 0001:000424B4
  7974 0001:000424BD  7976 0001:000424D7  7977 0001:000424E3  7978 0001:00042508
  7979 0001:00042512  7981 0001:00042517  7983 0001:0004252C  7985 0001:00042541
  7987 0001:0004254B  7988 0001:00042568  7989 0001:00042573  7990 0001:00042595
  7992 0001:0004259E  7993 0001:000425A7  7995 0001:000425C1  7996 0001:000425CD
  7998 0001:000425F6  8000 0001:000425FB  8001 0001:0004261D  8003 0001:00042627
  8004 0001:00042644  8005 0001:0004264F  8006 0001:00042671  8008 0001:0004267A
  8009 0001:00042683  8011 0001:0004269D  8012 0001:000426A9  8014 0001:000426CE
  8016 0001:000426D8  8017 0001:000426F5  8018 0001:00042700  8019 0001:00042722
  8021 0001:0004272B  8022 0001:00042734  8024 0001:0004274E  8025 0001:0004275A
  8030 0001:00042781  7052 0001:0004278B  8035 0001:00042798  8036 0001:000427B1
  8037 0001:000427BA  8038 0001:000427C9  8037 0001:000427D4  8039 0001:000427DA
  8040 0001:000427E5  8042 0001:000427F6  8043 0001:00042801  8048 0001:0004280C
  8049 0001:00042839  8052 0001:0004284B  8053 0001:00042858  8054 0001:0004286F
  8055 0001:00042883  8056 0001:0004289A  8060 0001:0004289E  8061 0001:000428A8
  8062 0001:000428BD  8063 0001:000428D0  8064 0001:000428F5  8067 0001:000428F9
  8069 0001:000428FB  8077 0001:00042934  8078 0001:0004295D  8079 0001:00042A18
  8080 0001:00042A3E  8081 0001:00042A66  8082 0001:00042A9E  8083 0001:00042ADA
  8086 0001:00042B25  8087 0001:00042B3A  8089 0001:00042B4A  8090 0001:00042B4C
  8092 0001:00042B51  8096 0001:00042B79  8097 0001:00042B90  8099 0001:00042BA0
  8100 0001:00042BA2  8102 0001:00042BA7  8106 0001:00042BD3  8107 0001:00042BEA
  8109 0001:00042BF9  8110 0001:00042BFB  8112 0001:00042C00  8113 0001:00042C0E
  8115 0001:00042C2E  8116 0001:00042C47  8117 0001:00042C49  8119 0001:00042C4E
  8123 0001:00042C67  8124 0001:00042C7E  8126 0001:00042C8D  8127 0001:00042C8F
  8129 0001:00042C94  8130 0001:00042CA2  8132 0001:00042CC2  8133 0001:00042CDB
  8134 0001:00042CDD  8136 0001:00042CE2  8138 0001:00042CFF  8139 0001:00042D2B
  8140 0001:00042D57  8141 0001:00042D83  8144 0001:00042DB5  8145 0001:00042DCA
  8147 0001:00042DDA  8148 0001:00042DDC  8150 0001:00042DE1  8152 0001:00042DFB
  8153 0001:00042E29  8154 0001:00042E57  8155 0001:00042E85  8156 0001:00042EA7
  8157 0001:00042EC9  8158 0001:00042EF7  8159 0001:00042F15  8160 0001:00042F39
  8161 0001:00042F66  8162 0001:00042F93  8163 0001:00042FCF  8164 0001:0004300B
  8165 0001:00043047  8168 0001:0004307B  8169 0001:00043092  8171 0001:00043099
  8172 0001:0004309B  8174 0001:000430A0  8175 0001:000430F1  8176 0001:000430F9
  8177 0001:00043102  8178 0001:0004310A  8180 0001:00043112  8182 0001:00043120
  8184 0001:00043128  8185 0001:0004312A  8187 0001:0004312F  8188 0001:00043133
  8190 0001:00043147  8194 0001:00043158  8195 0001:0004315B  8196 0001:00043160
  8198 0001:0004317F  8199 0001:000431AB  8200 0001:000431BE  8201 0001:000431D3
  8202 0001:000431E5  8203 0001:000431F7  8204 0001:00043237  8205 0001:0004326F
  8207 0001:000432A7  8208 0001:000432D2  8212 0001:000432FD  8213 0001:00043314
  8214 0001:0004331B  8216 0001:00043329  8220 0001:00043338  8221 0001:0004333A
  8224 0001:0004333C  8225 0001:0004333E  8229 0001:0004337C  8230 0001:00043387
  8231 0001:0004339E  8233 0001:000433AE  8234 0001:000433B0  8236 0001:000433B2
  8237 0001:000433C8  8238 0001:000433CA  8243 0001:000433D4  8244 0001:000433DF
  8245 0001:000433F4  8247 0001:00043404  8248 0001:00043406  8250 0001:00043408
  8251 0001:00043420  8252 0001:00043422  8259 0001:0004342C  8260 0001:0004343D
  8275 0001:00043450  8276 0001:00043453  8277 0001:00043468  8279 0001:0004347D
  8280 0001:00043492  8281 0001:000434A7  8282 0001:000434BC  8283 0001:000434D1
  8284 0001:000434E6  8285 0001:000434FB  8287 0001:00043510  8288 0001:00043525
  8289 0001:0004353A  8290 0001:0004354F  8291 0001:00043564  8292 0001:00043579
  8293 0001:0004358E  8294 0001:000435A3  8295 0001:000435B8  8296 0001:000435CD
  8297 0001:000435E2  8298 0001:000435F7  8299 0001:0004360C  8300 0001:00043621
  8301 0001:00043636  8302 0001:0004364B  8303 0001:00043660  8304 0001:00043675
  8305 0001:0004368A  8306 0001:0004369F  8307 0001:000436B4  8308 0001:000436C9
  8309 0001:000436DE  8311 0001:000436F3  8312 0001:00043706  8313 0001:00043719
  8314 0001:0004372C  8315 0001:0004373F  8317 0001:00043752  8321 0001:00043765
  8322 0001:0004377A  8324 0001:0004378F  8325 0001:000437A4  8326 0001:000437B9
  8327 0001:000437CE  8328 0001:000437E3  8329 0001:000437F8  8330 0001:0004380D
  8331 0001:00043822  8332 0001:00043837  8335 0001:0004384C  8336 0001:00043861
  8338 0001:00043876  8340 0001:0004388B  8341 0001:00043892  8350 0001:00043C88
  8352 0001:00043C8E  8353 0001:00043C91  8354 0001:00043C93  8356 0001:00043C96
  8357 0001:00043C98  8358 0001:00043C99  8359 0001:00043C9C  8360 0001:00043C9D
  8361 0001:00043C9F  8363 0001:00043CA1  8364 0001:00043CA4  8365 0001:00043CA7
  8366 0001:00043CAA  8367 0001:00043CAD  8369 0001:00043CB0  8370 0001:00043CC4
  8378 0001:00043CD0  8380 0001:00043CD6  8381 0001:00043CD9  8382 0001:00043CDB
  8384 0001:00043CDE  8385 0001:00043CE0  8386 0001:00043CE1  8387 0001:00043CE4
  8388 0001:00043CE5  8389 0001:00043CE7  8391 0001:00043CE9  8392 0001:00043CEC
  8394 0001:00043CEF  8395 0001:00043D03  8403 0001:00043D0C  8405 0001:00043D12
  8406 0001:00043D15  8407 0001:00043D17  8409 0001:00043D1A  8410 0001:00043D1C
  8411 0001:00043D1D  8412 0001:00043D20  8413 0001:00043D21  8414 0001:00043D23
  8416 0001:00043D25  8417 0001:00043D28  8419 0001:00043D2B  8420 0001:00043D2E
  8422 0001:00043D30  8423 0001:00043D31  8424 0001:00043D32  8425 0001:00043D34
  8427 0001:00043D36  8428 0001:00043D4A  8437 0001:00043D54  8439 0001:00043D58
  8440 0001:00043D5B  8441 0001:00043D5D  8443 0001:00043D60  8444 0001:00043D62
  8445 0001:00043D63  8446 0001:00043D66  8447 0001:00043D67  8448 0001:00043D69
  8450 0001:00043D6B  8451 0001:00043D6E  8452 0001:00043D71  8453 0001:00043D74
  8454 0001:00043D77  8455 0001:00043D7A  8456 0001:00043D7D  8457 0001:00043D7F
  8458 0001:00043D82  8459 0001:00043D84  8460 0001:00043D87  8461 0001:00043D89
  8462 0001:00043D8C  8464 0001:00043D8E  8465 0001:00043D90  8466 0001:00043D92
  8467 0001:00043D95  8469 0001:00043D97  8470 0001:00043D99  8471 0001:00043D9C
  8473 0001:00043D9F  8474 0001:00043DA2  8475 0001:00043DA4  8478 0001:00043DA6
  8479 0001:00043DA9  8487 0001:00043DB0  8489 0001:00043DB4  8490 0001:00043DB7
  8491 0001:00043DB9  8493 0001:00043DBC  8494 0001:00043DBE  8495 0001:00043DBF
  8496 0001:00043DC2  8497 0001:00043DC3  8498 0001:00043DC5  8500 0001:00043DC7
  8501 0001:00043DCA  8502 0001:00043DCD  8503 0001:00043DD0  8504 0001:00043DD2
  8505 0001:00043DD5  8506 0001:00043DD7  8507 0001:00043DDA  8508 0001:00043DDC
  8509 0001:00043DDF  8511 0001:00043DE1  8512 0001:00043DE3  8513 0001:00043DE5
  8514 0001:00043DE8  8516 0001:00043DEA  8517 0001:00043DEC  8518 0001:00043DEF
  8520 0001:00043DF2  8521 0001:00043DF5  8522 0001:00043DF7  8525 0001:00043DF9
  8526 0001:00043DFC  8534 0001:00043E04  8536 0001:00043E08  8537 0001:00043E0B
  8538 0001:00043E0D  8540 0001:00043E10  8541 0001:00043E12  8542 0001:00043E13
  8543 0001:00043E16  8544 0001:00043E17  8545 0001:00043E19  8547 0001:00043E1B
  8548 0001:00043E1E  8549 0001:00043E21  8550 0001:00043E24  8551 0001:00043E26
  8552 0001:00043E29  8553 0001:00043E2B  8554 0001:00043E2E  8555 0001:00043E30
  8556 0001:00043E33  8558 0001:00043E35  8559 0001:00043E37  8560 0001:00043E39
  8561 0001:00043E3C  8563 0001:00043E3E  8564 0001:00043E40  8565 0001:00043E43
  8567 0001:00043E46  8568 0001:00043E49  8570 0001:00043E4B  8571 0001:00043E4C
  8572 0001:00043E4D  8573 0001:00043E4F  8574 0001:00043E51  8575 0001:00043E54
  8576 0001:00043E56  8579 0001:00043E58  8580 0001:00043E5B  8586 0001:00043E60
  8587 0001:00043E66  8588 0001:00043E78  8595 0001:00043E7C  8596 0001:00043EA8
  8597 0001:00043EB1  8598 0001:00043EDF  8600 0001:00043EE8  8602 0001:00043EF9
  8603 0001:00043EFB  8605 0001:00043EFD  8606 0001:00043F13  8607 0001:00043F16
  8598 0001:00043F17  8608 0001:00043F1A  8609 0001:00043F1C  8610 0001:00043F4C
  8611 0001:00043F77  8613 0001:00043F7B  8614 0001:00043F8E  8615 0001:00043F90
  8617 0001:00043F95  8619 0001:00043F9B  8620 0001:00043FA2  8623 0001:00043FA4
  8624 0001:00044014  8625 0001:00044023  8626 0001:0004404B  8628 0001:00044071
  8629 0001:00044080  8631 0001:00044093  8632 0001:000440A5  8633 0001:000440B7
  8634 0001:000440C9  8635 0001:000440DB  8636 0001:000440EC  8637 0001:000440FD
  8640 0001:0004410C  8641 0001:0004411B  8643 0001:0004412A  8645 0001:00044139
  8646 0001:00044145  8647 0001:00044151  8649 0001:00044168  8651 0001:00044179
  8653 0001:00044191  8654 0001:0004419D  8658 0001:000441B5  8659 0001:000441B7
  8662 0001:000441B9  8663 0001:000441BB  8667 0001:0004421C  8668 0001:00044229
  8700 0001:0004422C  8701 0001:00044238  8703 0001:00044247  8704 0001:00044249
  8706 0001:0004424E  8707 0001:0004425A  8708 0001:0004425D  8709 0001:00044260
  8711 0001:00044267  8713 0001:00044270  8714 0001:00044276  8717 0001:0004427A
  8718 0001:00044288  8720 0001:0004428C  8722 0001:00044298  8723 0001:0004429C
  8724 0001:000442A1  8725 0001:000442A4  8727 0001:000442A9  8728 0001:000442AD
  8729 0001:000442B5  8730 0001:000442C4  8731 0001:000442C6  8732 0001:000442D6
  8734 0001:000442E3  8735 0001:000442EA  8736 0001:000442F0  8738 0001:000442F7
  8739 0001:000442FB  8741 0001:00044304  8743 0001:00044384  8744 0001:00044388
  8748 0001:00044396  8749 0001:0004439A  8750 0001:000443A6  8754 0001:000443B6
  8755 0001:000443BA  8756 0001:000443C6  8760 0001:000443E3  8761 0001:000443E7
  8762 0001:000443F3  8766 0001:00044403  8767 0001:00044407  8770 0001:00044416
  8771 0001:0004441A  8775 0001:0004442C  8776 0001:00044430  8779 0001:0004443E
  8780 0001:00044442  8783 0001:00044450  8784 0001:00044454  8787 0001:00044462
  8788 0001:00044466  8791 0001:00044471  8792 0001:00044475  8795 0001:0004447F
  8796 0001:00044483  8800 0001:0004448D  8801 0001:00044491  8802 0001:0004449D
  8806 0001:000444AF  8807 0001:000444B3  8811 0001:000444C2  8812 0001:000444C6
  8816 0001:000444D0  8817 0001:000444D4  8823 0001:000444DE  8824 0001:000444E2
  8831 0001:000444EF  8832 0001:000444F2  8732 0001:000444F9  8834 0001:00044500
  8842 0001:0004450C  8843 0001:00044513  8845 0001:0004451D  8846 0001:00044520
  8847 0001:0004452C  8849 0001:00044530  8850 0001:00044534  8852 0001:00044541
  8853 0001:00044548  8854 0001:0004454D  8857 0001:000445CD  8858 0001:000445D7
  8861 0001:000445E4  8862 0001:000445EE  8865 0001:000445FB  8866 0001:00044605
  8869 0001:00044613  8870 0001:0004461D  8873 0001:0004462B  8874 0001:00044635
  8877 0001:00044641  8878 0001:0004464B  8881 0001:00044657  8882 0001:00044661
  8885 0001:0004466E  8886 0001:00044674  8887 0001:0004467E  8890 0001:0004468F
  8891 0001:00044695  8892 0001:0004469F  8895 0001:000446B0  8896 0001:000446B6
  8897 0001:000446CD  8901 0001:000446DE  8902 0001:000446E4  8903 0001:000446F3
  8908 0001:00044701  8909 0001:00044707  8913 0001:00044712  8914 0001:00044718
  8915 0001:00044722  8919 0001:00044731  8920 0001:00044737  8921 0001:00044741
  8924 0001:00044750  8925 0001:00044756  8930 0001:0004475F  8931 0001:00044765
  8932 0001:0004476F  8937 0001:0004477C  8938 0001:0004477F  8850 0001:00044782
  8940 0001:00044789  8942 0001:00044798  8943 0001:000447A4  8961 0001:000447AC
  8963 0001:000447B0  8964 0001:000447B2  8966 0001:000447B3  8968 0001:000447BC
  8969 0001:000447C6  8972 0001:000447CC  8980 0001:000447D0  8981 0001:000447EF
  8982 0001:000447F1  8983 0001:000447F9  8985 0001:00044803  8988 0001:0004482D
  8990 0001:00044856  8991 0001:00044867  8992 0001:0004486F  8993 0001:0004487C
  8994 0001:0004488F  8995 0001:000448A0  8996 0001:000448B1  8998 0001:000448C2
  8999 0001:000448D8  9002 0001:000448E8  9003 0001:000448FB  9004 0001:0004490D
  9005 0001:0004491F  9007 0001:00044931  9008 0001:00044947  9011 0001:00044958
  9012 0001:0004495A  9015 0001:0004495F  9031 0001:00044963  9037 0001:00044965
  9038 0001:00044978  9039 0001:00044989  9040 0001:0004499A  9042 0001:000449AB
  9043 0001:000449C1  9047 0001:000449D3  9048 0001:000449D7  9051 0001:00044A5A
  9052 0001:00044A67  9053 0001:00044A7B  9054 0001:00044A8F  9055 0001:00044AA4
  9057 0001:00044AB7  9062 0001:00044AC8  9064 0001:00044AF1  9065 0001:00044B02
  9066 0001:00044B0A  9067 0001:00044B17  9068 0001:00044B2A  9069 0001:00044B3B
  9070 0001:00044B4C  9072 0001:00044B5D  9073 0001:00044B73  9076 0001:00044B83
  9077 0001:00044B96  9078 0001:00044BA8  9079 0001:00044BBA  9081 0001:00044BCC
  9082 0001:00044BE2  9085 0001:00044BF3  9086 0001:00044BF5  9089 0001:00044BFA
  9090 0001:00044C07  9099 0001:00044C1A  9100 0001:00044C27  9103 0001:00044C38
  9104 0001:00044C45  9105 0001:00044C49  9108 0001:00044C62  9109 0001:00044C6F
  9110 0001:00044C73  9113 0001:00044C8C  9114 0001:00044C99  9115 0001:00044C9D
  9119 0001:00044CB0  9120 0001:00044CB4  9121 0001:00044CC1  9126 0001:00044CE2
  9130 0001:00044D04  9131 0001:00044D11  9134 0001:00044D26  9135 0001:00044D33
  9139 0001:00044D46  9140 0001:00044D53  9141 0001:00044D5B  9143 0001:00044D6E
  9147 0001:00044D7D  9148 0001:00044D8A  9152 0001:00044D9A  9153 0001:00044DA7
  9159 0001:00044DB7  9160 0001:00044DC4  9161 0001:00044DE9  9166 0001:00044DEF
  9167 0001:00044DFC  9168 0001:00044E10  9171 0001:00044E14  9173 0001:00044E1A
  9174 0001:00044E2D  9175 0001:00044E45  9176 0001:00044E5D  9183 0001:00044E75
  9192 0001:00044E8B  9195 0001:00044E9F  9196 0001:00044EA1  9197 0001:00044F30
  9198 0001:00044F5E  9199 0001:00044F62  9201 0001:00044F6C  9202 0001:00044F74
  9203 0001:00044F83  9204 0001:00044F8C  9205 0001:00044F90  9206 0001:00044F94
  9207 0001:00044FA2  9209 0001:00044FCA  9210 0001:00044FCF  9211 0001:00044FD4
  9212 0001:00044FD9  9213 0001:00044FDD  9214 0001:00044FE3  9215 0001:00044FE7
  9217 0001:00044FED  9219 0001:00044FFB  9220 0001:0004501E  9217 0001:0004501F
  9221 0001:00045024  9222 0001:0004502C  9224 0001:00045066  9227 0001:00045071
  9230 0001:00045080  9233 0001:000450ED  9234 0001:00045108  9235 0001:00045176
  9237 0001:000451E5  9238 0001:00045253  9241 0001:000452BD  9242 0001:00045328
  9243 0001:00045393  9244 0001:000453FE  9245 0001:0004546C  9248 0001:000454DB
  9253 0001:00045549  9254 0001:000455C6  9257 0001:00045652  9258 0001:000456DA
  9261 0001:00045700  9265 0001:00045795  9267 0001:0004581A  9270 0001:00045824
  9271 0001:0004586D  9274 0001:00045876  9275 0001:0004587A  9276 0001:00045888
  9277 0001:000458A6  9275 0001:000458A7  9278 0001:000458AC  9279 0001:000458B0
  9280 0001:000458C9  9283 0001:000458D2  9284 0001:000458D8  9285 0001:000458E8
  9287 0001:000458F5  9288 0001:000458FD  9289 0001:0004595E  9290 0001:000459A1
  9291 0001:000459E4  9292 0001:00045A27  9293 0001:00045A6D  9294 0001:00045AB4
  9295 0001:00045B17  9298 0001:00045B9C  9299 0001:00045C18  9303 0001:00045C3C
  9305 0001:00045CB5  9308 0001:00045CBF  9309 0001:00045CFC  9312 0001:00045D05
  9313 0001:00045D09  9314 0001:00045D0D  9316 0001:00045D16  9317 0001:00045D1F
  9318 0001:00045D3D  9316 0001:00045D3E  9319 0001:00045D43  9320 0001:00045D49
  9321 0001:00045D59  9323 0001:00045D66  9324 0001:00045DA8  9328 0001:00045DB1
  9329 0001:00045DB5  9330 0001:00045DBB  9331 0001:00045DC8  9333 0001:00045DD5
  9334 0001:00045DDE  9335 0001:00045DFC  9333 0001:00045DFD  9336 0001:00045E02
  9337 0001:00045E0A  9338 0001:00045E6B  9339 0001:00045EE8  9340 0001:00045F65
  9341 0001:00045FE2  9342 0001:00046062  9343 0001:000460E3  9344 0001:00046163
  9347 0001:000461E8  9348 0001:00046264  9353 0001:00046288  9355 0001:0004630A
  9358 0001:00046314  9360 0001:00046351  9363 0001:0004635A  9364 0001:0004635E
  9365 0001:00046367  9366 0001:00046385  9364 0001:00046386  9367 0001:0004638B
  9368 0001:00046391  9369 0001:000463A1  9371 0001:000463AE  9372 0001:000463B6
  9373 0001:00046417  9374 0001:00046494  9375 0001:00046511  9376 0001:0004658E
  9377 0001:0004660E  9378 0001:0004668F  9379 0001:0004670F  9382 0001:00046794
  9383 0001:00046810  9387 0001:00046834  9389 0001:000468B6  9392 0001:000468C0
  9394 0001:000468FD  9398 0001:0004690E  9400 0001:0004691A  9401 0001:00046924
  9402 0001:0004692C  9404 0001:00046936  9398 0001:00046937  9405 0001:0004693C
  9407 0001:0004694C  9418 0001:0004698C  9419 0001:00046995  9421 0001:0004699E
  9422 0001:000469A2  9424 0001:000469A9  9425 0001:000469AF  9427 0001:000469BB
  9432 0001:000469C0  9433 0001:000469CC  9439 0001:000469D0  9440 0001:000469DB
  9442 0001:000469E4  9443 0001:000469E6  9445 0001:000469E8  9447 0001:000469EF
  9448 0001:000469FF  9450 0001:00046A0A  9451 0001:00046A0C  9453 0001:00046A0E
  9454 0001:00046A14  9455 0001:00046A20  9456 0001:00046A22  9457 0001:00046A25
  9458 0001:00046A33  9459 0001:00046A35  9483 0001:00046A3C  9485 0001:00046A41
  9497 0001:00046A44  9499 0001:00046A47  9592 0001:00046A48  9593 0001:00046A4B
  9595 0001:00046A4F  9596 0001:00046A54  9599 0001:00046A59  9600 0001:00046A5E
  9601 0001:00046A63  9603 0001:00046A6C  9604 0001:00046A76  9607 0001:00046A7C
  9676 0001:00046A80  9677 0001:00046A8A  9678 0001:00046A96  9679 0001:00046AB4
  9684 0001:00046AC0  9685 0001:00046AC4  9686 0001:00046ACE  9691 0001:00046AD0
  9692 0001:00046AD4  9693 0001:00046ADD  9692 0001:00046AEC  9694 0001:00046AF1
  9695 0001:00046AF8  9708 0001:00046AFC  9709 0001:00046B21  9710 0001:00046B2F
  9712 0001:00046B40  9713 0001:00046B42  9715 0001:00046B47  9716 0001:00046B50
  9717 0001:00046B62  9718 0001:00046B6A  9720 0001:00046B7D  9721 0001:00046B90
  9723 0001:00046BA2  9724 0001:00046BA4  9726 0001:00046BA9  9727 0001:00046BAF
  9728 0001:00046BC4  9729 0001:00046BCD  9730 0001:00046BDC  9732 0001:00046BF0
  9730 0001:00046BFA  9734 0001:00046BFD  9736 0001:00046C10  9737 0001:00046C1C
  9738 0001:00046C3D  9739 0001:00046C3E  9734 0001:00046C3F  9740 0001:00046C44
  9742 0001:00046C4C  9743 0001:00046C63  9744 0001:00046C68  9745 0001:00046C76
  9746 0001:00046C7F  9748 0001:00046CA1  9751 0001:00046CDA  9760 0001:00046CE1
  9761 0001:00046CE5  9762 0001:00046CF1  9763 0001:00046D02  9765 0001:00046D1F
  9766 0001:00046D3A  9768 0001:00046D41  9769 0001:00046D49  9770 0001:00046D51
  9786 0001:00046D84  9787 0001:00046DA9  9788 0001:00046DBC  9790 0001:00046DC8
  9791 0001:00046DCA  9793 0001:00046DCF  9794 0001:00046DDD  9796 0001:00046DE3
  9797 0001:00046DE5  9799 0001:00046DEA  9800 0001:00046DF8  9801 0001:00046DFD
  9803 0001:00046E11  9804 0001:00046E23  9806 0001:00046E3B  9808 0001:00046E41
  9801 0001:00046E42  9809 0001:00046E45  9810 0001:00046E4B  9811 0001:00046E4D
  9813 0001:00046E52  9814 0001:00046E60  9816 0001:00046E71  9817 0001:00046E73
  9819 0001:00046E78  9820 0001:00046E81  9821 0001:00046E93  9822 0001:00046EA8
  9823 0001:00046EB1  9824 0001:00046EC3  9826 0001:00046EC9  9827 0001:00046ECB
  9829 0001:00046ED0  9830 0001:00046EDA  9831 0001:00046EE9  9832 0001:00046EFD
  9834 0001:00046F11  9832 0001:00046F1B  9836 0001:00046F1E  9838 0001:00046F31
  9843 0001:00046F3D  9844 0001:00046F5C  9845 0001:00046F5D  9836 0001:00046F5E
  9846 0001:00046F63  9848 0001:00046F6B  9849 0001:00046F82  9850 0001:00046F87
  9851 0001:00046F95  9854 0001:00046FC4  9863 0001:00046FCB  9864 0001:00046FCF
  9865 0001:00046FDB  9866 0001:00046FEC  9868 0001:00047009  9869 0001:00047024
  9871 0001:0004702B  9872 0001:00047033  9873 0001:0004703B  9874 0001:00047043
  9891 0001:00047074  9892 0001:00047099  9893 0001:000470AC  9895 0001:000470B8
  9896 0001:000470BA  9898 0001:000470BF  9899 0001:000470CD  9901 0001:000470D3
  9902 0001:000470D5  9904 0001:000470DA  9905 0001:000470E8  9906 0001:000470ED
  9908 0001:00047101  9909 0001:00047113  9911 0001:0004712B  9913 0001:00047131
  9906 0001:00047132  9914 0001:00047135  9915 0001:0004713B  9916 0001:0004713D
  9918 0001:00047142  9919 0001:00047150  9921 0001:00047161  9922 0001:00047163
  9924 0001:00047168  9925 0001:00047171  9926 0001:00047183  9927 0001:00047198
  9928 0001:000471A1  9929 0001:000471B3  9931 0001:000471B9  9932 0001:000471BB
  9934 0001:000471C0  9935 0001:000471CA  9936 0001:000471D9  9937 0001:000471ED
  9939 0001:00047201  9937 0001:0004720B  9941 0001:0004720E  9943 0001:00047221
  9944 0001:0004722D  9945 0001:0004724C  9946 0001:0004724D  9941 0001:0004724E
  9947 0001:00047253  9949 0001:0004725B  9950 0001:00047272  9951 0001:00047277
  9952 0001:00047285  9955 0001:000472BE  9964 0001:000472C5  9965 0001:000472C9
  9966 0001:000472D5  9967 0001:000472E6  9969 0001:00047303  9970 0001:0004731E
  9972 0001:00047325  9973 0001:0004732D  9974 0001:00047335  9975 0001:0004733D
  9984 0001:00047370  9985 0001:00047397  9986 0001:000473AE  9987 0001:000473C5
  9988 0001:000473DA  9992 0001:00047405  9993 0001:00047407  9996 0001:0004740C
 10002 0001:0004741E 10003 0001:00047426 10005 0001:00047450 10006 0001:00047469
 10007 0001:0004746B 10010 0001:00047470 10016 0001:00047482 10017 0001:0004748A
 10019 0001:000474B2 10020 0001:000474CB 10021 0001:000474CD 10024 0001:000474D2
 10026 0001:000474EC 10027 0001:000474FB 10029 0001:00047501 10030 0001:00047503
 10032 0001:00047508 10033 0001:00047516 10034 0001:0004751B 10036 0001:0004752F
 10037 0001:00047541 10039 0001:00047559 10041 0001:0004755F 10034 0001:00047560
 10042 0001:00047563 10043 0001:00047569 10044 0001:0004756B 10047 0001:0004756D
 10048 0001:0004757B 10050 0001:0004759C 10051 0001:0004759E 10055 0001:000475AC
 10056 0001:000475AE 10058 0001:000475B0 10059 0001:000475B2 10065 0001:000475E0
 10066 0001:000475EA 10067 0001:000475FF 10069 0001:00047614 10070 0001:00047616
 10073 0001:00047618 10079 0001:00047621 10082 0001:0004762B 10083 0001:00047632
 10084 0001:00047634 10096 0001:0004763C 10097 0001:00047664 10098 0001:00047672
 10100 0001:00047683 10101 0001:00047685 10103 0001:0004768A 10104 0001:00047693
 10105 0001:000476A5 10106 0001:000476AD 10108 0001:000476C4 10109 0001:000476DB
 10111 0001:000476F0 10112 0001:000476F2 10114 0001:000476F7 10115 0001:000476FC
 10116 0001:0004770E 10117 0001:00047717 10118 0001:00047726 10120 0001:0004773A
 10118 0001:00047744 10122 0001:00047747 10124 0001:0004775A 10125 0001:00047782
 10126 0001:00047783 10122 0001:00047784 10127 0001:00047789 10129 0001:00047791
 10130 0001:000477A7 10131 0001:000477AC 10132 0001:000477BA 10133 0001:000477E5
 10136 0001:000477F6 10145 0001:000477FD 10146 0001:00047801 10147 0001:0004780D
 10148 0001:0004781E 10150 0001:0004783B 10151 0001:00047856 10153 0001:0004785D
 10154 0001:00047865 10155 0001:0004786D 10161 0001:000478A0 10162 0001:000478B6
 10163 0001:000478C1 10164 0001:000478D3 10166 0001:000478D9 10167 0001:000478DB
 10169 0001:000478DD 10171 0001:000478E5 10172 0001:000478F7 10174 0001:00047908
 10175 0001:0004790A 10177 0001:0004790C 10178 0001:00047913 10179 0001:00047920
 10180 0001:00047932 10181 0001:0004793D 10182 0001:00047941 10183 0001:00047943
 10187 0001:00047968 10188 0001:00047974 10189 0001:00047985 10192 0001:00047989
 10194 0001:00047990 10203 0001:00047998 10204 0001:000479C5 10205 0001:000479D3
 10207 0001:000479DD 10208 0001:000479F2 10210 0001:00047A02 10211 0001:00047A04
 10213 0001:00047A11 10214 0001:00047A13 10216 0001:00047A17 10217 0001:00047A21
 10218 0001:00047A23 10220 0001:00047A30 10221 0001:00047A47 10223 0001:00047A62
 10225 0001:00047A84 10228 0001:00047B03 10229 0001:00047B08 10230 0001:00047B16
 10232 0001:00047B28 10233 0001:00047B3D 10234 0001:00047B52 10235 0001:00047B67
 10236 0001:00047B7C 10237 0001:00047B90 10238 0001:00047BA4 10239 0001:00047BBF
 10240 0001:00047BD7 10241 0001:00047BF0 10242 0001:00047C01 10243 0001:00047C1D
 10245 0001:00047C2E 10249 0001:00047C3F 10250 0001:00047C41 10253 0001:00047C4E
 10255 0001:00047C55 10256 0001:00047C6C 10258 0001:00047C7C 10259 0001:00047C7E
 10261 0001:00047C8B 10262 0001:00047C8D 10264 0001:00047C91 10265 0001:00047C9B
 10266 0001:00047C9D 10268 0001:00047CAA 10269 0001:00047CBF 10271 0001:00047CDA
 10272 0001:00047CE7 10273 0001:00047CF6 10275 0001:00047CFE 10276 0001:00047D0B
 10279 0001:00047D18 10282 0001:00047D97 10283 0001:00047DA4 10285 0001:00047DB7
 10286 0001:00047DCB 10287 0001:00047DDF 10288 0001:00047DF4 10289 0001:00047E09
 10290 0001:00047E1D 10291 0001:00047E31 10292 0001:00047E43 10293 0001:00047E55
 10294 0001:00047E67 10295 0001:00047E81 10297 0001:00047E92 10301 0001:00047EAC
 10302 0001:00047EAE 10305 0001:00047EB8 10309 0001:00047EC9 10318 0001:00047ED0
 10319 0001:00047ED4 10320 0001:00047EE0 10321 0001:00047EF1 10323 0001:00047F0E
 10324 0001:00047F29 10326 0001:00047F30 10335 0001:00047F70 10336 0001:00047F98
 10337 0001:00047FAC 10338 0001:00047FAE 10340 0001:00047FB3 10341 0001:00047FC0
 10342 0001:00047FCA 10343 0001:00047FCC 10345 0001:00047FD1 10346 0001:00047FD2
 10348 0001:00047FDF 10349 0001:00047FF5 10351 0001:00048005 10352 0001:00048007
 10354 0001:0004800C 10355 0001:00048011 10357 0001:00048017 10358 0001:00048021
 10359 0001:00048023 10361 0001:00048028 10362 0001:00048037 10363 0001:00048053
 10365 0001:00048067 10366 0001:00048081 10363 0001:00048082 10367 0001:00048085
 10368 0001:00048093 10371 0001:000480BD 10380 0001:000480C4 10381 0001:000480C8
 10382 0001:000480D4 10383 0001:000480E5 10385 0001:00048102 10386 0001:0004811D
 10388 0001:00048124 10390 0001:00048131 10391 0001:00048145 10393 0001:00048155
 10394 0001:00048157 10396 0001:0004815C 10397 0001:00048161 10399 0001:00048167
 10400 0001:00048171 10401 0001:00048173 10403 0001:00048178 10404 0001:00048187
 10406 0001:000481A7 10408 0001:000481B9 10409 0001:000481D3 10406 0001:000481D4
 10410 0001:000481D7 10411 0001:000481E5 10414 0001:0004820F 10423 0001:00048216
 10424 0001:0004821A 10425 0001:00048226 10426 0001:00048237 10428 0001:00048254
 10429 0001:0004826F 10431 0001:00048276 10433 0001:0004827E 10443 0001:000482AC
 10444 0001:000482D4 10445 0001:000482E8 10446 0001:000482EA 10448 0001:000482EF
 10449 0001:000482FC 10450 0001:00048306 10451 0001:00048308 10453 0001:0004830D
 10454 0001:0004830E 10456 0001:0004831B 10457 0001:00048332 10459 0001:00048342
 10460 0001:00048344 10462 0001:00048349 10463 0001:0004834E 10464 0001:0004835D
 10465 0001:00048379 10466 0001:0004838D 10465 0001:000483A8 10467 0001:000483AB
 10468 0001:000483BD 10470 0001:000483C3 10471 0001:000483D4 10473 0001:000483E8
 10474 0001:000483F6 10477 0001:00048420 10486 0001:00048427 10487 0001:0004842B
 10488 0001:00048437 10489 0001:00048448 10491 0001:00048465 10492 0001:00048480
 10494 0001:00048487 10495 0001:0004848F 10497 0001:0004849C 10498 0001:000484B1
 10500 0001:000484C1 10501 0001:000484C3 10503 0001:000484C8 10504 0001:000484CD
 10505 0001:000484DC 10507 0001:000484FA 10509 0001:0004850C 10510 0001:00048526
 10507 0001:00048527 10511 0001:0004852A 10512 0001:0004853C 10514 0001:00048542
 10515 0001:00048553 10517 0001:00048567 10518 0001:00048575 10521 0001:0004859F
 10530 0001:000485A6 10531 0001:000485AA 10532 0001:000485B6 10533 0001:000485C7
 10535 0001:000485E4 10536 0001:000485FF 10538 0001:00048606 10539 0001:0004860E
 10541 0001:00048616 10554 0001:00048644 10555 0001:0004866C 10556 0001:00048680
 10557 0001:00048682 10559 0001:00048687 10560 0001:00048694 10561 0001:0004869E
 10562 0001:000486A0 10564 0001:000486A5 10565 0001:000486A6 10567 0001:000486B3
 10568 0001:000486C9 10570 0001:000486D9 10571 0001:000486DB 10573 0001:000486E0
 10574 0001:000486E5 10575 0001:000486FA 10577 0001:00048709 10578 0001:0004870B
 10580 0001:00048710 10581 0001:00048722 10583 0001:00048728 10584 0001:0004872A
 10586 0001:0004872F 10587 0001:00048737 10588 0001:0004873C 10589 0001:0004874B
 10590 0001:0004875F 10591 0001:00048773 10590 0001:0004878E 10592 0001:00048791
 10593 0001:0004879F 10596 0001:000487C9 10605 0001:000487D0 10606 0001:000487D4
 10607 0001:000487E0 10608 0001:000487F1 10610 0001:0004880E 10611 0001:00048829
 10613 0001:00048830 10614 0001:00048842 10616 0001:00048846 10617 0001:00048853
 10619 0001:0004885B 10620 0001:00048863 10622 0001:00048870 10623 0001:00048884
 10625 0001:00048894 10626 0001:00048896 10628 0001:0004889B 10629 0001:000488A0
 10630 0001:000488B7 10632 0001:000488CC 10633 0001:000488CE 10635 0001:000488D3
 10636 0001:000488E5 10638 0001:000488EB 10639 0001:000488ED 10641 0001:000488F2
 10642 0001:00048911 10643 0001:00048920 10645 0001:00048934 10647 0001:00048946
 10648 0001:00048960 10645 0001:00048961 10649 0001:00048964 10650 0001:00048972
 10653 0001:0004899C 10662 0001:000489A3 10663 0001:000489A7 10664 0001:000489B3
 10665 0001:000489C4 10667 0001:000489E1 10668 0001:000489FC 10670 0001:00048A03
 10671 0001:00048A0B 10673 0001:00048A13 10688 0001:00048A44 10689 0001:00048A69
 10690 0001:00048A77 10691 0001:00048A89 10693 0001:00048A98 10694 0001:00048AA2
 10695 0001:00048AA4 10697 0001:00048AA9 10699 0001:00048AB8 10700 0001:00048AC2
 10701 0001:00048ACB 10702 0001:00048ACD 10704 0001:00048AD2 10705 0001:00048AF3
 10706 0001:00048B0F 10707 0001:00048B1A 10708 0001:00048B1E 10709 0001:00048B20
 10711 0001:00048B2F 10712 0001:00048B3E 10714 0001:00048B53 10715 0001:00048B57
 10717 0001:00048B59 10709 0001:00048B5A 10718 0001:00048B5F 10719 0001:00048B65
 10720 0001:00048B67 10722 0001:00048B6C 10723 0001:00048B8D 10724 0001:00048BA9
 10726 0001:00048BCE 10727 0001:00048BD2 10729 0001:00048BEE 10730 0001:00048BF2
 10731 0001:00048C00 10732 0001:00048C0B 10734 0001:00048C1B 10735 0001:00048C27
 10737 0001:00048C43 10738 0001:00048C51 10745 0001:00048C85 10746 0001:00048C8F
 10747 0001:00048C98 10748 0001:00048CA3 10752 0001:00048CB1 10753 0001:00048CBB
 10754 0001:00048CC4 10755 0001:00048CCF 10759 0001:00048CDD 10760 0001:00048CE7
 10762 0001:00048CED 10763 0001:00048CF6 10764 0001:00048D01 10767 0001:00048D0E
 10768 0001:00048D16 10769 0001:00048D1F 10774 0001:00048D2E 10775 0001:00048D38
 10776 0001:00048D41 10777 0001:00048D4C 10781 0001:00048D59 10782 0001:00048D63
 10784 0001:00048D6C 10788 0001:00048D7B 10789 0001:00048D85 10791 0001:00048D8B
 10792 0001:00048D94 10793 0001:00048D9F 10796 0001:00048DA9 10797 0001:00048DB1
 10798 0001:00048DBA 10803 0001:00048DC5 10804 0001:00048DCF 10806 0001:00048DD5
 10807 0001:00048DDE 10808 0001:00048DE9 10811 0001:00048DF3 10812 0001:00048DFB
 10813 0001:00048E04 10818 0001:00048E0C 10819 0001:00048E0E 10822 0001:00048E10
 10823 0001:00048E12 10825 0001:00048E14 10732 0001:00048E15 10826 0001:00048E1E
 10828 0001:00048E2A 10829 0001:00048E3A 10831 0001:00048E3E 10832 0001:00048E48
 10833 0001:00048E4E 10834 0001:00048E54 10836 0001:00048E60 10837 0001:00048E68
 10839 0001:00048E6C 10841 0001:00048E70 10842 0001:00048E72 10879 0001:00048EC4
 10880 0001:00048ECB 10916 0001:00048ECC 10917 0001:00048ED2 10934 0001:00048ED4
 10935 0001:00048EDB 10937 0001:00048EE7 10938 0001:00048EF1 10940 0001:00048EF7
 10941 0001:00048EFA 10943 0001:00048EFC 10935 0001:00048EFD 10944 0001:00048F02
 10945 0001:00048F04 10955 0001:00048F08 10956 0001:00048F2C 10957 0001:00048F37
 10958 0001:00048F49 10959 0001:00048F61 10960 0001:00048F6A 10961 0001:00048F78
 10963 0001:00048F8C 10961 0001:00048F95 10965 0001:00048F98 10967 0001:00048FAB
 10968 0001:00048FBB 10969 0001:00048FDC 10970 0001:00048FDD 10965 0001:00048FDE
 10971 0001:00048FE3 10973 0001:00048FEB 10974 0001:00049004 10975 0001:00049006
 10977 0001:0004901A 10978 0001:00049021 10979 0001:00049028 11225 0001:00049050
 11226 0001:00049052 11227 0001:00049053 11228 0001:00049054 11229 0001:00049056
 11230 0001:00049059 11231 0001:0004905A 11232 0001:0004905F 11233 0001:00049060
 11234 0001:00049063 11235 0001:00049065 11236 0001:00049068 11237 0001:0004906A
 11241 0001:0004906C 11260 0001:0004909E 11261 0001:000490A1 11262 0001:000490A9
 11264 0001:000490B1 11266 0001:000490B3 11270 0001:000490B4 11292 0001:000490F5
 11293 0001:000490F8 11294 0001:00049100 11296 0001:00049108 11298 0001:0004910A
 11302 0001:0004910C 11303 0001:00049125 11304 0001:00049128 11305 0001:00049130
 11306 0001:00049138 11308 0001:00049140 11310 0001:00049142 11314 0001:00049144
 11316 0001:00049147 11318 0001:0004914A 11334 0001:00049150 11335 0001:0004918A
 11337 0001:000491A8 11338 0001:000491AE 11339 0001:000491BC 11340 0001:000491C7
 11343 0001:000491D4 11344 0001:000491DD 11341 0001:000491E8 11346 0001:000491EE
 11347 0001:000491F4 11348 0001:000491F9 11349 0001:000491FE 11350 0001:00049209
 11351 0001:00049214 11353 0001:00049221 11354 0001:0004922C 11355 0001:00049235
 11356 0001:00049247 11357 0001:0004925D 11359 0001:0004927A 11360 0001:0004928E
 11361 0001:00049294 11362 0001:000492A0 11364 0001:000492AC 11365 0001:000492B5
 11368 0001:000492BA 11369 0001:000492C3 11377 0001:000492C8 11379 0001:000492D9
 11380 0001:000492E3 11381 0001:000492EF 11383 0001:000492FB 11384 0001:0004930F
 11387 0001:00049314 11388 0001:00049328 11402 0001:0004932B 11351 0001:0004932C
 11403 0001:00049335 11404 0001:00049340 11405 0001:0004934B 11407 0001:0004935D
 11408 0001:00049368 11409 0001:00049371 11410 0001:00049383 11411 0001:00049394
 11412 0001:000493AA 11414 0001:000493C1 11415 0001:000493D5 11416 0001:000493DB
 11417 0001:000493E7 11418 0001:000493F2 11419 0001:000493FB 11430 0001:00049401
 11431 0001:0004940B 11432 0001:00049417 11433 0001:0004942B 11434 0001:0004943C
 11436 0001:00049445 11405 0001:00049446 11437 0001:0004944F 11438 0001:0004945A
 11440 0001:00049465 11442 0001:00049478 11443 0001:0004948E 11445 0001:00049499
 11446 0001:000494AD 11447 0001:000494B3 11448 0001:000494BD 11450 0001:000494C9
 11453 0001:000494D1 11456 0001:000494D9 11460 0001:000494E1 11465 0001:000494E7
 11466 0001:000494F1 11468 0001:000494FD 11469 0001:00049502 11470 0001:0004950E
 11471 0001:00049515 11472 0001:0004951C 11473 0001:00049523 11474 0001:0004952A
 11475 0001:0004952E 11476 0001:00049539 11477 0001:00049547 11478 0001:00049558
 11479 0001:0004956A 11481 0001:0004957D 11482 0001:0004958C 11485 0001:00049598
 11487 0001:000495A2 11488 0001:000495A9 11490 0001:000495BB 11493 0001:000495D4
 11494 0001:000495E6 11495 0001:000495FA 11496 0001:0004960E 11497 0001:00049623
 11499 0001:0004963B 11500 0001:00049643 11504 0001:0004964A 11506 0001:0004964E
 11509 0001:00049665 11511 0001:0004966D 11512 0001:0004967B 11511 0001:0004968A
 11513 0001:0004968F 11514 0001:00049696 11516 0001:000496A3 11518 0001:000496AA
 11519 0001:000496AD 11520 0001:000496B2 11522 0001:000496BC 11524 0001:000496EE
 11530 0001:0004973C 11531 0001:00049745 11532 0001:0004974F 11534 0001:0004975B
 11535 0001:00049767 11537 0001:0004977B 11538 0001:0004977D 11540 0001:0004977F
 11532 0001:00049780 11541 0001:00049785 11542 0001:00049787 11551 0001:00049790
 11552 0001:000497B5 11553 0001:000497C3 11554 0001:000497DE 11555 0001:000497EE
 11556 0001:000497F7 11558 0001:00049806 11560 0001:00049819 11558 0001:00049823
 11562 0001:00049826 11564 0001:00049839 11565 0001:00049861 11566 0001:00049862
 11562 0001:00049863 11567 0001:00049868 11569 0001:00049870 11570 0001:00049885
 11571 0001:0004988A 11572 0001:00049898 11574 0001:000498C9 11575 0001:000498D1
 11577 0001:000498E1 11580 0001:0004990C 11581 0001:00049910 11582 0001:0004991B
 11584 0001:00049920 11585 0001:00049924 11586 0001:0004992F 11588 0001:00049934
 11589 0001:00049938 11590 0001:00049943 11592 0001:00049948 11593 0001:0004994C
 11594 0001:00049957 11598 0001:0004995C 11599 0001:00049978 11600 0001:00049996
 11604 0001:000499BC 11605 0001:000499DE 11606 0001:000499F2 11607 0001:00049A10
 11608 0001:00049A2E 11609 0001:00049A4C 11611 0001:00049A68 11617 0001:00049A94
 11618 0001:00049AA9 11619 0001:00049AB2 11620 0001:00049AB8 11621 0001:00049ABE
 11622 0001:00049AC4 11628 0001:00049AE4 11629 0001:00049AEC 11637 0001:00049AF0
 11638 0001:00049B05 11639 0001:00049B0E 11640 0001:00049B11 11641 0001:00049B20
 11651 0001:00049B3C 11652 0001:00049B47 11653 0001:00049B4F 11654 0001:00049B5B
 11669 0001:00049B6C 11670 0001:00049B70 11671 0001:00049B80 11672 0001:00049B8A
 11675 0001:00049B90 11676 0001:00049BA5 11677 0001:00049BAE 11678 0001:00049BBD
 11679 0001:00049BC0 11690 0001:00049BDC 11691 0001:00049BE8 11692 0001:00049BF4
 11691 0001:00049C04 11693 0001:00049C09 11694 0001:00049C11 11695 0001:00049C1D
 11727 0001:00049C2C 11728 0001:00049C37 11729 0001:00049C3E 11730 0001:00049C46
 11731 0001:00049C52 11736 0001:00049C60 11737 0001:00049C75 11738 0001:00049C7E
 11739 0001:00049C8F 11742 0001:00049CAC 11743 0001:00049CB7 11744 0001:00049CBF
 11745 0001:00049CCB 11751 0001:00049CDC 11752 0001:00049CE3 11758 0001:00049CE4
 11759 0001:00049CF1 11765 0001:00049CF4 11766 0001:00049CFA 11777 0001:00049CFC
 11779 0001:00049D06 11780 0001:00049D0B 11786 0001:00049D0C 11787 0001:00049D11
 11789 0001:00049D1A 11790 0001:00049D20 11791 0001:00049D42 11792 0001:00049D4F
 11787 0001:00049D50 11793 0001:00049D55 11794 0001:00049D5C 11795 0001:00049D61
 11796 0001:00049D6A 11799 0001:00049D70 11800 0001:00049D82 11801 0001:00049D8B
 11802 0001:00049D98 11803 0001:00049D9F 11804 0001:00049DA4 11810 0001:00049DC0
 11811 0001:00049DCC 11813 0001:00049DD5 11814 0001:00049DDB 11815 0001:00049DFD
 11816 0001:00049E07 11811 0001:00049E08 11817 0001:00049E0D 11818 0001:00049E18
 11819 0001:00049E24 11858 0001:00049E34 11859 0001:00049E38 11861 0001:00049E42
 11862 0001:00049E47 11863 0001:00049E52 11869 0001:00049E54 11870 0001:00049E57
 11871 0001:00049E5B 11873 0001:00049E65 11874 0001:00049E6A 11875 0001:00049E7C
 11880 0001:00049E88 11881 0001:00049E8D 11883 0001:00049E90 11884 0001:00049E96
 11889 0001:00049E98 11890 0001:00049E9B 11891 0001:00049E9F 11893 0001:00049EA9
 11894 0001:00049EAE 11895 0001:00049EBD 11900 0001:00049EC4 11901 0001:00049EC8
 11902 0001:00049ECC 11904 0001:00049ED8 11905 0001:00049EDF 11906 0001:00049EEB
 11936 0001:00049EF0 11937 0001:00049EF4 11938 0001:00049EF8 11939 0001:00049EFE
 11940 0001:00049F05 11941 0001:00049F0F 11942 0001:00049F31 11943 0001:00049F3B
 11944 0001:00049F50 11963 0001:00049F54 11964 0001:00049F5B 11965 0001:00049F60
 11966 0001:00049F6E 11967 0001:00049F7A 11968 0001:00049F7D 11969 0001:00049F86
 11970 0001:00049F88 11971 0001:00049F8A 11972 0001:00049F96 11996 0001:00049F9C
 11997 0001:00049FBC 11998 0001:00049FE5 12000 0001:00049FEB 12002 0001:00049FF2
 12003 0001:00049FFA 12005 0001:00049FFF 12007 0001:0004A004 12008 0001:0004A00F
 12010 0001:0004A016 12011 0001:0004A020 12014 0001:0004A022 12015 0001:0004A02C
 12016 0001:0004A032 12017 0001:0004A03B 12016 0001:0004A047 12019 0001:0004A04C
 12021 0001:0004A057 12022 0001:0004A05D 12023 0001:0004A063 12057 0001:0004A088
 12058 0001:0004A0A4 12059 0001:0004A0A8 12061 0001:0004A0B2 12062 0001:0004A0B7
 12063 0001:0004A0BB 12064 0001:0004A0CA 12065 0001:0004A0F1 12072 0001:0004A114
 12073 0001:0004A12D 12074 0001:0004A131 12076 0001:0004A13B 12077 0001:0004A140
 12078 0001:0004A144 12079 0001:0004A158 12080 0001:0004A17F 12087 0001:0004A1A4
 12088 0001:0004A1BD 12089 0001:0004A1C1 12091 0001:0004A1CB 12092 0001:0004A1D0
 12093 0001:0004A1D4 12094 0001:0004A1ED 12095 0001:0004A214 12101 0001:0004A238
 12102 0001:0004A254 12103 0001:0004A258 12105 0001:0004A262 12106 0001:0004A267
 12107 0001:0004A26B 12108 0001:0004A27A 12109 0001:0004A2A1 12159 0001:0004A2C4
 12160 0001:0004A30D 12161 0001:0004A31C 12162 0001:0004A320 12164 0001:0004A32A
 12165 0001:0004A334 12166 0001:0004A342 12167 0001:0004A348 12168 0001:0004A369
 12169 0001:0004A38B 12171 0001:0004A3B9 12174 0001:0004A3CA 12175 0001:0004A3CF
 12176 0001:0004A3D4 12178 0001:0004A3DB 12180 0001:0004A3E1 12181 0001:0004A3E7
 12182 0001:0004A3EE 12184 0001:0004A3F7 12186 0001:0004A3FD 12187 0001:0004A40C
 12188 0001:0004A41A 12189 0001:0004A429 12190 0001:0004A43B 12191 0001:0004A449
 12193 0001:0004A457 12195 0001:0004A46D 12196 0001:0004A47A 12197 0001:0004A49B
 12200 0001:0004A4B0 12201 0001:0004A4BD 12216 0001:0004A4D8 12220 0001:0004A4F3
 12191 0001:0004A4F4 12221 0001:0004A4FB 12237 0001:0004A52A 12239 0001:0004A532
 12240 0001:0004A53A 12242 0001:0004A573 12246 0001:0004A59E 12248 0001:0004A5A8
 12250 0001:0004A5B7 12252 0001:0004A5C1 12260 0001:0004A5D7 12246 0001:0004A5D8
 12261 0001:0004A5DB 12264 0001:0004A601 12265 0001:0004A60D 12264 0001:0004A61E
 12266 0001:0004A623 12268 0001:0004A633 12275 0001:0004A690 12276 0001:0004A697
 12278 0001:0004A6C6

Line numbers for uPSR_dll(uPSR_dll.pas) segment .text

    46 0001:0004A6B8    47 0001:0004A6C4    52 0001:0004A6C8    53 0001:0004A6CF
    54 0001:0004A6DD    56 0001:0004A6E1    57 0001:0004A6ED    59 0001:0004A6FB
    60 0001:0004A6FD    66 0001:0004A704    67 0001:0004A70E    68 0001:0004A712
    70 0001:0004A715    71 0001:0004A717    75 0001:0004A718    79 0001:0004A71B
    81 0001:0004A724    82 0001:0004A731    94 0001:0004A734    95 0001:0004A75C
    96 0001:0004A76A    97 0001:0004A77C    98 0001:0004A79D    99 0001:0004A7B9
   100 0001:0004A7C3   101 0001:0004A7CA   103 0001:0004A7CC   104 0001:0004A7DE
   106 0001:0004A7E2   109 0001:0004A7E8   110 0001:0004A7F2   111 0001:0004A7F4
   116 0001:0004A7F9   118 0001:0004A809   120 0001:0004A80D   121 0001:0004A817
   122 0001:0004A819   124 0001:0004A81E   125 0001:0004A830   126 0001:0004A832
   127 0001:0004A83D   128 0001:0004A840   130 0001:0004A84F   132 0001:0004A860
   134 0001:0004A863   138 0001:0004A86B   140 0001:0004A8A3   142 0001:0004A8A7
   143 0001:0004A8B1   144 0001:0004A8B3   146 0001:0004A8B5   147 0001:0004A8B7
   159 0001:0004A8F8   160 0001:0004A91D   162 0001:0004A926   163 0001:0004A928
   165 0001:0004A92D   167 0001:0004A936   169 0001:0004A945   170 0001:0004A947
   173 0001:0004A94C   174 0001:0004A95A   175 0001:0004A976   176 0001:0004A992
   178 0001:0004A9A3   179 0001:0004A9A5   181 0001:0004A9AA   182 0001:0004A9B3
   183 0001:0004A9C5   184 0001:0004A9D6   185 0001:0004A9DF   186 0001:0004A9EE
   188 0001:0004AA02   186 0001:0004AA0C   190 0001:0004AA0F   192 0001:0004AA22
   193 0001:0004AA4A   194 0001:0004AA4B   190 0001:0004AA4C   195 0001:0004AA51
   197 0001:0004AA59   198 0001:0004AA6E   199 0001:0004AA73   200 0001:0004AA81
   202 0001:0004AA9E   205 0001:0004AABA   206 0001:0004AAC2   208 0001:0004AAD2
   209 0001:0004AAD4   213 0001:0004AB08   214 0001:0004AB0F   220 0001:0004AB10
   221 0001:0004AB2F   222 0001:0004AB33   223 0001:0004AB3E   224 0001:0004AB5A
   225 0001:0004AB76   227 0001:0004AB82   229 0001:0004AB84   230 0001:0004AB88
   231 0001:0004AB8F   233 0001:0004AB93   234 0001:0004AB9A   236 0001:0004ABA6
   240 0001:0004ABD8   241 0001:0004ABDE   242 0001:0004ABF2   243 0001:0004ABF4
   251 0001:0004ABFC   252 0001:0004AC1A   253 0001:0004AC28   255 0001:0004AC3C
   256 0001:0004AC48   257 0001:0004AC59   258 0001:0004AC65   259 0001:0004AC70
   260 0001:0004AC82   262 0001:0004ACB0   264 0001:0004ACB5   253 0001:0004ACB8
   265 0001:0004ACC2   266 0001:0004ACCC   268 0001:0004ACD3   269 0001:0004ACE4
   270 0001:0004ACE8   275 0001:0004ACF9   277 0001:0004AD02   278 0001:0004AD0B
   280 0001:0004AD18   281 0001:0004AD1A   282 0001:0004AD1C   286 0001:0004AD60
   287 0001:0004AD67   290 0001:0004AD68   291 0001:0004AD6B   292 0001:0004AD6F
   293 0001:0004AD82   294 0001:0004AD97   295 0001:0004ADAC   297 0001:0004AE16

Line numbers for sample3(sample3.dpr) segment .text

    15 0001:0004ADE8    16 0001:0004ADEE    17 0001:0004ADFC    26 0001:0004AE04
    28 0001:0004AE09    29 0001:0004AE0B    40 0001:0004AE20    41 0001:0004AE37
    42 0001:0004AE45    43 0001:0004AE4C    44 0001:0004AE59    46 0001:0004AE60
    49 0001:0004AE62    50 0001:0004AE6C    52 0001:0004AE73    54 0001:0004AE81
    57 0001:0004AE88    60 0001:0004AE96    62 0001:0004AE9D    65 0001:0004AE9F
    66 0001:0004AEA6    67 0001:0004AEAD

Line numbers for sample3(sample3.dpr) segment .itext

    75 0002:00000300    76 0002:00000310    77 0002:0000031A

Bound resource files

sample3.drf


Program entry point at 0002:00000300
